(dp1
S'output'
p2
S"<type 'exceptions.AttributeError'> 'str' object has no attribute 'application'"
p3
sS'layer'
p4
S'/home/pratyush/web2py/applications/BuySell/models/menu.py'
p5
sS'code'
p6
S'# -*- coding: utf-8 -*-\n# this file is released under public domain and you can use without limitations\n\n#########################################################################\n## Customize your APP title, subtitle and menus here\n#########################################################################\n\nresponse.logo = A(B(\'Buy/Sell\'),XML(\'&trade;&nbsp;\'),\n                  _class="brand",_href="")\nresponse.title = \' \'.join(\n    word.capitalize() for word in request.application.split(\'_\'))\nresponse.subtitle = T(\'customize me!\')\n\n## read more at http://dev.w3.org/html5/markup/meta.name.html\nresponse.meta.author = \'Your Name <you@example.com>\'\nresponse.meta.description = \'a cool new app\'\nresponse.meta.keywords = \'web2py, python, framework\'\nresponse.meta.generator = \'Web2py Web Framework\'\n\n## your http://google.com/analytics id\nresponse.google_analytics_id = None\n\n#########################################################################\n## this is the main application menu add/remove items as required\n#########################################################################\n\nresponse.menu = [\n    (T(\'Home\'), False, URL(\'default\', \'index\'), [])\n]\n\nDEVELOPMENT_MENU = True\n\n#########################################################################\n## provide shortcuts for development. remove in production\n#########################################################################\n\ndef _():\n    # shortcuts\n    app = request.application\n    ctr = request.controller\n    # useful links to internal and external resources\n    if auth.is_logged_in():\n        response.menu += [\n        (SPAN(\'Navigate\', _class=\'highlighted\'), False, \'\', [\n        (T(\'List of items\'), False, URL(\'BuySell\', \'default\', \'list_items\')),\n        (T(\'Sell\'), False, \'\', [\n        (T(\'Add Item\'), False,\n         URL(\n         \'BuySell\', \'default\', \'add_item\')),\n        (T(\'Listed Items\'), False,\n         URL(\n         \'BuySell\', \'default\', \'listed_items\')),\n        (T(\'Items Sold\'), False,\n         URL(\n         \'BuySell\', \'default\', \'item_sold\')),\n        ]),\n            (\'Buy\', False, \'\', [\n             (T(\'Make a wish\'), False,\n              URL(\'BuySell\', \'default\', \'add_wish\')),\n             (T(\'Wish List\'), False,\n              URL(\'BuySell\', \'default\', \'wish_list\')),\n             (T(\'Fulfilled Wishes\'), False, URL(\'BuySell\', \'default\', \'fulfilled\')),\n             (T(\'Items Bought\'), False,\n              URL(\'BuySell\', \'default\', \'item_bought\')),\n             ]),\n            (T(\'All Categories\'), False, \'http://www.web2py.com/book\', [\n             (T(\'Arts and Crafts\'), False,\n              URL(\'BuySell\', \'default\', \'categories\',args = \'1\')),\n             (T(\'Clothing\'), False,\n              URL(\'BuySell\', \'default\', \'categories\',\'2\')),\n             (T(\'Footwear\'), False,\n              URL(\'BuySell\', \'default\', \'categories\',\'3\')),\n             (T(\'Gifts\'), False,\n              URL(\'BuySell\', \'default\', \'categories\',\'4\'))\n             ]),\n            (T(\'Community\'), False, None, [\n             (T(\'Community\'), False,\n              URL(\'BuySell\', \'default\', \'form\')),\n                        (T(\'Twitter\'), False, \'http://twitter.com/buy_sell\'),\n                        (T(\'Live Chat\'), False,\n                         \'http://webchat.freenode.net/?channels=buysell\'),\n                        ]),\n                (T(\'Help\'), False, None, [\n                        (\'FAQ\', False,\n                         URL(\'BuySell\', \'default\', \'sell\')),\n                        #(T(\'Report\'), False,\n                        # \'http://web2py.com/plugins\'),\n                        #(T(\'Others\'),\n                        # False, \'http://web2py.com/layouts\'),\n                        ])\n                ]\n         )]\nif DEVELOPMENT_MENU: _()\n'
p7
sS'snapshot'
p8
(dp9
S'exception'
p10
(dp11
S'__hash__'
p12
S"<method-wrapper '__hash__' of exceptions.AttributeError object>"
p13
sS'__setattr__'
p14
S"<method-wrapper '__setattr__' of exceptions.AttributeError object>"
p15
sS'__reduce_ex__'
p16
S'<built-in method __reduce_ex__ of exceptions.AttributeError object>'
p17
sS'__getslice__'
p18
S"<method-wrapper '__getslice__' of exceptions.AttributeError object>"
p19
sS'__getitem__'
p20
S"<method-wrapper '__getitem__' of exceptions.AttributeError object>"
p21
sS'__setstate__'
p22
S'<built-in method __setstate__ of exceptions.AttributeError object>'
p23
sS'__reduce__'
p24
S'<built-in method __reduce__ of exceptions.AttributeError object>'
p25
sS'__str__'
p26
S"<method-wrapper '__str__' of exceptions.AttributeError object>"
p27
sS'__format__'
p28
S'<built-in method __format__ of exceptions.AttributeError object>'
p29
sS'__getattribute__'
p30
S"<method-wrapper '__getattribute__' of exceptions.AttributeError object>"
p31
sS'__class__'
p32
S"<type 'exceptions.AttributeError'>"
p33
sS'__unicode__'
p34
S'<built-in method __unicode__ of exceptions.AttributeError object>'
p35
sS'__delattr__'
p36
S"<method-wrapper '__delattr__' of exceptions.AttributeError object>"
p37
sS'__subclasshook__'
p38
S'<built-in method __subclasshook__ of type object>'
p39
sS'__repr__'
p40
S"<method-wrapper '__repr__' of exceptions.AttributeError object>"
p41
sS'args'
p42
S'("\'str\' object has no attribute \'application\'",)'
p43
sS'__dict__'
p44
S'{}'
p45
sS'__sizeof__'
p46
S'<built-in method __sizeof__ of exceptions.AttributeError object>'
p47
sS'__doc__'
p48
S"'Attribute not found.'"
p49
sS'__init__'
p50
S"<method-wrapper '__init__' of exceptions.AttributeError object>"
p51
sS'__new__'
p52
S'<built-in method __new__ of type object>'
p53
ssS'evalue'
p54
S"'str' object has no attribute 'application'"
p55
sS'request'
p56
ccopy_reg
_reconstructor
p57
(cgluon.html
BEAUTIFY
p58
c__builtin__
object
p59
NtRp60
(dp61
S'attributes'
p62
(dp63
sS'components'
p64
(lp65
g57
(cgluon.html
TABLE
p66
g59
NtRp67
(dp68
g62
(dp69
S'level'
p70
I5
ssS'parent'
p71
Nsg64
(lp72
g57
(cgluon.html
TR
p73
g59
NtRp74
(dp75
g62
(dp76
sg71
g67
sg64
(lp77
g57
(cgluon.html
TD
p78
g59
NtRp79
(dp80
g62
(dp81
S'_style'
p82
S'font-weight:bold;vertical-align:top'
p83
ssg71
g74
sg64
(lp84
S'ajax'
p85
asbag57
(g78
g59
NtRp86
(dp87
g62
(dp88
S'_valign'
p89
S'top'
p90
ssg71
g74
sg64
(lp91
S':'
asbag57
(g78
g59
NtRp92
(dp93
g62
(dp94
sg71
g74
sg64
(lp95
g57
(g58
g59
NtRp96
(dp97
g62
(dp98
g70
I5
ssg71
g92
sg64
(lp99
S'False'
p100
asbasbasbag57
(g73
g59
NtRp101
(dp102
g62
(dp103
sg71
g67
sg64
(lp104
g57
(g78
g59
NtRp105
(dp106
g62
(dp107
g82
g83
ssg71
g101
sg64
(lp108
S'application'
p109
asbag57
(g78
g59
NtRp110
(dp111
g62
(dp112
g89
g90
ssg71
g101
sg64
(lp113
S':'
asbag57
(g78
g59
NtRp114
(dp115
g62
(dp116
sg71
g101
sg64
(lp117
g57
(g58
g59
NtRp118
(dp119
g62
(dp120
g70
I5
ssg71
g114
sg64
(lp121
S'BuySell'
p122
asbasbasbag57
(g73
g59
NtRp123
(dp124
g62
(dp125
sg71
g67
sg64
(lp126
g57
(g78
g59
NtRp127
(dp128
g62
(dp129
g82
g83
ssg71
g123
sg64
(lp130
g42
asbag57
(g78
g59
NtRp131
(dp132
g62
(dp133
g89
g90
ssg71
g123
sg64
(lp134
S':'
asbag57
(g78
g59
NtRp135
(dp136
g62
(dp137
sg71
g123
sg64
(lp138
g57
(g58
g59
NtRp139
(dp140
g62
(dp141
g70
I5
ssg71
g135
sg64
(lp142
g57
(g66
g59
NtRp143
(dp144
g62
(dp145
g70
I4
ssg71
Nsg64
(lp146
g57
(g73
g59
NtRp147
(dp148
g62
(dp149
sg71
g143
sg64
(lp150
g57
(g78
g59
NtRp151
(dp152
g62
(dp153
sg71
g147
sg64
(lp154
g57
(g58
g59
NtRp155
(dp156
g62
(dp157
g70
I4
ssg71
g151
sg64
(lp158
S'1'
asbasbasbasbasbasbasbag57
(g73
g59
NtRp159
(dp160
g62
(dp161
sg71
g67
sg64
(lp162
g57
(g78
g59
NtRp163
(dp164
g62
(dp165
g82
g83
ssg71
g159
sg64
(lp166
S'body'
p167
asbag57
(g78
g59
NtRp168
(dp169
g62
(dp170
g89
g90
ssg71
g159
sg64
(lp171
S':'
asbag57
(g78
g59
NtRp172
(dp173
g62
(dp174
sg71
g159
sg64
(lp175
g57
(g58
g59
NtRp176
(dp177
g62
(dp178
g70
I5
ssg71
g172
sg64
(lp179
S'<cStringIO.StringO object at 0xb746d20>'
p180
asbasbasbag57
(g73
g59
NtRp181
(dp182
g62
(dp183
sg71
g67
sg64
(lp184
g57
(g78
g59
NtRp185
(dp186
g62
(dp187
g82
g83
ssg71
g181
sg64
(lp188
S'cid'
p189
asbag57
(g78
g59
NtRp190
(dp191
g62
(dp192
g89
g90
ssg71
g181
sg64
(lp193
S':'
asbag57
(g78
g59
NtRp194
(dp195
g62
(dp196
sg71
g181
sg64
(lp197
g57
(g58
g59
NtRp198
(dp199
g62
(dp200
g70
I5
ssg71
g194
sg64
(lp201
S'None'
p202
asbasbasbag57
(g73
g59
NtRp203
(dp204
g62
(dp205
sg71
g67
sg64
(lp206
g57
(g78
g59
NtRp207
(dp208
g62
(dp209
g82
g83
ssg71
g203
sg64
(lp210
S'client'
p211
asbag57
(g78
g59
NtRp212
(dp213
g62
(dp214
g89
g90
ssg71
g203
sg64
(lp215
S':'
asbag57
(g78
g59
NtRp216
(dp217
g62
(dp218
sg71
g203
sg64
(lp219
g57
(g58
g59
NtRp220
(dp221
g62
(dp222
g70
I5
ssg71
g216
sg64
(lp223
S'127.0.0.1'
p224
asbasbasbag57
(g73
g59
NtRp225
(dp226
g62
(dp227
sg71
g67
sg64
(lp228
g57
(g78
g59
NtRp229
(dp230
g62
(dp231
g82
g83
ssg71
g225
sg64
(lp232
S'controller'
p233
asbag57
(g78
g59
NtRp234
(dp235
g62
(dp236
g89
g90
ssg71
g225
sg64
(lp237
S':'
asbag57
(g78
g59
NtRp238
(dp239
g62
(dp240
sg71
g225
sg64
(lp241
g57
(g58
g59
NtRp242
(dp243
g62
(dp244
g70
I5
ssg71
g238
sg64
(lp245
S'default'
p246
asbasbasbag57
(g73
g59
NtRp247
(dp248
g62
(dp249
sg71
g67
sg64
(lp250
g57
(g78
g59
NtRp251
(dp252
g62
(dp253
g82
g83
ssg71
g247
sg64
(lp254
S'cookies'
p255
asbag57
(g78
g59
NtRp256
(dp257
g62
(dp258
g89
g90
ssg71
g247
sg64
(lp259
S':'
asbag57
(g78
g59
NtRp260
(dp261
g62
(dp262
sg71
g247
sg64
(lp263
g57
(g58
g59
NtRp264
(dp265
g62
(dp266
g70
I5
ssg71
g260
sg64
(lp267
g57
(g66
g59
NtRp268
(dp269
g62
(dp270
g70
I4
ssg71
Nsg64
(lp271
g57
(g73
g59
NtRp272
(dp273
g62
(dp274
sg71
g268
sg64
(lp275
g57
(g78
g59
NtRp276
(dp277
g62
(dp278
g82
g83
ssg71
g272
sg64
(lp279
S'registered'
p280
asbag57
(g78
g59
NtRp281
(dp282
g62
(dp283
g89
g90
ssg71
g272
sg64
(lp284
S':'
asbag57
(g78
g59
NtRp285
(dp286
g62
(dp287
sg71
g272
sg64
(lp288
g57
(g58
g59
NtRp289
(dp290
g62
(dp291
g70
I4
ssg71
g285
sg64
(lp292
S'yes'
p293
ag57
(g66
g59
NtRp294
(dp295
g62
(dp296
g70
I3
ssg71
Nsg64
(lp297
g57
(g73
g59
NtRp298
(dp299
g62
(dp300
sg71
g294
sg64
(lp301
g57
(g78
g59
NtRp302
(dp303
g62
(dp304
g82
g83
ssg71
g298
sg64
(lp305
S'comment'
p306
asbag57
(g78
g59
NtRp307
(dp308
g62
(dp309
g89
g90
ssg71
g298
sg64
(lp310
S':'
asbag57
(g78
g59
NtRp311
(dp312
g62
(dp313
sg71
g298
sg64
(lp314
g57
(g58
g59
NtRp315
(dp316
g62
(dp317
g70
I3
ssg71
g311
sg64
(lp318
S''
asbasbasbag57
(g73
g59
NtRp319
(dp320
g62
(dp321
sg71
g294
sg64
(lp322
g57
(g78
g59
NtRp323
(dp324
g62
(dp325
g82
g83
ssg71
g319
sg64
(lp326
S'domain'
p327
asbag57
(g78
g59
NtRp328
(dp329
g62
(dp330
g89
g90
ssg71
g319
sg64
(lp331
S':'
asbag57
(g78
g59
NtRp332
(dp333
g62
(dp334
sg71
g319
sg64
(lp335
g57
(g58
g59
NtRp336
(dp337
g62
(dp338
g70
I3
ssg71
g332
sg64
(lp339
S''
asbasbasbag57
(g73
g59
NtRp340
(dp341
g62
(dp342
sg71
g294
sg64
(lp343
g57
(g78
g59
NtRp344
(dp345
g62
(dp346
g82
g83
ssg71
g340
sg64
(lp347
S'expires'
p348
asbag57
(g78
g59
NtRp349
(dp350
g62
(dp351
g89
g90
ssg71
g340
sg64
(lp352
S':'
asbag57
(g78
g59
NtRp353
(dp354
g62
(dp355
sg71
g340
sg64
(lp356
g57
(g58
g59
NtRp357
(dp358
g62
(dp359
g70
I3
ssg71
g353
sg64
(lp360
S''
asbasbasbag57
(g73
g59
NtRp361
(dp362
g62
(dp363
sg71
g294
sg64
(lp364
g57
(g78
g59
NtRp365
(dp366
g62
(dp367
g82
g83
ssg71
g361
sg64
(lp368
S'httponly'
p369
asbag57
(g78
g59
NtRp370
(dp371
g62
(dp372
g89
g90
ssg71
g361
sg64
(lp373
S':'
asbag57
(g78
g59
NtRp374
(dp375
g62
(dp376
sg71
g361
sg64
(lp377
g57
(g58
g59
NtRp378
(dp379
g62
(dp380
g70
I3
ssg71
g374
sg64
(lp381
S''
asbasbasbag57
(g73
g59
NtRp382
(dp383
g62
(dp384
sg71
g294
sg64
(lp385
g57
(g78
g59
NtRp386
(dp387
g62
(dp388
g82
g83
ssg71
g382
sg64
(lp389
S'max-age'
p390
asbag57
(g78
g59
NtRp391
(dp392
g62
(dp393
g89
g90
ssg71
g382
sg64
(lp394
S':'
asbag57
(g78
g59
NtRp395
(dp396
g62
(dp397
sg71
g382
sg64
(lp398
g57
(g58
g59
NtRp399
(dp400
g62
(dp401
g70
I3
ssg71
g395
sg64
(lp402
S''
asbasbasbag57
(g73
g59
NtRp403
(dp404
g62
(dp405
sg71
g294
sg64
(lp406
g57
(g78
g59
NtRp407
(dp408
g62
(dp409
g82
g83
ssg71
g403
sg64
(lp410
S'path'
p411
asbag57
(g78
g59
NtRp412
(dp413
g62
(dp414
g89
g90
ssg71
g403
sg64
(lp415
S':'
asbag57
(g78
g59
NtRp416
(dp417
g62
(dp418
sg71
g403
sg64
(lp419
g57
(g58
g59
NtRp420
(dp421
g62
(dp422
g70
I3
ssg71
g416
sg64
(lp423
S''
asbasbasbag57
(g73
g59
NtRp424
(dp425
g62
(dp426
sg71
g294
sg64
(lp427
g57
(g78
g59
NtRp428
(dp429
g62
(dp430
g82
g83
ssg71
g424
sg64
(lp431
S'secure'
p432
asbag57
(g78
g59
NtRp433
(dp434
g62
(dp435
g89
g90
ssg71
g424
sg64
(lp436
S':'
asbag57
(g78
g59
NtRp437
(dp438
g62
(dp439
sg71
g424
sg64
(lp440
g57
(g58
g59
NtRp441
(dp442
g62
(dp443
g70
I3
ssg71
g437
sg64
(lp444
S''
asbasbasbag57
(g73
g59
NtRp445
(dp446
g62
(dp447
sg71
g294
sg64
(lp448
g57
(g78
g59
NtRp449
(dp450
g62
(dp451
g82
g83
ssg71
g445
sg64
(lp452
S'version'
p453
asbag57
(g78
g59
NtRp454
(dp455
g62
(dp456
g89
g90
ssg71
g445
sg64
(lp457
S':'
asbag57
(g78
g59
NtRp458
(dp459
g62
(dp460
sg71
g445
sg64
(lp461
g57
(g58
g59
NtRp462
(dp463
g62
(dp464
g70
I3
ssg71
g458
sg64
(lp465
S''
asbasbasbasbasbasbasbag57
(g73
g59
NtRp466
(dp467
g62
(dp468
sg71
g268
sg64
(lp469
g57
(g78
g59
NtRp470
(dp471
g62
(dp472
g82
g83
ssg71
g466
sg64
(lp473
S'session_id_admin'
p474
asbag57
(g78
g59
NtRp475
(dp476
g62
(dp477
g89
g90
ssg71
g466
sg64
(lp478
S':'
asbag57
(g78
g59
NtRp479
(dp480
g62
(dp481
sg71
g466
sg64
(lp482
g57
(g58
g59
NtRp483
(dp484
g62
(dp485
g70
I4
ssg71
g479
sg64
(lp486
S'127.0.0.1-5c3e6318-3a14-4ff1-97a6-1063e44c4cd9'
p487
ag57
(g66
g59
NtRp488
(dp489
g62
(dp490
g70
I3
ssg71
Nsg64
(lp491
g57
(g73
g59
NtRp492
(dp493
g62
(dp494
sg71
g488
sg64
(lp495
g57
(g78
g59
NtRp496
(dp497
g62
(dp498
g82
g83
ssg71
g492
sg64
(lp499
g306
asbag57
(g78
g59
NtRp500
(dp501
g62
(dp502
g89
g90
ssg71
g492
sg64
(lp503
S':'
asbag57
(g78
g59
NtRp504
(dp505
g62
(dp506
sg71
g492
sg64
(lp507
g57
(g58
g59
NtRp508
(dp509
g62
(dp510
g70
I3
ssg71
g504
sg64
(lp511
S''
asbasbasbag57
(g73
g59
NtRp512
(dp513
g62
(dp514
sg71
g488
sg64
(lp515
g57
(g78
g59
NtRp516
(dp517
g62
(dp518
g82
g83
ssg71
g512
sg64
(lp519
g327
asbag57
(g78
g59
NtRp520
(dp521
g62
(dp522
g89
g90
ssg71
g512
sg64
(lp523
S':'
asbag57
(g78
g59
NtRp524
(dp525
g62
(dp526
sg71
g512
sg64
(lp527
g57
(g58
g59
NtRp528
(dp529
g62
(dp530
g70
I3
ssg71
g524
sg64
(lp531
S''
asbasbasbag57
(g73
g59
NtRp532
(dp533
g62
(dp534
sg71
g488
sg64
(lp535
g57
(g78
g59
NtRp536
(dp537
g62
(dp538
g82
g83
ssg71
g532
sg64
(lp539
g348
asbag57
(g78
g59
NtRp540
(dp541
g62
(dp542
g89
g90
ssg71
g532
sg64
(lp543
S':'
asbag57
(g78
g59
NtRp544
(dp545
g62
(dp546
sg71
g532
sg64
(lp547
g57
(g58
g59
NtRp548
(dp549
g62
(dp550
g70
I3
ssg71
g544
sg64
(lp551
S''
asbasbasbag57
(g73
g59
NtRp552
(dp553
g62
(dp554
sg71
g488
sg64
(lp555
g57
(g78
g59
NtRp556
(dp557
g62
(dp558
g82
g83
ssg71
g552
sg64
(lp559
g369
asbag57
(g78
g59
NtRp560
(dp561
g62
(dp562
g89
g90
ssg71
g552
sg64
(lp563
S':'
asbag57
(g78
g59
NtRp564
(dp565
g62
(dp566
sg71
g552
sg64
(lp567
g57
(g58
g59
NtRp568
(dp569
g62
(dp570
g70
I3
ssg71
g564
sg64
(lp571
S''
asbasbasbag57
(g73
g59
NtRp572
(dp573
g62
(dp574
sg71
g488
sg64
(lp575
g57
(g78
g59
NtRp576
(dp577
g62
(dp578
g82
g83
ssg71
g572
sg64
(lp579
g390
asbag57
(g78
g59
NtRp580
(dp581
g62
(dp582
g89
g90
ssg71
g572
sg64
(lp583
S':'
asbag57
(g78
g59
NtRp584
(dp585
g62
(dp586
sg71
g572
sg64
(lp587
g57
(g58
g59
NtRp588
(dp589
g62
(dp590
g70
I3
ssg71
g584
sg64
(lp591
S''
asbasbasbag57
(g73
g59
NtRp592
(dp593
g62
(dp594
sg71
g488
sg64
(lp595
g57
(g78
g59
NtRp596
(dp597
g62
(dp598
g82
g83
ssg71
g592
sg64
(lp599
g411
asbag57
(g78
g59
NtRp600
(dp601
g62
(dp602
g89
g90
ssg71
g592
sg64
(lp603
S':'
asbag57
(g78
g59
NtRp604
(dp605
g62
(dp606
sg71
g592
sg64
(lp607
g57
(g58
g59
NtRp608
(dp609
g62
(dp610
g70
I3
ssg71
g604
sg64
(lp611
S''
asbasbasbag57
(g73
g59
NtRp612
(dp613
g62
(dp614
sg71
g488
sg64
(lp615
g57
(g78
g59
NtRp616
(dp617
g62
(dp618
g82
g83
ssg71
g612
sg64
(lp619
g432
asbag57
(g78
g59
NtRp620
(dp621
g62
(dp622
g89
g90
ssg71
g612
sg64
(lp623
S':'
asbag57
(g78
g59
NtRp624
(dp625
g62
(dp626
sg71
g612
sg64
(lp627
g57
(g58
g59
NtRp628
(dp629
g62
(dp630
g70
I3
ssg71
g624
sg64
(lp631
S''
asbasbasbag57
(g73
g59
NtRp632
(dp633
g62
(dp634
sg71
g488
sg64
(lp635
g57
(g78
g59
NtRp636
(dp637
g62
(dp638
g82
g83
ssg71
g632
sg64
(lp639
g453
asbag57
(g78
g59
NtRp640
(dp641
g62
(dp642
g89
g90
ssg71
g632
sg64
(lp643
S':'
asbag57
(g78
g59
NtRp644
(dp645
g62
(dp646
sg71
g632
sg64
(lp647
g57
(g58
g59
NtRp648
(dp649
g62
(dp650
g70
I3
ssg71
g644
sg64
(lp651
S''
asbasbasbasbasbasbasbag57
(g73
g59
NtRp652
(dp653
g62
(dp654
sg71
g268
sg64
(lp655
g57
(g78
g59
NtRp656
(dp657
g62
(dp658
g82
g83
ssg71
g652
sg64
(lp659
S'session_id_buysell'
p660
asbag57
(g78
g59
NtRp661
(dp662
g62
(dp663
g89
g90
ssg71
g652
sg64
(lp664
S':'
asbag57
(g78
g59
NtRp665
(dp666
g62
(dp667
sg71
g652
sg64
(lp668
g57
(g58
g59
NtRp669
(dp670
g62
(dp671
g70
I4
ssg71
g665
sg64
(lp672
S'127.0.0.1-d5a07803-4f5c-44c8-b05d-2876d30ca822'
p673
ag57
(g66
g59
NtRp674
(dp675
g62
(dp676
g70
I3
ssg71
Nsg64
(lp677
g57
(g73
g59
NtRp678
(dp679
g62
(dp680
sg71
g674
sg64
(lp681
g57
(g78
g59
NtRp682
(dp683
g62
(dp684
g82
g83
ssg71
g678
sg64
(lp685
g306
asbag57
(g78
g59
NtRp686
(dp687
g62
(dp688
g89
g90
ssg71
g678
sg64
(lp689
S':'
asbag57
(g78
g59
NtRp690
(dp691
g62
(dp692
sg71
g678
sg64
(lp693
g57
(g58
g59
NtRp694
(dp695
g62
(dp696
g70
I3
ssg71
g690
sg64
(lp697
S''
asbasbasbag57
(g73
g59
NtRp698
(dp699
g62
(dp700
sg71
g674
sg64
(lp701
g57
(g78
g59
NtRp702
(dp703
g62
(dp704
g82
g83
ssg71
g698
sg64
(lp705
g327
asbag57
(g78
g59
NtRp706
(dp707
g62
(dp708
g89
g90
ssg71
g698
sg64
(lp709
S':'
asbag57
(g78
g59
NtRp710
(dp711
g62
(dp712
sg71
g698
sg64
(lp713
g57
(g58
g59
NtRp714
(dp715
g62
(dp716
g70
I3
ssg71
g710
sg64
(lp717
S''
asbasbasbag57
(g73
g59
NtRp718
(dp719
g62
(dp720
sg71
g674
sg64
(lp721
g57
(g78
g59
NtRp722
(dp723
g62
(dp724
g82
g83
ssg71
g718
sg64
(lp725
g348
asbag57
(g78
g59
NtRp726
(dp727
g62
(dp728
g89
g90
ssg71
g718
sg64
(lp729
S':'
asbag57
(g78
g59
NtRp730
(dp731
g62
(dp732
sg71
g718
sg64
(lp733
g57
(g58
g59
NtRp734
(dp735
g62
(dp736
g70
I3
ssg71
g730
sg64
(lp737
S''
asbasbasbag57
(g73
g59
NtRp738
(dp739
g62
(dp740
sg71
g674
sg64
(lp741
g57
(g78
g59
NtRp742
(dp743
g62
(dp744
g82
g83
ssg71
g738
sg64
(lp745
g369
asbag57
(g78
g59
NtRp746
(dp747
g62
(dp748
g89
g90
ssg71
g738
sg64
(lp749
S':'
asbag57
(g78
g59
NtRp750
(dp751
g62
(dp752
sg71
g738
sg64
(lp753
g57
(g58
g59
NtRp754
(dp755
g62
(dp756
g70
I3
ssg71
g750
sg64
(lp757
S''
asbasbasbag57
(g73
g59
NtRp758
(dp759
g62
(dp760
sg71
g674
sg64
(lp761
g57
(g78
g59
NtRp762
(dp763
g62
(dp764
g82
g83
ssg71
g758
sg64
(lp765
g390
asbag57
(g78
g59
NtRp766
(dp767
g62
(dp768
g89
g90
ssg71
g758
sg64
(lp769
S':'
asbag57
(g78
g59
NtRp770
(dp771
g62
(dp772
sg71
g758
sg64
(lp773
g57
(g58
g59
NtRp774
(dp775
g62
(dp776
g70
I3
ssg71
g770
sg64
(lp777
S''
asbasbasbag57
(g73
g59
NtRp778
(dp779
g62
(dp780
sg71
g674
sg64
(lp781
g57
(g78
g59
NtRp782
(dp783
g62
(dp784
g82
g83
ssg71
g778
sg64
(lp785
g411
asbag57
(g78
g59
NtRp786
(dp787
g62
(dp788
g89
g90
ssg71
g778
sg64
(lp789
S':'
asbag57
(g78
g59
NtRp790
(dp791
g62
(dp792
sg71
g778
sg64
(lp793
g57
(g58
g59
NtRp794
(dp795
g62
(dp796
g70
I3
ssg71
g790
sg64
(lp797
S''
asbasbasbag57
(g73
g59
NtRp798
(dp799
g62
(dp800
sg71
g674
sg64
(lp801
g57
(g78
g59
NtRp802
(dp803
g62
(dp804
g82
g83
ssg71
g798
sg64
(lp805
g432
asbag57
(g78
g59
NtRp806
(dp807
g62
(dp808
g89
g90
ssg71
g798
sg64
(lp809
S':'
asbag57
(g78
g59
NtRp810
(dp811
g62
(dp812
sg71
g798
sg64
(lp813
g57
(g58
g59
NtRp814
(dp815
g62
(dp816
g70
I3
ssg71
g810
sg64
(lp817
S''
asbasbasbag57
(g73
g59
NtRp818
(dp819
g62
(dp820
sg71
g674
sg64
(lp821
g57
(g78
g59
NtRp822
(dp823
g62
(dp824
g82
g83
ssg71
g818
sg64
(lp825
g453
asbag57
(g78
g59
NtRp826
(dp827
g62
(dp828
g89
g90
ssg71
g818
sg64
(lp829
S':'
asbag57
(g78
g59
NtRp830
(dp831
g62
(dp832
sg71
g818
sg64
(lp833
g57
(g58
g59
NtRp834
(dp835
g62
(dp836
g70
I3
ssg71
g830
sg64
(lp837
S''
asbasbasbasbasbasbasbag57
(g73
g59
NtRp838
(dp839
g62
(dp840
sg71
g268
sg64
(lp841
g57
(g78
g59
NtRp842
(dp843
g62
(dp844
g82
g83
ssg71
g838
sg64
(lp845
S'session_id_music_library'
p846
asbag57
(g78
g59
NtRp847
(dp848
g62
(dp849
g89
g90
ssg71
g838
sg64
(lp850
S':'
asbag57
(g78
g59
NtRp851
(dp852
g62
(dp853
sg71
g838
sg64
(lp854
g57
(g58
g59
NtRp855
(dp856
g62
(dp857
g70
I4
ssg71
g851
sg64
(lp858
S'127.0.0.1-dd9b4880-33cf-4894-a8a9-2640c5c78a01'
p859
ag57
(g66
g59
NtRp860
(dp861
g62
(dp862
g70
I3
ssg71
Nsg64
(lp863
g57
(g73
g59
NtRp864
(dp865
g62
(dp866
sg71
g860
sg64
(lp867
g57
(g78
g59
NtRp868
(dp869
g62
(dp870
g82
g83
ssg71
g864
sg64
(lp871
g306
asbag57
(g78
g59
NtRp872
(dp873
g62
(dp874
g89
g90
ssg71
g864
sg64
(lp875
S':'
asbag57
(g78
g59
NtRp876
(dp877
g62
(dp878
sg71
g864
sg64
(lp879
g57
(g58
g59
NtRp880
(dp881
g62
(dp882
g70
I3
ssg71
g876
sg64
(lp883
S''
asbasbasbag57
(g73
g59
NtRp884
(dp885
g62
(dp886
sg71
g860
sg64
(lp887
g57
(g78
g59
NtRp888
(dp889
g62
(dp890
g82
g83
ssg71
g884
sg64
(lp891
g327
asbag57
(g78
g59
NtRp892
(dp893
g62
(dp894
g89
g90
ssg71
g884
sg64
(lp895
S':'
asbag57
(g78
g59
NtRp896
(dp897
g62
(dp898
sg71
g884
sg64
(lp899
g57
(g58
g59
NtRp900
(dp901
g62
(dp902
g70
I3
ssg71
g896
sg64
(lp903
S''
asbasbasbag57
(g73
g59
NtRp904
(dp905
g62
(dp906
sg71
g860
sg64
(lp907
g57
(g78
g59
NtRp908
(dp909
g62
(dp910
g82
g83
ssg71
g904
sg64
(lp911
g348
asbag57
(g78
g59
NtRp912
(dp913
g62
(dp914
g89
g90
ssg71
g904
sg64
(lp915
S':'
asbag57
(g78
g59
NtRp916
(dp917
g62
(dp918
sg71
g904
sg64
(lp919
g57
(g58
g59
NtRp920
(dp921
g62
(dp922
g70
I3
ssg71
g916
sg64
(lp923
S''
asbasbasbag57
(g73
g59
NtRp924
(dp925
g62
(dp926
sg71
g860
sg64
(lp927
g57
(g78
g59
NtRp928
(dp929
g62
(dp930
g82
g83
ssg71
g924
sg64
(lp931
g369
asbag57
(g78
g59
NtRp932
(dp933
g62
(dp934
g89
g90
ssg71
g924
sg64
(lp935
S':'
asbag57
(g78
g59
NtRp936
(dp937
g62
(dp938
sg71
g924
sg64
(lp939
g57
(g58
g59
NtRp940
(dp941
g62
(dp942
g70
I3
ssg71
g936
sg64
(lp943
S''
asbasbasbag57
(g73
g59
NtRp944
(dp945
g62
(dp946
sg71
g860
sg64
(lp947
g57
(g78
g59
NtRp948
(dp949
g62
(dp950
g82
g83
ssg71
g944
sg64
(lp951
g390
asbag57
(g78
g59
NtRp952
(dp953
g62
(dp954
g89
g90
ssg71
g944
sg64
(lp955
S':'
asbag57
(g78
g59
NtRp956
(dp957
g62
(dp958
sg71
g944
sg64
(lp959
g57
(g58
g59
NtRp960
(dp961
g62
(dp962
g70
I3
ssg71
g956
sg64
(lp963
S''
asbasbasbag57
(g73
g59
NtRp964
(dp965
g62
(dp966
sg71
g860
sg64
(lp967
g57
(g78
g59
NtRp968
(dp969
g62
(dp970
g82
g83
ssg71
g964
sg64
(lp971
g411
asbag57
(g78
g59
NtRp972
(dp973
g62
(dp974
g89
g90
ssg71
g964
sg64
(lp975
S':'
asbag57
(g78
g59
NtRp976
(dp977
g62
(dp978
sg71
g964
sg64
(lp979
g57
(g58
g59
NtRp980
(dp981
g62
(dp982
g70
I3
ssg71
g976
sg64
(lp983
S''
asbasbasbag57
(g73
g59
NtRp984
(dp985
g62
(dp986
sg71
g860
sg64
(lp987
g57
(g78
g59
NtRp988
(dp989
g62
(dp990
g82
g83
ssg71
g984
sg64
(lp991
g432
asbag57
(g78
g59
NtRp992
(dp993
g62
(dp994
g89
g90
ssg71
g984
sg64
(lp995
S':'
asbag57
(g78
g59
NtRp996
(dp997
g62
(dp998
sg71
g984
sg64
(lp999
g57
(g58
g59
NtRp1000
(dp1001
g62
(dp1002
g70
I3
ssg71
g996
sg64
(lp1003
S''
asbasbasbag57
(g73
g59
NtRp1004
(dp1005
g62
(dp1006
sg71
g860
sg64
(lp1007
g57
(g78
g59
NtRp1008
(dp1009
g62
(dp1010
g82
g83
ssg71
g1004
sg64
(lp1011
g453
asbag57
(g78
g59
NtRp1012
(dp1013
g62
(dp1014
g89
g90
ssg71
g1004
sg64
(lp1015
S':'
asbag57
(g78
g59
NtRp1016
(dp1017
g62
(dp1018
sg71
g1004
sg64
(lp1019
g57
(g58
g59
NtRp1020
(dp1021
g62
(dp1022
g70
I3
ssg71
g1016
sg64
(lp1023
S''
asbasbasbasbasbasbasbag57
(g73
g59
NtRp1024
(dp1025
g62
(dp1026
sg71
g268
sg64
(lp1027
g57
(g78
g59
NtRp1028
(dp1029
g62
(dp1030
g82
g83
ssg71
g1024
sg64
(lp1031
S'session_id_outreach'
p1032
asbag57
(g78
g59
NtRp1033
(dp1034
g62
(dp1035
g89
g90
ssg71
g1024
sg64
(lp1036
S':'
asbag57
(g78
g59
NtRp1037
(dp1038
g62
(dp1039
sg71
g1024
sg64
(lp1040
g57
(g58
g59
NtRp1041
(dp1042
g62
(dp1043
g70
I4
ssg71
g1037
sg64
(lp1044
S'127.0.0.1-00c3bb02-539e-4bc1-ab10-e3c500bd1248'
p1045
ag57
(g66
g59
NtRp1046
(dp1047
g62
(dp1048
g70
I3
ssg71
Nsg64
(lp1049
g57
(g73
g59
NtRp1050
(dp1051
g62
(dp1052
sg71
g1046
sg64
(lp1053
g57
(g78
g59
NtRp1054
(dp1055
g62
(dp1056
g82
g83
ssg71
g1050
sg64
(lp1057
g306
asbag57
(g78
g59
NtRp1058
(dp1059
g62
(dp1060
g89
g90
ssg71
g1050
sg64
(lp1061
S':'
asbag57
(g78
g59
NtRp1062
(dp1063
g62
(dp1064
sg71
g1050
sg64
(lp1065
g57
(g58
g59
NtRp1066
(dp1067
g62
(dp1068
g70
I3
ssg71
g1062
sg64
(lp1069
S''
asbasbasbag57
(g73
g59
NtRp1070
(dp1071
g62
(dp1072
sg71
g1046
sg64
(lp1073
g57
(g78
g59
NtRp1074
(dp1075
g62
(dp1076
g82
g83
ssg71
g1070
sg64
(lp1077
g327
asbag57
(g78
g59
NtRp1078
(dp1079
g62
(dp1080
g89
g90
ssg71
g1070
sg64
(lp1081
S':'
asbag57
(g78
g59
NtRp1082
(dp1083
g62
(dp1084
sg71
g1070
sg64
(lp1085
g57
(g58
g59
NtRp1086
(dp1087
g62
(dp1088
g70
I3
ssg71
g1082
sg64
(lp1089
S''
asbasbasbag57
(g73
g59
NtRp1090
(dp1091
g62
(dp1092
sg71
g1046
sg64
(lp1093
g57
(g78
g59
NtRp1094
(dp1095
g62
(dp1096
g82
g83
ssg71
g1090
sg64
(lp1097
g348
asbag57
(g78
g59
NtRp1098
(dp1099
g62
(dp1100
g89
g90
ssg71
g1090
sg64
(lp1101
S':'
asbag57
(g78
g59
NtRp1102
(dp1103
g62
(dp1104
sg71
g1090
sg64
(lp1105
g57
(g58
g59
NtRp1106
(dp1107
g62
(dp1108
g70
I3
ssg71
g1102
sg64
(lp1109
S''
asbasbasbag57
(g73
g59
NtRp1110
(dp1111
g62
(dp1112
sg71
g1046
sg64
(lp1113
g57
(g78
g59
NtRp1114
(dp1115
g62
(dp1116
g82
g83
ssg71
g1110
sg64
(lp1117
g369
asbag57
(g78
g59
NtRp1118
(dp1119
g62
(dp1120
g89
g90
ssg71
g1110
sg64
(lp1121
S':'
asbag57
(g78
g59
NtRp1122
(dp1123
g62
(dp1124
sg71
g1110
sg64
(lp1125
g57
(g58
g59
NtRp1126
(dp1127
g62
(dp1128
g70
I3
ssg71
g1122
sg64
(lp1129
S''
asbasbasbag57
(g73
g59
NtRp1130
(dp1131
g62
(dp1132
sg71
g1046
sg64
(lp1133
g57
(g78
g59
NtRp1134
(dp1135
g62
(dp1136
g82
g83
ssg71
g1130
sg64
(lp1137
g390
asbag57
(g78
g59
NtRp1138
(dp1139
g62
(dp1140
g89
g90
ssg71
g1130
sg64
(lp1141
S':'
asbag57
(g78
g59
NtRp1142
(dp1143
g62
(dp1144
sg71
g1130
sg64
(lp1145
g57
(g58
g59
NtRp1146
(dp1147
g62
(dp1148
g70
I3
ssg71
g1142
sg64
(lp1149
S''
asbasbasbag57
(g73
g59
NtRp1150
(dp1151
g62
(dp1152
sg71
g1046
sg64
(lp1153
g57
(g78
g59
NtRp1154
(dp1155
g62
(dp1156
g82
g83
ssg71
g1150
sg64
(lp1157
g411
asbag57
(g78
g59
NtRp1158
(dp1159
g62
(dp1160
g89
g90
ssg71
g1150
sg64
(lp1161
S':'
asbag57
(g78
g59
NtRp1162
(dp1163
g62
(dp1164
sg71
g1150
sg64
(lp1165
g57
(g58
g59
NtRp1166
(dp1167
g62
(dp1168
g70
I3
ssg71
g1162
sg64
(lp1169
S''
asbasbasbag57
(g73
g59
NtRp1170
(dp1171
g62
(dp1172
sg71
g1046
sg64
(lp1173
g57
(g78
g59
NtRp1174
(dp1175
g62
(dp1176
g82
g83
ssg71
g1170
sg64
(lp1177
g432
asbag57
(g78
g59
NtRp1178
(dp1179
g62
(dp1180
g89
g90
ssg71
g1170
sg64
(lp1181
S':'
asbag57
(g78
g59
NtRp1182
(dp1183
g62
(dp1184
sg71
g1170
sg64
(lp1185
g57
(g58
g59
NtRp1186
(dp1187
g62
(dp1188
g70
I3
ssg71
g1182
sg64
(lp1189
S''
asbasbasbag57
(g73
g59
NtRp1190
(dp1191
g62
(dp1192
sg71
g1046
sg64
(lp1193
g57
(g78
g59
NtRp1194
(dp1195
g62
(dp1196
g82
g83
ssg71
g1190
sg64
(lp1197
g453
asbag57
(g78
g59
NtRp1198
(dp1199
g62
(dp1200
g89
g90
ssg71
g1190
sg64
(lp1201
S':'
asbag57
(g78
g59
NtRp1202
(dp1203
g62
(dp1204
sg71
g1190
sg64
(lp1205
g57
(g58
g59
NtRp1206
(dp1207
g62
(dp1208
g70
I3
ssg71
g1202
sg64
(lp1209
S''
asbasbasbasbasbasbasbag57
(g73
g59
NtRp1210
(dp1211
g62
(dp1212
sg71
g268
sg64
(lp1213
g57
(g78
g59
NtRp1214
(dp1215
g62
(dp1216
g82
g83
ssg71
g1210
sg64
(lp1217
S'session_id_welcome'
p1218
asbag57
(g78
g59
NtRp1219
(dp1220
g62
(dp1221
g89
g90
ssg71
g1210
sg64
(lp1222
S':'
asbag57
(g78
g59
NtRp1223
(dp1224
g62
(dp1225
sg71
g1210
sg64
(lp1226
g57
(g58
g59
NtRp1227
(dp1228
g62
(dp1229
g70
I4
ssg71
g1223
sg64
(lp1230
S'127.0.0.1-9c7bb553-b7cb-4343-8d32-a78739900983'
p1231
ag57
(g66
g59
NtRp1232
(dp1233
g62
(dp1234
g70
I3
ssg71
Nsg64
(lp1235
g57
(g73
g59
NtRp1236
(dp1237
g62
(dp1238
sg71
g1232
sg64
(lp1239
g57
(g78
g59
NtRp1240
(dp1241
g62
(dp1242
g82
g83
ssg71
g1236
sg64
(lp1243
g306
asbag57
(g78
g59
NtRp1244
(dp1245
g62
(dp1246
g89
g90
ssg71
g1236
sg64
(lp1247
S':'
asbag57
(g78
g59
NtRp1248
(dp1249
g62
(dp1250
sg71
g1236
sg64
(lp1251
g57
(g58
g59
NtRp1252
(dp1253
g62
(dp1254
g70
I3
ssg71
g1248
sg64
(lp1255
S''
asbasbasbag57
(g73
g59
NtRp1256
(dp1257
g62
(dp1258
sg71
g1232
sg64
(lp1259
g57
(g78
g59
NtRp1260
(dp1261
g62
(dp1262
g82
g83
ssg71
g1256
sg64
(lp1263
g327
asbag57
(g78
g59
NtRp1264
(dp1265
g62
(dp1266
g89
g90
ssg71
g1256
sg64
(lp1267
S':'
asbag57
(g78
g59
NtRp1268
(dp1269
g62
(dp1270
sg71
g1256
sg64
(lp1271
g57
(g58
g59
NtRp1272
(dp1273
g62
(dp1274
g70
I3
ssg71
g1268
sg64
(lp1275
S''
asbasbasbag57
(g73
g59
NtRp1276
(dp1277
g62
(dp1278
sg71
g1232
sg64
(lp1279
g57
(g78
g59
NtRp1280
(dp1281
g62
(dp1282
g82
g83
ssg71
g1276
sg64
(lp1283
g348
asbag57
(g78
g59
NtRp1284
(dp1285
g62
(dp1286
g89
g90
ssg71
g1276
sg64
(lp1287
S':'
asbag57
(g78
g59
NtRp1288
(dp1289
g62
(dp1290
sg71
g1276
sg64
(lp1291
g57
(g58
g59
NtRp1292
(dp1293
g62
(dp1294
g70
I3
ssg71
g1288
sg64
(lp1295
S''
asbasbasbag57
(g73
g59
NtRp1296
(dp1297
g62
(dp1298
sg71
g1232
sg64
(lp1299
g57
(g78
g59
NtRp1300
(dp1301
g62
(dp1302
g82
g83
ssg71
g1296
sg64
(lp1303
g369
asbag57
(g78
g59
NtRp1304
(dp1305
g62
(dp1306
g89
g90
ssg71
g1296
sg64
(lp1307
S':'
asbag57
(g78
g59
NtRp1308
(dp1309
g62
(dp1310
sg71
g1296
sg64
(lp1311
g57
(g58
g59
NtRp1312
(dp1313
g62
(dp1314
g70
I3
ssg71
g1308
sg64
(lp1315
S''
asbasbasbag57
(g73
g59
NtRp1316
(dp1317
g62
(dp1318
sg71
g1232
sg64
(lp1319
g57
(g78
g59
NtRp1320
(dp1321
g62
(dp1322
g82
g83
ssg71
g1316
sg64
(lp1323
g390
asbag57
(g78
g59
NtRp1324
(dp1325
g62
(dp1326
g89
g90
ssg71
g1316
sg64
(lp1327
S':'
asbag57
(g78
g59
NtRp1328
(dp1329
g62
(dp1330
sg71
g1316
sg64
(lp1331
g57
(g58
g59
NtRp1332
(dp1333
g62
(dp1334
g70
I3
ssg71
g1328
sg64
(lp1335
S''
asbasbasbag57
(g73
g59
NtRp1336
(dp1337
g62
(dp1338
sg71
g1232
sg64
(lp1339
g57
(g78
g59
NtRp1340
(dp1341
g62
(dp1342
g82
g83
ssg71
g1336
sg64
(lp1343
g411
asbag57
(g78
g59
NtRp1344
(dp1345
g62
(dp1346
g89
g90
ssg71
g1336
sg64
(lp1347
S':'
asbag57
(g78
g59
NtRp1348
(dp1349
g62
(dp1350
sg71
g1336
sg64
(lp1351
g57
(g58
g59
NtRp1352
(dp1353
g62
(dp1354
g70
I3
ssg71
g1348
sg64
(lp1355
S''
asbasbasbag57
(g73
g59
NtRp1356
(dp1357
g62
(dp1358
sg71
g1232
sg64
(lp1359
g57
(g78
g59
NtRp1360
(dp1361
g62
(dp1362
g82
g83
ssg71
g1356
sg64
(lp1363
g432
asbag57
(g78
g59
NtRp1364
(dp1365
g62
(dp1366
g89
g90
ssg71
g1356
sg64
(lp1367
S':'
asbag57
(g78
g59
NtRp1368
(dp1369
g62
(dp1370
sg71
g1356
sg64
(lp1371
g57
(g58
g59
NtRp1372
(dp1373
g62
(dp1374
g70
I3
ssg71
g1368
sg64
(lp1375
S''
asbasbasbag57
(g73
g59
NtRp1376
(dp1377
g62
(dp1378
sg71
g1232
sg64
(lp1379
g57
(g78
g59
NtRp1380
(dp1381
g62
(dp1382
g82
g83
ssg71
g1376
sg64
(lp1383
g453
asbag57
(g78
g59
NtRp1384
(dp1385
g62
(dp1386
g89
g90
ssg71
g1376
sg64
(lp1387
S':'
asbag57
(g78
g59
NtRp1388
(dp1389
g62
(dp1390
sg71
g1376
sg64
(lp1391
g57
(g58
g59
NtRp1392
(dp1393
g62
(dp1394
g70
I3
ssg71
g1388
sg64
(lp1395
S''
asbasbasbasbasbasbasbasbasbasbasbag57
(g73
g59
NtRp1396
(dp1397
g62
(dp1398
sg71
g67
sg64
(lp1399
g57
(g78
g59
NtRp1400
(dp1401
g62
(dp1402
g82
g83
ssg71
g1396
sg64
(lp1403
S'env'
p1404
asbag57
(g78
g59
NtRp1405
(dp1406
g62
(dp1407
g89
g90
ssg71
g1396
sg64
(lp1408
S':'
asbag57
(g78
g59
NtRp1409
(dp1410
g62
(dp1411
sg71
g1396
sg64
(lp1412
g57
(g58
g59
NtRp1413
(dp1414
g62
(dp1415
g70
I5
ssg71
g1409
sg64
(lp1416
g57
(g66
g59
NtRp1417
(dp1418
g62
(dp1419
g70
I4
ssg71
Nsg64
(lp1420
g57
(g73
g59
NtRp1421
(dp1422
g62
(dp1423
sg71
g1417
sg64
(lp1424
g57
(g78
g59
NtRp1425
(dp1426
g62
(dp1427
g82
g83
ssg71
g1421
sg64
(lp1428
S'app_folders'
p1429
asbag57
(g78
g59
NtRp1430
(dp1431
g62
(dp1432
g89
g90
ssg71
g1421
sg64
(lp1433
S':'
asbag57
(g78
g59
NtRp1434
(dp1435
g62
(dp1436
sg71
g1421
sg64
(lp1437
g57
(g58
g59
NtRp1438
(dp1439
g62
(dp1440
g70
I4
ssg71
g1434
sg64
(lp1441
S"set(['/home/pratyush/web2py/applications/db_project/', '/home/pratyush/web2py/applications/outreach/', '/home/pratyush/web2py/applications/welcome/', '/home/pratyush/web2py/applications/music_library/', '/home/pratyush/web2py/applications/examples/', '/home/pratyush/web2py/applications/BuySell/', '/home/pratyush/web2py/applications/admin/'])"
p1442
asbasbasbag57
(g73
g59
NtRp1443
(dp1444
g62
(dp1445
sg71
g1417
sg64
(lp1446
g57
(g78
g59
NtRp1447
(dp1448
g62
(dp1449
g82
g83
ssg71
g1443
sg64
(lp1450
S'applications_parent'
p1451
asbag57
(g78
g59
NtRp1452
(dp1453
g62
(dp1454
g89
g90
ssg71
g1443
sg64
(lp1455
S':'
asbag57
(g78
g59
NtRp1456
(dp1457
g62
(dp1458
sg71
g1443
sg64
(lp1459
g57
(g58
g59
NtRp1460
(dp1461
g62
(dp1462
g70
I4
ssg71
g1456
sg64
(lp1463
S'/home/pratyush/web2py'
p1464
asbasbasbag57
(g73
g59
NtRp1465
(dp1466
g62
(dp1467
sg71
g1417
sg64
(lp1468
g57
(g78
g59
NtRp1469
(dp1470
g62
(dp1471
g82
g83
ssg71
g1465
sg64
(lp1472
S'cmd_args'
p1473
asbag57
(g78
g59
NtRp1474
(dp1475
g62
(dp1476
g89
g90
ssg71
g1465
sg64
(lp1477
S':'
asbag57
(g78
g59
NtRp1478
(dp1479
g62
(dp1480
sg71
g1465
sg64
(lp1481
g57
(g58
g59
NtRp1482
(dp1483
g62
(dp1484
g70
I4
ssg71
g1478
sg64
(lp1485
g57
(g66
g59
NtRp1486
(dp1487
g62
(dp1488
g70
I3
ssg71
Nsg64
(lp1489
sbasbasbasbag57
(g73
g59
NtRp1490
(dp1491
g62
(dp1492
sg71
g1417
sg64
(lp1493
g57
(g78
g59
NtRp1494
(dp1495
g62
(dp1496
g82
g83
ssg71
g1490
sg64
(lp1497
S'cmd_options'
p1498
asbag57
(g78
g59
NtRp1499
(dp1500
g62
(dp1501
g89
g90
ssg71
g1490
sg64
(lp1502
S':'
asbag57
(g78
g59
NtRp1503
(dp1504
g62
(dp1505
sg71
g1490
sg64
(lp1506
g57
(g58
g59
NtRp1507
(dp1508
g62
(dp1509
g70
I4
ssg71
g1503
sg64
(lp1510
S"<Values at 0xa526b0c: {'verbose': False, 'ip': '127.0.0.1', 'with_scheduler': False, 'ips': [], 'shutdown_timeout': 5, 'taskbar': False, 'port': 8001, 'maxthreads': None, 'softcron': False, 'server_name': 'alanzak', 'bpython': False, 'nogui': False, 'pid_filename': 'httpserver.pid', 'extcron': False, 'runcron': False, 'run_system_tests': False, 'test': None, 'folder': '/home/pratyush/web2py', 'config': '', 'import_models': False, 'winservice': '', 'shell': None, 'run': '', 'log_filename': 'httpserver.log', 'debuglevel': 30, 'args': [''], 'socket_timeout': 5, 'ssl_ca_certificate': None, 'scheduler': None, 'profiler_filename': None, 'ssl_private_key': '', 'scheduler_groups': None, 'password': '1', 'request_queue_size': 5, 'ssl_certificate': '', 'cronjob': False, 'numthreads': None, 'quiet': False, 'interfaces': None, 'minthreads': None, 'timeout': 10, 'plain': False, 'nobanner': False}>"
p1511
asbasbasbag57
(g73
g59
NtRp1512
(dp1513
g62
(dp1514
sg71
g1417
sg64
(lp1515
g57
(g78
g59
NtRp1516
(dp1517
g62
(dp1518
g82
g83
ssg71
g1512
sg64
(lp1519
S'db_sessions'
p1520
asbag57
(g78
g59
NtRp1521
(dp1522
g62
(dp1523
g89
g90
ssg71
g1512
sg64
(lp1524
S':'
asbag57
(g78
g59
NtRp1525
(dp1526
g62
(dp1527
sg71
g1512
sg64
(lp1528
g57
(g58
g59
NtRp1529
(dp1530
g62
(dp1531
g70
I4
ssg71
g1525
sg64
(lp1532
S'set([])'
p1533
asbasbasbag57
(g73
g59
NtRp1534
(dp1535
g62
(dp1536
sg71
g1417
sg64
(lp1537
g57
(g78
g59
NtRp1538
(dp1539
g62
(dp1540
g82
g83
ssg71
g1534
sg64
(lp1541
S'debugging'
p1542
asbag57
(g78
g59
NtRp1543
(dp1544
g62
(dp1545
g89
g90
ssg71
g1534
sg64
(lp1546
S':'
asbag57
(g78
g59
NtRp1547
(dp1548
g62
(dp1549
sg71
g1534
sg64
(lp1550
g57
(g58
g59
NtRp1551
(dp1552
g62
(dp1553
g70
I4
ssg71
g1547
sg64
(lp1554
g100
asbasbasbag57
(g73
g59
NtRp1555
(dp1556
g62
(dp1557
sg71
g1417
sg64
(lp1558
g57
(g78
g59
NtRp1559
(dp1560
g62
(dp1561
g82
g83
ssg71
g1555
sg64
(lp1562
S'gluon_parent'
p1563
asbag57
(g78
g59
NtRp1564
(dp1565
g62
(dp1566
g89
g90
ssg71
g1555
sg64
(lp1567
S':'
asbag57
(g78
g59
NtRp1568
(dp1569
g62
(dp1570
sg71
g1555
sg64
(lp1571
g57
(g58
g59
NtRp1572
(dp1573
g62
(dp1574
g70
I4
ssg71
g1568
sg64
(lp1575
S'/home/pratyush/web2py'
p1576
asbasbasbag57
(g73
g59
NtRp1577
(dp1578
g62
(dp1579
sg71
g1417
sg64
(lp1580
g57
(g78
g59
NtRp1581
(dp1582
g62
(dp1583
g82
g83
ssg71
g1577
sg64
(lp1584
S'http_accept'
p1585
asbag57
(g78
g59
NtRp1586
(dp1587
g62
(dp1588
g89
g90
ssg71
g1577
sg64
(lp1589
S':'
asbag57
(g78
g59
NtRp1590
(dp1591
g62
(dp1592
sg71
g1577
sg64
(lp1593
g57
(g58
g59
NtRp1594
(dp1595
g62
(dp1596
g70
I4
ssg71
g1590
sg64
(lp1597
S'text/html,application/xhtml+xml,application/xml;q=0.9,*/*;q=0.8'
p1598
asbasbasbag57
(g73
g59
NtRp1599
(dp1600
g62
(dp1601
sg71
g1417
sg64
(lp1602
g57
(g78
g59
NtRp1603
(dp1604
g62
(dp1605
g82
g83
ssg71
g1599
sg64
(lp1606
S'http_accept_charset'
p1607
asbag57
(g78
g59
NtRp1608
(dp1609
g62
(dp1610
g89
g90
ssg71
g1599
sg64
(lp1611
S':'
asbag57
(g78
g59
NtRp1612
(dp1613
g62
(dp1614
sg71
g1599
sg64
(lp1615
g57
(g58
g59
NtRp1616
(dp1617
g62
(dp1618
g70
I4
ssg71
g1612
sg64
(lp1619
S'ISO-8859-1,utf-8;q=0.7,*;q=0.3'
p1620
asbasbasbag57
(g73
g59
NtRp1621
(dp1622
g62
(dp1623
sg71
g1417
sg64
(lp1624
g57
(g78
g59
NtRp1625
(dp1626
g62
(dp1627
g82
g83
ssg71
g1621
sg64
(lp1628
S'http_accept_encoding'
p1629
asbag57
(g78
g59
NtRp1630
(dp1631
g62
(dp1632
g89
g90
ssg71
g1621
sg64
(lp1633
S':'
asbag57
(g78
g59
NtRp1634
(dp1635
g62
(dp1636
sg71
g1621
sg64
(lp1637
g57
(g58
g59
NtRp1638
(dp1639
g62
(dp1640
g70
I4
ssg71
g1634
sg64
(lp1641
S'gzip,deflate,sdch'
p1642
asbasbasbag57
(g73
g59
NtRp1643
(dp1644
g62
(dp1645
sg71
g1417
sg64
(lp1646
g57
(g78
g59
NtRp1647
(dp1648
g62
(dp1649
g82
g83
ssg71
g1643
sg64
(lp1650
S'http_accept_language'
p1651
asbag57
(g78
g59
NtRp1652
(dp1653
g62
(dp1654
g89
g90
ssg71
g1643
sg64
(lp1655
S':'
asbag57
(g78
g59
NtRp1656
(dp1657
g62
(dp1658
sg71
g1643
sg64
(lp1659
g57
(g58
g59
NtRp1660
(dp1661
g62
(dp1662
g70
I4
ssg71
g1656
sg64
(lp1663
S'en-US,en;q=0.8'
p1664
asbasbasbag57
(g73
g59
NtRp1665
(dp1666
g62
(dp1667
sg71
g1417
sg64
(lp1668
g57
(g78
g59
NtRp1669
(dp1670
g62
(dp1671
g82
g83
ssg71
g1665
sg64
(lp1672
S'http_cache_control'
p1673
asbag57
(g78
g59
NtRp1674
(dp1675
g62
(dp1676
g89
g90
ssg71
g1665
sg64
(lp1677
S':'
asbag57
(g78
g59
NtRp1678
(dp1679
g62
(dp1680
sg71
g1665
sg64
(lp1681
g57
(g58
g59
NtRp1682
(dp1683
g62
(dp1684
g70
I4
ssg71
g1678
sg64
(lp1685
S'max-age=0'
p1686
asbasbasbag57
(g73
g59
NtRp1687
(dp1688
g62
(dp1689
sg71
g1417
sg64
(lp1690
g57
(g78
g59
NtRp1691
(dp1692
g62
(dp1693
g82
g83
ssg71
g1687
sg64
(lp1694
S'http_connection'
p1695
asbag57
(g78
g59
NtRp1696
(dp1697
g62
(dp1698
g89
g90
ssg71
g1687
sg64
(lp1699
S':'
asbag57
(g78
g59
NtRp1700
(dp1701
g62
(dp1702
sg71
g1687
sg64
(lp1703
g57
(g58
g59
NtRp1704
(dp1705
g62
(dp1706
g70
I4
ssg71
g1700
sg64
(lp1707
S'keep-alive'
p1708
asbasbasbag57
(g73
g59
NtRp1709
(dp1710
g62
(dp1711
sg71
g1417
sg64
(lp1712
g57
(g78
g59
NtRp1713
(dp1714
g62
(dp1715
g82
g83
ssg71
g1709
sg64
(lp1716
S'http_cookie'
p1717
asbag57
(g78
g59
NtRp1718
(dp1719
g62
(dp1720
g89
g90
ssg71
g1709
sg64
(lp1721
S':'
asbag57
(g78
g59
NtRp1722
(dp1723
g62
(dp1724
sg71
g1709
sg64
(lp1725
g57
(g58
g59
NtRp1726
(dp1727
g62
(dp1728
g70
I4
ssg71
g1722
sg64
(lp1729
S'registered=yes; session_id_outreach=127.0.0.1-00c3bb02-539e-4bc1-ab10-e3c500bd1248; session_id_welcome=127.0.0.1-9c7bb553-b7cb-4343-8d32-a78739900983; session_id_music_library=127.0.0.1-dd9b4880-33cf-4894-a8a9-2640c5c78a01; session_id_buysell=127.0.0.1-d5a07803-4f5c-44c8-b05d-2876d30ca822; session_id_admin=127.0.0.1-5c3e6318-3a14-4ff1-97a6-1063e44c4cd9'
p1730
asbasbasbag57
(g73
g59
NtRp1731
(dp1732
g62
(dp1733
sg71
g1417
sg64
(lp1734
g57
(g78
g59
NtRp1735
(dp1736
g62
(dp1737
g82
g83
ssg71
g1731
sg64
(lp1738
S'http_host'
p1739
asbag57
(g78
g59
NtRp1740
(dp1741
g62
(dp1742
g89
g90
ssg71
g1731
sg64
(lp1743
S':'
asbag57
(g78
g59
NtRp1744
(dp1745
g62
(dp1746
sg71
g1731
sg64
(lp1747
g57
(g58
g59
NtRp1748
(dp1749
g62
(dp1750
g70
I4
ssg71
g1744
sg64
(lp1751
S'127.0.0.1:8001'
p1752
asbasbasbag57
(g73
g59
NtRp1753
(dp1754
g62
(dp1755
sg71
g1417
sg64
(lp1756
g57
(g78
g59
NtRp1757
(dp1758
g62
(dp1759
g82
g83
ssg71
g1753
sg64
(lp1760
S'http_referer'
p1761
asbag57
(g78
g59
NtRp1762
(dp1763
g62
(dp1764
g89
g90
ssg71
g1753
sg64
(lp1765
S':'
asbag57
(g78
g59
NtRp1766
(dp1767
g62
(dp1768
sg71
g1753
sg64
(lp1769
g57
(g58
g59
NtRp1770
(dp1771
g62
(dp1772
g70
I4
ssg71
g1766
sg64
(lp1773
S'http://127.0.0.1:8001/BuySell/default/list_items'
p1774
asbasbasbag57
(g73
g59
NtRp1775
(dp1776
g62
(dp1777
sg71
g1417
sg64
(lp1778
g57
(g78
g59
NtRp1779
(dp1780
g62
(dp1781
g82
g83
ssg71
g1775
sg64
(lp1782
S'http_user_agent'
p1783
asbag57
(g78
g59
NtRp1784
(dp1785
g62
(dp1786
g89
g90
ssg71
g1775
sg64
(lp1787
S':'
asbag57
(g78
g59
NtRp1788
(dp1789
g62
(dp1790
sg71
g1775
sg64
(lp1791
g57
(g58
g59
NtRp1792
(dp1793
g62
(dp1794
g70
I4
ssg71
g1788
sg64
(lp1795
S'Mozilla/5.0 (X11; Linux i686) AppleWebKit/537.4 (KHTML, like Gecko) Chrome/22.0.1229.79 Safari/537.4'
p1796
asbasbasbag57
(g73
g59
NtRp1797
(dp1798
g62
(dp1799
sg71
g1417
sg64
(lp1800
g57
(g78
g59
NtRp1801
(dp1802
g62
(dp1803
g82
g83
ssg71
g1797
sg64
(lp1804
S'is_jython'
p1805
asbag57
(g78
g59
NtRp1806
(dp1807
g62
(dp1808
g89
g90
ssg71
g1797
sg64
(lp1809
S':'
asbag57
(g78
g59
NtRp1810
(dp1811
g62
(dp1812
sg71
g1797
sg64
(lp1813
g57
(g58
g59
NtRp1814
(dp1815
g62
(dp1816
g70
I4
ssg71
g1810
sg64
(lp1817
g100
asbasbasbag57
(g73
g59
NtRp1818
(dp1819
g62
(dp1820
sg71
g1417
sg64
(lp1821
g57
(g78
g59
NtRp1822
(dp1823
g62
(dp1824
g82
g83
ssg71
g1818
sg64
(lp1825
S'is_pypy'
p1826
asbag57
(g78
g59
NtRp1827
(dp1828
g62
(dp1829
g89
g90
ssg71
g1818
sg64
(lp1830
S':'
asbag57
(g78
g59
NtRp1831
(dp1832
g62
(dp1833
sg71
g1818
sg64
(lp1834
g57
(g58
g59
NtRp1835
(dp1836
g62
(dp1837
g70
I4
ssg71
g1831
sg64
(lp1838
g100
asbasbasbag57
(g73
g59
NtRp1839
(dp1840
g62
(dp1841
sg71
g1417
sg64
(lp1842
g57
(g78
g59
NtRp1843
(dp1844
g62
(dp1845
g82
g83
ssg71
g1839
sg64
(lp1846
S'local_hosts'
p1847
asbag57
(g78
g59
NtRp1848
(dp1849
g62
(dp1850
g89
g90
ssg71
g1839
sg64
(lp1851
S':'
asbag57
(g78
g59
NtRp1852
(dp1853
g62
(dp1854
sg71
g1839
sg64
(lp1855
g57
(g58
g59
NtRp1856
(dp1857
g62
(dp1858
g70
I4
ssg71
g1852
sg64
(lp1859
g57
(g66
g59
NtRp1860
(dp1861
g62
(dp1862
g70
I3
ssg71
Nsg64
(lp1863
g57
(g73
g59
NtRp1864
(dp1865
g62
(dp1866
sg71
g1860
sg64
(lp1867
g57
(g78
g59
NtRp1868
(dp1869
g62
(dp1870
sg71
g1864
sg64
(lp1871
g57
(g58
g59
NtRp1872
(dp1873
g62
(dp1874
g70
I3
ssg71
g1868
sg64
(lp1875
S'127.0.1.1'
p1876
asbasbasbag57
(g73
g59
NtRp1877
(dp1878
g62
(dp1879
sg71
g1860
sg64
(lp1880
g57
(g78
g59
NtRp1881
(dp1882
g62
(dp1883
sg71
g1877
sg64
(lp1884
g57
(g58
g59
NtRp1885
(dp1886
g62
(dp1887
g70
I3
ssg71
g1881
sg64
(lp1888
S'::1'
p1889
asbasbasbag57
(g73
g59
NtRp1890
(dp1891
g62
(dp1892
sg71
g1860
sg64
(lp1893
g57
(g78
g59
NtRp1894
(dp1895
g62
(dp1896
sg71
g1890
sg64
(lp1897
g57
(g58
g59
NtRp1898
(dp1899
g62
(dp1900
g70
I3
ssg71
g1894
sg64
(lp1901
S'alanzak'
p1902
asbasbasbag57
(g73
g59
NtRp1903
(dp1904
g62
(dp1905
sg71
g1860
sg64
(lp1906
g57
(g78
g59
NtRp1907
(dp1908
g62
(dp1909
sg71
g1903
sg64
(lp1910
g57
(g58
g59
NtRp1911
(dp1912
g62
(dp1913
g70
I3
ssg71
g1907
sg64
(lp1914
S'::ffff:127.0.0.1'
p1915
asbasbasbag57
(g73
g59
NtRp1916
(dp1917
g62
(dp1918
sg71
g1860
sg64
(lp1919
g57
(g78
g59
NtRp1920
(dp1921
g62
(dp1922
sg71
g1916
sg64
(lp1923
g57
(g58
g59
NtRp1924
(dp1925
g62
(dp1926
g70
I3
ssg71
g1920
sg64
(lp1927
S'127.0.0.1'
p1928
asbasbasbasbasbasbasbag57
(g73
g59
NtRp1929
(dp1930
g62
(dp1931
sg71
g1417
sg64
(lp1932
g57
(g78
g59
NtRp1933
(dp1934
g62
(dp1935
g82
g83
ssg71
g1929
sg64
(lp1936
S'path_info'
p1937
asbag57
(g78
g59
NtRp1938
(dp1939
g62
(dp1940
g89
g90
ssg71
g1929
sg64
(lp1941
S':'
asbag57
(g78
g59
NtRp1942
(dp1943
g62
(dp1944
sg71
g1929
sg64
(lp1945
g57
(g58
g59
NtRp1946
(dp1947
g62
(dp1948
g70
I4
ssg71
g1942
sg64
(lp1949
S'/BuySell/default/seller/1'
p1950
asbasbasbag57
(g73
g59
NtRp1951
(dp1952
g62
(dp1953
sg71
g1417
sg64
(lp1954
g57
(g78
g59
NtRp1955
(dp1956
g62
(dp1957
g82
g83
ssg71
g1951
sg64
(lp1958
S'query_string'
p1959
asbag57
(g78
g59
NtRp1960
(dp1961
g62
(dp1962
g89
g90
ssg71
g1951
sg64
(lp1963
S':'
asbag57
(g78
g59
NtRp1964
(dp1965
g62
(dp1966
sg71
g1951
sg64
(lp1967
g57
(g58
g59
NtRp1968
(dp1969
g62
(dp1970
g70
I4
ssg71
g1964
sg64
(lp1971
S''
asbasbasbag57
(g73
g59
NtRp1972
(dp1973
g62
(dp1974
sg71
g1417
sg64
(lp1975
g57
(g78
g59
NtRp1976
(dp1977
g62
(dp1978
g82
g83
ssg71
g1972
sg64
(lp1979
S'remote_addr'
p1980
asbag57
(g78
g59
NtRp1981
(dp1982
g62
(dp1983
g89
g90
ssg71
g1972
sg64
(lp1984
S':'
asbag57
(g78
g59
NtRp1985
(dp1986
g62
(dp1987
sg71
g1972
sg64
(lp1988
g57
(g58
g59
NtRp1989
(dp1990
g62
(dp1991
g70
I4
ssg71
g1985
sg64
(lp1992
g224
asbasbasbag57
(g73
g59
NtRp1993
(dp1994
g62
(dp1995
sg71
g1417
sg64
(lp1996
g57
(g78
g59
NtRp1997
(dp1998
g62
(dp1999
g82
g83
ssg71
g1993
sg64
(lp2000
S'remote_port'
p2001
asbag57
(g78
g59
NtRp2002
(dp2003
g62
(dp2004
g89
g90
ssg71
g1993
sg64
(lp2005
S':'
asbag57
(g78
g59
NtRp2006
(dp2007
g62
(dp2008
sg71
g1993
sg64
(lp2009
g57
(g58
g59
NtRp2010
(dp2011
g62
(dp2012
g70
I4
ssg71
g2006
sg64
(lp2013
S'37458'
p2014
asbasbasbag57
(g73
g59
NtRp2015
(dp2016
g62
(dp2017
sg71
g1417
sg64
(lp2018
g57
(g78
g59
NtRp2019
(dp2020
g62
(dp2021
g82
g83
ssg71
g2015
sg64
(lp2022
S'request_method'
p2023
asbag57
(g78
g59
NtRp2024
(dp2025
g62
(dp2026
g89
g90
ssg71
g2015
sg64
(lp2027
S':'
asbag57
(g78
g59
NtRp2028
(dp2029
g62
(dp2030
sg71
g2015
sg64
(lp2031
g57
(g58
g59
NtRp2032
(dp2033
g62
(dp2034
g70
I4
ssg71
g2028
sg64
(lp2035
S'GET'
p2036
asbasbasbag57
(g73
g59
NtRp2037
(dp2038
g62
(dp2039
sg71
g1417
sg64
(lp2040
g57
(g78
g59
NtRp2041
(dp2042
g62
(dp2043
g82
g83
ssg71
g2037
sg64
(lp2044
S'request_uri'
p2045
asbag57
(g78
g59
NtRp2046
(dp2047
g62
(dp2048
g89
g90
ssg71
g2037
sg64
(lp2049
S':'
asbag57
(g78
g59
NtRp2050
(dp2051
g62
(dp2052
sg71
g2037
sg64
(lp2053
g57
(g58
g59
NtRp2054
(dp2055
g62
(dp2056
g70
I4
ssg71
g2050
sg64
(lp2057
g1950
asbasbasbag57
(g73
g59
NtRp2058
(dp2059
g62
(dp2060
sg71
g1417
sg64
(lp2061
g57
(g78
g59
NtRp2062
(dp2063
g62
(dp2064
g82
g83
ssg71
g2058
sg64
(lp2065
S'script_name'
p2066
asbag57
(g78
g59
NtRp2067
(dp2068
g62
(dp2069
g89
g90
ssg71
g2058
sg64
(lp2070
S':'
asbag57
(g78
g59
NtRp2071
(dp2072
g62
(dp2073
sg71
g2058
sg64
(lp2074
g57
(g58
g59
NtRp2075
(dp2076
g62
(dp2077
g70
I4
ssg71
g2071
sg64
(lp2078
S''
asbasbasbag57
(g73
g59
NtRp2079
(dp2080
g62
(dp2081
sg71
g1417
sg64
(lp2082
g57
(g78
g59
NtRp2083
(dp2084
g62
(dp2085
g82
g83
ssg71
g2079
sg64
(lp2086
S'server_name'
p2087
asbag57
(g78
g59
NtRp2088
(dp2089
g62
(dp2090
g89
g90
ssg71
g2079
sg64
(lp2091
S':'
asbag57
(g78
g59
NtRp2092
(dp2093
g62
(dp2094
sg71
g2079
sg64
(lp2095
g57
(g58
g59
NtRp2096
(dp2097
g62
(dp2098
g70
I4
ssg71
g2092
sg64
(lp2099
S'alanzak'
p2100
asbasbasbag57
(g73
g59
NtRp2101
(dp2102
g62
(dp2103
sg71
g1417
sg64
(lp2104
g57
(g78
g59
NtRp2105
(dp2106
g62
(dp2107
g82
g83
ssg71
g2101
sg64
(lp2108
S'server_port'
p2109
asbag57
(g78
g59
NtRp2110
(dp2111
g62
(dp2112
g89
g90
ssg71
g2101
sg64
(lp2113
S':'
asbag57
(g78
g59
NtRp2114
(dp2115
g62
(dp2116
sg71
g2101
sg64
(lp2117
g57
(g58
g59
NtRp2118
(dp2119
g62
(dp2120
g70
I4
ssg71
g2114
sg64
(lp2121
S'8001'
p2122
asbasbasbag57
(g73
g59
NtRp2123
(dp2124
g62
(dp2125
sg71
g1417
sg64
(lp2126
g57
(g78
g59
NtRp2127
(dp2128
g62
(dp2129
g82
g83
ssg71
g2123
sg64
(lp2130
S'server_protocol'
p2131
asbag57
(g78
g59
NtRp2132
(dp2133
g62
(dp2134
g89
g90
ssg71
g2123
sg64
(lp2135
S':'
asbag57
(g78
g59
NtRp2136
(dp2137
g62
(dp2138
sg71
g2123
sg64
(lp2139
g57
(g58
g59
NtRp2140
(dp2141
g62
(dp2142
g70
I4
ssg71
g2136
sg64
(lp2143
S'HTTP/1.1'
p2144
asbasbasbag57
(g73
g59
NtRp2145
(dp2146
g62
(dp2147
sg71
g1417
sg64
(lp2148
g57
(g78
g59
NtRp2149
(dp2150
g62
(dp2151
g82
g83
ssg71
g2145
sg64
(lp2152
S'server_software'
p2153
asbag57
(g78
g59
NtRp2154
(dp2155
g62
(dp2156
g89
g90
ssg71
g2145
sg64
(lp2157
S':'
asbag57
(g78
g59
NtRp2158
(dp2159
g62
(dp2160
sg71
g2145
sg64
(lp2161
g57
(g58
g59
NtRp2162
(dp2163
g62
(dp2164
g70
I4
ssg71
g2158
sg64
(lp2165
S'Rocket 1.2.6'
p2166
asbasbasbag57
(g73
g59
NtRp2167
(dp2168
g62
(dp2169
sg71
g1417
sg64
(lp2170
g57
(g78
g59
NtRp2171
(dp2172
g62
(dp2173
g82
g83
ssg71
g2167
sg64
(lp2174
S'web2py_path'
p2175
asbag57
(g78
g59
NtRp2176
(dp2177
g62
(dp2178
g89
g90
ssg71
g2167
sg64
(lp2179
S':'
asbag57
(g78
g59
NtRp2180
(dp2181
g62
(dp2182
sg71
g2167
sg64
(lp2183
g57
(g58
g59
NtRp2184
(dp2185
g62
(dp2186
g70
I4
ssg71
g2180
sg64
(lp2187
g1464
asbasbasbag57
(g73
g59
NtRp2188
(dp2189
g62
(dp2190
sg71
g1417
sg64
(lp2191
g57
(g78
g59
NtRp2192
(dp2193
g62
(dp2194
g82
g83
ssg71
g2188
sg64
(lp2195
S'web2py_version'
p2196
asbag57
(g78
g59
NtRp2197
(dp2198
g62
(dp2199
g89
g90
ssg71
g2188
sg64
(lp2200
S':'
asbag57
(g78
g59
NtRp2201
(dp2202
g62
(dp2203
sg71
g2188
sg64
(lp2204
g57
(g58
g59
NtRp2205
(dp2206
g62
(dp2207
g70
I4
ssg71
g2201
sg64
(lp2208
g57
(g66
g59
NtRp2209
(dp2210
g62
(dp2211
g70
I3
ssg71
Nsg64
(lp2212
g57
(g73
g59
NtRp2213
(dp2214
g62
(dp2215
sg71
g2209
sg64
(lp2216
g57
(g78
g59
NtRp2217
(dp2218
g62
(dp2219
sg71
g2213
sg64
(lp2220
g57
(g58
g59
NtRp2221
(dp2222
g62
(dp2223
g70
I3
ssg71
g2217
sg64
(lp2224
S'2'
asbasbasbag57
(g73
g59
NtRp2225
(dp2226
g62
(dp2227
sg71
g2209
sg64
(lp2228
g57
(g78
g59
NtRp2229
(dp2230
g62
(dp2231
sg71
g2225
sg64
(lp2232
g57
(g58
g59
NtRp2233
(dp2234
g62
(dp2235
g70
I3
ssg71
g2229
sg64
(lp2236
S'3'
asbasbasbag57
(g73
g59
NtRp2237
(dp2238
g62
(dp2239
sg71
g2209
sg64
(lp2240
g57
(g78
g59
NtRp2241
(dp2242
g62
(dp2243
sg71
g2237
sg64
(lp2244
g57
(g58
g59
NtRp2245
(dp2246
g62
(dp2247
g70
I3
ssg71
g2241
sg64
(lp2248
S'2'
asbasbasbag57
(g73
g59
NtRp2249
(dp2250
g62
(dp2251
sg71
g2209
sg64
(lp2252
g57
(g78
g59
NtRp2253
(dp2254
g62
(dp2255
sg71
g2249
sg64
(lp2256
g57
(g58
g59
NtRp2257
(dp2258
g62
(dp2259
g70
I3
ssg71
g2253
sg64
(lp2260
S'datetime.datetime(2012, 12, 17, 15, 3, 30)'
p2261
asbasbasbag57
(g73
g59
NtRp2262
(dp2263
g62
(dp2264
sg71
g2209
sg64
(lp2265
g57
(g78
g59
NtRp2266
(dp2267
g62
(dp2268
sg71
g2262
sg64
(lp2269
g57
(g58
g59
NtRp2270
(dp2271
g62
(dp2272
g70
I3
ssg71
g2266
sg64
(lp2273
S'stable'
p2274
asbasbasbasbasbasbasbag57
(g73
g59
NtRp2275
(dp2276
g62
(dp2277
sg71
g1417
sg64
(lp2278
g57
(g78
g59
NtRp2279
(dp2280
g62
(dp2281
g82
g83
ssg71
g2275
sg64
(lp2282
S'wsgi_errors'
p2283
asbag57
(g78
g59
NtRp2284
(dp2285
g62
(dp2286
g89
g90
ssg71
g2275
sg64
(lp2287
S':'
asbag57
(g78
g59
NtRp2288
(dp2289
g62
(dp2290
sg71
g2275
sg64
(lp2291
g57
(g58
g59
NtRp2292
(dp2293
g62
(dp2294
g70
I4
ssg71
g2288
sg64
(lp2295
S"<open file '<stderr>', mode 'w' at 0xb789e0d0>"
p2296
asbasbasbag57
(g73
g59
NtRp2297
(dp2298
g62
(dp2299
sg71
g1417
sg64
(lp2300
g57
(g78
g59
NtRp2301
(dp2302
g62
(dp2303
g82
g83
ssg71
g2297
sg64
(lp2304
S'wsgi_file_wrapper'
p2305
asbag57
(g78
g59
NtRp2306
(dp2307
g62
(dp2308
g89
g90
ssg71
g2297
sg64
(lp2309
S':'
asbag57
(g78
g59
NtRp2310
(dp2311
g62
(dp2312
sg71
g2297
sg64
(lp2313
g57
(g58
g59
NtRp2314
(dp2315
g62
(dp2316
g70
I4
ssg71
g2310
sg64
(lp2317
S'<class wsgiref.util.FileWrapper at 0xa4afddc>'
p2318
asbasbasbag57
(g73
g59
NtRp2319
(dp2320
g62
(dp2321
sg71
g1417
sg64
(lp2322
g57
(g78
g59
NtRp2323
(dp2324
g62
(dp2325
g82
g83
ssg71
g2319
sg64
(lp2326
S'wsgi_input'
p2327
asbag57
(g78
g59
NtRp2328
(dp2329
g62
(dp2330
g89
g90
ssg71
g2319
sg64
(lp2331
S':'
asbag57
(g78
g59
NtRp2332
(dp2333
g62
(dp2334
sg71
g2319
sg64
(lp2335
g57
(g58
g59
NtRp2336
(dp2337
g62
(dp2338
g70
I4
ssg71
g2332
sg64
(lp2339
S'<socket._fileobject object at 0xb81486c>'
p2340
asbasbasbag57
(g73
g59
NtRp2341
(dp2342
g62
(dp2343
sg71
g1417
sg64
(lp2344
g57
(g78
g59
NtRp2345
(dp2346
g62
(dp2347
g82
g83
ssg71
g2341
sg64
(lp2348
S'wsgi_multiprocess'
p2349
asbag57
(g78
g59
NtRp2350
(dp2351
g62
(dp2352
g89
g90
ssg71
g2341
sg64
(lp2353
S':'
asbag57
(g78
g59
NtRp2354
(dp2355
g62
(dp2356
sg71
g2341
sg64
(lp2357
g57
(g58
g59
NtRp2358
(dp2359
g62
(dp2360
g70
I4
ssg71
g2354
sg64
(lp2361
g100
asbasbasbag57
(g73
g59
NtRp2362
(dp2363
g62
(dp2364
sg71
g1417
sg64
(lp2365
g57
(g78
g59
NtRp2366
(dp2367
g62
(dp2368
g82
g83
ssg71
g2362
sg64
(lp2369
S'wsgi_multithread'
p2370
asbag57
(g78
g59
NtRp2371
(dp2372
g62
(dp2373
g89
g90
ssg71
g2362
sg64
(lp2374
S':'
asbag57
(g78
g59
NtRp2375
(dp2376
g62
(dp2377
sg71
g2362
sg64
(lp2378
g57
(g58
g59
NtRp2379
(dp2380
g62
(dp2381
g70
I4
ssg71
g2375
sg64
(lp2382
S'True'
p2383
asbasbasbag57
(g73
g59
NtRp2384
(dp2385
g62
(dp2386
sg71
g1417
sg64
(lp2387
g57
(g78
g59
NtRp2388
(dp2389
g62
(dp2390
g82
g83
ssg71
g2384
sg64
(lp2391
S'wsgi_run_once'
p2392
asbag57
(g78
g59
NtRp2393
(dp2394
g62
(dp2395
g89
g90
ssg71
g2384
sg64
(lp2396
S':'
asbag57
(g78
g59
NtRp2397
(dp2398
g62
(dp2399
sg71
g2384
sg64
(lp2400
g57
(g58
g59
NtRp2401
(dp2402
g62
(dp2403
g70
I4
ssg71
g2397
sg64
(lp2404
g100
asbasbasbag57
(g73
g59
NtRp2405
(dp2406
g62
(dp2407
sg71
g1417
sg64
(lp2408
g57
(g78
g59
NtRp2409
(dp2410
g62
(dp2411
g82
g83
ssg71
g2405
sg64
(lp2412
S'wsgi_url_scheme'
p2413
asbag57
(g78
g59
NtRp2414
(dp2415
g62
(dp2416
g89
g90
ssg71
g2405
sg64
(lp2417
S':'
asbag57
(g78
g59
NtRp2418
(dp2419
g62
(dp2420
sg71
g2405
sg64
(lp2421
g57
(g58
g59
NtRp2422
(dp2423
g62
(dp2424
g70
I4
ssg71
g2418
sg64
(lp2425
S'http'
p2426
asbasbasbag57
(g73
g59
NtRp2427
(dp2428
g62
(dp2429
sg71
g1417
sg64
(lp2430
g57
(g78
g59
NtRp2431
(dp2432
g62
(dp2433
g82
g83
ssg71
g2427
sg64
(lp2434
S'wsgi_version'
p2435
asbag57
(g78
g59
NtRp2436
(dp2437
g62
(dp2438
g89
g90
ssg71
g2427
sg64
(lp2439
S':'
asbag57
(g78
g59
NtRp2440
(dp2441
g62
(dp2442
sg71
g2427
sg64
(lp2443
g57
(g58
g59
NtRp2444
(dp2445
g62
(dp2446
g70
I4
ssg71
g2440
sg64
(lp2447
g57
(g66
g59
NtRp2448
(dp2449
g62
(dp2450
g70
I3
ssg71
Nsg64
(lp2451
g57
(g73
g59
NtRp2452
(dp2453
g62
(dp2454
sg71
g2448
sg64
(lp2455
g57
(g78
g59
NtRp2456
(dp2457
g62
(dp2458
sg71
g2452
sg64
(lp2459
g57
(g58
g59
NtRp2460
(dp2461
g62
(dp2462
g70
I3
ssg71
g2456
sg64
(lp2463
S'1'
asbasbasbag57
(g73
g59
NtRp2464
(dp2465
g62
(dp2466
sg71
g2448
sg64
(lp2467
g57
(g78
g59
NtRp2468
(dp2469
g62
(dp2470
sg71
g2464
sg64
(lp2471
g57
(g58
g59
NtRp2472
(dp2473
g62
(dp2474
g70
I3
ssg71
g2468
sg64
(lp2475
S'0'
asbasbasbasbasbasbasbasbasbasbasbag57
(g73
g59
NtRp2476
(dp2477
g62
(dp2478
sg71
g67
sg64
(lp2479
g57
(g78
g59
NtRp2480
(dp2481
g62
(dp2482
g82
g83
ssg71
g2476
sg64
(lp2483
S'extension'
p2484
asbag57
(g78
g59
NtRp2485
(dp2486
g62
(dp2487
g89
g90
ssg71
g2476
sg64
(lp2488
S':'
asbag57
(g78
g59
NtRp2489
(dp2490
g62
(dp2491
sg71
g2476
sg64
(lp2492
g57
(g58
g59
NtRp2493
(dp2494
g62
(dp2495
g70
I5
ssg71
g2489
sg64
(lp2496
S'html'
p2497
asbasbasbag57
(g73
g59
NtRp2498
(dp2499
g62
(dp2500
sg71
g67
sg64
(lp2501
g57
(g78
g59
NtRp2502
(dp2503
g62
(dp2504
g82
g83
ssg71
g2498
sg64
(lp2505
S'folder'
p2506
asbag57
(g78
g59
NtRp2507
(dp2508
g62
(dp2509
g89
g90
ssg71
g2498
sg64
(lp2510
S':'
asbag57
(g78
g59
NtRp2511
(dp2512
g62
(dp2513
sg71
g2498
sg64
(lp2514
g57
(g58
g59
NtRp2515
(dp2516
g62
(dp2517
g70
I5
ssg71
g2511
sg64
(lp2518
S'/home/pratyush/web2py/applications/BuySell/'
p2519
asbasbasbag57
(g73
g59
NtRp2520
(dp2521
g62
(dp2522
sg71
g67
sg64
(lp2523
g57
(g78
g59
NtRp2524
(dp2525
g62
(dp2526
g82
g83
ssg71
g2520
sg64
(lp2527
S'function'
p2528
asbag57
(g78
g59
NtRp2529
(dp2530
g62
(dp2531
g89
g90
ssg71
g2520
sg64
(lp2532
S':'
asbag57
(g78
g59
NtRp2533
(dp2534
g62
(dp2535
sg71
g2520
sg64
(lp2536
g57
(g58
g59
NtRp2537
(dp2538
g62
(dp2539
g70
I5
ssg71
g2533
sg64
(lp2540
S'seller'
p2541
asbasbasbag57
(g73
g59
NtRp2542
(dp2543
g62
(dp2544
sg71
g67
sg64
(lp2545
g57
(g78
g59
NtRp2546
(dp2547
g62
(dp2548
g82
g83
ssg71
g2542
sg64
(lp2549
S'get_vars'
p2550
asbag57
(g78
g59
NtRp2551
(dp2552
g62
(dp2553
g89
g90
ssg71
g2542
sg64
(lp2554
S':'
asbag57
(g78
g59
NtRp2555
(dp2556
g62
(dp2557
sg71
g2542
sg64
(lp2558
g57
(g58
g59
NtRp2559
(dp2560
g62
(dp2561
g70
I5
ssg71
g2555
sg64
(lp2562
g57
(g66
g59
NtRp2563
(dp2564
g62
(dp2565
g70
I4
ssg71
Nsg64
(lp2566
sbasbasbasbag57
(g73
g59
NtRp2567
(dp2568
g62
(dp2569
sg71
g67
sg64
(lp2570
g57
(g78
g59
NtRp2571
(dp2572
g62
(dp2573
g82
g83
ssg71
g2567
sg64
(lp2574
S'global_settings'
p2575
asbag57
(g78
g59
NtRp2576
(dp2577
g62
(dp2578
g89
g90
ssg71
g2567
sg64
(lp2579
S':'
asbag57
(g78
g59
NtRp2580
(dp2581
g62
(dp2582
sg71
g2567
sg64
(lp2583
g57
(g58
g59
NtRp2584
(dp2585
g62
(dp2586
g70
I5
ssg71
g2580
sg64
(lp2587
g57
(g66
g59
NtRp2588
(dp2589
g62
(dp2590
g70
I4
ssg71
Nsg64
(lp2591
g57
(g73
g59
NtRp2592
(dp2593
g62
(dp2594
sg71
g2588
sg64
(lp2595
g57
(g78
g59
NtRp2596
(dp2597
g62
(dp2598
g82
g83
ssg71
g2592
sg64
(lp2599
g1429
asbag57
(g78
g59
NtRp2600
(dp2601
g62
(dp2602
g89
g90
ssg71
g2592
sg64
(lp2603
S':'
asbag57
(g78
g59
NtRp2604
(dp2605
g62
(dp2606
sg71
g2592
sg64
(lp2607
g57
(g58
g59
NtRp2608
(dp2609
g62
(dp2610
g70
I4
ssg71
g2604
sg64
(lp2611
S"set(['/home/pratyush/web2py/applications/db_project/', '/home/pratyush/web2py/applications/outreach/', '/home/pratyush/web2py/applications/welcome/', '/home/pratyush/web2py/applications/music_library/', '/home/pratyush/web2py/applications/examples/', '/home/pratyush/web2py/applications/BuySell/', '/home/pratyush/web2py/applications/admin/'])"
p2612
asbasbasbag57
(g73
g59
NtRp2613
(dp2614
g62
(dp2615
sg71
g2588
sg64
(lp2616
g57
(g78
g59
NtRp2617
(dp2618
g62
(dp2619
g82
g83
ssg71
g2613
sg64
(lp2620
g1451
asbag57
(g78
g59
NtRp2621
(dp2622
g62
(dp2623
g89
g90
ssg71
g2613
sg64
(lp2624
S':'
asbag57
(g78
g59
NtRp2625
(dp2626
g62
(dp2627
sg71
g2613
sg64
(lp2628
g57
(g58
g59
NtRp2629
(dp2630
g62
(dp2631
g70
I4
ssg71
g2625
sg64
(lp2632
g1464
asbasbasbag57
(g73
g59
NtRp2633
(dp2634
g62
(dp2635
sg71
g2588
sg64
(lp2636
g57
(g78
g59
NtRp2637
(dp2638
g62
(dp2639
g82
g83
ssg71
g2633
sg64
(lp2640
g1473
asbag57
(g78
g59
NtRp2641
(dp2642
g62
(dp2643
g89
g90
ssg71
g2633
sg64
(lp2644
S':'
asbag57
(g78
g59
NtRp2645
(dp2646
g62
(dp2647
sg71
g2633
sg64
(lp2648
g57
(g58
g59
NtRp2649
(dp2650
g62
(dp2651
g70
I4
ssg71
g2645
sg64
(lp2652
g57
(g66
g59
NtRp2653
(dp2654
g62
(dp2655
g70
I3
ssg71
Nsg64
(lp2656
sbasbasbasbag57
(g73
g59
NtRp2657
(dp2658
g62
(dp2659
sg71
g2588
sg64
(lp2660
g57
(g78
g59
NtRp2661
(dp2662
g62
(dp2663
g82
g83
ssg71
g2657
sg64
(lp2664
g1498
asbag57
(g78
g59
NtRp2665
(dp2666
g62
(dp2667
g89
g90
ssg71
g2657
sg64
(lp2668
S':'
asbag57
(g78
g59
NtRp2669
(dp2670
g62
(dp2671
sg71
g2657
sg64
(lp2672
g57
(g58
g59
NtRp2673
(dp2674
g62
(dp2675
g70
I4
ssg71
g2669
sg64
(lp2676
S"<Values at 0xa526b0c: {'verbose': False, 'ip': '127.0.0.1', 'with_scheduler': False, 'ips': [], 'shutdown_timeout': 5, 'taskbar': False, 'port': 8001, 'maxthreads': None, 'softcron': False, 'server_name': 'alanzak', 'bpython': False, 'nogui': False, 'pid_filename': 'httpserver.pid', 'extcron': False, 'runcron': False, 'run_system_tests': False, 'test': None, 'folder': '/home/pratyush/web2py', 'config': '', 'import_models': False, 'winservice': '', 'shell': None, 'run': '', 'log_filename': 'httpserver.log', 'debuglevel': 30, 'args': [''], 'socket_timeout': 5, 'ssl_ca_certificate': None, 'scheduler': None, 'profiler_filename': None, 'ssl_private_key': '', 'scheduler_groups': None, 'password': '1', 'request_queue_size': 5, 'ssl_certificate': '', 'cronjob': False, 'numthreads': None, 'quiet': False, 'interfaces': None, 'minthreads': None, 'timeout': 10, 'plain': False, 'nobanner': False}>"
p2677
asbasbasbag57
(g73
g59
NtRp2678
(dp2679
g62
(dp2680
sg71
g2588
sg64
(lp2681
g57
(g78
g59
NtRp2682
(dp2683
g62
(dp2684
g82
g83
ssg71
g2678
sg64
(lp2685
g1520
asbag57
(g78
g59
NtRp2686
(dp2687
g62
(dp2688
g89
g90
ssg71
g2678
sg64
(lp2689
S':'
asbag57
(g78
g59
NtRp2690
(dp2691
g62
(dp2692
sg71
g2678
sg64
(lp2693
g57
(g58
g59
NtRp2694
(dp2695
g62
(dp2696
g70
I4
ssg71
g2690
sg64
(lp2697
S'set([])'
p2698
asbasbasbag57
(g73
g59
NtRp2699
(dp2700
g62
(dp2701
sg71
g2588
sg64
(lp2702
g57
(g78
g59
NtRp2703
(dp2704
g62
(dp2705
g82
g83
ssg71
g2699
sg64
(lp2706
g1542
asbag57
(g78
g59
NtRp2707
(dp2708
g62
(dp2709
g89
g90
ssg71
g2699
sg64
(lp2710
S':'
asbag57
(g78
g59
NtRp2711
(dp2712
g62
(dp2713
sg71
g2699
sg64
(lp2714
g57
(g58
g59
NtRp2715
(dp2716
g62
(dp2717
g70
I4
ssg71
g2711
sg64
(lp2718
g100
asbasbasbag57
(g73
g59
NtRp2719
(dp2720
g62
(dp2721
sg71
g2588
sg64
(lp2722
g57
(g78
g59
NtRp2723
(dp2724
g62
(dp2725
g82
g83
ssg71
g2719
sg64
(lp2726
g1563
asbag57
(g78
g59
NtRp2727
(dp2728
g62
(dp2729
g89
g90
ssg71
g2719
sg64
(lp2730
S':'
asbag57
(g78
g59
NtRp2731
(dp2732
g62
(dp2733
sg71
g2719
sg64
(lp2734
g57
(g58
g59
NtRp2735
(dp2736
g62
(dp2737
g70
I4
ssg71
g2731
sg64
(lp2738
g1576
asbasbasbag57
(g73
g59
NtRp2739
(dp2740
g62
(dp2741
sg71
g2588
sg64
(lp2742
g57
(g78
g59
NtRp2743
(dp2744
g62
(dp2745
g82
g83
ssg71
g2739
sg64
(lp2746
g1805
asbag57
(g78
g59
NtRp2747
(dp2748
g62
(dp2749
g89
g90
ssg71
g2739
sg64
(lp2750
S':'
asbag57
(g78
g59
NtRp2751
(dp2752
g62
(dp2753
sg71
g2739
sg64
(lp2754
g57
(g58
g59
NtRp2755
(dp2756
g62
(dp2757
g70
I4
ssg71
g2751
sg64
(lp2758
g100
asbasbasbag57
(g73
g59
NtRp2759
(dp2760
g62
(dp2761
sg71
g2588
sg64
(lp2762
g57
(g78
g59
NtRp2763
(dp2764
g62
(dp2765
g82
g83
ssg71
g2759
sg64
(lp2766
g1826
asbag57
(g78
g59
NtRp2767
(dp2768
g62
(dp2769
g89
g90
ssg71
g2759
sg64
(lp2770
S':'
asbag57
(g78
g59
NtRp2771
(dp2772
g62
(dp2773
sg71
g2759
sg64
(lp2774
g57
(g58
g59
NtRp2775
(dp2776
g62
(dp2777
g70
I4
ssg71
g2771
sg64
(lp2778
g100
asbasbasbag57
(g73
g59
NtRp2779
(dp2780
g62
(dp2781
sg71
g2588
sg64
(lp2782
g57
(g78
g59
NtRp2783
(dp2784
g62
(dp2785
g82
g83
ssg71
g2779
sg64
(lp2786
g1847
asbag57
(g78
g59
NtRp2787
(dp2788
g62
(dp2789
g89
g90
ssg71
g2779
sg64
(lp2790
S':'
asbag57
(g78
g59
NtRp2791
(dp2792
g62
(dp2793
sg71
g2779
sg64
(lp2794
g57
(g58
g59
NtRp2795
(dp2796
g62
(dp2797
g70
I4
ssg71
g2791
sg64
(lp2798
g57
(g66
g59
NtRp2799
(dp2800
g62
(dp2801
g70
I3
ssg71
Nsg64
(lp2802
g57
(g73
g59
NtRp2803
(dp2804
g62
(dp2805
sg71
g2799
sg64
(lp2806
g57
(g78
g59
NtRp2807
(dp2808
g62
(dp2809
sg71
g2803
sg64
(lp2810
g57
(g58
g59
NtRp2811
(dp2812
g62
(dp2813
g70
I3
ssg71
g2807
sg64
(lp2814
g1876
asbasbasbag57
(g73
g59
NtRp2815
(dp2816
g62
(dp2817
sg71
g2799
sg64
(lp2818
g57
(g78
g59
NtRp2819
(dp2820
g62
(dp2821
sg71
g2815
sg64
(lp2822
g57
(g58
g59
NtRp2823
(dp2824
g62
(dp2825
g70
I3
ssg71
g2819
sg64
(lp2826
g1889
asbasbasbag57
(g73
g59
NtRp2827
(dp2828
g62
(dp2829
sg71
g2799
sg64
(lp2830
g57
(g78
g59
NtRp2831
(dp2832
g62
(dp2833
sg71
g2827
sg64
(lp2834
g57
(g58
g59
NtRp2835
(dp2836
g62
(dp2837
g70
I3
ssg71
g2831
sg64
(lp2838
g1902
asbasbasbag57
(g73
g59
NtRp2839
(dp2840
g62
(dp2841
sg71
g2799
sg64
(lp2842
g57
(g78
g59
NtRp2843
(dp2844
g62
(dp2845
sg71
g2839
sg64
(lp2846
g57
(g58
g59
NtRp2847
(dp2848
g62
(dp2849
g70
I3
ssg71
g2843
sg64
(lp2850
g1915
asbasbasbag57
(g73
g59
NtRp2851
(dp2852
g62
(dp2853
sg71
g2799
sg64
(lp2854
g57
(g78
g59
NtRp2855
(dp2856
g62
(dp2857
sg71
g2851
sg64
(lp2858
g57
(g58
g59
NtRp2859
(dp2860
g62
(dp2861
g70
I3
ssg71
g2855
sg64
(lp2862
g1928
asbasbasbasbasbasbasbag57
(g73
g59
NtRp2863
(dp2864
g62
(dp2865
sg71
g2588
sg64
(lp2866
g57
(g78
g59
NtRp2867
(dp2868
g62
(dp2869
g82
g83
ssg71
g2863
sg64
(lp2870
g2196
asbag57
(g78
g59
NtRp2871
(dp2872
g62
(dp2873
g89
g90
ssg71
g2863
sg64
(lp2874
S':'
asbag57
(g78
g59
NtRp2875
(dp2876
g62
(dp2877
sg71
g2863
sg64
(lp2878
g57
(g58
g59
NtRp2879
(dp2880
g62
(dp2881
g70
I4
ssg71
g2875
sg64
(lp2882
g57
(g66
g59
NtRp2883
(dp2884
g62
(dp2885
g70
I3
ssg71
Nsg64
(lp2886
g57
(g73
g59
NtRp2887
(dp2888
g62
(dp2889
sg71
g2883
sg64
(lp2890
g57
(g78
g59
NtRp2891
(dp2892
g62
(dp2893
sg71
g2887
sg64
(lp2894
g57
(g58
g59
NtRp2895
(dp2896
g62
(dp2897
g70
I3
ssg71
g2891
sg64
(lp2898
S'2'
asbasbasbag57
(g73
g59
NtRp2899
(dp2900
g62
(dp2901
sg71
g2883
sg64
(lp2902
g57
(g78
g59
NtRp2903
(dp2904
g62
(dp2905
sg71
g2899
sg64
(lp2906
g57
(g58
g59
NtRp2907
(dp2908
g62
(dp2909
g70
I3
ssg71
g2903
sg64
(lp2910
S'3'
asbasbasbag57
(g73
g59
NtRp2911
(dp2912
g62
(dp2913
sg71
g2883
sg64
(lp2914
g57
(g78
g59
NtRp2915
(dp2916
g62
(dp2917
sg71
g2911
sg64
(lp2918
g57
(g58
g59
NtRp2919
(dp2920
g62
(dp2921
g70
I3
ssg71
g2915
sg64
(lp2922
S'2'
asbasbasbag57
(g73
g59
NtRp2923
(dp2924
g62
(dp2925
sg71
g2883
sg64
(lp2926
g57
(g78
g59
NtRp2927
(dp2928
g62
(dp2929
sg71
g2923
sg64
(lp2930
g57
(g58
g59
NtRp2931
(dp2932
g62
(dp2933
g70
I3
ssg71
g2927
sg64
(lp2934
S'datetime.datetime(2012, 12, 17, 15, 3, 30)'
p2935
asbasbasbag57
(g73
g59
NtRp2936
(dp2937
g62
(dp2938
sg71
g2883
sg64
(lp2939
g57
(g78
g59
NtRp2940
(dp2941
g62
(dp2942
sg71
g2936
sg64
(lp2943
g57
(g58
g59
NtRp2944
(dp2945
g62
(dp2946
g70
I3
ssg71
g2940
sg64
(lp2947
g2274
asbasbasbasbasbasbasbasbasbasbasbag57
(g73
g59
NtRp2948
(dp2949
g62
(dp2950
sg71
g67
sg64
(lp2951
g57
(g78
g59
NtRp2952
(dp2953
g62
(dp2954
g82
g83
ssg71
g2948
sg64
(lp2955
S'is_https'
p2956
asbag57
(g78
g59
NtRp2957
(dp2958
g62
(dp2959
g89
g90
ssg71
g2948
sg64
(lp2960
S':'
asbag57
(g78
g59
NtRp2961
(dp2962
g62
(dp2963
sg71
g2948
sg64
(lp2964
g57
(g58
g59
NtRp2965
(dp2966
g62
(dp2967
g70
I5
ssg71
g2961
sg64
(lp2968
g100
asbasbasbag57
(g73
g59
NtRp2969
(dp2970
g62
(dp2971
sg71
g67
sg64
(lp2972
g57
(g78
g59
NtRp2973
(dp2974
g62
(dp2975
g82
g83
ssg71
g2969
sg64
(lp2976
S'is_local'
p2977
asbag57
(g78
g59
NtRp2978
(dp2979
g62
(dp2980
g89
g90
ssg71
g2969
sg64
(lp2981
S':'
asbag57
(g78
g59
NtRp2982
(dp2983
g62
(dp2984
sg71
g2969
sg64
(lp2985
g57
(g58
g59
NtRp2986
(dp2987
g62
(dp2988
g70
I5
ssg71
g2982
sg64
(lp2989
g2383
asbasbasbag57
(g73
g59
NtRp2990
(dp2991
g62
(dp2992
sg71
g67
sg64
(lp2993
g57
(g78
g59
NtRp2994
(dp2995
g62
(dp2996
g82
g83
ssg71
g2990
sg64
(lp2997
S'is_restful'
p2998
asbag57
(g78
g59
NtRp2999
(dp3000
g62
(dp3001
g89
g90
ssg71
g2990
sg64
(lp3002
S':'
asbag57
(g78
g59
NtRp3003
(dp3004
g62
(dp3005
sg71
g2990
sg64
(lp3006
g57
(g58
g59
NtRp3007
(dp3008
g62
(dp3009
g70
I5
ssg71
g3003
sg64
(lp3010
g100
asbasbasbag57
(g73
g59
NtRp3011
(dp3012
g62
(dp3013
sg71
g67
sg64
(lp3014
g57
(g78
g59
NtRp3015
(dp3016
g62
(dp3017
g82
g83
ssg71
g3011
sg64
(lp3018
S'now'
p3019
asbag57
(g78
g59
NtRp3020
(dp3021
g62
(dp3022
g89
g90
ssg71
g3011
sg64
(lp3023
S':'
asbag57
(g78
g59
NtRp3024
(dp3025
g62
(dp3026
sg71
g3011
sg64
(lp3027
g57
(g58
g59
NtRp3028
(dp3029
g62
(dp3030
g70
I5
ssg71
g3024
sg64
(lp3031
S'datetime.datetime(2013, 4, 22, 15, 59, 58, 429303)'
p3032
asbasbasbag57
(g73
g59
NtRp3033
(dp3034
g62
(dp3035
sg71
g67
sg64
(lp3036
g57
(g78
g59
NtRp3037
(dp3038
g62
(dp3039
g82
g83
ssg71
g3033
sg64
(lp3040
S'post_vars'
p3041
asbag57
(g78
g59
NtRp3042
(dp3043
g62
(dp3044
g89
g90
ssg71
g3033
sg64
(lp3045
S':'
asbag57
(g78
g59
NtRp3046
(dp3047
g62
(dp3048
sg71
g3033
sg64
(lp3049
g57
(g58
g59
NtRp3050
(dp3051
g62
(dp3052
g70
I5
ssg71
g3046
sg64
(lp3053
g57
(g66
g59
NtRp3054
(dp3055
g62
(dp3056
g70
I4
ssg71
Nsg64
(lp3057
sbasbasbasbag57
(g73
g59
NtRp3058
(dp3059
g62
(dp3060
sg71
g67
sg64
(lp3061
g57
(g78
g59
NtRp3062
(dp3063
g62
(dp3064
g82
g83
ssg71
g3058
sg64
(lp3065
S'raw_args'
p3066
asbag57
(g78
g59
NtRp3067
(dp3068
g62
(dp3069
g89
g90
ssg71
g3058
sg64
(lp3070
S':'
asbag57
(g78
g59
NtRp3071
(dp3072
g62
(dp3073
sg71
g3058
sg64
(lp3074
g57
(g58
g59
NtRp3075
(dp3076
g62
(dp3077
g70
I5
ssg71
g3071
sg64
(lp3078
S'1'
asbasbasbag57
(g73
g59
NtRp3079
(dp3080
g62
(dp3081
sg71
g67
sg64
(lp3082
g57
(g78
g59
NtRp3083
(dp3084
g62
(dp3085
g82
g83
ssg71
g3079
sg64
(lp3086
S'raw_extension'
p3087
asbag57
(g78
g59
NtRp3088
(dp3089
g62
(dp3090
g89
g90
ssg71
g3079
sg64
(lp3091
S':'
asbag57
(g78
g59
NtRp3092
(dp3093
g62
(dp3094
sg71
g3079
sg64
(lp3095
g57
(g58
g59
NtRp3096
(dp3097
g62
(dp3098
g70
I5
ssg71
g3092
sg64
(lp3099
S'None'
p3100
asbasbasbag57
(g73
g59
NtRp3101
(dp3102
g62
(dp3103
sg71
g67
sg64
(lp3104
g57
(g78
g59
NtRp3105
(dp3106
g62
(dp3107
g82
g83
ssg71
g3101
sg64
(lp3108
S'url'
p3109
asbag57
(g78
g59
NtRp3110
(dp3111
g62
(dp3112
g89
g90
ssg71
g3101
sg64
(lp3113
S':'
asbag57
(g78
g59
NtRp3114
(dp3115
g62
(dp3116
sg71
g3101
sg64
(lp3117
g57
(g58
g59
NtRp3118
(dp3119
g62
(dp3120
g70
I5
ssg71
g3114
sg64
(lp3121
g1950
asbasbasbag57
(g73
g59
NtRp3122
(dp3123
g62
(dp3124
sg71
g67
sg64
(lp3125
g57
(g78
g59
NtRp3126
(dp3127
g62
(dp3128
g82
g83
ssg71
g3122
sg64
(lp3129
S'utcnow'
p3130
asbag57
(g78
g59
NtRp3131
(dp3132
g62
(dp3133
g89
g90
ssg71
g3122
sg64
(lp3134
S':'
asbag57
(g78
g59
NtRp3135
(dp3136
g62
(dp3137
sg71
g3122
sg64
(lp3138
g57
(g58
g59
NtRp3139
(dp3140
g62
(dp3141
g70
I5
ssg71
g3135
sg64
(lp3142
S'datetime.datetime(2013, 4, 22, 10, 29, 58, 429339)'
p3143
asbasbasbag57
(g73
g59
NtRp3144
(dp3145
g62
(dp3146
sg71
g67
sg64
(lp3147
g57
(g78
g59
NtRp3148
(dp3149
g62
(dp3150
g82
g83
ssg71
g3144
sg64
(lp3151
S'uuid'
p3152
asbag57
(g78
g59
NtRp3153
(dp3154
g62
(dp3155
g89
g90
ssg71
g3144
sg64
(lp3156
S':'
asbag57
(g78
g59
NtRp3157
(dp3158
g62
(dp3159
sg71
g3144
sg64
(lp3160
g57
(g58
g59
NtRp3161
(dp3162
g62
(dp3163
g70
I5
ssg71
g3157
sg64
(lp3164
S'BuySell/127.0.0.1.2013-04-22.15-59-58.3152625b-39d0-4a8f-9b64-878f8a868466'
p3165
asbasbasbag57
(g73
g59
NtRp3166
(dp3167
g62
(dp3168
sg71
g67
sg64
(lp3169
g57
(g78
g59
NtRp3170
(dp3171
g62
(dp3172
g82
g83
ssg71
g3166
sg64
(lp3173
S'vars'
p3174
asbag57
(g78
g59
NtRp3175
(dp3176
g62
(dp3177
g89
g90
ssg71
g3166
sg64
(lp3178
S':'
asbag57
(g78
g59
NtRp3179
(dp3180
g62
(dp3181
sg71
g3166
sg64
(lp3182
g57
(g58
g59
NtRp3183
(dp3184
g62
(dp3185
g70
I5
ssg71
g3179
sg64
(lp3186
g57
(g66
g59
NtRp3187
(dp3188
g62
(dp3189
g70
I4
ssg71
Nsg64
(lp3190
sbasbasbasbag57
(g73
g59
NtRp3191
(dp3192
g62
(dp3193
sg71
g67
sg64
(lp3194
g57
(g78
g59
NtRp3195
(dp3196
g62
(dp3197
g82
g83
ssg71
g3191
sg64
(lp3198
S'wsgi'
p3199
asbag57
(g78
g59
NtRp3200
(dp3201
g62
(dp3202
g89
g90
ssg71
g3191
sg64
(lp3203
S':'
asbag57
(g78
g59
NtRp3204
(dp3205
g62
(dp3206
sg71
g3191
sg64
(lp3207
g57
(g58
g59
NtRp3208
(dp3209
g62
(dp3210
g70
I5
ssg71
g3204
sg64
(lp3211
g57
(g66
g59
NtRp3212
(dp3213
g62
(dp3214
g70
I4
ssg71
Nsg64
(lp3215
g57
(g73
g59
NtRp3216
(dp3217
g62
(dp3218
sg71
g3212
sg64
(lp3219
g57
(g78
g59
NtRp3220
(dp3221
g62
(dp3222
g82
g83
ssg71
g3216
sg64
(lp3223
S'environ'
p3224
asbag57
(g78
g59
NtRp3225
(dp3226
g62
(dp3227
g89
g90
ssg71
g3216
sg64
(lp3228
S':'
asbag57
(g78
g59
NtRp3229
(dp3230
g62
(dp3231
sg71
g3216
sg64
(lp3232
g57
(g58
g59
NtRp3233
(dp3234
g62
(dp3235
g70
I4
ssg71
g3229
sg64
(lp3236
g57
(g66
g59
NtRp3237
(dp3238
g62
(dp3239
g70
I3
ssg71
Nsg64
(lp3240
g57
(g73
g59
NtRp3241
(dp3242
g62
(dp3243
sg71
g3237
sg64
(lp3244
g57
(g78
g59
NtRp3245
(dp3246
g62
(dp3247
g82
g83
ssg71
g3241
sg64
(lp3248
S'HTTP_ACCEPT'
p3249
asbag57
(g78
g59
NtRp3250
(dp3251
g62
(dp3252
g89
g90
ssg71
g3241
sg64
(lp3253
S':'
asbag57
(g78
g59
NtRp3254
(dp3255
g62
(dp3256
sg71
g3241
sg64
(lp3257
g57
(g58
g59
NtRp3258
(dp3259
g62
(dp3260
g70
I3
ssg71
g3254
sg64
(lp3261
g1598
asbasbasbag57
(g73
g59
NtRp3262
(dp3263
g62
(dp3264
sg71
g3237
sg64
(lp3265
g57
(g78
g59
NtRp3266
(dp3267
g62
(dp3268
g82
g83
ssg71
g3262
sg64
(lp3269
S'HTTP_ACCEPT_CHARSET'
p3270
asbag57
(g78
g59
NtRp3271
(dp3272
g62
(dp3273
g89
g90
ssg71
g3262
sg64
(lp3274
S':'
asbag57
(g78
g59
NtRp3275
(dp3276
g62
(dp3277
sg71
g3262
sg64
(lp3278
g57
(g58
g59
NtRp3279
(dp3280
g62
(dp3281
g70
I3
ssg71
g3275
sg64
(lp3282
g1620
asbasbasbag57
(g73
g59
NtRp3283
(dp3284
g62
(dp3285
sg71
g3237
sg64
(lp3286
g57
(g78
g59
NtRp3287
(dp3288
g62
(dp3289
g82
g83
ssg71
g3283
sg64
(lp3290
S'HTTP_ACCEPT_ENCODING'
p3291
asbag57
(g78
g59
NtRp3292
(dp3293
g62
(dp3294
g89
g90
ssg71
g3283
sg64
(lp3295
S':'
asbag57
(g78
g59
NtRp3296
(dp3297
g62
(dp3298
sg71
g3283
sg64
(lp3299
g57
(g58
g59
NtRp3300
(dp3301
g62
(dp3302
g70
I3
ssg71
g3296
sg64
(lp3303
g1642
asbasbasbag57
(g73
g59
NtRp3304
(dp3305
g62
(dp3306
sg71
g3237
sg64
(lp3307
g57
(g78
g59
NtRp3308
(dp3309
g62
(dp3310
g82
g83
ssg71
g3304
sg64
(lp3311
S'HTTP_ACCEPT_LANGUAGE'
p3312
asbag57
(g78
g59
NtRp3313
(dp3314
g62
(dp3315
g89
g90
ssg71
g3304
sg64
(lp3316
S':'
asbag57
(g78
g59
NtRp3317
(dp3318
g62
(dp3319
sg71
g3304
sg64
(lp3320
g57
(g58
g59
NtRp3321
(dp3322
g62
(dp3323
g70
I3
ssg71
g3317
sg64
(lp3324
g1664
asbasbasbag57
(g73
g59
NtRp3325
(dp3326
g62
(dp3327
sg71
g3237
sg64
(lp3328
g57
(g78
g59
NtRp3329
(dp3330
g62
(dp3331
g82
g83
ssg71
g3325
sg64
(lp3332
S'HTTP_CACHE_CONTROL'
p3333
asbag57
(g78
g59
NtRp3334
(dp3335
g62
(dp3336
g89
g90
ssg71
g3325
sg64
(lp3337
S':'
asbag57
(g78
g59
NtRp3338
(dp3339
g62
(dp3340
sg71
g3325
sg64
(lp3341
g57
(g58
g59
NtRp3342
(dp3343
g62
(dp3344
g70
I3
ssg71
g3338
sg64
(lp3345
g1686
asbasbasbag57
(g73
g59
NtRp3346
(dp3347
g62
(dp3348
sg71
g3237
sg64
(lp3349
g57
(g78
g59
NtRp3350
(dp3351
g62
(dp3352
g82
g83
ssg71
g3346
sg64
(lp3353
S'HTTP_CONNECTION'
p3354
asbag57
(g78
g59
NtRp3355
(dp3356
g62
(dp3357
g89
g90
ssg71
g3346
sg64
(lp3358
S':'
asbag57
(g78
g59
NtRp3359
(dp3360
g62
(dp3361
sg71
g3346
sg64
(lp3362
g57
(g58
g59
NtRp3363
(dp3364
g62
(dp3365
g70
I3
ssg71
g3359
sg64
(lp3366
g1708
asbasbasbag57
(g73
g59
NtRp3367
(dp3368
g62
(dp3369
sg71
g3237
sg64
(lp3370
g57
(g78
g59
NtRp3371
(dp3372
g62
(dp3373
g82
g83
ssg71
g3367
sg64
(lp3374
S'HTTP_COOKIE'
p3375
asbag57
(g78
g59
NtRp3376
(dp3377
g62
(dp3378
g89
g90
ssg71
g3367
sg64
(lp3379
S':'
asbag57
(g78
g59
NtRp3380
(dp3381
g62
(dp3382
sg71
g3367
sg64
(lp3383
g57
(g58
g59
NtRp3384
(dp3385
g62
(dp3386
g70
I3
ssg71
g3380
sg64
(lp3387
g1730
asbasbasbag57
(g73
g59
NtRp3388
(dp3389
g62
(dp3390
sg71
g3237
sg64
(lp3391
g57
(g78
g59
NtRp3392
(dp3393
g62
(dp3394
g82
g83
ssg71
g3388
sg64
(lp3395
S'HTTP_HOST'
p3396
asbag57
(g78
g59
NtRp3397
(dp3398
g62
(dp3399
g89
g90
ssg71
g3388
sg64
(lp3400
S':'
asbag57
(g78
g59
NtRp3401
(dp3402
g62
(dp3403
sg71
g3388
sg64
(lp3404
g57
(g58
g59
NtRp3405
(dp3406
g62
(dp3407
g70
I3
ssg71
g3401
sg64
(lp3408
g1752
asbasbasbag57
(g73
g59
NtRp3409
(dp3410
g62
(dp3411
sg71
g3237
sg64
(lp3412
g57
(g78
g59
NtRp3413
(dp3414
g62
(dp3415
g82
g83
ssg71
g3409
sg64
(lp3416
S'HTTP_REFERER'
p3417
asbag57
(g78
g59
NtRp3418
(dp3419
g62
(dp3420
g89
g90
ssg71
g3409
sg64
(lp3421
S':'
asbag57
(g78
g59
NtRp3422
(dp3423
g62
(dp3424
sg71
g3409
sg64
(lp3425
g57
(g58
g59
NtRp3426
(dp3427
g62
(dp3428
g70
I3
ssg71
g3422
sg64
(lp3429
g1774
asbasbasbag57
(g73
g59
NtRp3430
(dp3431
g62
(dp3432
sg71
g3237
sg64
(lp3433
g57
(g78
g59
NtRp3434
(dp3435
g62
(dp3436
g82
g83
ssg71
g3430
sg64
(lp3437
S'HTTP_USER_AGENT'
p3438
asbag57
(g78
g59
NtRp3439
(dp3440
g62
(dp3441
g89
g90
ssg71
g3430
sg64
(lp3442
S':'
asbag57
(g78
g59
NtRp3443
(dp3444
g62
(dp3445
sg71
g3430
sg64
(lp3446
g57
(g58
g59
NtRp3447
(dp3448
g62
(dp3449
g70
I3
ssg71
g3443
sg64
(lp3450
g1796
asbasbasbag57
(g73
g59
NtRp3451
(dp3452
g62
(dp3453
sg71
g3237
sg64
(lp3454
g57
(g78
g59
NtRp3455
(dp3456
g62
(dp3457
g82
g83
ssg71
g3451
sg64
(lp3458
S'PATH_INFO'
p3459
asbag57
(g78
g59
NtRp3460
(dp3461
g62
(dp3462
g89
g90
ssg71
g3451
sg64
(lp3463
S':'
asbag57
(g78
g59
NtRp3464
(dp3465
g62
(dp3466
sg71
g3451
sg64
(lp3467
g57
(g58
g59
NtRp3468
(dp3469
g62
(dp3470
g70
I3
ssg71
g3464
sg64
(lp3471
g1950
asbasbasbag57
(g73
g59
NtRp3472
(dp3473
g62
(dp3474
sg71
g3237
sg64
(lp3475
g57
(g78
g59
NtRp3476
(dp3477
g62
(dp3478
g82
g83
ssg71
g3472
sg64
(lp3479
S'QUERY_STRING'
p3480
asbag57
(g78
g59
NtRp3481
(dp3482
g62
(dp3483
g89
g90
ssg71
g3472
sg64
(lp3484
S':'
asbag57
(g78
g59
NtRp3485
(dp3486
g62
(dp3487
sg71
g3472
sg64
(lp3488
g57
(g58
g59
NtRp3489
(dp3490
g62
(dp3491
g70
I3
ssg71
g3485
sg64
(lp3492
S''
asbasbasbag57
(g73
g59
NtRp3493
(dp3494
g62
(dp3495
sg71
g3237
sg64
(lp3496
g57
(g78
g59
NtRp3497
(dp3498
g62
(dp3499
g82
g83
ssg71
g3493
sg64
(lp3500
S'REMOTE_ADDR'
p3501
asbag57
(g78
g59
NtRp3502
(dp3503
g62
(dp3504
g89
g90
ssg71
g3493
sg64
(lp3505
S':'
asbag57
(g78
g59
NtRp3506
(dp3507
g62
(dp3508
sg71
g3493
sg64
(lp3509
g57
(g58
g59
NtRp3510
(dp3511
g62
(dp3512
g70
I3
ssg71
g3506
sg64
(lp3513
g224
asbasbasbag57
(g73
g59
NtRp3514
(dp3515
g62
(dp3516
sg71
g3237
sg64
(lp3517
g57
(g78
g59
NtRp3518
(dp3519
g62
(dp3520
g82
g83
ssg71
g3514
sg64
(lp3521
S'REMOTE_PORT'
p3522
asbag57
(g78
g59
NtRp3523
(dp3524
g62
(dp3525
g89
g90
ssg71
g3514
sg64
(lp3526
S':'
asbag57
(g78
g59
NtRp3527
(dp3528
g62
(dp3529
sg71
g3514
sg64
(lp3530
g57
(g58
g59
NtRp3531
(dp3532
g62
(dp3533
g70
I3
ssg71
g3527
sg64
(lp3534
g2014
asbasbasbag57
(g73
g59
NtRp3535
(dp3536
g62
(dp3537
sg71
g3237
sg64
(lp3538
g57
(g78
g59
NtRp3539
(dp3540
g62
(dp3541
g82
g83
ssg71
g3535
sg64
(lp3542
S'REQUEST_METHOD'
p3543
asbag57
(g78
g59
NtRp3544
(dp3545
g62
(dp3546
g89
g90
ssg71
g3535
sg64
(lp3547
S':'
asbag57
(g78
g59
NtRp3548
(dp3549
g62
(dp3550
sg71
g3535
sg64
(lp3551
g57
(g58
g59
NtRp3552
(dp3553
g62
(dp3554
g70
I3
ssg71
g3548
sg64
(lp3555
g2036
asbasbasbag57
(g73
g59
NtRp3556
(dp3557
g62
(dp3558
sg71
g3237
sg64
(lp3559
g57
(g78
g59
NtRp3560
(dp3561
g62
(dp3562
g82
g83
ssg71
g3556
sg64
(lp3563
S'REQUEST_URI'
p3564
asbag57
(g78
g59
NtRp3565
(dp3566
g62
(dp3567
g89
g90
ssg71
g3556
sg64
(lp3568
S':'
asbag57
(g78
g59
NtRp3569
(dp3570
g62
(dp3571
sg71
g3556
sg64
(lp3572
g57
(g58
g59
NtRp3573
(dp3574
g62
(dp3575
g70
I3
ssg71
g3569
sg64
(lp3576
g1950
asbasbasbag57
(g73
g59
NtRp3577
(dp3578
g62
(dp3579
sg71
g3237
sg64
(lp3580
g57
(g78
g59
NtRp3581
(dp3582
g62
(dp3583
g82
g83
ssg71
g3577
sg64
(lp3584
S'SCRIPT_NAME'
p3585
asbag57
(g78
g59
NtRp3586
(dp3587
g62
(dp3588
g89
g90
ssg71
g3577
sg64
(lp3589
S':'
asbag57
(g78
g59
NtRp3590
(dp3591
g62
(dp3592
sg71
g3577
sg64
(lp3593
g57
(g58
g59
NtRp3594
(dp3595
g62
(dp3596
g70
I3
ssg71
g3590
sg64
(lp3597
S''
asbasbasbag57
(g73
g59
NtRp3598
(dp3599
g62
(dp3600
sg71
g3237
sg64
(lp3601
g57
(g78
g59
NtRp3602
(dp3603
g62
(dp3604
g82
g83
ssg71
g3598
sg64
(lp3605
S'SERVER_NAME'
p3606
asbag57
(g78
g59
NtRp3607
(dp3608
g62
(dp3609
g89
g90
ssg71
g3598
sg64
(lp3610
S':'
asbag57
(g78
g59
NtRp3611
(dp3612
g62
(dp3613
sg71
g3598
sg64
(lp3614
g57
(g58
g59
NtRp3615
(dp3616
g62
(dp3617
g70
I3
ssg71
g3611
sg64
(lp3618
g2100
asbasbasbag57
(g73
g59
NtRp3619
(dp3620
g62
(dp3621
sg71
g3237
sg64
(lp3622
g57
(g78
g59
NtRp3623
(dp3624
g62
(dp3625
g82
g83
ssg71
g3619
sg64
(lp3626
S'SERVER_PORT'
p3627
asbag57
(g78
g59
NtRp3628
(dp3629
g62
(dp3630
g89
g90
ssg71
g3619
sg64
(lp3631
S':'
asbag57
(g78
g59
NtRp3632
(dp3633
g62
(dp3634
sg71
g3619
sg64
(lp3635
g57
(g58
g59
NtRp3636
(dp3637
g62
(dp3638
g70
I3
ssg71
g3632
sg64
(lp3639
g2122
asbasbasbag57
(g73
g59
NtRp3640
(dp3641
g62
(dp3642
sg71
g3237
sg64
(lp3643
g57
(g78
g59
NtRp3644
(dp3645
g62
(dp3646
g82
g83
ssg71
g3640
sg64
(lp3647
S'SERVER_PROTOCOL'
p3648
asbag57
(g78
g59
NtRp3649
(dp3650
g62
(dp3651
g89
g90
ssg71
g3640
sg64
(lp3652
S':'
asbag57
(g78
g59
NtRp3653
(dp3654
g62
(dp3655
sg71
g3640
sg64
(lp3656
g57
(g58
g59
NtRp3657
(dp3658
g62
(dp3659
g70
I3
ssg71
g3653
sg64
(lp3660
g2144
asbasbasbag57
(g73
g59
NtRp3661
(dp3662
g62
(dp3663
sg71
g3237
sg64
(lp3664
g57
(g78
g59
NtRp3665
(dp3666
g62
(dp3667
g82
g83
ssg71
g3661
sg64
(lp3668
S'SERVER_SOFTWARE'
p3669
asbag57
(g78
g59
NtRp3670
(dp3671
g62
(dp3672
g89
g90
ssg71
g3661
sg64
(lp3673
S':'
asbag57
(g78
g59
NtRp3674
(dp3675
g62
(dp3676
sg71
g3661
sg64
(lp3677
g57
(g58
g59
NtRp3678
(dp3679
g62
(dp3680
g70
I3
ssg71
g3674
sg64
(lp3681
g2166
asbasbasbag57
(g73
g59
NtRp3682
(dp3683
g62
(dp3684
sg71
g3237
sg64
(lp3685
g57
(g78
g59
NtRp3686
(dp3687
g62
(dp3688
g82
g83
ssg71
g3682
sg64
(lp3689
S'wsgi.errors'
p3690
asbag57
(g78
g59
NtRp3691
(dp3692
g62
(dp3693
g89
g90
ssg71
g3682
sg64
(lp3694
S':'
asbag57
(g78
g59
NtRp3695
(dp3696
g62
(dp3697
sg71
g3682
sg64
(lp3698
g57
(g58
g59
NtRp3699
(dp3700
g62
(dp3701
g70
I3
ssg71
g3695
sg64
(lp3702
S"<open file '<stderr>', mode 'w' at 0xb789e0d0>"
p3703
asbasbasbag57
(g73
g59
NtRp3704
(dp3705
g62
(dp3706
sg71
g3237
sg64
(lp3707
g57
(g78
g59
NtRp3708
(dp3709
g62
(dp3710
g82
g83
ssg71
g3704
sg64
(lp3711
S'wsgi.file_wrapper'
p3712
asbag57
(g78
g59
NtRp3713
(dp3714
g62
(dp3715
g89
g90
ssg71
g3704
sg64
(lp3716
S':'
asbag57
(g78
g59
NtRp3717
(dp3718
g62
(dp3719
sg71
g3704
sg64
(lp3720
g57
(g58
g59
NtRp3721
(dp3722
g62
(dp3723
g70
I3
ssg71
g3717
sg64
(lp3724
S'<class wsgiref.util.FileWrapper at 0xa4afddc>'
p3725
asbasbasbag57
(g73
g59
NtRp3726
(dp3727
g62
(dp3728
sg71
g3237
sg64
(lp3729
g57
(g78
g59
NtRp3730
(dp3731
g62
(dp3732
g82
g83
ssg71
g3726
sg64
(lp3733
S'wsgi.input'
p3734
asbag57
(g78
g59
NtRp3735
(dp3736
g62
(dp3737
g89
g90
ssg71
g3726
sg64
(lp3738
S':'
asbag57
(g78
g59
NtRp3739
(dp3740
g62
(dp3741
sg71
g3726
sg64
(lp3742
g57
(g58
g59
NtRp3743
(dp3744
g62
(dp3745
g70
I3
ssg71
g3739
sg64
(lp3746
S'<cStringIO.StringO object at 0xb746d20>'
p3747
asbasbasbag57
(g73
g59
NtRp3748
(dp3749
g62
(dp3750
sg71
g3237
sg64
(lp3751
g57
(g78
g59
NtRp3752
(dp3753
g62
(dp3754
g82
g83
ssg71
g3748
sg64
(lp3755
S'wsgi.multiprocess'
p3756
asbag57
(g78
g59
NtRp3757
(dp3758
g62
(dp3759
g89
g90
ssg71
g3748
sg64
(lp3760
S':'
asbag57
(g78
g59
NtRp3761
(dp3762
g62
(dp3763
sg71
g3748
sg64
(lp3764
g57
(g58
g59
NtRp3765
(dp3766
g62
(dp3767
g70
I3
ssg71
g3761
sg64
(lp3768
g100
asbasbasbag57
(g73
g59
NtRp3769
(dp3770
g62
(dp3771
sg71
g3237
sg64
(lp3772
g57
(g78
g59
NtRp3773
(dp3774
g62
(dp3775
g82
g83
ssg71
g3769
sg64
(lp3776
S'wsgi.multithread'
p3777
asbag57
(g78
g59
NtRp3778
(dp3779
g62
(dp3780
g89
g90
ssg71
g3769
sg64
(lp3781
S':'
asbag57
(g78
g59
NtRp3782
(dp3783
g62
(dp3784
sg71
g3769
sg64
(lp3785
g57
(g58
g59
NtRp3786
(dp3787
g62
(dp3788
g70
I3
ssg71
g3782
sg64
(lp3789
g2383
asbasbasbag57
(g73
g59
NtRp3790
(dp3791
g62
(dp3792
sg71
g3237
sg64
(lp3793
g57
(g78
g59
NtRp3794
(dp3795
g62
(dp3796
g82
g83
ssg71
g3790
sg64
(lp3797
S'wsgi.run_once'
p3798
asbag57
(g78
g59
NtRp3799
(dp3800
g62
(dp3801
g89
g90
ssg71
g3790
sg64
(lp3802
S':'
asbag57
(g78
g59
NtRp3803
(dp3804
g62
(dp3805
sg71
g3790
sg64
(lp3806
g57
(g58
g59
NtRp3807
(dp3808
g62
(dp3809
g70
I3
ssg71
g3803
sg64
(lp3810
g100
asbasbasbag57
(g73
g59
NtRp3811
(dp3812
g62
(dp3813
sg71
g3237
sg64
(lp3814
g57
(g78
g59
NtRp3815
(dp3816
g62
(dp3817
g82
g83
ssg71
g3811
sg64
(lp3818
S'wsgi.url_scheme'
p3819
asbag57
(g78
g59
NtRp3820
(dp3821
g62
(dp3822
g89
g90
ssg71
g3811
sg64
(lp3823
S':'
asbag57
(g78
g59
NtRp3824
(dp3825
g62
(dp3826
sg71
g3811
sg64
(lp3827
g57
(g58
g59
NtRp3828
(dp3829
g62
(dp3830
g70
I3
ssg71
g3824
sg64
(lp3831
g2426
asbasbasbag57
(g73
g59
NtRp3832
(dp3833
g62
(dp3834
sg71
g3237
sg64
(lp3835
g57
(g78
g59
NtRp3836
(dp3837
g62
(dp3838
g82
g83
ssg71
g3832
sg64
(lp3839
S'wsgi.version'
p3840
asbag57
(g78
g59
NtRp3841
(dp3842
g62
(dp3843
g89
g90
ssg71
g3832
sg64
(lp3844
S':'
asbag57
(g78
g59
NtRp3845
(dp3846
g62
(dp3847
sg71
g3832
sg64
(lp3848
g57
(g58
g59
NtRp3849
(dp3850
g62
(dp3851
g70
I3
ssg71
g3845
sg64
(lp3852
S'1'
asbasbasbasbasbasbasbasbasbasbasbasbasbsS'frames'
p3853
(lp3854
(dp3855
S'file'
p3856
S'/home/pratyush/web2py/gluon/restricted.py'
p3857
sS'dump'
p3858
(dp3859
S'environment'
p3860
S"{'A': <class 'gluon.html.A'>, 'Auth': <class 'gluon.tools.Auth'>, 'B': <class 'gluon.html.B'>, 'BEAUTIFY': <class 'gluon.html.BEAUTIFY'>, 'BODY': <class 'gluon.html.BODY'>, 'BR': <class 'gluon.html.BR'>, 'BUTTON': <class 'gluon.html.BUTTON'>, 'CAT': <class 'gluon.html.CAT'>, 'CENTER': <class 'gluon.html.CENTER'>, 'CLEANUP': <class 'gluon.validators.CLEANUP'>, ...}"
p3861
sS'ccode'
p3862
S'<code object <module> at 0xb35a188, file "/home/...2py/applications/BuySell/models/menu.py", line 8>'
p3863
ssS'lnum'
p3864
I212
sS'lines'
p3865
(dp3866
I207
S'    try:'
p3867
sI208
S'        if isinstance(code, types.CodeType):'
p3868
sI209
S'            ccode = code'
p3869
sI210
S'        else:'
p3870
sI211
S'            ccode = compile2(code, layer)'
p3871
sI212
S'        exec ccode in environment'
p3872
sI213
S'    except HTTP:'
p3873
sI214
S'        raise'
p3874
sI215
S'    except RestrictedError:'
p3875
sI216
S'        # do not encapsulate (obfuscate) the original RestrictedError'
p3876
ssS'call'
p3877
S"(code='# -*- coding: utf-8 -*-\\n# this file is released ...          ]\\n         )]\\nif DEVELOPMENT_MENU: _()\\n', environment={'A': <class 'gluon.html.A'>, 'Auth': <class 'gluon.tools.Auth'>, 'B': <class 'gluon.html.B'>, 'BEAUTIFY': <class 'gluon.html.BEAUTIFY'>, 'BODY': <class 'gluon.html.BODY'>, 'BR': <class 'gluon.html.BR'>, 'BUTTON': <class 'gluon.html.BUTTON'>, 'CAT': <class 'gluon.html.CAT'>, 'CENTER': <class 'gluon.html.CENTER'>, 'CLEANUP': <class 'gluon.validators.CLEANUP'>, ...}, layer='/home/pratyush/web2py/applications/BuySell/models/menu.py')"
p3878
sS'func'
p3879
S'restricted'
p3880
sa(dp3881
g3856
S'/home/pratyush/web2py/applications/BuySell/models/menu.py'
p3882
sg3858
(dp3883
S'_'
S'<function _>'
p3884
sS'DEVELOPMENT_MENU'
p3885
g2383
ssg3864
I93
sg3865
(dp3886
I84
S"                        ('FAQ', False,"
p3887
sI85
S"                         URL('BuySell', 'default', 'sell')),"
p3888
sI86
S"                        #(T('Report'), False,"
p3889
sI87
S"                        # 'http://web2py.com/plugins'),"
p3890
sI88
S"                        #(T('Others'),"
p3891
sI89
S"                        # False, 'http://web2py.com/layouts'),"
p3892
sI90
S'                        ])'
p3893
sI91
S'                ]'
p3894
sI92
S'         )]'
p3895
sI93
S'if DEVELOPMENT_MENU: _()'
p3896
ssg3877
S'()'
p3897
sg3879
S'<module>'
p3898
sa(dp3899
g3856
S'/home/pratyush/web2py/applications/BuySell/models/menu.py'
p3900
sg3858
(dp3901
S'global URL'
p3902
S'<function URL>'
p3903
ssg3864
I70
sg3865
(dp3904
I65
S'             ]),'
p3905
sI66
S"            (T('All Categories'), False, 'http://www.web2py.com/book', ["
p3906
sI67
S"             (T('Arts and Crafts'), False,"
p3907
sI68
S"              URL('BuySell', 'default', 'categories',args = '1')),"
p3908
sI69
S"             (T('Clothing'), False,"
p3909
sI70
S"              URL('BuySell', 'default', 'categories','2')),"
p3910
sI71
S"             (T('Footwear'), False,"
p3911
sI72
S"              URL('BuySell', 'default', 'categories','3')),"
p3912
sI73
S"             (T('Gifts'), False,"
p3913
sI74
S"              URL('BuySell', 'default', 'categories','4'))"
p3914
ssg3877
S'()'
p3915
sg3879
S'_'
sa(dp3916
g3856
S'/home/pratyush/web2py/gluon/html.py'
p3917
sg3858
(dp3918
S'application'
p3919
S'None'
p3920
sS'r'
S"'2'"
p3921
sS'r.application'
p3922
S'undefined'
p3923
ssg3864
I264
sg3865
(dp3924
I259
S'        from globals import current'
p3925
sI260
S"        if hasattr(current, 'request'):"
p3926
sI261
S'            r = current.request'
p3927
sI262
S''
sI263
S'    if r:'
p3928
sI264
S'        application = r.application'
p3929
sI265
S'        controller = r.controller'
p3930
sI266
S'        function = r.function'
p3931
sI267
S'        env = r.env'
p3932
sI268
S"        if extension is None and r.extension != 'html':"
p3933
ssg3877
S"(a='BuySell', c='default', f='categories', r='2', args=[], vars={}, anchor='', extension=None, env=None, hmac_key=None, hash_vars=True, salt=None, user_signature=None, scheme=None, host=None, port=None, encode_embedded_slash=False, url_encode=True)"
p3934
sg3879
S'URL'
p3935
sasS'pyver'
p3936
S'Python 2.7.2+: /usr/bin/python2.7'
p3937
sS'session'
p3938
g57
(g58
g59
NtRp3939
(dp3940
g62
(dp3941
sg64
(lp3942
g57
(g66
g59
NtRp3943
(dp3944
g62
(dp3945
g70
I5
ssg71
Nsg64
(lp3946
g57
(g73
g59
NtRp3947
(dp3948
g62
(dp3949
sg71
g3943
sg64
(lp3950
g57
(g78
g59
NtRp3951
(dp3952
g62
(dp3953
g82
g83
ssg71
g3947
sg64
(lp3954
S'auth'
p3955
asbag57
(g78
g59
NtRp3956
(dp3957
g62
(dp3958
g89
g90
ssg71
g3947
sg64
(lp3959
S':'
asbag57
(g78
g59
NtRp3960
(dp3961
g62
(dp3962
sg71
g3947
sg64
(lp3963
g57
(g58
g59
NtRp3964
(dp3965
g62
(dp3966
g70
I5
ssg71
g3960
sg64
(lp3967
g57
(g66
g59
NtRp3968
(dp3969
g62
(dp3970
g70
I4
ssg71
Nsg64
(lp3971
g57
(g73
g59
NtRp3972
(dp3973
g62
(dp3974
sg71
g3968
sg64
(lp3975
g57
(g78
g59
NtRp3976
(dp3977
g62
(dp3978
g82
g83
ssg71
g3972
sg64
(lp3979
S'expiration'
p3980
asbag57
(g78
g59
NtRp3981
(dp3982
g62
(dp3983
g89
g90
ssg71
g3972
sg64
(lp3984
S':'
asbag57
(g78
g59
NtRp3985
(dp3986
g62
(dp3987
sg71
g3972
sg64
(lp3988
g57
(g58
g59
NtRp3989
(dp3990
g62
(dp3991
g70
I4
ssg71
g3985
sg64
(lp3992
S'3600'
p3993
asbasbasbag57
(g73
g59
NtRp3994
(dp3995
g62
(dp3996
sg71
g3968
sg64
(lp3997
g57
(g78
g59
NtRp3998
(dp3999
g62
(dp4000
g82
g83
ssg71
g3994
sg64
(lp4001
S'hmac_key'
p4002
asbag57
(g78
g59
NtRp4003
(dp4004
g62
(dp4005
g89
g90
ssg71
g3994
sg64
(lp4006
S':'
asbag57
(g78
g59
NtRp4007
(dp4008
g62
(dp4009
sg71
g3994
sg64
(lp4010
g57
(g58
g59
NtRp4011
(dp4012
g62
(dp4013
g70
I4
ssg71
g4007
sg64
(lp4014
S'143b6fc1-7d39-4b81-9961-9e7f32b94083'
p4015
asbasbasbag57
(g73
g59
NtRp4016
(dp4017
g62
(dp4018
sg71
g3968
sg64
(lp4019
g57
(g78
g59
NtRp4020
(dp4021
g62
(dp4022
g82
g83
ssg71
g4016
sg64
(lp4023
S'last_visit'
p4024
asbag57
(g78
g59
NtRp4025
(dp4026
g62
(dp4027
g89
g90
ssg71
g4016
sg64
(lp4028
S':'
asbag57
(g78
g59
NtRp4029
(dp4030
g62
(dp4031
sg71
g4016
sg64
(lp4032
g57
(g58
g59
NtRp4033
(dp4034
g62
(dp4035
g70
I4
ssg71
g4029
sg64
(lp4036
S'datetime.datetime(2013, 4, 22, 15, 59, 58, 429303)'
p4037
asbasbasbag57
(g73
g59
NtRp4038
(dp4039
g62
(dp4040
sg71
g3968
sg64
(lp4041
g57
(g78
g59
NtRp4042
(dp4043
g62
(dp4044
g82
g83
ssg71
g4038
sg64
(lp4045
S'remember'
p4046
asbag57
(g78
g59
NtRp4047
(dp4048
g62
(dp4049
g89
g90
ssg71
g4038
sg64
(lp4050
S':'
asbag57
(g78
g59
NtRp4051
(dp4052
g62
(dp4053
sg71
g4038
sg64
(lp4054
g57
(g58
g59
NtRp4055
(dp4056
g62
(dp4057
g70
I4
ssg71
g4051
sg64
(lp4058
g100
asbasbasbag57
(g73
g59
NtRp4059
(dp4060
g62
(dp4061
sg71
g3968
sg64
(lp4062
g57
(g78
g59
NtRp4063
(dp4064
g62
(dp4065
g82
g83
ssg71
g4059
sg64
(lp4066
S'user'
p4067
asbag57
(g78
g59
NtRp4068
(dp4069
g62
(dp4070
g89
g90
ssg71
g4059
sg64
(lp4071
S':'
asbag57
(g78
g59
NtRp4072
(dp4073
g62
(dp4074
sg71
g4059
sg64
(lp4075
g57
(g58
g59
NtRp4076
(dp4077
g62
(dp4078
g70
I4
ssg71
g4072
sg64
(lp4079
g57
(g66
g59
NtRp4080
(dp4081
g62
(dp4082
g70
I3
ssg71
Nsg64
(lp4083
g57
(g73
g59
NtRp4084
(dp4085
g62
(dp4086
sg71
g4080
sg64
(lp4087
g57
(g78
g59
NtRp4088
(dp4089
g62
(dp4090
g82
g83
ssg71
g4084
sg64
(lp4091
S'email'
p4092
asbag57
(g78
g59
NtRp4093
(dp4094
g62
(dp4095
g89
g90
ssg71
g4084
sg64
(lp4096
S':'
asbag57
(g78
g59
NtRp4097
(dp4098
g62
(dp4099
sg71
g4084
sg64
(lp4100
g57
(g58
g59
NtRp4101
(dp4102
g62
(dp4103
g70
I3
ssg71
g4097
sg64
(lp4104
S'pratyush.nigam@gmail.com'
p4105
asbasbasbag57
(g73
g59
NtRp4106
(dp4107
g62
(dp4108
sg71
g4080
sg64
(lp4109
g57
(g78
g59
NtRp4110
(dp4111
g62
(dp4112
g82
g83
ssg71
g4106
sg64
(lp4113
S'first_name'
p4114
asbag57
(g78
g59
NtRp4115
(dp4116
g62
(dp4117
g89
g90
ssg71
g4106
sg64
(lp4118
S':'
asbag57
(g78
g59
NtRp4119
(dp4120
g62
(dp4121
sg71
g4106
sg64
(lp4122
g57
(g58
g59
NtRp4123
(dp4124
g62
(dp4125
g70
I3
ssg71
g4119
sg64
(lp4126
S'Pratyush'
p4127
asbasbasbag57
(g73
g59
NtRp4128
(dp4129
g62
(dp4130
sg71
g4080
sg64
(lp4131
g57
(g78
g59
NtRp4132
(dp4133
g62
(dp4134
g82
g83
ssg71
g4128
sg64
(lp4135
S'id'
p4136
asbag57
(g78
g59
NtRp4137
(dp4138
g62
(dp4139
g89
g90
ssg71
g4128
sg64
(lp4140
S':'
asbag57
(g78
g59
NtRp4141
(dp4142
g62
(dp4143
sg71
g4128
sg64
(lp4144
g57
(g58
g59
NtRp4145
(dp4146
g62
(dp4147
g70
I3
ssg71
g4141
sg64
(lp4148
S'1'
asbasbasbag57
(g73
g59
NtRp4149
(dp4150
g62
(dp4151
sg71
g4080
sg64
(lp4152
g57
(g78
g59
NtRp4153
(dp4154
g62
(dp4155
g82
g83
ssg71
g4149
sg64
(lp4156
S'last_name'
p4157
asbag57
(g78
g59
NtRp4158
(dp4159
g62
(dp4160
g89
g90
ssg71
g4149
sg64
(lp4161
S':'
asbag57
(g78
g59
NtRp4162
(dp4163
g62
(dp4164
sg71
g4149
sg64
(lp4165
g57
(g58
g59
NtRp4166
(dp4167
g62
(dp4168
g70
I3
ssg71
g4162
sg64
(lp4169
S'Nigam'
p4170
asbasbasbag57
(g73
g59
NtRp4171
(dp4172
g62
(dp4173
sg71
g4080
sg64
(lp4174
g57
(g78
g59
NtRp4175
(dp4176
g62
(dp4177
g82
g83
ssg71
g4171
sg64
(lp4178
S'registration_id'
p4179
asbag57
(g78
g59
NtRp4180
(dp4181
g62
(dp4182
g89
g90
ssg71
g4171
sg64
(lp4183
S':'
asbag57
(g78
g59
NtRp4184
(dp4185
g62
(dp4186
sg71
g4171
sg64
(lp4187
g57
(g58
g59
NtRp4188
(dp4189
g62
(dp4190
g70
I3
ssg71
g4184
sg64
(lp4191
S''
asbasbasbag57
(g73
g59
NtRp4192
(dp4193
g62
(dp4194
sg71
g4080
sg64
(lp4195
g57
(g78
g59
NtRp4196
(dp4197
g62
(dp4198
g82
g83
ssg71
g4192
sg64
(lp4199
S'registration_key'
p4200
asbag57
(g78
g59
NtRp4201
(dp4202
g62
(dp4203
g89
g90
ssg71
g4192
sg64
(lp4204
S':'
asbag57
(g78
g59
NtRp4205
(dp4206
g62
(dp4207
sg71
g4192
sg64
(lp4208
g57
(g58
g59
NtRp4209
(dp4210
g62
(dp4211
g70
I3
ssg71
g4205
sg64
(lp4212
S''
asbasbasbag57
(g73
g59
NtRp4213
(dp4214
g62
(dp4215
sg71
g4080
sg64
(lp4216
g57
(g78
g59
NtRp4217
(dp4218
g62
(dp4219
g82
g83
ssg71
g4213
sg64
(lp4220
S'reset_password_key'
p4221
asbag57
(g78
g59
NtRp4222
(dp4223
g62
(dp4224
g89
g90
ssg71
g4213
sg64
(lp4225
S':'
asbag57
(g78
g59
NtRp4226
(dp4227
g62
(dp4228
sg71
g4213
sg64
(lp4229
g57
(g58
g59
NtRp4230
(dp4231
g62
(dp4232
g70
I3
ssg71
g4226
sg64
(lp4233
S''
asbasbasbasbasbasbasbag57
(g73
g59
NtRp4234
(dp4235
g62
(dp4236
sg71
g3968
sg64
(lp4237
g57
(g78
g59
NtRp4238
(dp4239
g62
(dp4240
g82
g83
ssg71
g4234
sg64
(lp4241
S'user_groups'
p4242
asbag57
(g78
g59
NtRp4243
(dp4244
g62
(dp4245
g89
g90
ssg71
g4234
sg64
(lp4246
S':'
asbag57
(g78
g59
NtRp4247
(dp4248
g62
(dp4249
sg71
g4234
sg64
(lp4250
g57
(g58
g59
NtRp4251
(dp4252
g62
(dp4253
g70
I4
ssg71
g4247
sg64
(lp4254
g57
(g66
g59
NtRp4255
(dp4256
g62
(dp4257
g70
I3
ssg71
Nsg64
(lp4258
g57
(g73
g59
NtRp4259
(dp4260
g62
(dp4261
sg71
g4255
sg64
(lp4262
g57
(g78
g59
NtRp4263
(dp4264
g62
(dp4265
g82
g83
ssg71
g4259
sg64
(lp4266
S'1'
asbag57
(g78
g59
NtRp4267
(dp4268
g62
(dp4269
g89
g90
ssg71
g4259
sg64
(lp4270
S':'
asbag57
(g78
g59
NtRp4271
(dp4272
g62
(dp4273
sg71
g4259
sg64
(lp4274
g57
(g58
g59
NtRp4275
(dp4276
g62
(dp4277
g70
I3
ssg71
g4271
sg64
(lp4278
S'user_1'
p4279
asbasbasbasbasbasbasbasbasbasbasbag57
(g73
g59
NtRp4280
(dp4281
g62
(dp4282
sg71
g3943
sg64
(lp4283
g57
(g78
g59
NtRp4284
(dp4285
g62
(dp4286
g82
g83
ssg71
g4280
sg64
(lp4287
S'flash'
p4288
asbag57
(g78
g59
NtRp4289
(dp4290
g62
(dp4291
g89
g90
ssg71
g4280
sg64
(lp4292
S':'
asbag57
(g78
g59
NtRp4293
(dp4294
g62
(dp4295
sg71
g4280
sg64
(lp4296
g57
(g58
g59
NtRp4297
(dp4298
g62
(dp4299
g70
I5
ssg71
g4293
sg64
(lp4300
S'None'
p4301
asbasbasbag57
(g73
g59
NtRp4302
(dp4303
g62
(dp4304
sg71
g3943
sg64
(lp4305
g57
(g78
g59
NtRp4306
(dp4307
g62
(dp4308
g82
g83
ssg71
g4302
sg64
(lp4309
S'last_orderby'
p4310
asbag57
(g78
g59
NtRp4311
(dp4312
g62
(dp4313
g89
g90
ssg71
g4302
sg64
(lp4314
S':'
asbag57
(g78
g59
NtRp4315
(dp4316
g62
(dp4317
sg71
g4302
sg64
(lp4318
g57
(g58
g59
NtRp4319
(dp4320
g62
(dp4321
g70
I5
ssg71
g4315
sg64
(lp4322
S'None'
p4323
asbasbasbag57
(g73
g59
NtRp4324
(dp4325
g62
(dp4326
sg71
g3943
sg64
(lp4327
g57
(g78
g59
NtRp4328
(dp4329
g62
(dp4330
g82
g83
ssg71
g4324
sg64
(lp4331
S'last_query'
p4332
asbag57
(g78
g59
NtRp4333
(dp4334
g62
(dp4335
g89
g90
ssg71
g4324
sg64
(lp4336
S':'
asbag57
(g78
g59
NtRp4337
(dp4338
g62
(dp4339
sg71
g4324
sg64
(lp4340
g57
(g58
g59
NtRp4341
(dp4342
g62
(dp4343
g70
I5
ssg71
g4337
sg64
(lp4344
S'db.rating.id>0'
p4345
asbasbasbasbasbsS'etype'
p4346
S"<type 'exceptions.AttributeError'>"
p4347
sS'date'
p4348
S'Mon Apr 22 15:59:58 2013'
p4349
sS'response'
p4350
g57
(g58
g59
NtRp4351
(dp4352
g62
(dp4353
sg64
(lp4354
g57
(g66
g59
NtRp4355
(dp4356
g62
(dp4357
g70
I5
ssg71
Nsg64
(lp4358
g57
(g73
g59
NtRp4359
(dp4360
g62
(dp4361
sg71
g4355
sg64
(lp4362
g57
(g78
g59
NtRp4363
(dp4364
g62
(dp4365
g82
g83
ssg71
g4359
sg64
(lp4366
g167
asbag57
(g78
g59
NtRp4367
(dp4368
g62
(dp4369
g89
g90
ssg71
g4359
sg64
(lp4370
S':'
asbag57
(g78
g59
NtRp4371
(dp4372
g62
(dp4373
sg71
g4359
sg64
(lp4374
g57
(g58
g59
NtRp4375
(dp4376
g62
(dp4377
g70
I5
ssg71
g4371
sg64
(lp4378
S'<cStringIO.StringO object at 0xb836f40>'
p4379
asbasbasbag57
(g73
g59
NtRp4380
(dp4381
g62
(dp4382
sg71
g4355
sg64
(lp4383
g57
(g78
g59
NtRp4384
(dp4385
g62
(dp4386
g82
g83
ssg71
g4380
sg64
(lp4387
g255
asbag57
(g78
g59
NtRp4388
(dp4389
g62
(dp4390
g89
g90
ssg71
g4380
sg64
(lp4391
S':'
asbag57
(g78
g59
NtRp4392
(dp4393
g62
(dp4394
sg71
g4380
sg64
(lp4395
g57
(g58
g59
NtRp4396
(dp4397
g62
(dp4398
g70
I5
ssg71
g4392
sg64
(lp4399
g57
(g66
g59
NtRp4400
(dp4401
g62
(dp4402
g70
I4
ssg71
Nsg64
(lp4403
g57
(g73
g59
NtRp4404
(dp4405
g62
(dp4406
sg71
g4400
sg64
(lp4407
g57
(g78
g59
NtRp4408
(dp4409
g62
(dp4410
g82
g83
ssg71
g4404
sg64
(lp4411
S'session_id_buysell'
p4412
asbag57
(g78
g59
NtRp4413
(dp4414
g62
(dp4415
g89
g90
ssg71
g4404
sg64
(lp4416
S':'
asbag57
(g78
g59
NtRp4417
(dp4418
g62
(dp4419
sg71
g4404
sg64
(lp4420
g57
(g58
g59
NtRp4421
(dp4422
g62
(dp4423
g70
I4
ssg71
g4417
sg64
(lp4424
g673
ag57
(g66
g59
NtRp4425
(dp4426
g62
(dp4427
g70
I3
ssg71
Nsg64
(lp4428
g57
(g73
g59
NtRp4429
(dp4430
g62
(dp4431
sg71
g4425
sg64
(lp4432
g57
(g78
g59
NtRp4433
(dp4434
g62
(dp4435
g82
g83
ssg71
g4429
sg64
(lp4436
g306
asbag57
(g78
g59
NtRp4437
(dp4438
g62
(dp4439
g89
g90
ssg71
g4429
sg64
(lp4440
S':'
asbag57
(g78
g59
NtRp4441
(dp4442
g62
(dp4443
sg71
g4429
sg64
(lp4444
g57
(g58
g59
NtRp4445
(dp4446
g62
(dp4447
g70
I3
ssg71
g4441
sg64
(lp4448
S''
asbasbasbag57
(g73
g59
NtRp4449
(dp4450
g62
(dp4451
sg71
g4425
sg64
(lp4452
g57
(g78
g59
NtRp4453
(dp4454
g62
(dp4455
g82
g83
ssg71
g4449
sg64
(lp4456
g327
asbag57
(g78
g59
NtRp4457
(dp4458
g62
(dp4459
g89
g90
ssg71
g4449
sg64
(lp4460
S':'
asbag57
(g78
g59
NtRp4461
(dp4462
g62
(dp4463
sg71
g4449
sg64
(lp4464
g57
(g58
g59
NtRp4465
(dp4466
g62
(dp4467
g70
I3
ssg71
g4461
sg64
(lp4468
S''
asbasbasbag57
(g73
g59
NtRp4469
(dp4470
g62
(dp4471
sg71
g4425
sg64
(lp4472
g57
(g78
g59
NtRp4473
(dp4474
g62
(dp4475
g82
g83
ssg71
g4469
sg64
(lp4476
g348
asbag57
(g78
g59
NtRp4477
(dp4478
g62
(dp4479
g89
g90
ssg71
g4469
sg64
(lp4480
S':'
asbag57
(g78
g59
NtRp4481
(dp4482
g62
(dp4483
sg71
g4469
sg64
(lp4484
g57
(g58
g59
NtRp4485
(dp4486
g62
(dp4487
g70
I3
ssg71
g4481
sg64
(lp4488
S''
asbasbasbag57
(g73
g59
NtRp4489
(dp4490
g62
(dp4491
sg71
g4425
sg64
(lp4492
g57
(g78
g59
NtRp4493
(dp4494
g62
(dp4495
g82
g83
ssg71
g4489
sg64
(lp4496
g369
asbag57
(g78
g59
NtRp4497
(dp4498
g62
(dp4499
g89
g90
ssg71
g4489
sg64
(lp4500
S':'
asbag57
(g78
g59
NtRp4501
(dp4502
g62
(dp4503
sg71
g4489
sg64
(lp4504
g57
(g58
g59
NtRp4505
(dp4506
g62
(dp4507
g70
I3
ssg71
g4501
sg64
(lp4508
S''
asbasbasbag57
(g73
g59
NtRp4509
(dp4510
g62
(dp4511
sg71
g4425
sg64
(lp4512
g57
(g78
g59
NtRp4513
(dp4514
g62
(dp4515
g82
g83
ssg71
g4509
sg64
(lp4516
g390
asbag57
(g78
g59
NtRp4517
(dp4518
g62
(dp4519
g89
g90
ssg71
g4509
sg64
(lp4520
S':'
asbag57
(g78
g59
NtRp4521
(dp4522
g62
(dp4523
sg71
g4509
sg64
(lp4524
g57
(g58
g59
NtRp4525
(dp4526
g62
(dp4527
g70
I3
ssg71
g4521
sg64
(lp4528
S''
asbasbasbag57
(g73
g59
NtRp4529
(dp4530
g62
(dp4531
sg71
g4425
sg64
(lp4532
g57
(g78
g59
NtRp4533
(dp4534
g62
(dp4535
g82
g83
ssg71
g4529
sg64
(lp4536
g411
asbag57
(g78
g59
NtRp4537
(dp4538
g62
(dp4539
g89
g90
ssg71
g4529
sg64
(lp4540
S':'
asbag57
(g78
g59
NtRp4541
(dp4542
g62
(dp4543
sg71
g4529
sg64
(lp4544
g57
(g58
g59
NtRp4545
(dp4546
g62
(dp4547
g70
I3
ssg71
g4541
sg64
(lp4548
S'/'
asbasbasbag57
(g73
g59
NtRp4549
(dp4550
g62
(dp4551
sg71
g4425
sg64
(lp4552
g57
(g78
g59
NtRp4553
(dp4554
g62
(dp4555
g82
g83
ssg71
g4549
sg64
(lp4556
g432
asbag57
(g78
g59
NtRp4557
(dp4558
g62
(dp4559
g89
g90
ssg71
g4549
sg64
(lp4560
S':'
asbag57
(g78
g59
NtRp4561
(dp4562
g62
(dp4563
sg71
g4549
sg64
(lp4564
g57
(g58
g59
NtRp4565
(dp4566
g62
(dp4567
g70
I3
ssg71
g4561
sg64
(lp4568
S''
asbasbasbag57
(g73
g59
NtRp4569
(dp4570
g62
(dp4571
sg71
g4425
sg64
(lp4572
g57
(g78
g59
NtRp4573
(dp4574
g62
(dp4575
g82
g83
ssg71
g4569
sg64
(lp4576
g453
asbag57
(g78
g59
NtRp4577
(dp4578
g62
(dp4579
g89
g90
ssg71
g4569
sg64
(lp4580
S':'
asbag57
(g78
g59
NtRp4581
(dp4582
g62
(dp4583
sg71
g4569
sg64
(lp4584
g57
(g58
g59
NtRp4585
(dp4586
g62
(dp4587
g70
I3
ssg71
g4581
sg64
(lp4588
S''
asbasbasbasbasbasbasbasbasbasbasbag57
(g73
g59
NtRp4589
(dp4590
g62
(dp4591
sg71
g4355
sg64
(lp4592
g57
(g78
g59
NtRp4593
(dp4594
g62
(dp4595
g82
g83
ssg71
g4589
sg64
(lp4596
S'delimiters'
p4597
asbag57
(g78
g59
NtRp4598
(dp4599
g62
(dp4600
g89
g90
ssg71
g4589
sg64
(lp4601
S':'
asbag57
(g78
g59
NtRp4602
(dp4603
g62
(dp4604
sg71
g4589
sg64
(lp4605
g57
(g58
g59
NtRp4606
(dp4607
g62
(dp4608
g70
I5
ssg71
g4602
sg64
(lp4609
g57
(g66
g59
NtRp4610
(dp4611
g62
(dp4612
g70
I4
ssg71
Nsg64
(lp4613
g57
(g73
g59
NtRp4614
(dp4615
g62
(dp4616
sg71
g4610
sg64
(lp4617
g57
(g78
g59
NtRp4618
(dp4619
g62
(dp4620
sg71
g4614
sg64
(lp4621
g57
(g58
g59
NtRp4622
(dp4623
g62
(dp4624
g70
I4
ssg71
g4618
sg64
(lp4625
S'{{'
p4626
asbasbasbag57
(g73
g59
NtRp4627
(dp4628
g62
(dp4629
sg71
g4610
sg64
(lp4630
g57
(g78
g59
NtRp4631
(dp4632
g62
(dp4633
sg71
g4627
sg64
(lp4634
g57
(g58
g59
NtRp4635
(dp4636
g62
(dp4637
g70
I4
ssg71
g4631
sg64
(lp4638
S'}}'
p4639
asbasbasbasbasbasbasbag57
(g73
g59
NtRp4640
(dp4641
g62
(dp4642
sg71
g4355
sg64
(lp4643
g57
(g78
g59
NtRp4644
(dp4645
g62
(dp4646
g82
g83
ssg71
g4640
sg64
(lp4647
S'files'
p4648
asbag57
(g78
g59
NtRp4649
(dp4650
g62
(dp4651
g89
g90
ssg71
g4640
sg64
(lp4652
S':'
asbag57
(g78
g59
NtRp4653
(dp4654
g62
(dp4655
sg71
g4640
sg64
(lp4656
g57
(g58
g59
NtRp4657
(dp4658
g62
(dp4659
g70
I5
ssg71
g4653
sg64
(lp4660
g57
(g66
g59
NtRp4661
(dp4662
g62
(dp4663
g70
I4
ssg71
Nsg64
(lp4664
sbasbasbasbag57
(g73
g59
NtRp4665
(dp4666
g62
(dp4667
sg71
g4355
sg64
(lp4668
g57
(g78
g59
NtRp4669
(dp4670
g62
(dp4671
g82
g83
ssg71
g4665
sg64
(lp4672
S'flash'
p4673
asbag57
(g78
g59
NtRp4674
(dp4675
g62
(dp4676
g89
g90
ssg71
g4665
sg64
(lp4677
S':'
asbag57
(g78
g59
NtRp4678
(dp4679
g62
(dp4680
sg71
g4665
sg64
(lp4681
g57
(g58
g59
NtRp4682
(dp4683
g62
(dp4684
g70
I5
ssg71
g4678
sg64
(lp4685
S''
asbasbasbag57
(g73
g59
NtRp4686
(dp4687
g62
(dp4688
sg71
g4355
sg64
(lp4689
g57
(g78
g59
NtRp4690
(dp4691
g62
(dp4692
g82
g83
ssg71
g4686
sg64
(lp4693
S'generic_patterns'
p4694
asbag57
(g78
g59
NtRp4695
(dp4696
g62
(dp4697
g89
g90
ssg71
g4686
sg64
(lp4698
S':'
asbag57
(g78
g59
NtRp4699
(dp4700
g62
(dp4701
sg71
g4686
sg64
(lp4702
g57
(g58
g59
NtRp4703
(dp4704
g62
(dp4705
g70
I5
ssg71
g4699
sg64
(lp4706
g57
(g66
g59
NtRp4707
(dp4708
g62
(dp4709
g70
I4
ssg71
Nsg64
(lp4710
g57
(g73
g59
NtRp4711
(dp4712
g62
(dp4713
sg71
g4707
sg64
(lp4714
g57
(g78
g59
NtRp4715
(dp4716
g62
(dp4717
sg71
g4711
sg64
(lp4718
g57
(g58
g59
NtRp4719
(dp4720
g62
(dp4721
g70
I4
ssg71
g4715
sg64
(lp4722
S'*'
asbasbasbasbasbasbasbag57
(g73
g59
NtRp4723
(dp4724
g62
(dp4725
sg71
g4355
sg64
(lp4726
g57
(g78
g59
NtRp4727
(dp4728
g62
(dp4729
g82
g83
ssg71
g4723
sg64
(lp4730
S'google_analytics_id'
p4731
asbag57
(g78
g59
NtRp4732
(dp4733
g62
(dp4734
g89
g90
ssg71
g4723
sg64
(lp4735
S':'
asbag57
(g78
g59
NtRp4736
(dp4737
g62
(dp4738
sg71
g4723
sg64
(lp4739
g57
(g58
g59
NtRp4740
(dp4741
g62
(dp4742
g70
I5
ssg71
g4736
sg64
(lp4743
S'None'
p4744
asbasbasbag57
(g73
g59
NtRp4745
(dp4746
g62
(dp4747
sg71
g4355
sg64
(lp4748
g57
(g78
g59
NtRp4749
(dp4750
g62
(dp4751
g82
g83
ssg71
g4745
sg64
(lp4752
S'headers'
p4753
asbag57
(g78
g59
NtRp4754
(dp4755
g62
(dp4756
g89
g90
ssg71
g4745
sg64
(lp4757
S':'
asbag57
(g78
g59
NtRp4758
(dp4759
g62
(dp4760
sg71
g4745
sg64
(lp4761
g57
(g58
g59
NtRp4762
(dp4763
g62
(dp4764
g70
I5
ssg71
g4758
sg64
(lp4765
g57
(g66
g59
NtRp4766
(dp4767
g62
(dp4768
g70
I4
ssg71
Nsg64
(lp4769
g57
(g73
g59
NtRp4770
(dp4771
g62
(dp4772
sg71
g4766
sg64
(lp4773
g57
(g78
g59
NtRp4774
(dp4775
g62
(dp4776
g82
g83
ssg71
g4770
sg64
(lp4777
S'X-Powered-By'
p4778
asbag57
(g78
g59
NtRp4779
(dp4780
g62
(dp4781
g89
g90
ssg71
g4770
sg64
(lp4782
S':'
asbag57
(g78
g59
NtRp4783
(dp4784
g62
(dp4785
sg71
g4770
sg64
(lp4786
g57
(g58
g59
NtRp4787
(dp4788
g62
(dp4789
g70
I4
ssg71
g4783
sg64
(lp4790
S'web2py'
p4791
asbasbasbasbasbasbasbag57
(g73
g59
NtRp4792
(dp4793
g62
(dp4794
sg71
g4355
sg64
(lp4795
g57
(g78
g59
NtRp4796
(dp4797
g62
(dp4798
g82
g83
ssg71
g4792
sg64
(lp4799
S'logo'
p4800
asbag57
(g78
g59
NtRp4801
(dp4802
g62
(dp4803
g89
g90
ssg71
g4792
sg64
(lp4804
S':'
asbag57
(g78
g59
NtRp4805
(dp4806
g62
(dp4807
sg71
g4792
sg64
(lp4808
g57
(g58
g59
NtRp4809
(dp4810
g62
(dp4811
g70
I5
ssg71
g4805
sg64
(lp4812
g57
(cgluon.html
A
p4813
g59
NtRp4814
(dp4815
g62
(dp4816
S'_class'
p4817
S'brand'
p4818
sS'_href'
p4819
S''
ssg71
Nsg64
(lp4820
g57
(cgluon.html
B
p4821
g59
NtRp4822
(dp4823
g62
(dp4824
sg71
g4814
sg64
(lp4825
S'Buy/Sell'
p4826
asbacgluon.html
XML_unpickle
p4827
(S's\r\x00\x00\x00&trade;&nbsp;'
tRp4828
asbasbasbasbag57
(g73
g59
NtRp4829
(dp4830
g62
(dp4831
sg71
g4355
sg64
(lp4832
g57
(g78
g59
NtRp4833
(dp4834
g62
(dp4835
g82
g83
ssg71
g4829
sg64
(lp4836
S'menu'
p4837
asbag57
(g78
g59
NtRp4838
(dp4839
g62
(dp4840
g89
g90
ssg71
g4829
sg64
(lp4841
S':'
asbag57
(g78
g59
NtRp4842
(dp4843
g62
(dp4844
sg71
g4829
sg64
(lp4845
g57
(g58
g59
NtRp4846
(dp4847
g62
(dp4848
g70
I5
ssg71
g4842
sg64
(lp4849
g57
(g66
g59
NtRp4850
(dp4851
g62
(dp4852
g70
I4
ssg71
Nsg64
(lp4853
g57
(g73
g59
NtRp4854
(dp4855
g62
(dp4856
sg71
g4850
sg64
(lp4857
g57
(g78
g59
NtRp4858
(dp4859
g62
(dp4860
sg71
g4854
sg64
(lp4861
g57
(g58
g59
NtRp4862
(dp4863
g62
(dp4864
g70
I4
ssg71
g4858
sg64
(lp4865
g57
(g66
g59
NtRp4866
(dp4867
g62
(dp4868
g70
I3
ssg71
Nsg64
(lp4869
g57
(g73
g59
NtRp4870
(dp4871
g62
(dp4872
sg71
g4866
sg64
(lp4873
g57
(g78
g59
NtRp4874
(dp4875
g62
(dp4876
sg71
g4870
sg64
(lp4877
g57
(g58
g59
NtRp4878
(dp4879
g62
(dp4880
g70
I3
ssg71
g4874
sg64
(lp4881
cgluon.languages
lazyT_unpickle
p4882
(S's\x04\x00\x00\x00Home'
tRp4883
asbasbasbag57
(g73
g59
NtRp4884
(dp4885
g62
(dp4886
sg71
g4866
sg64
(lp4887
g57
(g78
g59
NtRp4888
(dp4889
g62
(dp4890
sg71
g4884
sg64
(lp4891
g57
(g58
g59
NtRp4892
(dp4893
g62
(dp4894
g70
I3
ssg71
g4888
sg64
(lp4895
g100
asbasbasbag57
(g73
g59
NtRp4896
(dp4897
g62
(dp4898
sg71
g4866
sg64
(lp4899
g57
(g78
g59
NtRp4900
(dp4901
g62
(dp4902
sg71
g4896
sg64
(lp4903
g57
(g58
g59
NtRp4904
(dp4905
g62
(dp4906
g70
I3
ssg71
g4900
sg64
(lp4907
S'/BuySell/default/index'
p4908
asbasbasbag57
(g73
g59
NtRp4909
(dp4910
g62
(dp4911
sg71
g4866
sg64
(lp4912
g57
(g78
g59
NtRp4913
(dp4914
g62
(dp4915
sg71
g4909
sg64
(lp4916
g57
(g58
g59
NtRp4917
(dp4918
g62
(dp4919
g70
I3
ssg71
g4913
sg64
(lp4920
g57
(g66
g59
NtRp4921
(dp4922
g62
(dp4923
g70
I2
ssg71
Nsg64
(lp4924
sbasbasbasbasbasbasbasbasbasbasbasbag57
(g73
g59
NtRp4925
(dp4926
g62
(dp4927
sg71
g4355
sg64
(lp4928
g57
(g78
g59
NtRp4929
(dp4930
g62
(dp4931
g82
g83
ssg71
g4925
sg64
(lp4932
S'meta'
p4933
asbag57
(g78
g59
NtRp4934
(dp4935
g62
(dp4936
g89
g90
ssg71
g4925
sg64
(lp4937
S':'
asbag57
(g78
g59
NtRp4938
(dp4939
g62
(dp4940
sg71
g4925
sg64
(lp4941
g57
(g58
g59
NtRp4942
(dp4943
g62
(dp4944
g70
I5
ssg71
g4938
sg64
(lp4945
g57
(g66
g59
NtRp4946
(dp4947
g62
(dp4948
g70
I4
ssg71
Nsg64
(lp4949
g57
(g73
g59
NtRp4950
(dp4951
g62
(dp4952
sg71
g4946
sg64
(lp4953
g57
(g78
g59
NtRp4954
(dp4955
g62
(dp4956
g82
g83
ssg71
g4950
sg64
(lp4957
S'author'
p4958
asbag57
(g78
g59
NtRp4959
(dp4960
g62
(dp4961
g89
g90
ssg71
g4950
sg64
(lp4962
S':'
asbag57
(g78
g59
NtRp4963
(dp4964
g62
(dp4965
sg71
g4950
sg64
(lp4966
g57
(g58
g59
NtRp4967
(dp4968
g62
(dp4969
g70
I4
ssg71
g4963
sg64
(lp4970
S'Your Name <you@example.com>'
p4971
asbasbasbag57
(g73
g59
NtRp4972
(dp4973
g62
(dp4974
sg71
g4946
sg64
(lp4975
g57
(g78
g59
NtRp4976
(dp4977
g62
(dp4978
g82
g83
ssg71
g4972
sg64
(lp4979
S'description'
p4980
asbag57
(g78
g59
NtRp4981
(dp4982
g62
(dp4983
g89
g90
ssg71
g4972
sg64
(lp4984
S':'
asbag57
(g78
g59
NtRp4985
(dp4986
g62
(dp4987
sg71
g4972
sg64
(lp4988
g57
(g58
g59
NtRp4989
(dp4990
g62
(dp4991
g70
I4
ssg71
g4985
sg64
(lp4992
S'a cool new app'
p4993
asbasbasbag57
(g73
g59
NtRp4994
(dp4995
g62
(dp4996
sg71
g4946
sg64
(lp4997
g57
(g78
g59
NtRp4998
(dp4999
g62
(dp5000
g82
g83
ssg71
g4994
sg64
(lp5001
S'generator'
p5002
asbag57
(g78
g59
NtRp5003
(dp5004
g62
(dp5005
g89
g90
ssg71
g4994
sg64
(lp5006
S':'
asbag57
(g78
g59
NtRp5007
(dp5008
g62
(dp5009
sg71
g4994
sg64
(lp5010
g57
(g58
g59
NtRp5011
(dp5012
g62
(dp5013
g70
I4
ssg71
g5007
sg64
(lp5014
S'Web2py Web Framework'
p5015
asbasbasbag57
(g73
g59
NtRp5016
(dp5017
g62
(dp5018
sg71
g4946
sg64
(lp5019
g57
(g78
g59
NtRp5020
(dp5021
g62
(dp5022
g82
g83
ssg71
g5016
sg64
(lp5023
S'keywords'
p5024
asbag57
(g78
g59
NtRp5025
(dp5026
g62
(dp5027
g89
g90
ssg71
g5016
sg64
(lp5028
S':'
asbag57
(g78
g59
NtRp5029
(dp5030
g62
(dp5031
sg71
g5016
sg64
(lp5032
g57
(g58
g59
NtRp5033
(dp5034
g62
(dp5035
g70
I4
ssg71
g5029
sg64
(lp5036
S'web2py, python, framework'
p5037
asbasbasbasbasbasbasbag57
(g73
g59
NtRp5038
(dp5039
g62
(dp5040
sg71
g4355
sg64
(lp5041
g57
(g78
g59
NtRp5042
(dp5043
g62
(dp5044
g82
g83
ssg71
g5038
sg64
(lp5045
S'models_to_run'
p5046
asbag57
(g78
g59
NtRp5047
(dp5048
g62
(dp5049
g89
g90
ssg71
g5038
sg64
(lp5050
S':'
asbag57
(g78
g59
NtRp5051
(dp5052
g62
(dp5053
sg71
g5038
sg64
(lp5054
g57
(g58
g59
NtRp5055
(dp5056
g62
(dp5057
g70
I5
ssg71
g5051
sg64
(lp5058
g57
(g66
g59
NtRp5059
(dp5060
g62
(dp5061
g70
I4
ssg71
Nsg64
(lp5062
g57
(g73
g59
NtRp5063
(dp5064
g62
(dp5065
sg71
g5059
sg64
(lp5066
g57
(g78
g59
NtRp5067
(dp5068
g62
(dp5069
sg71
g5063
sg64
(lp5070
g57
(g58
g59
NtRp5071
(dp5072
g62
(dp5073
g70
I4
ssg71
g5067
sg64
(lp5074
S'^\\w+\\.py$'
p5075
asbasbasbag57
(g73
g59
NtRp5076
(dp5077
g62
(dp5078
sg71
g5059
sg64
(lp5079
g57
(g78
g59
NtRp5080
(dp5081
g62
(dp5082
sg71
g5076
sg64
(lp5083
g57
(g58
g59
NtRp5084
(dp5085
g62
(dp5086
g70
I4
ssg71
g5080
sg64
(lp5087
S'^default/\\w+\\.py$'
p5088
asbasbasbag57
(g73
g59
NtRp5089
(dp5090
g62
(dp5091
sg71
g5059
sg64
(lp5092
g57
(g78
g59
NtRp5093
(dp5094
g62
(dp5095
sg71
g5089
sg64
(lp5096
g57
(g58
g59
NtRp5097
(dp5098
g62
(dp5099
g70
I4
ssg71
g5093
sg64
(lp5100
S'^default/seller/\\w+\\.py$'
p5101
asbasbasbasbasbasbasbag57
(g73
g59
NtRp5102
(dp5103
g62
(dp5104
sg71
g4355
sg64
(lp5105
g57
(g78
g59
NtRp5106
(dp5107
g62
(dp5108
g82
g83
ssg71
g5102
sg64
(lp5109
S'postprocessing'
p5110
asbag57
(g78
g59
NtRp5111
(dp5112
g62
(dp5113
g89
g90
ssg71
g5102
sg64
(lp5114
S':'
asbag57
(g78
g59
NtRp5115
(dp5116
g62
(dp5117
sg71
g5102
sg64
(lp5118
g57
(g58
g59
NtRp5119
(dp5120
g62
(dp5121
g70
I5
ssg71
g5115
sg64
(lp5122
g57
(g66
g59
NtRp5123
(dp5124
g62
(dp5125
g70
I4
ssg71
Nsg64
(lp5126
sbasbasbasbag57
(g73
g59
NtRp5127
(dp5128
g62
(dp5129
sg71
g4355
sg64
(lp5130
g57
(g78
g59
NtRp5131
(dp5132
g62
(dp5133
g82
g83
ssg71
g5127
sg64
(lp5134
S'session_cookie_expires'
p5135
asbag57
(g78
g59
NtRp5136
(dp5137
g62
(dp5138
g89
g90
ssg71
g5127
sg64
(lp5139
S':'
asbag57
(g78
g59
NtRp5140
(dp5141
g62
(dp5142
sg71
g5127
sg64
(lp5143
g57
(g58
g59
NtRp5144
(dp5145
g62
(dp5146
g70
I5
ssg71
g5140
sg64
(lp5147
S'None'
p5148
asbasbasbag57
(g73
g59
NtRp5149
(dp5150
g62
(dp5151
sg71
g4355
sg64
(lp5152
g57
(g78
g59
NtRp5153
(dp5154
g62
(dp5155
g82
g83
ssg71
g5149
sg64
(lp5156
S'session_data_name'
p5157
asbag57
(g78
g59
NtRp5158
(dp5159
g62
(dp5160
g89
g90
ssg71
g5149
sg64
(lp5161
S':'
asbag57
(g78
g59
NtRp5162
(dp5163
g62
(dp5164
sg71
g5149
sg64
(lp5165
g57
(g58
g59
NtRp5166
(dp5167
g62
(dp5168
g70
I5
ssg71
g5162
sg64
(lp5169
S'session_data_buysell'
p5170
asbasbasbag57
(g73
g59
NtRp5171
(dp5172
g62
(dp5173
sg71
g4355
sg64
(lp5174
g57
(g78
g59
NtRp5175
(dp5176
g62
(dp5177
g82
g83
ssg71
g5171
sg64
(lp5178
S'session_file'
p5179
asbag57
(g78
g59
NtRp5180
(dp5181
g62
(dp5182
g89
g90
ssg71
g5171
sg64
(lp5183
S':'
asbag57
(g78
g59
NtRp5184
(dp5185
g62
(dp5186
sg71
g5171
sg64
(lp5187
g57
(g58
g59
NtRp5188
(dp5189
g62
(dp5190
g70
I5
ssg71
g5184
sg64
(lp5191
S"<open file '/home/pratyush/web2py/applications/BuySell/sessions/127.0.0.1-d5a07803-4f5c-44c8-b05d-2876d30ca822', mode 'rb+' at 0xb727e90>"
p5192
asbasbasbag57
(g73
g59
NtRp5193
(dp5194
g62
(dp5195
sg71
g4355
sg64
(lp5196
g57
(g78
g59
NtRp5197
(dp5198
g62
(dp5199
g82
g83
ssg71
g5193
sg64
(lp5200
S'session_filename'
p5201
asbag57
(g78
g59
NtRp5202
(dp5203
g62
(dp5204
g89
g90
ssg71
g5193
sg64
(lp5205
S':'
asbag57
(g78
g59
NtRp5206
(dp5207
g62
(dp5208
sg71
g5193
sg64
(lp5209
g57
(g58
g59
NtRp5210
(dp5211
g62
(dp5212
g70
I5
ssg71
g5206
sg64
(lp5213
S'/home/pratyush/web2py/applications/BuySell/sessions/127.0.0.1-d5a07803-4f5c-44c8-b05d-2876d30ca822'
p5214
asbasbasbag57
(g73
g59
NtRp5215
(dp5216
g62
(dp5217
sg71
g4355
sg64
(lp5218
g57
(g78
g59
NtRp5219
(dp5220
g62
(dp5221
g82
g83
ssg71
g5215
sg64
(lp5222
S'session_id'
p5223
asbag57
(g78
g59
NtRp5224
(dp5225
g62
(dp5226
g89
g90
ssg71
g5215
sg64
(lp5227
S':'
asbag57
(g78
g59
NtRp5228
(dp5229
g62
(dp5230
sg71
g5215
sg64
(lp5231
g57
(g58
g59
NtRp5232
(dp5233
g62
(dp5234
g70
I5
ssg71
g5228
sg64
(lp5235
g673
asbasbasbag57
(g73
g59
NtRp5236
(dp5237
g62
(dp5238
sg71
g4355
sg64
(lp5239
g57
(g78
g59
NtRp5240
(dp5241
g62
(dp5242
g82
g83
ssg71
g5236
sg64
(lp5243
S'session_id_name'
p5244
asbag57
(g78
g59
NtRp5245
(dp5246
g62
(dp5247
g89
g90
ssg71
g5236
sg64
(lp5248
S':'
asbag57
(g78
g59
NtRp5249
(dp5250
g62
(dp5251
sg71
g5236
sg64
(lp5252
g57
(g58
g59
NtRp5253
(dp5254
g62
(dp5255
g70
I5
ssg71
g5249
sg64
(lp5256
g4412
asbasbasbag57
(g73
g59
NtRp5257
(dp5258
g62
(dp5259
sg71
g4355
sg64
(lp5260
g57
(g78
g59
NtRp5261
(dp5262
g62
(dp5263
g82
g83
ssg71
g5257
sg64
(lp5264
S'session_locked'
p5265
asbag57
(g78
g59
NtRp5266
(dp5267
g62
(dp5268
g89
g90
ssg71
g5257
sg64
(lp5269
S':'
asbag57
(g78
g59
NtRp5270
(dp5271
g62
(dp5272
sg71
g5257
sg64
(lp5273
g57
(g58
g59
NtRp5274
(dp5275
g62
(dp5276
g70
I5
ssg71
g5270
sg64
(lp5277
g2383
asbasbasbag57
(g73
g59
NtRp5278
(dp5279
g62
(dp5280
sg71
g4355
sg64
(lp5281
g57
(g78
g59
NtRp5282
(dp5283
g62
(dp5284
g82
g83
ssg71
g5278
sg64
(lp5285
S'session_new'
p5286
asbag57
(g78
g59
NtRp5287
(dp5288
g62
(dp5289
g89
g90
ssg71
g5278
sg64
(lp5290
S':'
asbag57
(g78
g59
NtRp5291
(dp5292
g62
(dp5293
sg71
g5278
sg64
(lp5294
g57
(g58
g59
NtRp5295
(dp5296
g62
(dp5297
g70
I5
ssg71
g5291
sg64
(lp5298
g100
asbasbasbag57
(g73
g59
NtRp5299
(dp5300
g62
(dp5301
sg71
g4355
sg64
(lp5302
g57
(g78
g59
NtRp5303
(dp5304
g62
(dp5305
g82
g83
ssg71
g5299
sg64
(lp5306
S'session_storage_type'
p5307
asbag57
(g78
g59
NtRp5308
(dp5309
g62
(dp5310
g89
g90
ssg71
g5299
sg64
(lp5311
S':'
asbag57
(g78
g59
NtRp5312
(dp5313
g62
(dp5314
sg71
g5299
sg64
(lp5315
g57
(g58
g59
NtRp5316
(dp5317
g62
(dp5318
g70
I5
ssg71
g5312
sg64
(lp5319
g3856
asbasbasbag57
(g73
g59
NtRp5320
(dp5321
g62
(dp5322
sg71
g4355
sg64
(lp5323
g57
(g78
g59
NtRp5324
(dp5325
g62
(dp5326
g82
g83
ssg71
g5320
sg64
(lp5327
S'status'
p5328
asbag57
(g78
g59
NtRp5329
(dp5330
g62
(dp5331
g89
g90
ssg71
g5320
sg64
(lp5332
S':'
asbag57
(g78
g59
NtRp5333
(dp5334
g62
(dp5335
sg71
g5320
sg64
(lp5336
g57
(g58
g59
NtRp5337
(dp5338
g62
(dp5339
g70
I5
ssg71
g5333
sg64
(lp5340
S'200'
p5341
asbasbasbag57
(g73
g59
NtRp5342
(dp5343
g62
(dp5344
sg71
g4355
sg64
(lp5345
g57
(g78
g59
NtRp5346
(dp5347
g62
(dp5348
g82
g83
ssg71
g5342
sg64
(lp5349
S'subtitle'
p5350
asbag57
(g78
g59
NtRp5351
(dp5352
g62
(dp5353
g89
g90
ssg71
g5342
sg64
(lp5354
S':'
asbag57
(g78
g59
NtRp5355
(dp5356
g62
(dp5357
sg71
g5342
sg64
(lp5358
g57
(g58
g59
NtRp5359
(dp5360
g62
(dp5361
g70
I5
ssg71
g5355
sg64
(lp5362
g4882
(S's\r\x00\x00\x00customize me!'
tRp5363
asbasbasbag57
(g73
g59
NtRp5364
(dp5365
g62
(dp5366
sg71
g4355
sg64
(lp5367
g57
(g78
g59
NtRp5368
(dp5369
g62
(dp5370
g82
g83
ssg71
g5364
sg64
(lp5371
S'title'
p5372
asbag57
(g78
g59
NtRp5373
(dp5374
g62
(dp5375
g89
g90
ssg71
g5364
sg64
(lp5376
S':'
asbag57
(g78
g59
NtRp5377
(dp5378
g62
(dp5379
sg71
g5364
sg64
(lp5380
g57
(g58
g59
NtRp5381
(dp5382
g62
(dp5383
g70
I5
ssg71
g5377
sg64
(lp5384
S'Buysell'
p5385
asbasbasbag57
(g73
g59
NtRp5386
(dp5387
g62
(dp5388
sg71
g4355
sg64
(lp5389
g57
(g78
g59
NtRp5390
(dp5391
g62
(dp5392
g82
g83
ssg71
g5386
sg64
(lp5393
S'view'
p5394
asbag57
(g78
g59
NtRp5395
(dp5396
g62
(dp5397
g89
g90
ssg71
g5386
sg64
(lp5398
S':'
asbag57
(g78
g59
NtRp5399
(dp5400
g62
(dp5401
sg71
g5386
sg64
(lp5402
g57
(g58
g59
NtRp5403
(dp5404
g62
(dp5405
g70
I5
ssg71
g5399
sg64
(lp5406
S'default/seller.html'
p5407
asbasbasbasbasbsS'locals'
p5408
(dp5409
g3174
g45
sS'hash_vars'
p5410
g2383
sS'port'
p5411
S'None'
p5412
sg109
S'None'
p5413
sS'user_signature'
p5414
S'None'
p5415
sg1404
S'None'
p5416
sS'url_encode'
p5417
g2383
sS'scheme'
p5418
S'None'
p5419
sg2528
S'None'
p5420
sS'encode_embedded_slash'
p5421
g100
sg42
S'[]'
p5422
sS'url_out'
p5423
S'<function url_out>'
p5424
sg233
S'None'
p5425
sS'a'
S"'BuySell'"
p5426
sS'c'
S"'default'"
p5427
sg2484
S'None'
p5428
sS'f'
S"'categories'"
p5429
sS'host'
p5430
S'None'
p5431
sS'hmac_key'
p5432
S'None'
p5433
sS'r'
S"'2'"
p5434
sS'salt'
p5435
S'None'
p5436
sS'anchor'
p5437
S"''"
p5438
sssS'traceback'
p5439
S'Traceback (most recent call last):\n  File "/home/pratyush/web2py/gluon/restricted.py", line 212, in restricted\n    exec ccode in environment\n  File "/home/pratyush/web2py/applications/BuySell/models/menu.py", line 93, in <module>\n    if DEVELOPMENT_MENU: _()\n  File "/home/pratyush/web2py/applications/BuySell/models/menu.py", line 70, in _\n    URL(\'BuySell\', \'default\', \'categories\',\'2\')),\n  File "/home/pratyush/web2py/gluon/html.py", line 264, in URL\n    application = r.application\nAttributeError: \'str\' object has no attribute \'application\'\n'
p5440
s.