(dp1
S'output'
p2
S"<type 'exceptions.SyntaxError'> invalid syntax (db.py, line 166)"
p3
sS'layer'
p4
S'/home/pratyush/web2py/applications/BuySell/models/db.py'
p5
sS'code'
p6
S"# -*- coding: utf-8 -*-\n\n#########################################################################\n## This scaffolding model makes your app work on Google App Engine too\n## File is released under public domain and you can use without limitations\n#########################################################################\n\n## if SSL/HTTPS is properly configured and you want all HTTP requests to\n## be redirected to HTTPS, uncomment the line below:\n# request.requires_https()\n\nif not request.env.web2py_runtime_gae:\n    ## if NOT running on Google App Engine use SQLite or other DB\n    db = DAL('sqlite://storage.sqlite',pool_size=1,check_reserved=['all'])\nelse:\n    ## connect to Google BigTable (optional 'google:datastore://namespace')\n    db = DAL('google:datastore')\n    ## store sessions and tickets there\n    session.connect(request, response, db=db)\n    ## or store session in Memcache, Redis, etc.\n    ## from gluon.contrib.memdb import MEMDB\n    ## from google.appengine.api.memcache import Client\n    ## session.connect(request, response, db = MEMDB(Client()))\n\n## by default give a view/generic.extension to all actions from localhost\n## none otherwise. a pattern can be 'controller/function.extension'\nresponse.generic_patterns = ['*'] if request.is_local else []\n## (optional) optimize handling of static files\n# response.optimize_css = 'concat,minify,inline'\n# response.optimize_js = 'concat,minify,inline'\n\n#########################################################################\n## Here is sample code if you need for\n## - email capabilities\n## - authentication (registration, login, logout, ... )\n## - authorization (role based authorization)\n## - services (xml, csv, json, xmlrpc, jsonrpc, amf, rss)\n## - old style crud actions\n## (more options discussed in gluon/tools.py)\n#########################################################################\n\nfrom gluon.tools import Auth, Crud, Service, PluginManager, prettydate\nauth = Auth(db)\ncrud, service, plugins = Crud(db), Service(), PluginManager()\n\n## create all tables needed by auth if not custom tables\nauth.define_tables(username=False, signature=False)\n\n## configure email\nmail = auth.settings.mailer\nmail.settings.server = 'logging' or 'smtp.gmail.com:587'\nmail.settings.sender = 'you@gmail.com'\nmail.settings.login = 'username:password'\n\n## configure auth policy\nauth.settings.registration_requires_verification = False\nauth.settings.registration_requires_approval = False\nauth.settings.reset_password_requires_verification = True\n\n## if you need to use OpenID, Facebook, MySpace, Twitter, Linkedin, etc.\n## register with janrain.com, write your domain:api_key in private/janrain.key\nfrom gluon.contrib.login_methods.rpx_account import use_janrain\nuse_janrain(auth, filename='private/janrain.key')\n\n#########################################################################\n## Define your tables below (or better in another model file) for example\n##\n## >>> db.define_table('mytable',Field('myfield','string'))\n##\n## Fields can be 'string','text','password','integer','double','boolean'\n##       'date','time','datetime','blob','upload', 'reference TABLENAME'\n## There is an implicit 'id integer autoincrement' field\n## Consult manual for more options, validators, etc.\n##\n## More API examples for controllers:\n##\n## >>> db.mytable.insert(myfield='value')\n## >>> rows=db(db.mytable.myfield=='value').select(db.mytable.ALL)\n## >>> for row in rows: print row.id, row.myfield\n#########################################################################\n\n## after defining tables, uncomment below to enable auditing\n# auth.enable_record_versioning(db)\n\ndb.define_table('item',                         \n                Field('name',requires = IS_NOT_EMPTY()),\n                Field('category',\n                      requires = IS_IN_SET(['Arts and Crafts','Clothing','Gifts','Footwears']),\n                      default = 'Arts and Crafts'),        \n                Field('price', 'integer',requires = IS_NOT_EMPTY()),\n                Field('image','upload'),\n                Field('selling_type',requires = IS_IN_SET(['Bid','Buy']),default = 'Bid'),\n                Field('seller',\n                      db.auth_user,\n                      default=auth.user_id,\n                      writable=False,\n                      readable=False,\n                      requires=IS_IN_DB(db, db.auth_user.id,'%(first_name)s')),\n                Field('description','text',requires = IS_NOT_EMPTY()),\n                Field('created_on','datetime',\n                      default=request.now,\n                      update=request.now,\n                      writable=False))\n\ndb.define_table('sold',\n                Field('item_id',db.item, requires=IS_IN_DB(db,db.item.id, '%(name)s')),\n                Field('price','integer'),\n                Field('buyer',\n                      db.auth_user,\n                      default=auth.user_id,\n                      writable=False,\n                      readable=False,\n                      requires=IS_IN_DB(db, db.auth_user.id,'%(first_name)s')))\n\ndb.define_table('wish',\n                Field('name',requires = IS_NOT_EMPTY()),\n                Field('category',\n                      requires = IS_IN_SET(['Arts and Crafts','Clothing','Gifts','Footwears']),\n                      default = 'Arts and Crafts'),\n                Field('price', 'integer'),\n                Field('image','upload'),\n                Field('buyer',\n                      db.auth_user,\n                      default=auth.user_id,\n                      writable=False,\n                      readable=False,\n                      requires=IS_IN_DB(db, db.auth_user.id,'%(first_name)s')),\n                Field('description','text',requires = IS_NOT_EMPTY()))\n\ndb.define_table('bid',\n                Field('item_id',db.item,\n                      readable = False,\n                      writable = False, \n                      requires=IS_IN_DB(db,db.item.id, '%(name)s')),\n                Field('amount','integer'),\n                Field('bidder',\n                      db.auth_user,\n                      default=auth.user_id,\n                      writable=False,\n                      readable=False,\n                      requires=IS_IN_DB(db, db.auth_user.id,'%(first_name)s')),\n                Field('created_on','datetime',\n                      default=request.now,\n                      update=request.now,\n                      writable=False))\n\ndb.define_table('buy',\n                Field('item_id'),\n                Field('buyer',\n                      db.auth_user,\n                      default=auth.user_id,\n                      writable=False,\n                      readable=False,\n                      requires=IS_IN_DB(db, db.auth_user.id,'%(first_name)s')))\n\ndb.define_table('fulfil',\n                Field('wish_id',db.wish, requires=IS_IN_DB(db,db.wish.id, '%(name)s')),\n                Field('item_id',db.wish, requires=IS_IN_DB(db,db.wish.id, '%(name)s'),\n                Field('seller',\n                      db.auth_user,\n                      default=auth.user_id,\n                      writable=False,\n                      readable=False,\n                      requires=IS_IN_DB(db, db.auth_user.id,'%(first_name)s')))\n\ndb.define_table('rating',\n                Field('rate',requires = IS_INT_IN_RANGE(0,6)),\n                Field('seller',\n                      db.auth_user,\n                      writable = False,\n                      readable = False,\n                      requires=IS_IN_DB(db, db.auth_user.id)))\n\ndb.define_table('cart',\n                Field('item_id',db.item, requires=IS_IN_DB(db,db.wish.id, '%(name)s')),\n                Field('user_id',\n                      db.auth_user,\n                      default=auth.user_id,\n                      writable=False,\n                      readable=False,\n                      requires=IS_IN_DB(db, db.auth_user.id,'%(first_name)s')))\n\ndb.define_table('reviews',\n                Field('item_id',db.item,\n                      requires=IS_IN_DB(db,db.wish.id, '%(name)s'),\n                      readable=False,\n                      writable=False),\n                Field('user_id',\n                      db.auth_user,\n                      default=auth.user_id,\n                      writable=False,\n                      readable=False,\n                      requires=IS_IN_DB(db, db.auth_user.id,'%(first_name)s')),\n                Field('review','text'))\n"
p7
sS'snapshot'
p8
(dp9
S'exception'
p10
(dp11
S'__getslice__'
p12
S"<method-wrapper '__getslice__' of exceptions.SyntaxError object>"
p13
sS'text'
p14
S'"db.define_table(\'rating\',\\n"'
p15
sS'__str__'
p16
S"<method-wrapper '__str__' of exceptions.SyntaxError object>"
p17
sS'__reduce__'
p18
S'<built-in method __reduce__ of exceptions.SyntaxError object>'
p19
sS'__dict__'
p20
S'{}'
p21
sS'__sizeof__'
p22
S'<built-in method __sizeof__ of exceptions.SyntaxError object>'
p23
sS'__init__'
p24
S"<method-wrapper '__init__' of exceptions.SyntaxError object>"
p25
sS'__setattr__'
p26
S"<method-wrapper '__setattr__' of exceptions.SyntaxError object>"
p27
sS'__reduce_ex__'
p28
S'<built-in method __reduce_ex__ of exceptions.SyntaxError object>'
p29
sS'__new__'
p30
S'<built-in method __new__ of type object>'
p31
sS'__format__'
p32
S'<built-in method __format__ of exceptions.SyntaxError object>'
p33
sS'__class__'
p34
S"<type 'exceptions.SyntaxError'>"
p35
sS'filename'
p36
S"'/home/pratyush/web2py/applications/BuySell/models/db.py'"
p37
sS'lineno'
p38
S'166'
p39
sS'msg'
p40
S"'invalid syntax'"
p41
sS'__doc__'
p42
S"'Invalid syntax.'"
p43
sS'__getitem__'
p44
S"<method-wrapper '__getitem__' of exceptions.SyntaxError object>"
p45
sS'__setstate__'
p46
S'<built-in method __setstate__ of exceptions.SyntaxError object>'
p47
sS'__getattribute__'
p48
S"<method-wrapper '__getattribute__' of exceptions.SyntaxError object>"
p49
sS'print_file_and_line'
p50
S'None'
p51
sS'args'
p52
S'(\'invalid syntax\', (\'/home/pratyush/web2py/applications/BuySell/models/db.py\', 166, 2, "db.define_table(\'rating\',\\n"))'
p53
sS'__subclasshook__'
p54
S'<built-in method __subclasshook__ of type object>'
p55
sS'offset'
p56
S'2'
sS'__unicode__'
p57
S'<built-in method __unicode__ of exceptions.SyntaxError object>'
p58
sS'__delattr__'
p59
S"<method-wrapper '__delattr__' of exceptions.SyntaxError object>"
p60
sS'__repr__'
p61
S"<method-wrapper '__repr__' of exceptions.SyntaxError object>"
p62
sS'__hash__'
p63
S"<method-wrapper '__hash__' of exceptions.SyntaxError object>"
p64
ssS'evalue'
p65
S'invalid syntax (db.py, line 166)'
p66
sS'request'
p67
ccopy_reg
_reconstructor
p68
(cgluon.html
BEAUTIFY
p69
c__builtin__
object
p70
NtRp71
(dp72
S'attributes'
p73
(dp74
sS'components'
p75
(lp76
g68
(cgluon.html
TABLE
p77
g70
NtRp78
(dp79
g73
(dp80
S'level'
p81
I5
ssS'parent'
p82
Nsg75
(lp83
g68
(cgluon.html
TR
p84
g70
NtRp85
(dp86
g73
(dp87
sg82
g78
sg75
(lp88
g68
(cgluon.html
TD
p89
g70
NtRp90
(dp91
g73
(dp92
S'_style'
p93
S'font-weight:bold;vertical-align:top'
p94
ssg82
g85
sg75
(lp95
S'ajax'
p96
asbag68
(g89
g70
NtRp97
(dp98
g73
(dp99
S'_valign'
p100
S'top'
p101
ssg82
g85
sg75
(lp102
S':'
asbag68
(g89
g70
NtRp103
(dp104
g73
(dp105
sg82
g85
sg75
(lp106
g68
(g69
g70
NtRp107
(dp108
g73
(dp109
g81
I5
ssg82
g103
sg75
(lp110
S'False'
p111
asbasbasbag68
(g84
g70
NtRp112
(dp113
g73
(dp114
sg82
g78
sg75
(lp115
g68
(g89
g70
NtRp116
(dp117
g73
(dp118
g93
g94
ssg82
g112
sg75
(lp119
S'application'
p120
asbag68
(g89
g70
NtRp121
(dp122
g73
(dp123
g100
g101
ssg82
g112
sg75
(lp124
S':'
asbag68
(g89
g70
NtRp125
(dp126
g73
(dp127
sg82
g112
sg75
(lp128
g68
(g69
g70
NtRp129
(dp130
g73
(dp131
g81
I5
ssg82
g125
sg75
(lp132
S'BuySell'
p133
asbasbasbag68
(g84
g70
NtRp134
(dp135
g73
(dp136
sg82
g78
sg75
(lp137
g68
(g89
g70
NtRp138
(dp139
g73
(dp140
g93
g94
ssg82
g134
sg75
(lp141
g52
asbag68
(g89
g70
NtRp142
(dp143
g73
(dp144
g100
g101
ssg82
g134
sg75
(lp145
S':'
asbag68
(g89
g70
NtRp146
(dp147
g73
(dp148
sg82
g134
sg75
(lp149
g68
(g69
g70
NtRp150
(dp151
g73
(dp152
g81
I5
ssg82
g146
sg75
(lp153
g68
(g77
g70
NtRp154
(dp155
g73
(dp156
g81
I4
ssg82
Nsg75
(lp157
sbasbasbasbag68
(g84
g70
NtRp158
(dp159
g73
(dp160
sg82
g78
sg75
(lp161
g68
(g89
g70
NtRp162
(dp163
g73
(dp164
g93
g94
ssg82
g158
sg75
(lp165
S'body'
p166
asbag68
(g89
g70
NtRp167
(dp168
g73
(dp169
g100
g101
ssg82
g158
sg75
(lp170
S':'
asbag68
(g89
g70
NtRp171
(dp172
g73
(dp173
sg82
g158
sg75
(lp174
g68
(g69
g70
NtRp175
(dp176
g73
(dp177
g81
I5
ssg82
g171
sg75
(lp178
S'<cStringIO.StringO object at 0xa006d20>'
p179
asbasbasbag68
(g84
g70
NtRp180
(dp181
g73
(dp182
sg82
g78
sg75
(lp183
g68
(g89
g70
NtRp184
(dp185
g73
(dp186
g93
g94
ssg82
g180
sg75
(lp187
S'cid'
p188
asbag68
(g89
g70
NtRp189
(dp190
g73
(dp191
g100
g101
ssg82
g180
sg75
(lp192
S':'
asbag68
(g89
g70
NtRp193
(dp194
g73
(dp195
sg82
g180
sg75
(lp196
g68
(g69
g70
NtRp197
(dp198
g73
(dp199
g81
I5
ssg82
g193
sg75
(lp200
S'None'
p201
asbasbasbag68
(g84
g70
NtRp202
(dp203
g73
(dp204
sg82
g78
sg75
(lp205
g68
(g89
g70
NtRp206
(dp207
g73
(dp208
g93
g94
ssg82
g202
sg75
(lp209
S'client'
p210
asbag68
(g89
g70
NtRp211
(dp212
g73
(dp213
g100
g101
ssg82
g202
sg75
(lp214
S':'
asbag68
(g89
g70
NtRp215
(dp216
g73
(dp217
sg82
g202
sg75
(lp218
g68
(g69
g70
NtRp219
(dp220
g73
(dp221
g81
I5
ssg82
g215
sg75
(lp222
S'127.0.0.1'
p223
asbasbasbag68
(g84
g70
NtRp224
(dp225
g73
(dp226
sg82
g78
sg75
(lp227
g68
(g89
g70
NtRp228
(dp229
g73
(dp230
g93
g94
ssg82
g224
sg75
(lp231
S'controller'
p232
asbag68
(g89
g70
NtRp233
(dp234
g73
(dp235
g100
g101
ssg82
g224
sg75
(lp236
S':'
asbag68
(g89
g70
NtRp237
(dp238
g73
(dp239
sg82
g224
sg75
(lp240
g68
(g69
g70
NtRp241
(dp242
g73
(dp243
g81
I5
ssg82
g237
sg75
(lp244
S'default'
p245
asbasbasbag68
(g84
g70
NtRp246
(dp247
g73
(dp248
sg82
g78
sg75
(lp249
g68
(g89
g70
NtRp250
(dp251
g73
(dp252
g93
g94
ssg82
g246
sg75
(lp253
S'cookies'
p254
asbag68
(g89
g70
NtRp255
(dp256
g73
(dp257
g100
g101
ssg82
g246
sg75
(lp258
S':'
asbag68
(g89
g70
NtRp259
(dp260
g73
(dp261
sg82
g246
sg75
(lp262
g68
(g69
g70
NtRp263
(dp264
g73
(dp265
g81
I5
ssg82
g259
sg75
(lp266
g68
(g77
g70
NtRp267
(dp268
g73
(dp269
g81
I4
ssg82
Nsg75
(lp270
g68
(g84
g70
NtRp271
(dp272
g73
(dp273
sg82
g267
sg75
(lp274
g68
(g89
g70
NtRp275
(dp276
g73
(dp277
g93
g94
ssg82
g271
sg75
(lp278
S'registered'
p279
asbag68
(g89
g70
NtRp280
(dp281
g73
(dp282
g100
g101
ssg82
g271
sg75
(lp283
S':'
asbag68
(g89
g70
NtRp284
(dp285
g73
(dp286
sg82
g271
sg75
(lp287
g68
(g69
g70
NtRp288
(dp289
g73
(dp290
g81
I4
ssg82
g284
sg75
(lp291
S'yes'
p292
ag68
(g77
g70
NtRp293
(dp294
g73
(dp295
g81
I3
ssg82
Nsg75
(lp296
g68
(g84
g70
NtRp297
(dp298
g73
(dp299
sg82
g293
sg75
(lp300
g68
(g89
g70
NtRp301
(dp302
g73
(dp303
g93
g94
ssg82
g297
sg75
(lp304
S'comment'
p305
asbag68
(g89
g70
NtRp306
(dp307
g73
(dp308
g100
g101
ssg82
g297
sg75
(lp309
S':'
asbag68
(g89
g70
NtRp310
(dp311
g73
(dp312
sg82
g297
sg75
(lp313
g68
(g69
g70
NtRp314
(dp315
g73
(dp316
g81
I3
ssg82
g310
sg75
(lp317
S''
asbasbasbag68
(g84
g70
NtRp318
(dp319
g73
(dp320
sg82
g293
sg75
(lp321
g68
(g89
g70
NtRp322
(dp323
g73
(dp324
g93
g94
ssg82
g318
sg75
(lp325
S'domain'
p326
asbag68
(g89
g70
NtRp327
(dp328
g73
(dp329
g100
g101
ssg82
g318
sg75
(lp330
S':'
asbag68
(g89
g70
NtRp331
(dp332
g73
(dp333
sg82
g318
sg75
(lp334
g68
(g69
g70
NtRp335
(dp336
g73
(dp337
g81
I3
ssg82
g331
sg75
(lp338
S''
asbasbasbag68
(g84
g70
NtRp339
(dp340
g73
(dp341
sg82
g293
sg75
(lp342
g68
(g89
g70
NtRp343
(dp344
g73
(dp345
g93
g94
ssg82
g339
sg75
(lp346
S'expires'
p347
asbag68
(g89
g70
NtRp348
(dp349
g73
(dp350
g100
g101
ssg82
g339
sg75
(lp351
S':'
asbag68
(g89
g70
NtRp352
(dp353
g73
(dp354
sg82
g339
sg75
(lp355
g68
(g69
g70
NtRp356
(dp357
g73
(dp358
g81
I3
ssg82
g352
sg75
(lp359
S''
asbasbasbag68
(g84
g70
NtRp360
(dp361
g73
(dp362
sg82
g293
sg75
(lp363
g68
(g89
g70
NtRp364
(dp365
g73
(dp366
g93
g94
ssg82
g360
sg75
(lp367
S'httponly'
p368
asbag68
(g89
g70
NtRp369
(dp370
g73
(dp371
g100
g101
ssg82
g360
sg75
(lp372
S':'
asbag68
(g89
g70
NtRp373
(dp374
g73
(dp375
sg82
g360
sg75
(lp376
g68
(g69
g70
NtRp377
(dp378
g73
(dp379
g81
I3
ssg82
g373
sg75
(lp380
S''
asbasbasbag68
(g84
g70
NtRp381
(dp382
g73
(dp383
sg82
g293
sg75
(lp384
g68
(g89
g70
NtRp385
(dp386
g73
(dp387
g93
g94
ssg82
g381
sg75
(lp388
S'max-age'
p389
asbag68
(g89
g70
NtRp390
(dp391
g73
(dp392
g100
g101
ssg82
g381
sg75
(lp393
S':'
asbag68
(g89
g70
NtRp394
(dp395
g73
(dp396
sg82
g381
sg75
(lp397
g68
(g69
g70
NtRp398
(dp399
g73
(dp400
g81
I3
ssg82
g394
sg75
(lp401
S''
asbasbasbag68
(g84
g70
NtRp402
(dp403
g73
(dp404
sg82
g293
sg75
(lp405
g68
(g89
g70
NtRp406
(dp407
g73
(dp408
g93
g94
ssg82
g402
sg75
(lp409
S'path'
p410
asbag68
(g89
g70
NtRp411
(dp412
g73
(dp413
g100
g101
ssg82
g402
sg75
(lp414
S':'
asbag68
(g89
g70
NtRp415
(dp416
g73
(dp417
sg82
g402
sg75
(lp418
g68
(g69
g70
NtRp419
(dp420
g73
(dp421
g81
I3
ssg82
g415
sg75
(lp422
S''
asbasbasbag68
(g84
g70
NtRp423
(dp424
g73
(dp425
sg82
g293
sg75
(lp426
g68
(g89
g70
NtRp427
(dp428
g73
(dp429
g93
g94
ssg82
g423
sg75
(lp430
S'secure'
p431
asbag68
(g89
g70
NtRp432
(dp433
g73
(dp434
g100
g101
ssg82
g423
sg75
(lp435
S':'
asbag68
(g89
g70
NtRp436
(dp437
g73
(dp438
sg82
g423
sg75
(lp439
g68
(g69
g70
NtRp440
(dp441
g73
(dp442
g81
I3
ssg82
g436
sg75
(lp443
S''
asbasbasbag68
(g84
g70
NtRp444
(dp445
g73
(dp446
sg82
g293
sg75
(lp447
g68
(g89
g70
NtRp448
(dp449
g73
(dp450
g93
g94
ssg82
g444
sg75
(lp451
S'version'
p452
asbag68
(g89
g70
NtRp453
(dp454
g73
(dp455
g100
g101
ssg82
g444
sg75
(lp456
S':'
asbag68
(g89
g70
NtRp457
(dp458
g73
(dp459
sg82
g444
sg75
(lp460
g68
(g69
g70
NtRp461
(dp462
g73
(dp463
g81
I3
ssg82
g457
sg75
(lp464
S''
asbasbasbasbasbasbasbag68
(g84
g70
NtRp465
(dp466
g73
(dp467
sg82
g267
sg75
(lp468
g68
(g89
g70
NtRp469
(dp470
g73
(dp471
g93
g94
ssg82
g465
sg75
(lp472
S'session_id_admin'
p473
asbag68
(g89
g70
NtRp474
(dp475
g73
(dp476
g100
g101
ssg82
g465
sg75
(lp477
S':'
asbag68
(g89
g70
NtRp478
(dp479
g73
(dp480
sg82
g465
sg75
(lp481
g68
(g69
g70
NtRp482
(dp483
g73
(dp484
g81
I4
ssg82
g478
sg75
(lp485
S'127.0.0.1-5c3e6318-3a14-4ff1-97a6-1063e44c4cd9'
p486
ag68
(g77
g70
NtRp487
(dp488
g73
(dp489
g81
I3
ssg82
Nsg75
(lp490
g68
(g84
g70
NtRp491
(dp492
g73
(dp493
sg82
g487
sg75
(lp494
g68
(g89
g70
NtRp495
(dp496
g73
(dp497
g93
g94
ssg82
g491
sg75
(lp498
g305
asbag68
(g89
g70
NtRp499
(dp500
g73
(dp501
g100
g101
ssg82
g491
sg75
(lp502
S':'
asbag68
(g89
g70
NtRp503
(dp504
g73
(dp505
sg82
g491
sg75
(lp506
g68
(g69
g70
NtRp507
(dp508
g73
(dp509
g81
I3
ssg82
g503
sg75
(lp510
S''
asbasbasbag68
(g84
g70
NtRp511
(dp512
g73
(dp513
sg82
g487
sg75
(lp514
g68
(g89
g70
NtRp515
(dp516
g73
(dp517
g93
g94
ssg82
g511
sg75
(lp518
g326
asbag68
(g89
g70
NtRp519
(dp520
g73
(dp521
g100
g101
ssg82
g511
sg75
(lp522
S':'
asbag68
(g89
g70
NtRp523
(dp524
g73
(dp525
sg82
g511
sg75
(lp526
g68
(g69
g70
NtRp527
(dp528
g73
(dp529
g81
I3
ssg82
g523
sg75
(lp530
S''
asbasbasbag68
(g84
g70
NtRp531
(dp532
g73
(dp533
sg82
g487
sg75
(lp534
g68
(g89
g70
NtRp535
(dp536
g73
(dp537
g93
g94
ssg82
g531
sg75
(lp538
g347
asbag68
(g89
g70
NtRp539
(dp540
g73
(dp541
g100
g101
ssg82
g531
sg75
(lp542
S':'
asbag68
(g89
g70
NtRp543
(dp544
g73
(dp545
sg82
g531
sg75
(lp546
g68
(g69
g70
NtRp547
(dp548
g73
(dp549
g81
I3
ssg82
g543
sg75
(lp550
S''
asbasbasbag68
(g84
g70
NtRp551
(dp552
g73
(dp553
sg82
g487
sg75
(lp554
g68
(g89
g70
NtRp555
(dp556
g73
(dp557
g93
g94
ssg82
g551
sg75
(lp558
g368
asbag68
(g89
g70
NtRp559
(dp560
g73
(dp561
g100
g101
ssg82
g551
sg75
(lp562
S':'
asbag68
(g89
g70
NtRp563
(dp564
g73
(dp565
sg82
g551
sg75
(lp566
g68
(g69
g70
NtRp567
(dp568
g73
(dp569
g81
I3
ssg82
g563
sg75
(lp570
S''
asbasbasbag68
(g84
g70
NtRp571
(dp572
g73
(dp573
sg82
g487
sg75
(lp574
g68
(g89
g70
NtRp575
(dp576
g73
(dp577
g93
g94
ssg82
g571
sg75
(lp578
g389
asbag68
(g89
g70
NtRp579
(dp580
g73
(dp581
g100
g101
ssg82
g571
sg75
(lp582
S':'
asbag68
(g89
g70
NtRp583
(dp584
g73
(dp585
sg82
g571
sg75
(lp586
g68
(g69
g70
NtRp587
(dp588
g73
(dp589
g81
I3
ssg82
g583
sg75
(lp590
S''
asbasbasbag68
(g84
g70
NtRp591
(dp592
g73
(dp593
sg82
g487
sg75
(lp594
g68
(g89
g70
NtRp595
(dp596
g73
(dp597
g93
g94
ssg82
g591
sg75
(lp598
g410
asbag68
(g89
g70
NtRp599
(dp600
g73
(dp601
g100
g101
ssg82
g591
sg75
(lp602
S':'
asbag68
(g89
g70
NtRp603
(dp604
g73
(dp605
sg82
g591
sg75
(lp606
g68
(g69
g70
NtRp607
(dp608
g73
(dp609
g81
I3
ssg82
g603
sg75
(lp610
S''
asbasbasbag68
(g84
g70
NtRp611
(dp612
g73
(dp613
sg82
g487
sg75
(lp614
g68
(g89
g70
NtRp615
(dp616
g73
(dp617
g93
g94
ssg82
g611
sg75
(lp618
g431
asbag68
(g89
g70
NtRp619
(dp620
g73
(dp621
g100
g101
ssg82
g611
sg75
(lp622
S':'
asbag68
(g89
g70
NtRp623
(dp624
g73
(dp625
sg82
g611
sg75
(lp626
g68
(g69
g70
NtRp627
(dp628
g73
(dp629
g81
I3
ssg82
g623
sg75
(lp630
S''
asbasbasbag68
(g84
g70
NtRp631
(dp632
g73
(dp633
sg82
g487
sg75
(lp634
g68
(g89
g70
NtRp635
(dp636
g73
(dp637
g93
g94
ssg82
g631
sg75
(lp638
g452
asbag68
(g89
g70
NtRp639
(dp640
g73
(dp641
g100
g101
ssg82
g631
sg75
(lp642
S':'
asbag68
(g89
g70
NtRp643
(dp644
g73
(dp645
sg82
g631
sg75
(lp646
g68
(g69
g70
NtRp647
(dp648
g73
(dp649
g81
I3
ssg82
g643
sg75
(lp650
S''
asbasbasbasbasbasbasbag68
(g84
g70
NtRp651
(dp652
g73
(dp653
sg82
g267
sg75
(lp654
g68
(g89
g70
NtRp655
(dp656
g73
(dp657
g93
g94
ssg82
g651
sg75
(lp658
S'session_id_buysell'
p659
asbag68
(g89
g70
NtRp660
(dp661
g73
(dp662
g100
g101
ssg82
g651
sg75
(lp663
S':'
asbag68
(g89
g70
NtRp664
(dp665
g73
(dp666
sg82
g651
sg75
(lp667
g68
(g69
g70
NtRp668
(dp669
g73
(dp670
g81
I4
ssg82
g664
sg75
(lp671
S'127.0.0.1-d5a07803-4f5c-44c8-b05d-2876d30ca822'
p672
ag68
(g77
g70
NtRp673
(dp674
g73
(dp675
g81
I3
ssg82
Nsg75
(lp676
g68
(g84
g70
NtRp677
(dp678
g73
(dp679
sg82
g673
sg75
(lp680
g68
(g89
g70
NtRp681
(dp682
g73
(dp683
g93
g94
ssg82
g677
sg75
(lp684
g305
asbag68
(g89
g70
NtRp685
(dp686
g73
(dp687
g100
g101
ssg82
g677
sg75
(lp688
S':'
asbag68
(g89
g70
NtRp689
(dp690
g73
(dp691
sg82
g677
sg75
(lp692
g68
(g69
g70
NtRp693
(dp694
g73
(dp695
g81
I3
ssg82
g689
sg75
(lp696
S''
asbasbasbag68
(g84
g70
NtRp697
(dp698
g73
(dp699
sg82
g673
sg75
(lp700
g68
(g89
g70
NtRp701
(dp702
g73
(dp703
g93
g94
ssg82
g697
sg75
(lp704
g326
asbag68
(g89
g70
NtRp705
(dp706
g73
(dp707
g100
g101
ssg82
g697
sg75
(lp708
S':'
asbag68
(g89
g70
NtRp709
(dp710
g73
(dp711
sg82
g697
sg75
(lp712
g68
(g69
g70
NtRp713
(dp714
g73
(dp715
g81
I3
ssg82
g709
sg75
(lp716
S''
asbasbasbag68
(g84
g70
NtRp717
(dp718
g73
(dp719
sg82
g673
sg75
(lp720
g68
(g89
g70
NtRp721
(dp722
g73
(dp723
g93
g94
ssg82
g717
sg75
(lp724
g347
asbag68
(g89
g70
NtRp725
(dp726
g73
(dp727
g100
g101
ssg82
g717
sg75
(lp728
S':'
asbag68
(g89
g70
NtRp729
(dp730
g73
(dp731
sg82
g717
sg75
(lp732
g68
(g69
g70
NtRp733
(dp734
g73
(dp735
g81
I3
ssg82
g729
sg75
(lp736
S''
asbasbasbag68
(g84
g70
NtRp737
(dp738
g73
(dp739
sg82
g673
sg75
(lp740
g68
(g89
g70
NtRp741
(dp742
g73
(dp743
g93
g94
ssg82
g737
sg75
(lp744
g368
asbag68
(g89
g70
NtRp745
(dp746
g73
(dp747
g100
g101
ssg82
g737
sg75
(lp748
S':'
asbag68
(g89
g70
NtRp749
(dp750
g73
(dp751
sg82
g737
sg75
(lp752
g68
(g69
g70
NtRp753
(dp754
g73
(dp755
g81
I3
ssg82
g749
sg75
(lp756
S''
asbasbasbag68
(g84
g70
NtRp757
(dp758
g73
(dp759
sg82
g673
sg75
(lp760
g68
(g89
g70
NtRp761
(dp762
g73
(dp763
g93
g94
ssg82
g757
sg75
(lp764
g389
asbag68
(g89
g70
NtRp765
(dp766
g73
(dp767
g100
g101
ssg82
g757
sg75
(lp768
S':'
asbag68
(g89
g70
NtRp769
(dp770
g73
(dp771
sg82
g757
sg75
(lp772
g68
(g69
g70
NtRp773
(dp774
g73
(dp775
g81
I3
ssg82
g769
sg75
(lp776
S''
asbasbasbag68
(g84
g70
NtRp777
(dp778
g73
(dp779
sg82
g673
sg75
(lp780
g68
(g89
g70
NtRp781
(dp782
g73
(dp783
g93
g94
ssg82
g777
sg75
(lp784
g410
asbag68
(g89
g70
NtRp785
(dp786
g73
(dp787
g100
g101
ssg82
g777
sg75
(lp788
S':'
asbag68
(g89
g70
NtRp789
(dp790
g73
(dp791
sg82
g777
sg75
(lp792
g68
(g69
g70
NtRp793
(dp794
g73
(dp795
g81
I3
ssg82
g789
sg75
(lp796
S''
asbasbasbag68
(g84
g70
NtRp797
(dp798
g73
(dp799
sg82
g673
sg75
(lp800
g68
(g89
g70
NtRp801
(dp802
g73
(dp803
g93
g94
ssg82
g797
sg75
(lp804
g431
asbag68
(g89
g70
NtRp805
(dp806
g73
(dp807
g100
g101
ssg82
g797
sg75
(lp808
S':'
asbag68
(g89
g70
NtRp809
(dp810
g73
(dp811
sg82
g797
sg75
(lp812
g68
(g69
g70
NtRp813
(dp814
g73
(dp815
g81
I3
ssg82
g809
sg75
(lp816
S''
asbasbasbag68
(g84
g70
NtRp817
(dp818
g73
(dp819
sg82
g673
sg75
(lp820
g68
(g89
g70
NtRp821
(dp822
g73
(dp823
g93
g94
ssg82
g817
sg75
(lp824
g452
asbag68
(g89
g70
NtRp825
(dp826
g73
(dp827
g100
g101
ssg82
g817
sg75
(lp828
S':'
asbag68
(g89
g70
NtRp829
(dp830
g73
(dp831
sg82
g817
sg75
(lp832
g68
(g69
g70
NtRp833
(dp834
g73
(dp835
g81
I3
ssg82
g829
sg75
(lp836
S''
asbasbasbasbasbasbasbag68
(g84
g70
NtRp837
(dp838
g73
(dp839
sg82
g267
sg75
(lp840
g68
(g89
g70
NtRp841
(dp842
g73
(dp843
g93
g94
ssg82
g837
sg75
(lp844
S'session_id_music_library'
p845
asbag68
(g89
g70
NtRp846
(dp847
g73
(dp848
g100
g101
ssg82
g837
sg75
(lp849
S':'
asbag68
(g89
g70
NtRp850
(dp851
g73
(dp852
sg82
g837
sg75
(lp853
g68
(g69
g70
NtRp854
(dp855
g73
(dp856
g81
I4
ssg82
g850
sg75
(lp857
S'127.0.0.1-dd9b4880-33cf-4894-a8a9-2640c5c78a01'
p858
ag68
(g77
g70
NtRp859
(dp860
g73
(dp861
g81
I3
ssg82
Nsg75
(lp862
g68
(g84
g70
NtRp863
(dp864
g73
(dp865
sg82
g859
sg75
(lp866
g68
(g89
g70
NtRp867
(dp868
g73
(dp869
g93
g94
ssg82
g863
sg75
(lp870
g305
asbag68
(g89
g70
NtRp871
(dp872
g73
(dp873
g100
g101
ssg82
g863
sg75
(lp874
S':'
asbag68
(g89
g70
NtRp875
(dp876
g73
(dp877
sg82
g863
sg75
(lp878
g68
(g69
g70
NtRp879
(dp880
g73
(dp881
g81
I3
ssg82
g875
sg75
(lp882
S''
asbasbasbag68
(g84
g70
NtRp883
(dp884
g73
(dp885
sg82
g859
sg75
(lp886
g68
(g89
g70
NtRp887
(dp888
g73
(dp889
g93
g94
ssg82
g883
sg75
(lp890
g326
asbag68
(g89
g70
NtRp891
(dp892
g73
(dp893
g100
g101
ssg82
g883
sg75
(lp894
S':'
asbag68
(g89
g70
NtRp895
(dp896
g73
(dp897
sg82
g883
sg75
(lp898
g68
(g69
g70
NtRp899
(dp900
g73
(dp901
g81
I3
ssg82
g895
sg75
(lp902
S''
asbasbasbag68
(g84
g70
NtRp903
(dp904
g73
(dp905
sg82
g859
sg75
(lp906
g68
(g89
g70
NtRp907
(dp908
g73
(dp909
g93
g94
ssg82
g903
sg75
(lp910
g347
asbag68
(g89
g70
NtRp911
(dp912
g73
(dp913
g100
g101
ssg82
g903
sg75
(lp914
S':'
asbag68
(g89
g70
NtRp915
(dp916
g73
(dp917
sg82
g903
sg75
(lp918
g68
(g69
g70
NtRp919
(dp920
g73
(dp921
g81
I3
ssg82
g915
sg75
(lp922
S''
asbasbasbag68
(g84
g70
NtRp923
(dp924
g73
(dp925
sg82
g859
sg75
(lp926
g68
(g89
g70
NtRp927
(dp928
g73
(dp929
g93
g94
ssg82
g923
sg75
(lp930
g368
asbag68
(g89
g70
NtRp931
(dp932
g73
(dp933
g100
g101
ssg82
g923
sg75
(lp934
S':'
asbag68
(g89
g70
NtRp935
(dp936
g73
(dp937
sg82
g923
sg75
(lp938
g68
(g69
g70
NtRp939
(dp940
g73
(dp941
g81
I3
ssg82
g935
sg75
(lp942
S''
asbasbasbag68
(g84
g70
NtRp943
(dp944
g73
(dp945
sg82
g859
sg75
(lp946
g68
(g89
g70
NtRp947
(dp948
g73
(dp949
g93
g94
ssg82
g943
sg75
(lp950
g389
asbag68
(g89
g70
NtRp951
(dp952
g73
(dp953
g100
g101
ssg82
g943
sg75
(lp954
S':'
asbag68
(g89
g70
NtRp955
(dp956
g73
(dp957
sg82
g943
sg75
(lp958
g68
(g69
g70
NtRp959
(dp960
g73
(dp961
g81
I3
ssg82
g955
sg75
(lp962
S''
asbasbasbag68
(g84
g70
NtRp963
(dp964
g73
(dp965
sg82
g859
sg75
(lp966
g68
(g89
g70
NtRp967
(dp968
g73
(dp969
g93
g94
ssg82
g963
sg75
(lp970
g410
asbag68
(g89
g70
NtRp971
(dp972
g73
(dp973
g100
g101
ssg82
g963
sg75
(lp974
S':'
asbag68
(g89
g70
NtRp975
(dp976
g73
(dp977
sg82
g963
sg75
(lp978
g68
(g69
g70
NtRp979
(dp980
g73
(dp981
g81
I3
ssg82
g975
sg75
(lp982
S''
asbasbasbag68
(g84
g70
NtRp983
(dp984
g73
(dp985
sg82
g859
sg75
(lp986
g68
(g89
g70
NtRp987
(dp988
g73
(dp989
g93
g94
ssg82
g983
sg75
(lp990
g431
asbag68
(g89
g70
NtRp991
(dp992
g73
(dp993
g100
g101
ssg82
g983
sg75
(lp994
S':'
asbag68
(g89
g70
NtRp995
(dp996
g73
(dp997
sg82
g983
sg75
(lp998
g68
(g69
g70
NtRp999
(dp1000
g73
(dp1001
g81
I3
ssg82
g995
sg75
(lp1002
S''
asbasbasbag68
(g84
g70
NtRp1003
(dp1004
g73
(dp1005
sg82
g859
sg75
(lp1006
g68
(g89
g70
NtRp1007
(dp1008
g73
(dp1009
g93
g94
ssg82
g1003
sg75
(lp1010
g452
asbag68
(g89
g70
NtRp1011
(dp1012
g73
(dp1013
g100
g101
ssg82
g1003
sg75
(lp1014
S':'
asbag68
(g89
g70
NtRp1015
(dp1016
g73
(dp1017
sg82
g1003
sg75
(lp1018
g68
(g69
g70
NtRp1019
(dp1020
g73
(dp1021
g81
I3
ssg82
g1015
sg75
(lp1022
S''
asbasbasbasbasbasbasbag68
(g84
g70
NtRp1023
(dp1024
g73
(dp1025
sg82
g267
sg75
(lp1026
g68
(g89
g70
NtRp1027
(dp1028
g73
(dp1029
g93
g94
ssg82
g1023
sg75
(lp1030
S'session_id_outreach'
p1031
asbag68
(g89
g70
NtRp1032
(dp1033
g73
(dp1034
g100
g101
ssg82
g1023
sg75
(lp1035
S':'
asbag68
(g89
g70
NtRp1036
(dp1037
g73
(dp1038
sg82
g1023
sg75
(lp1039
g68
(g69
g70
NtRp1040
(dp1041
g73
(dp1042
g81
I4
ssg82
g1036
sg75
(lp1043
S'127.0.0.1-00c3bb02-539e-4bc1-ab10-e3c500bd1248'
p1044
ag68
(g77
g70
NtRp1045
(dp1046
g73
(dp1047
g81
I3
ssg82
Nsg75
(lp1048
g68
(g84
g70
NtRp1049
(dp1050
g73
(dp1051
sg82
g1045
sg75
(lp1052
g68
(g89
g70
NtRp1053
(dp1054
g73
(dp1055
g93
g94
ssg82
g1049
sg75
(lp1056
g305
asbag68
(g89
g70
NtRp1057
(dp1058
g73
(dp1059
g100
g101
ssg82
g1049
sg75
(lp1060
S':'
asbag68
(g89
g70
NtRp1061
(dp1062
g73
(dp1063
sg82
g1049
sg75
(lp1064
g68
(g69
g70
NtRp1065
(dp1066
g73
(dp1067
g81
I3
ssg82
g1061
sg75
(lp1068
S''
asbasbasbag68
(g84
g70
NtRp1069
(dp1070
g73
(dp1071
sg82
g1045
sg75
(lp1072
g68
(g89
g70
NtRp1073
(dp1074
g73
(dp1075
g93
g94
ssg82
g1069
sg75
(lp1076
g326
asbag68
(g89
g70
NtRp1077
(dp1078
g73
(dp1079
g100
g101
ssg82
g1069
sg75
(lp1080
S':'
asbag68
(g89
g70
NtRp1081
(dp1082
g73
(dp1083
sg82
g1069
sg75
(lp1084
g68
(g69
g70
NtRp1085
(dp1086
g73
(dp1087
g81
I3
ssg82
g1081
sg75
(lp1088
S''
asbasbasbag68
(g84
g70
NtRp1089
(dp1090
g73
(dp1091
sg82
g1045
sg75
(lp1092
g68
(g89
g70
NtRp1093
(dp1094
g73
(dp1095
g93
g94
ssg82
g1089
sg75
(lp1096
g347
asbag68
(g89
g70
NtRp1097
(dp1098
g73
(dp1099
g100
g101
ssg82
g1089
sg75
(lp1100
S':'
asbag68
(g89
g70
NtRp1101
(dp1102
g73
(dp1103
sg82
g1089
sg75
(lp1104
g68
(g69
g70
NtRp1105
(dp1106
g73
(dp1107
g81
I3
ssg82
g1101
sg75
(lp1108
S''
asbasbasbag68
(g84
g70
NtRp1109
(dp1110
g73
(dp1111
sg82
g1045
sg75
(lp1112
g68
(g89
g70
NtRp1113
(dp1114
g73
(dp1115
g93
g94
ssg82
g1109
sg75
(lp1116
g368
asbag68
(g89
g70
NtRp1117
(dp1118
g73
(dp1119
g100
g101
ssg82
g1109
sg75
(lp1120
S':'
asbag68
(g89
g70
NtRp1121
(dp1122
g73
(dp1123
sg82
g1109
sg75
(lp1124
g68
(g69
g70
NtRp1125
(dp1126
g73
(dp1127
g81
I3
ssg82
g1121
sg75
(lp1128
S''
asbasbasbag68
(g84
g70
NtRp1129
(dp1130
g73
(dp1131
sg82
g1045
sg75
(lp1132
g68
(g89
g70
NtRp1133
(dp1134
g73
(dp1135
g93
g94
ssg82
g1129
sg75
(lp1136
g389
asbag68
(g89
g70
NtRp1137
(dp1138
g73
(dp1139
g100
g101
ssg82
g1129
sg75
(lp1140
S':'
asbag68
(g89
g70
NtRp1141
(dp1142
g73
(dp1143
sg82
g1129
sg75
(lp1144
g68
(g69
g70
NtRp1145
(dp1146
g73
(dp1147
g81
I3
ssg82
g1141
sg75
(lp1148
S''
asbasbasbag68
(g84
g70
NtRp1149
(dp1150
g73
(dp1151
sg82
g1045
sg75
(lp1152
g68
(g89
g70
NtRp1153
(dp1154
g73
(dp1155
g93
g94
ssg82
g1149
sg75
(lp1156
g410
asbag68
(g89
g70
NtRp1157
(dp1158
g73
(dp1159
g100
g101
ssg82
g1149
sg75
(lp1160
S':'
asbag68
(g89
g70
NtRp1161
(dp1162
g73
(dp1163
sg82
g1149
sg75
(lp1164
g68
(g69
g70
NtRp1165
(dp1166
g73
(dp1167
g81
I3
ssg82
g1161
sg75
(lp1168
S''
asbasbasbag68
(g84
g70
NtRp1169
(dp1170
g73
(dp1171
sg82
g1045
sg75
(lp1172
g68
(g89
g70
NtRp1173
(dp1174
g73
(dp1175
g93
g94
ssg82
g1169
sg75
(lp1176
g431
asbag68
(g89
g70
NtRp1177
(dp1178
g73
(dp1179
g100
g101
ssg82
g1169
sg75
(lp1180
S':'
asbag68
(g89
g70
NtRp1181
(dp1182
g73
(dp1183
sg82
g1169
sg75
(lp1184
g68
(g69
g70
NtRp1185
(dp1186
g73
(dp1187
g81
I3
ssg82
g1181
sg75
(lp1188
S''
asbasbasbag68
(g84
g70
NtRp1189
(dp1190
g73
(dp1191
sg82
g1045
sg75
(lp1192
g68
(g89
g70
NtRp1193
(dp1194
g73
(dp1195
g93
g94
ssg82
g1189
sg75
(lp1196
g452
asbag68
(g89
g70
NtRp1197
(dp1198
g73
(dp1199
g100
g101
ssg82
g1189
sg75
(lp1200
S':'
asbag68
(g89
g70
NtRp1201
(dp1202
g73
(dp1203
sg82
g1189
sg75
(lp1204
g68
(g69
g70
NtRp1205
(dp1206
g73
(dp1207
g81
I3
ssg82
g1201
sg75
(lp1208
S''
asbasbasbasbasbasbasbag68
(g84
g70
NtRp1209
(dp1210
g73
(dp1211
sg82
g267
sg75
(lp1212
g68
(g89
g70
NtRp1213
(dp1214
g73
(dp1215
g93
g94
ssg82
g1209
sg75
(lp1216
S'session_id_welcome'
p1217
asbag68
(g89
g70
NtRp1218
(dp1219
g73
(dp1220
g100
g101
ssg82
g1209
sg75
(lp1221
S':'
asbag68
(g89
g70
NtRp1222
(dp1223
g73
(dp1224
sg82
g1209
sg75
(lp1225
g68
(g69
g70
NtRp1226
(dp1227
g73
(dp1228
g81
I4
ssg82
g1222
sg75
(lp1229
S'127.0.0.1-9c7bb553-b7cb-4343-8d32-a78739900983'
p1230
ag68
(g77
g70
NtRp1231
(dp1232
g73
(dp1233
g81
I3
ssg82
Nsg75
(lp1234
g68
(g84
g70
NtRp1235
(dp1236
g73
(dp1237
sg82
g1231
sg75
(lp1238
g68
(g89
g70
NtRp1239
(dp1240
g73
(dp1241
g93
g94
ssg82
g1235
sg75
(lp1242
g305
asbag68
(g89
g70
NtRp1243
(dp1244
g73
(dp1245
g100
g101
ssg82
g1235
sg75
(lp1246
S':'
asbag68
(g89
g70
NtRp1247
(dp1248
g73
(dp1249
sg82
g1235
sg75
(lp1250
g68
(g69
g70
NtRp1251
(dp1252
g73
(dp1253
g81
I3
ssg82
g1247
sg75
(lp1254
S''
asbasbasbag68
(g84
g70
NtRp1255
(dp1256
g73
(dp1257
sg82
g1231
sg75
(lp1258
g68
(g89
g70
NtRp1259
(dp1260
g73
(dp1261
g93
g94
ssg82
g1255
sg75
(lp1262
g326
asbag68
(g89
g70
NtRp1263
(dp1264
g73
(dp1265
g100
g101
ssg82
g1255
sg75
(lp1266
S':'
asbag68
(g89
g70
NtRp1267
(dp1268
g73
(dp1269
sg82
g1255
sg75
(lp1270
g68
(g69
g70
NtRp1271
(dp1272
g73
(dp1273
g81
I3
ssg82
g1267
sg75
(lp1274
S''
asbasbasbag68
(g84
g70
NtRp1275
(dp1276
g73
(dp1277
sg82
g1231
sg75
(lp1278
g68
(g89
g70
NtRp1279
(dp1280
g73
(dp1281
g93
g94
ssg82
g1275
sg75
(lp1282
g347
asbag68
(g89
g70
NtRp1283
(dp1284
g73
(dp1285
g100
g101
ssg82
g1275
sg75
(lp1286
S':'
asbag68
(g89
g70
NtRp1287
(dp1288
g73
(dp1289
sg82
g1275
sg75
(lp1290
g68
(g69
g70
NtRp1291
(dp1292
g73
(dp1293
g81
I3
ssg82
g1287
sg75
(lp1294
S''
asbasbasbag68
(g84
g70
NtRp1295
(dp1296
g73
(dp1297
sg82
g1231
sg75
(lp1298
g68
(g89
g70
NtRp1299
(dp1300
g73
(dp1301
g93
g94
ssg82
g1295
sg75
(lp1302
g368
asbag68
(g89
g70
NtRp1303
(dp1304
g73
(dp1305
g100
g101
ssg82
g1295
sg75
(lp1306
S':'
asbag68
(g89
g70
NtRp1307
(dp1308
g73
(dp1309
sg82
g1295
sg75
(lp1310
g68
(g69
g70
NtRp1311
(dp1312
g73
(dp1313
g81
I3
ssg82
g1307
sg75
(lp1314
S''
asbasbasbag68
(g84
g70
NtRp1315
(dp1316
g73
(dp1317
sg82
g1231
sg75
(lp1318
g68
(g89
g70
NtRp1319
(dp1320
g73
(dp1321
g93
g94
ssg82
g1315
sg75
(lp1322
g389
asbag68
(g89
g70
NtRp1323
(dp1324
g73
(dp1325
g100
g101
ssg82
g1315
sg75
(lp1326
S':'
asbag68
(g89
g70
NtRp1327
(dp1328
g73
(dp1329
sg82
g1315
sg75
(lp1330
g68
(g69
g70
NtRp1331
(dp1332
g73
(dp1333
g81
I3
ssg82
g1327
sg75
(lp1334
S''
asbasbasbag68
(g84
g70
NtRp1335
(dp1336
g73
(dp1337
sg82
g1231
sg75
(lp1338
g68
(g89
g70
NtRp1339
(dp1340
g73
(dp1341
g93
g94
ssg82
g1335
sg75
(lp1342
g410
asbag68
(g89
g70
NtRp1343
(dp1344
g73
(dp1345
g100
g101
ssg82
g1335
sg75
(lp1346
S':'
asbag68
(g89
g70
NtRp1347
(dp1348
g73
(dp1349
sg82
g1335
sg75
(lp1350
g68
(g69
g70
NtRp1351
(dp1352
g73
(dp1353
g81
I3
ssg82
g1347
sg75
(lp1354
S''
asbasbasbag68
(g84
g70
NtRp1355
(dp1356
g73
(dp1357
sg82
g1231
sg75
(lp1358
g68
(g89
g70
NtRp1359
(dp1360
g73
(dp1361
g93
g94
ssg82
g1355
sg75
(lp1362
g431
asbag68
(g89
g70
NtRp1363
(dp1364
g73
(dp1365
g100
g101
ssg82
g1355
sg75
(lp1366
S':'
asbag68
(g89
g70
NtRp1367
(dp1368
g73
(dp1369
sg82
g1355
sg75
(lp1370
g68
(g69
g70
NtRp1371
(dp1372
g73
(dp1373
g81
I3
ssg82
g1367
sg75
(lp1374
S''
asbasbasbag68
(g84
g70
NtRp1375
(dp1376
g73
(dp1377
sg82
g1231
sg75
(lp1378
g68
(g89
g70
NtRp1379
(dp1380
g73
(dp1381
g93
g94
ssg82
g1375
sg75
(lp1382
g452
asbag68
(g89
g70
NtRp1383
(dp1384
g73
(dp1385
g100
g101
ssg82
g1375
sg75
(lp1386
S':'
asbag68
(g89
g70
NtRp1387
(dp1388
g73
(dp1389
sg82
g1375
sg75
(lp1390
g68
(g69
g70
NtRp1391
(dp1392
g73
(dp1393
g81
I3
ssg82
g1387
sg75
(lp1394
S''
asbasbasbasbasbasbasbasbasbasbasbag68
(g84
g70
NtRp1395
(dp1396
g73
(dp1397
sg82
g78
sg75
(lp1398
g68
(g89
g70
NtRp1399
(dp1400
g73
(dp1401
g93
g94
ssg82
g1395
sg75
(lp1402
S'env'
p1403
asbag68
(g89
g70
NtRp1404
(dp1405
g73
(dp1406
g100
g101
ssg82
g1395
sg75
(lp1407
S':'
asbag68
(g89
g70
NtRp1408
(dp1409
g73
(dp1410
sg82
g1395
sg75
(lp1411
g68
(g69
g70
NtRp1412
(dp1413
g73
(dp1414
g81
I5
ssg82
g1408
sg75
(lp1415
g68
(g77
g70
NtRp1416
(dp1417
g73
(dp1418
g81
I4
ssg82
Nsg75
(lp1419
g68
(g84
g70
NtRp1420
(dp1421
g73
(dp1422
sg82
g1416
sg75
(lp1423
g68
(g89
g70
NtRp1424
(dp1425
g73
(dp1426
g93
g94
ssg82
g1420
sg75
(lp1427
S'app_folders'
p1428
asbag68
(g89
g70
NtRp1429
(dp1430
g73
(dp1431
g100
g101
ssg82
g1420
sg75
(lp1432
S':'
asbag68
(g89
g70
NtRp1433
(dp1434
g73
(dp1435
sg82
g1420
sg75
(lp1436
g68
(g69
g70
NtRp1437
(dp1438
g73
(dp1439
g81
I4
ssg82
g1433
sg75
(lp1440
S"set(['/home/pratyush/web2py/applications/BuySell/', '/home/pratyush/web2py/applications/admin/'])"
p1441
asbasbasbag68
(g84
g70
NtRp1442
(dp1443
g73
(dp1444
sg82
g1416
sg75
(lp1445
g68
(g89
g70
NtRp1446
(dp1447
g73
(dp1448
g93
g94
ssg82
g1442
sg75
(lp1449
S'applications_parent'
p1450
asbag68
(g89
g70
NtRp1451
(dp1452
g73
(dp1453
g100
g101
ssg82
g1442
sg75
(lp1454
S':'
asbag68
(g89
g70
NtRp1455
(dp1456
g73
(dp1457
sg82
g1442
sg75
(lp1458
g68
(g69
g70
NtRp1459
(dp1460
g73
(dp1461
g81
I4
ssg82
g1455
sg75
(lp1462
S'/home/pratyush/web2py'
p1463
asbasbasbag68
(g84
g70
NtRp1464
(dp1465
g73
(dp1466
sg82
g1416
sg75
(lp1467
g68
(g89
g70
NtRp1468
(dp1469
g73
(dp1470
g93
g94
ssg82
g1464
sg75
(lp1471
S'cmd_args'
p1472
asbag68
(g89
g70
NtRp1473
(dp1474
g73
(dp1475
g100
g101
ssg82
g1464
sg75
(lp1476
S':'
asbag68
(g89
g70
NtRp1477
(dp1478
g73
(dp1479
sg82
g1464
sg75
(lp1480
g68
(g69
g70
NtRp1481
(dp1482
g73
(dp1483
g81
I4
ssg82
g1477
sg75
(lp1484
g68
(g77
g70
NtRp1485
(dp1486
g73
(dp1487
g81
I3
ssg82
Nsg75
(lp1488
sbasbasbasbag68
(g84
g70
NtRp1489
(dp1490
g73
(dp1491
sg82
g1416
sg75
(lp1492
g68
(g89
g70
NtRp1493
(dp1494
g73
(dp1495
g93
g94
ssg82
g1489
sg75
(lp1496
S'cmd_options'
p1497
asbag68
(g89
g70
NtRp1498
(dp1499
g73
(dp1500
g100
g101
ssg82
g1489
sg75
(lp1501
S':'
asbag68
(g89
g70
NtRp1502
(dp1503
g73
(dp1504
sg82
g1489
sg75
(lp1505
g68
(g69
g70
NtRp1506
(dp1507
g73
(dp1508
g81
I4
ssg82
g1502
sg75
(lp1509
S"<Values at 0x990602c: {'verbose': False, 'ip': '127.0.0.1', 'with_scheduler': False, 'ips': [], 'shutdown_timeout': 5, 'taskbar': False, 'port': 8001, 'maxthreads': None, 'softcron': False, 'server_name': 'alanzak', 'bpython': False, 'nogui': False, 'pid_filename': 'httpserver.pid', 'extcron': False, 'runcron': False, 'run_system_tests': False, 'test': None, 'folder': '/home/pratyush/web2py', 'config': '', 'import_models': False, 'winservice': '', 'shell': None, 'run': '', 'log_filename': 'httpserver.log', 'debuglevel': 30, 'args': [''], 'socket_timeout': 5, 'ssl_ca_certificate': None, 'scheduler': None, 'profiler_filename': None, 'ssl_private_key': '', 'scheduler_groups': None, 'password': '1', 'request_queue_size': 5, 'ssl_certificate': '', 'cronjob': False, 'numthreads': None, 'quiet': False, 'interfaces': None, 'minthreads': None, 'timeout': 10, 'plain': False, 'nobanner': False}>"
p1510
asbasbasbag68
(g84
g70
NtRp1511
(dp1512
g73
(dp1513
sg82
g1416
sg75
(lp1514
g68
(g89
g70
NtRp1515
(dp1516
g73
(dp1517
g93
g94
ssg82
g1511
sg75
(lp1518
S'db_sessions'
p1519
asbag68
(g89
g70
NtRp1520
(dp1521
g73
(dp1522
g100
g101
ssg82
g1511
sg75
(lp1523
S':'
asbag68
(g89
g70
NtRp1524
(dp1525
g73
(dp1526
sg82
g1511
sg75
(lp1527
g68
(g69
g70
NtRp1528
(dp1529
g73
(dp1530
g81
I4
ssg82
g1524
sg75
(lp1531
S'set([])'
p1532
asbasbasbag68
(g84
g70
NtRp1533
(dp1534
g73
(dp1535
sg82
g1416
sg75
(lp1536
g68
(g89
g70
NtRp1537
(dp1538
g73
(dp1539
g93
g94
ssg82
g1533
sg75
(lp1540
S'debugging'
p1541
asbag68
(g89
g70
NtRp1542
(dp1543
g73
(dp1544
g100
g101
ssg82
g1533
sg75
(lp1545
S':'
asbag68
(g89
g70
NtRp1546
(dp1547
g73
(dp1548
sg82
g1533
sg75
(lp1549
g68
(g69
g70
NtRp1550
(dp1551
g73
(dp1552
g81
I4
ssg82
g1546
sg75
(lp1553
g111
asbasbasbag68
(g84
g70
NtRp1554
(dp1555
g73
(dp1556
sg82
g1416
sg75
(lp1557
g68
(g89
g70
NtRp1558
(dp1559
g73
(dp1560
g93
g94
ssg82
g1554
sg75
(lp1561
S'gluon_parent'
p1562
asbag68
(g89
g70
NtRp1563
(dp1564
g73
(dp1565
g100
g101
ssg82
g1554
sg75
(lp1566
S':'
asbag68
(g89
g70
NtRp1567
(dp1568
g73
(dp1569
sg82
g1554
sg75
(lp1570
g68
(g69
g70
NtRp1571
(dp1572
g73
(dp1573
g81
I4
ssg82
g1567
sg75
(lp1574
S'/home/pratyush/web2py'
p1575
asbasbasbag68
(g84
g70
NtRp1576
(dp1577
g73
(dp1578
sg82
g1416
sg75
(lp1579
g68
(g89
g70
NtRp1580
(dp1581
g73
(dp1582
g93
g94
ssg82
g1576
sg75
(lp1583
S'http_accept'
p1584
asbag68
(g89
g70
NtRp1585
(dp1586
g73
(dp1587
g100
g101
ssg82
g1576
sg75
(lp1588
S':'
asbag68
(g89
g70
NtRp1589
(dp1590
g73
(dp1591
sg82
g1576
sg75
(lp1592
g68
(g69
g70
NtRp1593
(dp1594
g73
(dp1595
g81
I4
ssg82
g1589
sg75
(lp1596
S'text/html,application/xhtml+xml,application/xml;q=0.9,*/*;q=0.8'
p1597
asbasbasbag68
(g84
g70
NtRp1598
(dp1599
g73
(dp1600
sg82
g1416
sg75
(lp1601
g68
(g89
g70
NtRp1602
(dp1603
g73
(dp1604
g93
g94
ssg82
g1598
sg75
(lp1605
S'http_accept_charset'
p1606
asbag68
(g89
g70
NtRp1607
(dp1608
g73
(dp1609
g100
g101
ssg82
g1598
sg75
(lp1610
S':'
asbag68
(g89
g70
NtRp1611
(dp1612
g73
(dp1613
sg82
g1598
sg75
(lp1614
g68
(g69
g70
NtRp1615
(dp1616
g73
(dp1617
g81
I4
ssg82
g1611
sg75
(lp1618
S'ISO-8859-1,utf-8;q=0.7,*;q=0.3'
p1619
asbasbasbag68
(g84
g70
NtRp1620
(dp1621
g73
(dp1622
sg82
g1416
sg75
(lp1623
g68
(g89
g70
NtRp1624
(dp1625
g73
(dp1626
g93
g94
ssg82
g1620
sg75
(lp1627
S'http_accept_encoding'
p1628
asbag68
(g89
g70
NtRp1629
(dp1630
g73
(dp1631
g100
g101
ssg82
g1620
sg75
(lp1632
S':'
asbag68
(g89
g70
NtRp1633
(dp1634
g73
(dp1635
sg82
g1620
sg75
(lp1636
g68
(g69
g70
NtRp1637
(dp1638
g73
(dp1639
g81
I4
ssg82
g1633
sg75
(lp1640
S'gzip,deflate,sdch'
p1641
asbasbasbag68
(g84
g70
NtRp1642
(dp1643
g73
(dp1644
sg82
g1416
sg75
(lp1645
g68
(g89
g70
NtRp1646
(dp1647
g73
(dp1648
g93
g94
ssg82
g1642
sg75
(lp1649
S'http_accept_language'
p1650
asbag68
(g89
g70
NtRp1651
(dp1652
g73
(dp1653
g100
g101
ssg82
g1642
sg75
(lp1654
S':'
asbag68
(g89
g70
NtRp1655
(dp1656
g73
(dp1657
sg82
g1642
sg75
(lp1658
g68
(g69
g70
NtRp1659
(dp1660
g73
(dp1661
g81
I4
ssg82
g1655
sg75
(lp1662
S'en-US,en;q=0.8'
p1663
asbasbasbag68
(g84
g70
NtRp1664
(dp1665
g73
(dp1666
sg82
g1416
sg75
(lp1667
g68
(g89
g70
NtRp1668
(dp1669
g73
(dp1670
g93
g94
ssg82
g1664
sg75
(lp1671
S'http_connection'
p1672
asbag68
(g89
g70
NtRp1673
(dp1674
g73
(dp1675
g100
g101
ssg82
g1664
sg75
(lp1676
S':'
asbag68
(g89
g70
NtRp1677
(dp1678
g73
(dp1679
sg82
g1664
sg75
(lp1680
g68
(g69
g70
NtRp1681
(dp1682
g73
(dp1683
g81
I4
ssg82
g1677
sg75
(lp1684
S'keep-alive'
p1685
asbasbasbag68
(g84
g70
NtRp1686
(dp1687
g73
(dp1688
sg82
g1416
sg75
(lp1689
g68
(g89
g70
NtRp1690
(dp1691
g73
(dp1692
g93
g94
ssg82
g1686
sg75
(lp1693
S'http_cookie'
p1694
asbag68
(g89
g70
NtRp1695
(dp1696
g73
(dp1697
g100
g101
ssg82
g1686
sg75
(lp1698
S':'
asbag68
(g89
g70
NtRp1699
(dp1700
g73
(dp1701
sg82
g1686
sg75
(lp1702
g68
(g69
g70
NtRp1703
(dp1704
g73
(dp1705
g81
I4
ssg82
g1699
sg75
(lp1706
S'registered=yes; session_id_outreach=127.0.0.1-00c3bb02-539e-4bc1-ab10-e3c500bd1248; session_id_welcome=127.0.0.1-9c7bb553-b7cb-4343-8d32-a78739900983; session_id_music_library=127.0.0.1-dd9b4880-33cf-4894-a8a9-2640c5c78a01; session_id_admin=127.0.0.1-5c3e6318-3a14-4ff1-97a6-1063e44c4cd9; session_id_buysell=127.0.0.1-d5a07803-4f5c-44c8-b05d-2876d30ca822'
p1707
asbasbasbag68
(g84
g70
NtRp1708
(dp1709
g73
(dp1710
sg82
g1416
sg75
(lp1711
g68
(g89
g70
NtRp1712
(dp1713
g73
(dp1714
g93
g94
ssg82
g1708
sg75
(lp1715
S'http_host'
p1716
asbag68
(g89
g70
NtRp1717
(dp1718
g73
(dp1719
g100
g101
ssg82
g1708
sg75
(lp1720
S':'
asbag68
(g89
g70
NtRp1721
(dp1722
g73
(dp1723
sg82
g1708
sg75
(lp1724
g68
(g69
g70
NtRp1725
(dp1726
g73
(dp1727
g81
I4
ssg82
g1721
sg75
(lp1728
S'127.0.0.1:8001'
p1729
asbasbasbag68
(g84
g70
NtRp1730
(dp1731
g73
(dp1732
sg82
g1416
sg75
(lp1733
g68
(g89
g70
NtRp1734
(dp1735
g73
(dp1736
g93
g94
ssg82
g1730
sg75
(lp1737
S'http_referer'
p1738
asbag68
(g89
g70
NtRp1739
(dp1740
g73
(dp1741
g100
g101
ssg82
g1730
sg75
(lp1742
S':'
asbag68
(g89
g70
NtRp1743
(dp1744
g73
(dp1745
sg82
g1730
sg75
(lp1746
g68
(g69
g70
NtRp1747
(dp1748
g73
(dp1749
g81
I4
ssg82
g1743
sg75
(lp1750
S'http://127.0.0.1:8001/BuySell/default/add_item'
p1751
asbasbasbag68
(g84
g70
NtRp1752
(dp1753
g73
(dp1754
sg82
g1416
sg75
(lp1755
g68
(g89
g70
NtRp1756
(dp1757
g73
(dp1758
g93
g94
ssg82
g1752
sg75
(lp1759
S'http_user_agent'
p1760
asbag68
(g89
g70
NtRp1761
(dp1762
g73
(dp1763
g100
g101
ssg82
g1752
sg75
(lp1764
S':'
asbag68
(g89
g70
NtRp1765
(dp1766
g73
(dp1767
sg82
g1752
sg75
(lp1768
g68
(g69
g70
NtRp1769
(dp1770
g73
(dp1771
g81
I4
ssg82
g1765
sg75
(lp1772
S'Mozilla/5.0 (X11; Linux i686) AppleWebKit/537.4 (KHTML, like Gecko) Chrome/22.0.1229.79 Safari/537.4'
p1773
asbasbasbag68
(g84
g70
NtRp1774
(dp1775
g73
(dp1776
sg82
g1416
sg75
(lp1777
g68
(g89
g70
NtRp1778
(dp1779
g73
(dp1780
g93
g94
ssg82
g1774
sg75
(lp1781
S'is_jython'
p1782
asbag68
(g89
g70
NtRp1783
(dp1784
g73
(dp1785
g100
g101
ssg82
g1774
sg75
(lp1786
S':'
asbag68
(g89
g70
NtRp1787
(dp1788
g73
(dp1789
sg82
g1774
sg75
(lp1790
g68
(g69
g70
NtRp1791
(dp1792
g73
(dp1793
g81
I4
ssg82
g1787
sg75
(lp1794
g111
asbasbasbag68
(g84
g70
NtRp1795
(dp1796
g73
(dp1797
sg82
g1416
sg75
(lp1798
g68
(g89
g70
NtRp1799
(dp1800
g73
(dp1801
g93
g94
ssg82
g1795
sg75
(lp1802
S'is_pypy'
p1803
asbag68
(g89
g70
NtRp1804
(dp1805
g73
(dp1806
g100
g101
ssg82
g1795
sg75
(lp1807
S':'
asbag68
(g89
g70
NtRp1808
(dp1809
g73
(dp1810
sg82
g1795
sg75
(lp1811
g68
(g69
g70
NtRp1812
(dp1813
g73
(dp1814
g81
I4
ssg82
g1808
sg75
(lp1815
g111
asbasbasbag68
(g84
g70
NtRp1816
(dp1817
g73
(dp1818
sg82
g1416
sg75
(lp1819
g68
(g89
g70
NtRp1820
(dp1821
g73
(dp1822
g93
g94
ssg82
g1816
sg75
(lp1823
S'local_hosts'
p1824
asbag68
(g89
g70
NtRp1825
(dp1826
g73
(dp1827
g100
g101
ssg82
g1816
sg75
(lp1828
S':'
asbag68
(g89
g70
NtRp1829
(dp1830
g73
(dp1831
sg82
g1816
sg75
(lp1832
g68
(g69
g70
NtRp1833
(dp1834
g73
(dp1835
g81
I4
ssg82
g1829
sg75
(lp1836
g68
(g77
g70
NtRp1837
(dp1838
g73
(dp1839
g81
I3
ssg82
Nsg75
(lp1840
g68
(g84
g70
NtRp1841
(dp1842
g73
(dp1843
sg82
g1837
sg75
(lp1844
g68
(g89
g70
NtRp1845
(dp1846
g73
(dp1847
sg82
g1841
sg75
(lp1848
g68
(g69
g70
NtRp1849
(dp1850
g73
(dp1851
g81
I3
ssg82
g1845
sg75
(lp1852
S'127.0.1.1'
p1853
asbasbasbag68
(g84
g70
NtRp1854
(dp1855
g73
(dp1856
sg82
g1837
sg75
(lp1857
g68
(g89
g70
NtRp1858
(dp1859
g73
(dp1860
sg82
g1854
sg75
(lp1861
g68
(g69
g70
NtRp1862
(dp1863
g73
(dp1864
g81
I3
ssg82
g1858
sg75
(lp1865
S'::1'
p1866
asbasbasbag68
(g84
g70
NtRp1867
(dp1868
g73
(dp1869
sg82
g1837
sg75
(lp1870
g68
(g89
g70
NtRp1871
(dp1872
g73
(dp1873
sg82
g1867
sg75
(lp1874
g68
(g69
g70
NtRp1875
(dp1876
g73
(dp1877
g81
I3
ssg82
g1871
sg75
(lp1878
S'alanzak'
p1879
asbasbasbag68
(g84
g70
NtRp1880
(dp1881
g73
(dp1882
sg82
g1837
sg75
(lp1883
g68
(g89
g70
NtRp1884
(dp1885
g73
(dp1886
sg82
g1880
sg75
(lp1887
g68
(g69
g70
NtRp1888
(dp1889
g73
(dp1890
g81
I3
ssg82
g1884
sg75
(lp1891
S'::ffff:127.0.0.1'
p1892
asbasbasbag68
(g84
g70
NtRp1893
(dp1894
g73
(dp1895
sg82
g1837
sg75
(lp1896
g68
(g89
g70
NtRp1897
(dp1898
g73
(dp1899
sg82
g1893
sg75
(lp1900
g68
(g69
g70
NtRp1901
(dp1902
g73
(dp1903
g81
I3
ssg82
g1897
sg75
(lp1904
S'127.0.0.1'
p1905
asbasbasbasbasbasbasbag68
(g84
g70
NtRp1906
(dp1907
g73
(dp1908
sg82
g1416
sg75
(lp1909
g68
(g89
g70
NtRp1910
(dp1911
g73
(dp1912
g93
g94
ssg82
g1906
sg75
(lp1913
S'path_info'
p1914
asbag68
(g89
g70
NtRp1915
(dp1916
g73
(dp1917
g100
g101
ssg82
g1906
sg75
(lp1918
S':'
asbag68
(g89
g70
NtRp1919
(dp1920
g73
(dp1921
sg82
g1906
sg75
(lp1922
g68
(g69
g70
NtRp1923
(dp1924
g73
(dp1925
g81
I4
ssg82
g1919
sg75
(lp1926
S'/BuySell/default/fulfil_wishes'
p1927
asbasbasbag68
(g84
g70
NtRp1928
(dp1929
g73
(dp1930
sg82
g1416
sg75
(lp1931
g68
(g89
g70
NtRp1932
(dp1933
g73
(dp1934
g93
g94
ssg82
g1928
sg75
(lp1935
S'query_string'
p1936
asbag68
(g89
g70
NtRp1937
(dp1938
g73
(dp1939
g100
g101
ssg82
g1928
sg75
(lp1940
S':'
asbag68
(g89
g70
NtRp1941
(dp1942
g73
(dp1943
sg82
g1928
sg75
(lp1944
g68
(g69
g70
NtRp1945
(dp1946
g73
(dp1947
g81
I4
ssg82
g1941
sg75
(lp1948
S''
asbasbasbag68
(g84
g70
NtRp1949
(dp1950
g73
(dp1951
sg82
g1416
sg75
(lp1952
g68
(g89
g70
NtRp1953
(dp1954
g73
(dp1955
g93
g94
ssg82
g1949
sg75
(lp1956
S'remote_addr'
p1957
asbag68
(g89
g70
NtRp1958
(dp1959
g73
(dp1960
g100
g101
ssg82
g1949
sg75
(lp1961
S':'
asbag68
(g89
g70
NtRp1962
(dp1963
g73
(dp1964
sg82
g1949
sg75
(lp1965
g68
(g69
g70
NtRp1966
(dp1967
g73
(dp1968
g81
I4
ssg82
g1962
sg75
(lp1969
g223
asbasbasbag68
(g84
g70
NtRp1970
(dp1971
g73
(dp1972
sg82
g1416
sg75
(lp1973
g68
(g89
g70
NtRp1974
(dp1975
g73
(dp1976
g93
g94
ssg82
g1970
sg75
(lp1977
S'remote_port'
p1978
asbag68
(g89
g70
NtRp1979
(dp1980
g73
(dp1981
g100
g101
ssg82
g1970
sg75
(lp1982
S':'
asbag68
(g89
g70
NtRp1983
(dp1984
g73
(dp1985
sg82
g1970
sg75
(lp1986
g68
(g69
g70
NtRp1987
(dp1988
g73
(dp1989
g81
I4
ssg82
g1983
sg75
(lp1990
S'42140'
p1991
asbasbasbag68
(g84
g70
NtRp1992
(dp1993
g73
(dp1994
sg82
g1416
sg75
(lp1995
g68
(g89
g70
NtRp1996
(dp1997
g73
(dp1998
g93
g94
ssg82
g1992
sg75
(lp1999
S'request_method'
p2000
asbag68
(g89
g70
NtRp2001
(dp2002
g73
(dp2003
g100
g101
ssg82
g1992
sg75
(lp2004
S':'
asbag68
(g89
g70
NtRp2005
(dp2006
g73
(dp2007
sg82
g1992
sg75
(lp2008
g68
(g69
g70
NtRp2009
(dp2010
g73
(dp2011
g81
I4
ssg82
g2005
sg75
(lp2012
S'GET'
p2013
asbasbasbag68
(g84
g70
NtRp2014
(dp2015
g73
(dp2016
sg82
g1416
sg75
(lp2017
g68
(g89
g70
NtRp2018
(dp2019
g73
(dp2020
g93
g94
ssg82
g2014
sg75
(lp2021
S'request_uri'
p2022
asbag68
(g89
g70
NtRp2023
(dp2024
g73
(dp2025
g100
g101
ssg82
g2014
sg75
(lp2026
S':'
asbag68
(g89
g70
NtRp2027
(dp2028
g73
(dp2029
sg82
g2014
sg75
(lp2030
g68
(g69
g70
NtRp2031
(dp2032
g73
(dp2033
g81
I4
ssg82
g2027
sg75
(lp2034
g1927
asbasbasbag68
(g84
g70
NtRp2035
(dp2036
g73
(dp2037
sg82
g1416
sg75
(lp2038
g68
(g89
g70
NtRp2039
(dp2040
g73
(dp2041
g93
g94
ssg82
g2035
sg75
(lp2042
S'script_name'
p2043
asbag68
(g89
g70
NtRp2044
(dp2045
g73
(dp2046
g100
g101
ssg82
g2035
sg75
(lp2047
S':'
asbag68
(g89
g70
NtRp2048
(dp2049
g73
(dp2050
sg82
g2035
sg75
(lp2051
g68
(g69
g70
NtRp2052
(dp2053
g73
(dp2054
g81
I4
ssg82
g2048
sg75
(lp2055
S''
asbasbasbag68
(g84
g70
NtRp2056
(dp2057
g73
(dp2058
sg82
g1416
sg75
(lp2059
g68
(g89
g70
NtRp2060
(dp2061
g73
(dp2062
g93
g94
ssg82
g2056
sg75
(lp2063
S'server_name'
p2064
asbag68
(g89
g70
NtRp2065
(dp2066
g73
(dp2067
g100
g101
ssg82
g2056
sg75
(lp2068
S':'
asbag68
(g89
g70
NtRp2069
(dp2070
g73
(dp2071
sg82
g2056
sg75
(lp2072
g68
(g69
g70
NtRp2073
(dp2074
g73
(dp2075
g81
I4
ssg82
g2069
sg75
(lp2076
S'alanzak'
p2077
asbasbasbag68
(g84
g70
NtRp2078
(dp2079
g73
(dp2080
sg82
g1416
sg75
(lp2081
g68
(g89
g70
NtRp2082
(dp2083
g73
(dp2084
g93
g94
ssg82
g2078
sg75
(lp2085
S'server_port'
p2086
asbag68
(g89
g70
NtRp2087
(dp2088
g73
(dp2089
g100
g101
ssg82
g2078
sg75
(lp2090
S':'
asbag68
(g89
g70
NtRp2091
(dp2092
g73
(dp2093
sg82
g2078
sg75
(lp2094
g68
(g69
g70
NtRp2095
(dp2096
g73
(dp2097
g81
I4
ssg82
g2091
sg75
(lp2098
S'8001'
p2099
asbasbasbag68
(g84
g70
NtRp2100
(dp2101
g73
(dp2102
sg82
g1416
sg75
(lp2103
g68
(g89
g70
NtRp2104
(dp2105
g73
(dp2106
g93
g94
ssg82
g2100
sg75
(lp2107
S'server_protocol'
p2108
asbag68
(g89
g70
NtRp2109
(dp2110
g73
(dp2111
g100
g101
ssg82
g2100
sg75
(lp2112
S':'
asbag68
(g89
g70
NtRp2113
(dp2114
g73
(dp2115
sg82
g2100
sg75
(lp2116
g68
(g69
g70
NtRp2117
(dp2118
g73
(dp2119
g81
I4
ssg82
g2113
sg75
(lp2120
S'HTTP/1.1'
p2121
asbasbasbag68
(g84
g70
NtRp2122
(dp2123
g73
(dp2124
sg82
g1416
sg75
(lp2125
g68
(g89
g70
NtRp2126
(dp2127
g73
(dp2128
g93
g94
ssg82
g2122
sg75
(lp2129
S'server_software'
p2130
asbag68
(g89
g70
NtRp2131
(dp2132
g73
(dp2133
g100
g101
ssg82
g2122
sg75
(lp2134
S':'
asbag68
(g89
g70
NtRp2135
(dp2136
g73
(dp2137
sg82
g2122
sg75
(lp2138
g68
(g69
g70
NtRp2139
(dp2140
g73
(dp2141
g81
I4
ssg82
g2135
sg75
(lp2142
S'Rocket 1.2.6'
p2143
asbasbasbag68
(g84
g70
NtRp2144
(dp2145
g73
(dp2146
sg82
g1416
sg75
(lp2147
g68
(g89
g70
NtRp2148
(dp2149
g73
(dp2150
g93
g94
ssg82
g2144
sg75
(lp2151
S'web2py_path'
p2152
asbag68
(g89
g70
NtRp2153
(dp2154
g73
(dp2155
g100
g101
ssg82
g2144
sg75
(lp2156
S':'
asbag68
(g89
g70
NtRp2157
(dp2158
g73
(dp2159
sg82
g2144
sg75
(lp2160
g68
(g69
g70
NtRp2161
(dp2162
g73
(dp2163
g81
I4
ssg82
g2157
sg75
(lp2164
g1463
asbasbasbag68
(g84
g70
NtRp2165
(dp2166
g73
(dp2167
sg82
g1416
sg75
(lp2168
g68
(g89
g70
NtRp2169
(dp2170
g73
(dp2171
g93
g94
ssg82
g2165
sg75
(lp2172
S'web2py_version'
p2173
asbag68
(g89
g70
NtRp2174
(dp2175
g73
(dp2176
g100
g101
ssg82
g2165
sg75
(lp2177
S':'
asbag68
(g89
g70
NtRp2178
(dp2179
g73
(dp2180
sg82
g2165
sg75
(lp2181
g68
(g69
g70
NtRp2182
(dp2183
g73
(dp2184
g81
I4
ssg82
g2178
sg75
(lp2185
g68
(g77
g70
NtRp2186
(dp2187
g73
(dp2188
g81
I3
ssg82
Nsg75
(lp2189
g68
(g84
g70
NtRp2190
(dp2191
g73
(dp2192
sg82
g2186
sg75
(lp2193
g68
(g89
g70
NtRp2194
(dp2195
g73
(dp2196
sg82
g2190
sg75
(lp2197
g68
(g69
g70
NtRp2198
(dp2199
g73
(dp2200
g81
I3
ssg82
g2194
sg75
(lp2201
S'2'
asbasbasbag68
(g84
g70
NtRp2202
(dp2203
g73
(dp2204
sg82
g2186
sg75
(lp2205
g68
(g89
g70
NtRp2206
(dp2207
g73
(dp2208
sg82
g2202
sg75
(lp2209
g68
(g69
g70
NtRp2210
(dp2211
g73
(dp2212
g81
I3
ssg82
g2206
sg75
(lp2213
S'3'
asbasbasbag68
(g84
g70
NtRp2214
(dp2215
g73
(dp2216
sg82
g2186
sg75
(lp2217
g68
(g89
g70
NtRp2218
(dp2219
g73
(dp2220
sg82
g2214
sg75
(lp2221
g68
(g69
g70
NtRp2222
(dp2223
g73
(dp2224
g81
I3
ssg82
g2218
sg75
(lp2225
S'2'
asbasbasbag68
(g84
g70
NtRp2226
(dp2227
g73
(dp2228
sg82
g2186
sg75
(lp2229
g68
(g89
g70
NtRp2230
(dp2231
g73
(dp2232
sg82
g2226
sg75
(lp2233
g68
(g69
g70
NtRp2234
(dp2235
g73
(dp2236
g81
I3
ssg82
g2230
sg75
(lp2237
S'datetime.datetime(2012, 12, 17, 15, 3, 30)'
p2238
asbasbasbag68
(g84
g70
NtRp2239
(dp2240
g73
(dp2241
sg82
g2186
sg75
(lp2242
g68
(g89
g70
NtRp2243
(dp2244
g73
(dp2245
sg82
g2239
sg75
(lp2246
g68
(g69
g70
NtRp2247
(dp2248
g73
(dp2249
g81
I3
ssg82
g2243
sg75
(lp2250
S'stable'
p2251
asbasbasbasbasbasbasbag68
(g84
g70
NtRp2252
(dp2253
g73
(dp2254
sg82
g1416
sg75
(lp2255
g68
(g89
g70
NtRp2256
(dp2257
g73
(dp2258
g93
g94
ssg82
g2252
sg75
(lp2259
S'wsgi_errors'
p2260
asbag68
(g89
g70
NtRp2261
(dp2262
g73
(dp2263
g100
g101
ssg82
g2252
sg75
(lp2264
S':'
asbag68
(g89
g70
NtRp2265
(dp2266
g73
(dp2267
sg82
g2252
sg75
(lp2268
g68
(g69
g70
NtRp2269
(dp2270
g73
(dp2271
g81
I4
ssg82
g2265
sg75
(lp2272
S"<open file '<stderr>', mode 'w' at 0xb77260d0>"
p2273
asbasbasbag68
(g84
g70
NtRp2274
(dp2275
g73
(dp2276
sg82
g1416
sg75
(lp2277
g68
(g89
g70
NtRp2278
(dp2279
g73
(dp2280
g93
g94
ssg82
g2274
sg75
(lp2281
S'wsgi_file_wrapper'
p2282
asbag68
(g89
g70
NtRp2283
(dp2284
g73
(dp2285
g100
g101
ssg82
g2274
sg75
(lp2286
S':'
asbag68
(g89
g70
NtRp2287
(dp2288
g73
(dp2289
sg82
g2274
sg75
(lp2290
g68
(g69
g70
NtRp2291
(dp2292
g73
(dp2293
g81
I4
ssg82
g2287
sg75
(lp2294
S'<class wsgiref.util.FileWrapper at 0x98b2cbc>'
p2295
asbasbasbag68
(g84
g70
NtRp2296
(dp2297
g73
(dp2298
sg82
g1416
sg75
(lp2299
g68
(g89
g70
NtRp2300
(dp2301
g73
(dp2302
g93
g94
ssg82
g2296
sg75
(lp2303
S'wsgi_input'
p2304
asbag68
(g89
g70
NtRp2305
(dp2306
g73
(dp2307
g100
g101
ssg82
g2296
sg75
(lp2308
S':'
asbag68
(g89
g70
NtRp2309
(dp2310
g73
(dp2311
sg82
g2296
sg75
(lp2312
g68
(g69
g70
NtRp2313
(dp2314
g73
(dp2315
g81
I4
ssg82
g2309
sg75
(lp2316
S'<socket._fileobject object at 0xaddf6ec>'
p2317
asbasbasbag68
(g84
g70
NtRp2318
(dp2319
g73
(dp2320
sg82
g1416
sg75
(lp2321
g68
(g89
g70
NtRp2322
(dp2323
g73
(dp2324
g93
g94
ssg82
g2318
sg75
(lp2325
S'wsgi_multiprocess'
p2326
asbag68
(g89
g70
NtRp2327
(dp2328
g73
(dp2329
g100
g101
ssg82
g2318
sg75
(lp2330
S':'
asbag68
(g89
g70
NtRp2331
(dp2332
g73
(dp2333
sg82
g2318
sg75
(lp2334
g68
(g69
g70
NtRp2335
(dp2336
g73
(dp2337
g81
I4
ssg82
g2331
sg75
(lp2338
g111
asbasbasbag68
(g84
g70
NtRp2339
(dp2340
g73
(dp2341
sg82
g1416
sg75
(lp2342
g68
(g89
g70
NtRp2343
(dp2344
g73
(dp2345
g93
g94
ssg82
g2339
sg75
(lp2346
S'wsgi_multithread'
p2347
asbag68
(g89
g70
NtRp2348
(dp2349
g73
(dp2350
g100
g101
ssg82
g2339
sg75
(lp2351
S':'
asbag68
(g89
g70
NtRp2352
(dp2353
g73
(dp2354
sg82
g2339
sg75
(lp2355
g68
(g69
g70
NtRp2356
(dp2357
g73
(dp2358
g81
I4
ssg82
g2352
sg75
(lp2359
S'True'
p2360
asbasbasbag68
(g84
g70
NtRp2361
(dp2362
g73
(dp2363
sg82
g1416
sg75
(lp2364
g68
(g89
g70
NtRp2365
(dp2366
g73
(dp2367
g93
g94
ssg82
g2361
sg75
(lp2368
S'wsgi_run_once'
p2369
asbag68
(g89
g70
NtRp2370
(dp2371
g73
(dp2372
g100
g101
ssg82
g2361
sg75
(lp2373
S':'
asbag68
(g89
g70
NtRp2374
(dp2375
g73
(dp2376
sg82
g2361
sg75
(lp2377
g68
(g69
g70
NtRp2378
(dp2379
g73
(dp2380
g81
I4
ssg82
g2374
sg75
(lp2381
g111
asbasbasbag68
(g84
g70
NtRp2382
(dp2383
g73
(dp2384
sg82
g1416
sg75
(lp2385
g68
(g89
g70
NtRp2386
(dp2387
g73
(dp2388
g93
g94
ssg82
g2382
sg75
(lp2389
S'wsgi_url_scheme'
p2390
asbag68
(g89
g70
NtRp2391
(dp2392
g73
(dp2393
g100
g101
ssg82
g2382
sg75
(lp2394
S':'
asbag68
(g89
g70
NtRp2395
(dp2396
g73
(dp2397
sg82
g2382
sg75
(lp2398
g68
(g69
g70
NtRp2399
(dp2400
g73
(dp2401
g81
I4
ssg82
g2395
sg75
(lp2402
S'http'
p2403
asbasbasbag68
(g84
g70
NtRp2404
(dp2405
g73
(dp2406
sg82
g1416
sg75
(lp2407
g68
(g89
g70
NtRp2408
(dp2409
g73
(dp2410
g93
g94
ssg82
g2404
sg75
(lp2411
S'wsgi_version'
p2412
asbag68
(g89
g70
NtRp2413
(dp2414
g73
(dp2415
g100
g101
ssg82
g2404
sg75
(lp2416
S':'
asbag68
(g89
g70
NtRp2417
(dp2418
g73
(dp2419
sg82
g2404
sg75
(lp2420
g68
(g69
g70
NtRp2421
(dp2422
g73
(dp2423
g81
I4
ssg82
g2417
sg75
(lp2424
g68
(g77
g70
NtRp2425
(dp2426
g73
(dp2427
g81
I3
ssg82
Nsg75
(lp2428
g68
(g84
g70
NtRp2429
(dp2430
g73
(dp2431
sg82
g2425
sg75
(lp2432
g68
(g89
g70
NtRp2433
(dp2434
g73
(dp2435
sg82
g2429
sg75
(lp2436
g68
(g69
g70
NtRp2437
(dp2438
g73
(dp2439
g81
I3
ssg82
g2433
sg75
(lp2440
S'1'
asbasbasbag68
(g84
g70
NtRp2441
(dp2442
g73
(dp2443
sg82
g2425
sg75
(lp2444
g68
(g89
g70
NtRp2445
(dp2446
g73
(dp2447
sg82
g2441
sg75
(lp2448
g68
(g69
g70
NtRp2449
(dp2450
g73
(dp2451
g81
I3
ssg82
g2445
sg75
(lp2452
S'0'
asbasbasbasbasbasbasbasbasbasbasbag68
(g84
g70
NtRp2453
(dp2454
g73
(dp2455
sg82
g78
sg75
(lp2456
g68
(g89
g70
NtRp2457
(dp2458
g73
(dp2459
g93
g94
ssg82
g2453
sg75
(lp2460
S'extension'
p2461
asbag68
(g89
g70
NtRp2462
(dp2463
g73
(dp2464
g100
g101
ssg82
g2453
sg75
(lp2465
S':'
asbag68
(g89
g70
NtRp2466
(dp2467
g73
(dp2468
sg82
g2453
sg75
(lp2469
g68
(g69
g70
NtRp2470
(dp2471
g73
(dp2472
g81
I5
ssg82
g2466
sg75
(lp2473
S'html'
p2474
asbasbasbag68
(g84
g70
NtRp2475
(dp2476
g73
(dp2477
sg82
g78
sg75
(lp2478
g68
(g89
g70
NtRp2479
(dp2480
g73
(dp2481
g93
g94
ssg82
g2475
sg75
(lp2482
S'folder'
p2483
asbag68
(g89
g70
NtRp2484
(dp2485
g73
(dp2486
g100
g101
ssg82
g2475
sg75
(lp2487
S':'
asbag68
(g89
g70
NtRp2488
(dp2489
g73
(dp2490
sg82
g2475
sg75
(lp2491
g68
(g69
g70
NtRp2492
(dp2493
g73
(dp2494
g81
I5
ssg82
g2488
sg75
(lp2495
S'/home/pratyush/web2py/applications/BuySell/'
p2496
asbasbasbag68
(g84
g70
NtRp2497
(dp2498
g73
(dp2499
sg82
g78
sg75
(lp2500
g68
(g89
g70
NtRp2501
(dp2502
g73
(dp2503
g93
g94
ssg82
g2497
sg75
(lp2504
S'function'
p2505
asbag68
(g89
g70
NtRp2506
(dp2507
g73
(dp2508
g100
g101
ssg82
g2497
sg75
(lp2509
S':'
asbag68
(g89
g70
NtRp2510
(dp2511
g73
(dp2512
sg82
g2497
sg75
(lp2513
g68
(g69
g70
NtRp2514
(dp2515
g73
(dp2516
g81
I5
ssg82
g2510
sg75
(lp2517
S'fulfil_wishes'
p2518
asbasbasbag68
(g84
g70
NtRp2519
(dp2520
g73
(dp2521
sg82
g78
sg75
(lp2522
g68
(g89
g70
NtRp2523
(dp2524
g73
(dp2525
g93
g94
ssg82
g2519
sg75
(lp2526
S'get_vars'
p2527
asbag68
(g89
g70
NtRp2528
(dp2529
g73
(dp2530
g100
g101
ssg82
g2519
sg75
(lp2531
S':'
asbag68
(g89
g70
NtRp2532
(dp2533
g73
(dp2534
sg82
g2519
sg75
(lp2535
g68
(g69
g70
NtRp2536
(dp2537
g73
(dp2538
g81
I5
ssg82
g2532
sg75
(lp2539
g68
(g77
g70
NtRp2540
(dp2541
g73
(dp2542
g81
I4
ssg82
Nsg75
(lp2543
sbasbasbasbag68
(g84
g70
NtRp2544
(dp2545
g73
(dp2546
sg82
g78
sg75
(lp2547
g68
(g89
g70
NtRp2548
(dp2549
g73
(dp2550
g93
g94
ssg82
g2544
sg75
(lp2551
S'global_settings'
p2552
asbag68
(g89
g70
NtRp2553
(dp2554
g73
(dp2555
g100
g101
ssg82
g2544
sg75
(lp2556
S':'
asbag68
(g89
g70
NtRp2557
(dp2558
g73
(dp2559
sg82
g2544
sg75
(lp2560
g68
(g69
g70
NtRp2561
(dp2562
g73
(dp2563
g81
I5
ssg82
g2557
sg75
(lp2564
g68
(g77
g70
NtRp2565
(dp2566
g73
(dp2567
g81
I4
ssg82
Nsg75
(lp2568
g68
(g84
g70
NtRp2569
(dp2570
g73
(dp2571
sg82
g2565
sg75
(lp2572
g68
(g89
g70
NtRp2573
(dp2574
g73
(dp2575
g93
g94
ssg82
g2569
sg75
(lp2576
g1428
asbag68
(g89
g70
NtRp2577
(dp2578
g73
(dp2579
g100
g101
ssg82
g2569
sg75
(lp2580
S':'
asbag68
(g89
g70
NtRp2581
(dp2582
g73
(dp2583
sg82
g2569
sg75
(lp2584
g68
(g69
g70
NtRp2585
(dp2586
g73
(dp2587
g81
I4
ssg82
g2581
sg75
(lp2588
S"set(['/home/pratyush/web2py/applications/BuySell/', '/home/pratyush/web2py/applications/admin/'])"
p2589
asbasbasbag68
(g84
g70
NtRp2590
(dp2591
g73
(dp2592
sg82
g2565
sg75
(lp2593
g68
(g89
g70
NtRp2594
(dp2595
g73
(dp2596
g93
g94
ssg82
g2590
sg75
(lp2597
g1450
asbag68
(g89
g70
NtRp2598
(dp2599
g73
(dp2600
g100
g101
ssg82
g2590
sg75
(lp2601
S':'
asbag68
(g89
g70
NtRp2602
(dp2603
g73
(dp2604
sg82
g2590
sg75
(lp2605
g68
(g69
g70
NtRp2606
(dp2607
g73
(dp2608
g81
I4
ssg82
g2602
sg75
(lp2609
g1463
asbasbasbag68
(g84
g70
NtRp2610
(dp2611
g73
(dp2612
sg82
g2565
sg75
(lp2613
g68
(g89
g70
NtRp2614
(dp2615
g73
(dp2616
g93
g94
ssg82
g2610
sg75
(lp2617
g1472
asbag68
(g89
g70
NtRp2618
(dp2619
g73
(dp2620
g100
g101
ssg82
g2610
sg75
(lp2621
S':'
asbag68
(g89
g70
NtRp2622
(dp2623
g73
(dp2624
sg82
g2610
sg75
(lp2625
g68
(g69
g70
NtRp2626
(dp2627
g73
(dp2628
g81
I4
ssg82
g2622
sg75
(lp2629
g68
(g77
g70
NtRp2630
(dp2631
g73
(dp2632
g81
I3
ssg82
Nsg75
(lp2633
sbasbasbasbag68
(g84
g70
NtRp2634
(dp2635
g73
(dp2636
sg82
g2565
sg75
(lp2637
g68
(g89
g70
NtRp2638
(dp2639
g73
(dp2640
g93
g94
ssg82
g2634
sg75
(lp2641
g1497
asbag68
(g89
g70
NtRp2642
(dp2643
g73
(dp2644
g100
g101
ssg82
g2634
sg75
(lp2645
S':'
asbag68
(g89
g70
NtRp2646
(dp2647
g73
(dp2648
sg82
g2634
sg75
(lp2649
g68
(g69
g70
NtRp2650
(dp2651
g73
(dp2652
g81
I4
ssg82
g2646
sg75
(lp2653
S"<Values at 0x990602c: {'verbose': False, 'ip': '127.0.0.1', 'with_scheduler': False, 'ips': [], 'shutdown_timeout': 5, 'taskbar': False, 'port': 8001, 'maxthreads': None, 'softcron': False, 'server_name': 'alanzak', 'bpython': False, 'nogui': False, 'pid_filename': 'httpserver.pid', 'extcron': False, 'runcron': False, 'run_system_tests': False, 'test': None, 'folder': '/home/pratyush/web2py', 'config': '', 'import_models': False, 'winservice': '', 'shell': None, 'run': '', 'log_filename': 'httpserver.log', 'debuglevel': 30, 'args': [''], 'socket_timeout': 5, 'ssl_ca_certificate': None, 'scheduler': None, 'profiler_filename': None, 'ssl_private_key': '', 'scheduler_groups': None, 'password': '1', 'request_queue_size': 5, 'ssl_certificate': '', 'cronjob': False, 'numthreads': None, 'quiet': False, 'interfaces': None, 'minthreads': None, 'timeout': 10, 'plain': False, 'nobanner': False}>"
p2654
asbasbasbag68
(g84
g70
NtRp2655
(dp2656
g73
(dp2657
sg82
g2565
sg75
(lp2658
g68
(g89
g70
NtRp2659
(dp2660
g73
(dp2661
g93
g94
ssg82
g2655
sg75
(lp2662
g1519
asbag68
(g89
g70
NtRp2663
(dp2664
g73
(dp2665
g100
g101
ssg82
g2655
sg75
(lp2666
S':'
asbag68
(g89
g70
NtRp2667
(dp2668
g73
(dp2669
sg82
g2655
sg75
(lp2670
g68
(g69
g70
NtRp2671
(dp2672
g73
(dp2673
g81
I4
ssg82
g2667
sg75
(lp2674
S'set([])'
p2675
asbasbasbag68
(g84
g70
NtRp2676
(dp2677
g73
(dp2678
sg82
g2565
sg75
(lp2679
g68
(g89
g70
NtRp2680
(dp2681
g73
(dp2682
g93
g94
ssg82
g2676
sg75
(lp2683
g1541
asbag68
(g89
g70
NtRp2684
(dp2685
g73
(dp2686
g100
g101
ssg82
g2676
sg75
(lp2687
S':'
asbag68
(g89
g70
NtRp2688
(dp2689
g73
(dp2690
sg82
g2676
sg75
(lp2691
g68
(g69
g70
NtRp2692
(dp2693
g73
(dp2694
g81
I4
ssg82
g2688
sg75
(lp2695
g111
asbasbasbag68
(g84
g70
NtRp2696
(dp2697
g73
(dp2698
sg82
g2565
sg75
(lp2699
g68
(g89
g70
NtRp2700
(dp2701
g73
(dp2702
g93
g94
ssg82
g2696
sg75
(lp2703
g1562
asbag68
(g89
g70
NtRp2704
(dp2705
g73
(dp2706
g100
g101
ssg82
g2696
sg75
(lp2707
S':'
asbag68
(g89
g70
NtRp2708
(dp2709
g73
(dp2710
sg82
g2696
sg75
(lp2711
g68
(g69
g70
NtRp2712
(dp2713
g73
(dp2714
g81
I4
ssg82
g2708
sg75
(lp2715
g1575
asbasbasbag68
(g84
g70
NtRp2716
(dp2717
g73
(dp2718
sg82
g2565
sg75
(lp2719
g68
(g89
g70
NtRp2720
(dp2721
g73
(dp2722
g93
g94
ssg82
g2716
sg75
(lp2723
g1782
asbag68
(g89
g70
NtRp2724
(dp2725
g73
(dp2726
g100
g101
ssg82
g2716
sg75
(lp2727
S':'
asbag68
(g89
g70
NtRp2728
(dp2729
g73
(dp2730
sg82
g2716
sg75
(lp2731
g68
(g69
g70
NtRp2732
(dp2733
g73
(dp2734
g81
I4
ssg82
g2728
sg75
(lp2735
g111
asbasbasbag68
(g84
g70
NtRp2736
(dp2737
g73
(dp2738
sg82
g2565
sg75
(lp2739
g68
(g89
g70
NtRp2740
(dp2741
g73
(dp2742
g93
g94
ssg82
g2736
sg75
(lp2743
g1803
asbag68
(g89
g70
NtRp2744
(dp2745
g73
(dp2746
g100
g101
ssg82
g2736
sg75
(lp2747
S':'
asbag68
(g89
g70
NtRp2748
(dp2749
g73
(dp2750
sg82
g2736
sg75
(lp2751
g68
(g69
g70
NtRp2752
(dp2753
g73
(dp2754
g81
I4
ssg82
g2748
sg75
(lp2755
g111
asbasbasbag68
(g84
g70
NtRp2756
(dp2757
g73
(dp2758
sg82
g2565
sg75
(lp2759
g68
(g89
g70
NtRp2760
(dp2761
g73
(dp2762
g93
g94
ssg82
g2756
sg75
(lp2763
g1824
asbag68
(g89
g70
NtRp2764
(dp2765
g73
(dp2766
g100
g101
ssg82
g2756
sg75
(lp2767
S':'
asbag68
(g89
g70
NtRp2768
(dp2769
g73
(dp2770
sg82
g2756
sg75
(lp2771
g68
(g69
g70
NtRp2772
(dp2773
g73
(dp2774
g81
I4
ssg82
g2768
sg75
(lp2775
g68
(g77
g70
NtRp2776
(dp2777
g73
(dp2778
g81
I3
ssg82
Nsg75
(lp2779
g68
(g84
g70
NtRp2780
(dp2781
g73
(dp2782
sg82
g2776
sg75
(lp2783
g68
(g89
g70
NtRp2784
(dp2785
g73
(dp2786
sg82
g2780
sg75
(lp2787
g68
(g69
g70
NtRp2788
(dp2789
g73
(dp2790
g81
I3
ssg82
g2784
sg75
(lp2791
g1853
asbasbasbag68
(g84
g70
NtRp2792
(dp2793
g73
(dp2794
sg82
g2776
sg75
(lp2795
g68
(g89
g70
NtRp2796
(dp2797
g73
(dp2798
sg82
g2792
sg75
(lp2799
g68
(g69
g70
NtRp2800
(dp2801
g73
(dp2802
g81
I3
ssg82
g2796
sg75
(lp2803
g1866
asbasbasbag68
(g84
g70
NtRp2804
(dp2805
g73
(dp2806
sg82
g2776
sg75
(lp2807
g68
(g89
g70
NtRp2808
(dp2809
g73
(dp2810
sg82
g2804
sg75
(lp2811
g68
(g69
g70
NtRp2812
(dp2813
g73
(dp2814
g81
I3
ssg82
g2808
sg75
(lp2815
g1879
asbasbasbag68
(g84
g70
NtRp2816
(dp2817
g73
(dp2818
sg82
g2776
sg75
(lp2819
g68
(g89
g70
NtRp2820
(dp2821
g73
(dp2822
sg82
g2816
sg75
(lp2823
g68
(g69
g70
NtRp2824
(dp2825
g73
(dp2826
g81
I3
ssg82
g2820
sg75
(lp2827
g1892
asbasbasbag68
(g84
g70
NtRp2828
(dp2829
g73
(dp2830
sg82
g2776
sg75
(lp2831
g68
(g89
g70
NtRp2832
(dp2833
g73
(dp2834
sg82
g2828
sg75
(lp2835
g68
(g69
g70
NtRp2836
(dp2837
g73
(dp2838
g81
I3
ssg82
g2832
sg75
(lp2839
g1905
asbasbasbasbasbasbasbag68
(g84
g70
NtRp2840
(dp2841
g73
(dp2842
sg82
g2565
sg75
(lp2843
g68
(g89
g70
NtRp2844
(dp2845
g73
(dp2846
g93
g94
ssg82
g2840
sg75
(lp2847
g2173
asbag68
(g89
g70
NtRp2848
(dp2849
g73
(dp2850
g100
g101
ssg82
g2840
sg75
(lp2851
S':'
asbag68
(g89
g70
NtRp2852
(dp2853
g73
(dp2854
sg82
g2840
sg75
(lp2855
g68
(g69
g70
NtRp2856
(dp2857
g73
(dp2858
g81
I4
ssg82
g2852
sg75
(lp2859
g68
(g77
g70
NtRp2860
(dp2861
g73
(dp2862
g81
I3
ssg82
Nsg75
(lp2863
g68
(g84
g70
NtRp2864
(dp2865
g73
(dp2866
sg82
g2860
sg75
(lp2867
g68
(g89
g70
NtRp2868
(dp2869
g73
(dp2870
sg82
g2864
sg75
(lp2871
g68
(g69
g70
NtRp2872
(dp2873
g73
(dp2874
g81
I3
ssg82
g2868
sg75
(lp2875
S'2'
asbasbasbag68
(g84
g70
NtRp2876
(dp2877
g73
(dp2878
sg82
g2860
sg75
(lp2879
g68
(g89
g70
NtRp2880
(dp2881
g73
(dp2882
sg82
g2876
sg75
(lp2883
g68
(g69
g70
NtRp2884
(dp2885
g73
(dp2886
g81
I3
ssg82
g2880
sg75
(lp2887
S'3'
asbasbasbag68
(g84
g70
NtRp2888
(dp2889
g73
(dp2890
sg82
g2860
sg75
(lp2891
g68
(g89
g70
NtRp2892
(dp2893
g73
(dp2894
sg82
g2888
sg75
(lp2895
g68
(g69
g70
NtRp2896
(dp2897
g73
(dp2898
g81
I3
ssg82
g2892
sg75
(lp2899
S'2'
asbasbasbag68
(g84
g70
NtRp2900
(dp2901
g73
(dp2902
sg82
g2860
sg75
(lp2903
g68
(g89
g70
NtRp2904
(dp2905
g73
(dp2906
sg82
g2900
sg75
(lp2907
g68
(g69
g70
NtRp2908
(dp2909
g73
(dp2910
g81
I3
ssg82
g2904
sg75
(lp2911
S'datetime.datetime(2012, 12, 17, 15, 3, 30)'
p2912
asbasbasbag68
(g84
g70
NtRp2913
(dp2914
g73
(dp2915
sg82
g2860
sg75
(lp2916
g68
(g89
g70
NtRp2917
(dp2918
g73
(dp2919
sg82
g2913
sg75
(lp2920
g68
(g69
g70
NtRp2921
(dp2922
g73
(dp2923
g81
I3
ssg82
g2917
sg75
(lp2924
g2251
asbasbasbasbasbasbasbasbasbasbasbag68
(g84
g70
NtRp2925
(dp2926
g73
(dp2927
sg82
g78
sg75
(lp2928
g68
(g89
g70
NtRp2929
(dp2930
g73
(dp2931
g93
g94
ssg82
g2925
sg75
(lp2932
S'is_https'
p2933
asbag68
(g89
g70
NtRp2934
(dp2935
g73
(dp2936
g100
g101
ssg82
g2925
sg75
(lp2937
S':'
asbag68
(g89
g70
NtRp2938
(dp2939
g73
(dp2940
sg82
g2925
sg75
(lp2941
g68
(g69
g70
NtRp2942
(dp2943
g73
(dp2944
g81
I5
ssg82
g2938
sg75
(lp2945
g111
asbasbasbag68
(g84
g70
NtRp2946
(dp2947
g73
(dp2948
sg82
g78
sg75
(lp2949
g68
(g89
g70
NtRp2950
(dp2951
g73
(dp2952
g93
g94
ssg82
g2946
sg75
(lp2953
S'is_local'
p2954
asbag68
(g89
g70
NtRp2955
(dp2956
g73
(dp2957
g100
g101
ssg82
g2946
sg75
(lp2958
S':'
asbag68
(g89
g70
NtRp2959
(dp2960
g73
(dp2961
sg82
g2946
sg75
(lp2962
g68
(g69
g70
NtRp2963
(dp2964
g73
(dp2965
g81
I5
ssg82
g2959
sg75
(lp2966
g2360
asbasbasbag68
(g84
g70
NtRp2967
(dp2968
g73
(dp2969
sg82
g78
sg75
(lp2970
g68
(g89
g70
NtRp2971
(dp2972
g73
(dp2973
g93
g94
ssg82
g2967
sg75
(lp2974
S'is_restful'
p2975
asbag68
(g89
g70
NtRp2976
(dp2977
g73
(dp2978
g100
g101
ssg82
g2967
sg75
(lp2979
S':'
asbag68
(g89
g70
NtRp2980
(dp2981
g73
(dp2982
sg82
g2967
sg75
(lp2983
g68
(g69
g70
NtRp2984
(dp2985
g73
(dp2986
g81
I5
ssg82
g2980
sg75
(lp2987
g111
asbasbasbag68
(g84
g70
NtRp2988
(dp2989
g73
(dp2990
sg82
g78
sg75
(lp2991
g68
(g89
g70
NtRp2992
(dp2993
g73
(dp2994
g93
g94
ssg82
g2988
sg75
(lp2995
S'now'
p2996
asbag68
(g89
g70
NtRp2997
(dp2998
g73
(dp2999
g100
g101
ssg82
g2988
sg75
(lp3000
S':'
asbag68
(g89
g70
NtRp3001
(dp3002
g73
(dp3003
sg82
g2988
sg75
(lp3004
g68
(g69
g70
NtRp3005
(dp3006
g73
(dp3007
g81
I5
ssg82
g3001
sg75
(lp3008
S'datetime.datetime(2013, 4, 22, 21, 29, 58, 637470)'
p3009
asbasbasbag68
(g84
g70
NtRp3010
(dp3011
g73
(dp3012
sg82
g78
sg75
(lp3013
g68
(g89
g70
NtRp3014
(dp3015
g73
(dp3016
g93
g94
ssg82
g3010
sg75
(lp3017
S'post_vars'
p3018
asbag68
(g89
g70
NtRp3019
(dp3020
g73
(dp3021
g100
g101
ssg82
g3010
sg75
(lp3022
S':'
asbag68
(g89
g70
NtRp3023
(dp3024
g73
(dp3025
sg82
g3010
sg75
(lp3026
g68
(g69
g70
NtRp3027
(dp3028
g73
(dp3029
g81
I5
ssg82
g3023
sg75
(lp3030
g68
(g77
g70
NtRp3031
(dp3032
g73
(dp3033
g81
I4
ssg82
Nsg75
(lp3034
sbasbasbasbag68
(g84
g70
NtRp3035
(dp3036
g73
(dp3037
sg82
g78
sg75
(lp3038
g68
(g89
g70
NtRp3039
(dp3040
g73
(dp3041
g93
g94
ssg82
g3035
sg75
(lp3042
S'raw_args'
p3043
asbag68
(g89
g70
NtRp3044
(dp3045
g73
(dp3046
g100
g101
ssg82
g3035
sg75
(lp3047
S':'
asbag68
(g89
g70
NtRp3048
(dp3049
g73
(dp3050
sg82
g3035
sg75
(lp3051
g68
(g69
g70
NtRp3052
(dp3053
g73
(dp3054
g81
I5
ssg82
g3048
sg75
(lp3055
S''
asbasbasbag68
(g84
g70
NtRp3056
(dp3057
g73
(dp3058
sg82
g78
sg75
(lp3059
g68
(g89
g70
NtRp3060
(dp3061
g73
(dp3062
g93
g94
ssg82
g3056
sg75
(lp3063
S'raw_extension'
p3064
asbag68
(g89
g70
NtRp3065
(dp3066
g73
(dp3067
g100
g101
ssg82
g3056
sg75
(lp3068
S':'
asbag68
(g89
g70
NtRp3069
(dp3070
g73
(dp3071
sg82
g3056
sg75
(lp3072
g68
(g69
g70
NtRp3073
(dp3074
g73
(dp3075
g81
I5
ssg82
g3069
sg75
(lp3076
S'None'
p3077
asbasbasbag68
(g84
g70
NtRp3078
(dp3079
g73
(dp3080
sg82
g78
sg75
(lp3081
g68
(g89
g70
NtRp3082
(dp3083
g73
(dp3084
g93
g94
ssg82
g3078
sg75
(lp3085
S'url'
p3086
asbag68
(g89
g70
NtRp3087
(dp3088
g73
(dp3089
g100
g101
ssg82
g3078
sg75
(lp3090
S':'
asbag68
(g89
g70
NtRp3091
(dp3092
g73
(dp3093
sg82
g3078
sg75
(lp3094
g68
(g69
g70
NtRp3095
(dp3096
g73
(dp3097
g81
I5
ssg82
g3091
sg75
(lp3098
g1927
asbasbasbag68
(g84
g70
NtRp3099
(dp3100
g73
(dp3101
sg82
g78
sg75
(lp3102
g68
(g89
g70
NtRp3103
(dp3104
g73
(dp3105
g93
g94
ssg82
g3099
sg75
(lp3106
S'utcnow'
p3107
asbag68
(g89
g70
NtRp3108
(dp3109
g73
(dp3110
g100
g101
ssg82
g3099
sg75
(lp3111
S':'
asbag68
(g89
g70
NtRp3112
(dp3113
g73
(dp3114
sg82
g3099
sg75
(lp3115
g68
(g69
g70
NtRp3116
(dp3117
g73
(dp3118
g81
I5
ssg82
g3112
sg75
(lp3119
S'datetime.datetime(2013, 4, 22, 15, 59, 58, 637500)'
p3120
asbasbasbag68
(g84
g70
NtRp3121
(dp3122
g73
(dp3123
sg82
g78
sg75
(lp3124
g68
(g89
g70
NtRp3125
(dp3126
g73
(dp3127
g93
g94
ssg82
g3121
sg75
(lp3128
S'uuid'
p3129
asbag68
(g89
g70
NtRp3130
(dp3131
g73
(dp3132
g100
g101
ssg82
g3121
sg75
(lp3133
S':'
asbag68
(g89
g70
NtRp3134
(dp3135
g73
(dp3136
sg82
g3121
sg75
(lp3137
g68
(g69
g70
NtRp3138
(dp3139
g73
(dp3140
g81
I5
ssg82
g3134
sg75
(lp3141
S'BuySell/127.0.0.1.2013-04-22.21-29-58.50d3059d-2354-46ee-8184-7670836c4960'
p3142
asbasbasbag68
(g84
g70
NtRp3143
(dp3144
g73
(dp3145
sg82
g78
sg75
(lp3146
g68
(g89
g70
NtRp3147
(dp3148
g73
(dp3149
g93
g94
ssg82
g3143
sg75
(lp3150
S'vars'
p3151
asbag68
(g89
g70
NtRp3152
(dp3153
g73
(dp3154
g100
g101
ssg82
g3143
sg75
(lp3155
S':'
asbag68
(g89
g70
NtRp3156
(dp3157
g73
(dp3158
sg82
g3143
sg75
(lp3159
g68
(g69
g70
NtRp3160
(dp3161
g73
(dp3162
g81
I5
ssg82
g3156
sg75
(lp3163
g68
(g77
g70
NtRp3164
(dp3165
g73
(dp3166
g81
I4
ssg82
Nsg75
(lp3167
sbasbasbasbag68
(g84
g70
NtRp3168
(dp3169
g73
(dp3170
sg82
g78
sg75
(lp3171
g68
(g89
g70
NtRp3172
(dp3173
g73
(dp3174
g93
g94
ssg82
g3168
sg75
(lp3175
S'wsgi'
p3176
asbag68
(g89
g70
NtRp3177
(dp3178
g73
(dp3179
g100
g101
ssg82
g3168
sg75
(lp3180
S':'
asbag68
(g89
g70
NtRp3181
(dp3182
g73
(dp3183
sg82
g3168
sg75
(lp3184
g68
(g69
g70
NtRp3185
(dp3186
g73
(dp3187
g81
I5
ssg82
g3181
sg75
(lp3188
g68
(g77
g70
NtRp3189
(dp3190
g73
(dp3191
g81
I4
ssg82
Nsg75
(lp3192
g68
(g84
g70
NtRp3193
(dp3194
g73
(dp3195
sg82
g3189
sg75
(lp3196
g68
(g89
g70
NtRp3197
(dp3198
g73
(dp3199
g93
g94
ssg82
g3193
sg75
(lp3200
S'environ'
p3201
asbag68
(g89
g70
NtRp3202
(dp3203
g73
(dp3204
g100
g101
ssg82
g3193
sg75
(lp3205
S':'
asbag68
(g89
g70
NtRp3206
(dp3207
g73
(dp3208
sg82
g3193
sg75
(lp3209
g68
(g69
g70
NtRp3210
(dp3211
g73
(dp3212
g81
I4
ssg82
g3206
sg75
(lp3213
g68
(g77
g70
NtRp3214
(dp3215
g73
(dp3216
g81
I3
ssg82
Nsg75
(lp3217
g68
(g84
g70
NtRp3218
(dp3219
g73
(dp3220
sg82
g3214
sg75
(lp3221
g68
(g89
g70
NtRp3222
(dp3223
g73
(dp3224
g93
g94
ssg82
g3218
sg75
(lp3225
S'HTTP_ACCEPT'
p3226
asbag68
(g89
g70
NtRp3227
(dp3228
g73
(dp3229
g100
g101
ssg82
g3218
sg75
(lp3230
S':'
asbag68
(g89
g70
NtRp3231
(dp3232
g73
(dp3233
sg82
g3218
sg75
(lp3234
g68
(g69
g70
NtRp3235
(dp3236
g73
(dp3237
g81
I3
ssg82
g3231
sg75
(lp3238
g1597
asbasbasbag68
(g84
g70
NtRp3239
(dp3240
g73
(dp3241
sg82
g3214
sg75
(lp3242
g68
(g89
g70
NtRp3243
(dp3244
g73
(dp3245
g93
g94
ssg82
g3239
sg75
(lp3246
S'HTTP_ACCEPT_CHARSET'
p3247
asbag68
(g89
g70
NtRp3248
(dp3249
g73
(dp3250
g100
g101
ssg82
g3239
sg75
(lp3251
S':'
asbag68
(g89
g70
NtRp3252
(dp3253
g73
(dp3254
sg82
g3239
sg75
(lp3255
g68
(g69
g70
NtRp3256
(dp3257
g73
(dp3258
g81
I3
ssg82
g3252
sg75
(lp3259
g1619
asbasbasbag68
(g84
g70
NtRp3260
(dp3261
g73
(dp3262
sg82
g3214
sg75
(lp3263
g68
(g89
g70
NtRp3264
(dp3265
g73
(dp3266
g93
g94
ssg82
g3260
sg75
(lp3267
S'HTTP_ACCEPT_ENCODING'
p3268
asbag68
(g89
g70
NtRp3269
(dp3270
g73
(dp3271
g100
g101
ssg82
g3260
sg75
(lp3272
S':'
asbag68
(g89
g70
NtRp3273
(dp3274
g73
(dp3275
sg82
g3260
sg75
(lp3276
g68
(g69
g70
NtRp3277
(dp3278
g73
(dp3279
g81
I3
ssg82
g3273
sg75
(lp3280
g1641
asbasbasbag68
(g84
g70
NtRp3281
(dp3282
g73
(dp3283
sg82
g3214
sg75
(lp3284
g68
(g89
g70
NtRp3285
(dp3286
g73
(dp3287
g93
g94
ssg82
g3281
sg75
(lp3288
S'HTTP_ACCEPT_LANGUAGE'
p3289
asbag68
(g89
g70
NtRp3290
(dp3291
g73
(dp3292
g100
g101
ssg82
g3281
sg75
(lp3293
S':'
asbag68
(g89
g70
NtRp3294
(dp3295
g73
(dp3296
sg82
g3281
sg75
(lp3297
g68
(g69
g70
NtRp3298
(dp3299
g73
(dp3300
g81
I3
ssg82
g3294
sg75
(lp3301
g1663
asbasbasbag68
(g84
g70
NtRp3302
(dp3303
g73
(dp3304
sg82
g3214
sg75
(lp3305
g68
(g89
g70
NtRp3306
(dp3307
g73
(dp3308
g93
g94
ssg82
g3302
sg75
(lp3309
S'HTTP_CONNECTION'
p3310
asbag68
(g89
g70
NtRp3311
(dp3312
g73
(dp3313
g100
g101
ssg82
g3302
sg75
(lp3314
S':'
asbag68
(g89
g70
NtRp3315
(dp3316
g73
(dp3317
sg82
g3302
sg75
(lp3318
g68
(g69
g70
NtRp3319
(dp3320
g73
(dp3321
g81
I3
ssg82
g3315
sg75
(lp3322
g1685
asbasbasbag68
(g84
g70
NtRp3323
(dp3324
g73
(dp3325
sg82
g3214
sg75
(lp3326
g68
(g89
g70
NtRp3327
(dp3328
g73
(dp3329
g93
g94
ssg82
g3323
sg75
(lp3330
S'HTTP_COOKIE'
p3331
asbag68
(g89
g70
NtRp3332
(dp3333
g73
(dp3334
g100
g101
ssg82
g3323
sg75
(lp3335
S':'
asbag68
(g89
g70
NtRp3336
(dp3337
g73
(dp3338
sg82
g3323
sg75
(lp3339
g68
(g69
g70
NtRp3340
(dp3341
g73
(dp3342
g81
I3
ssg82
g3336
sg75
(lp3343
g1707
asbasbasbag68
(g84
g70
NtRp3344
(dp3345
g73
(dp3346
sg82
g3214
sg75
(lp3347
g68
(g89
g70
NtRp3348
(dp3349
g73
(dp3350
g93
g94
ssg82
g3344
sg75
(lp3351
S'HTTP_HOST'
p3352
asbag68
(g89
g70
NtRp3353
(dp3354
g73
(dp3355
g100
g101
ssg82
g3344
sg75
(lp3356
S':'
asbag68
(g89
g70
NtRp3357
(dp3358
g73
(dp3359
sg82
g3344
sg75
(lp3360
g68
(g69
g70
NtRp3361
(dp3362
g73
(dp3363
g81
I3
ssg82
g3357
sg75
(lp3364
g1729
asbasbasbag68
(g84
g70
NtRp3365
(dp3366
g73
(dp3367
sg82
g3214
sg75
(lp3368
g68
(g89
g70
NtRp3369
(dp3370
g73
(dp3371
g93
g94
ssg82
g3365
sg75
(lp3372
S'HTTP_REFERER'
p3373
asbag68
(g89
g70
NtRp3374
(dp3375
g73
(dp3376
g100
g101
ssg82
g3365
sg75
(lp3377
S':'
asbag68
(g89
g70
NtRp3378
(dp3379
g73
(dp3380
sg82
g3365
sg75
(lp3381
g68
(g69
g70
NtRp3382
(dp3383
g73
(dp3384
g81
I3
ssg82
g3378
sg75
(lp3385
g1751
asbasbasbag68
(g84
g70
NtRp3386
(dp3387
g73
(dp3388
sg82
g3214
sg75
(lp3389
g68
(g89
g70
NtRp3390
(dp3391
g73
(dp3392
g93
g94
ssg82
g3386
sg75
(lp3393
S'HTTP_USER_AGENT'
p3394
asbag68
(g89
g70
NtRp3395
(dp3396
g73
(dp3397
g100
g101
ssg82
g3386
sg75
(lp3398
S':'
asbag68
(g89
g70
NtRp3399
(dp3400
g73
(dp3401
sg82
g3386
sg75
(lp3402
g68
(g69
g70
NtRp3403
(dp3404
g73
(dp3405
g81
I3
ssg82
g3399
sg75
(lp3406
g1773
asbasbasbag68
(g84
g70
NtRp3407
(dp3408
g73
(dp3409
sg82
g3214
sg75
(lp3410
g68
(g89
g70
NtRp3411
(dp3412
g73
(dp3413
g93
g94
ssg82
g3407
sg75
(lp3414
S'PATH_INFO'
p3415
asbag68
(g89
g70
NtRp3416
(dp3417
g73
(dp3418
g100
g101
ssg82
g3407
sg75
(lp3419
S':'
asbag68
(g89
g70
NtRp3420
(dp3421
g73
(dp3422
sg82
g3407
sg75
(lp3423
g68
(g69
g70
NtRp3424
(dp3425
g73
(dp3426
g81
I3
ssg82
g3420
sg75
(lp3427
g1927
asbasbasbag68
(g84
g70
NtRp3428
(dp3429
g73
(dp3430
sg82
g3214
sg75
(lp3431
g68
(g89
g70
NtRp3432
(dp3433
g73
(dp3434
g93
g94
ssg82
g3428
sg75
(lp3435
S'QUERY_STRING'
p3436
asbag68
(g89
g70
NtRp3437
(dp3438
g73
(dp3439
g100
g101
ssg82
g3428
sg75
(lp3440
S':'
asbag68
(g89
g70
NtRp3441
(dp3442
g73
(dp3443
sg82
g3428
sg75
(lp3444
g68
(g69
g70
NtRp3445
(dp3446
g73
(dp3447
g81
I3
ssg82
g3441
sg75
(lp3448
S''
asbasbasbag68
(g84
g70
NtRp3449
(dp3450
g73
(dp3451
sg82
g3214
sg75
(lp3452
g68
(g89
g70
NtRp3453
(dp3454
g73
(dp3455
g93
g94
ssg82
g3449
sg75
(lp3456
S'REMOTE_ADDR'
p3457
asbag68
(g89
g70
NtRp3458
(dp3459
g73
(dp3460
g100
g101
ssg82
g3449
sg75
(lp3461
S':'
asbag68
(g89
g70
NtRp3462
(dp3463
g73
(dp3464
sg82
g3449
sg75
(lp3465
g68
(g69
g70
NtRp3466
(dp3467
g73
(dp3468
g81
I3
ssg82
g3462
sg75
(lp3469
g223
asbasbasbag68
(g84
g70
NtRp3470
(dp3471
g73
(dp3472
sg82
g3214
sg75
(lp3473
g68
(g89
g70
NtRp3474
(dp3475
g73
(dp3476
g93
g94
ssg82
g3470
sg75
(lp3477
S'REMOTE_PORT'
p3478
asbag68
(g89
g70
NtRp3479
(dp3480
g73
(dp3481
g100
g101
ssg82
g3470
sg75
(lp3482
S':'
asbag68
(g89
g70
NtRp3483
(dp3484
g73
(dp3485
sg82
g3470
sg75
(lp3486
g68
(g69
g70
NtRp3487
(dp3488
g73
(dp3489
g81
I3
ssg82
g3483
sg75
(lp3490
g1991
asbasbasbag68
(g84
g70
NtRp3491
(dp3492
g73
(dp3493
sg82
g3214
sg75
(lp3494
g68
(g89
g70
NtRp3495
(dp3496
g73
(dp3497
g93
g94
ssg82
g3491
sg75
(lp3498
S'REQUEST_METHOD'
p3499
asbag68
(g89
g70
NtRp3500
(dp3501
g73
(dp3502
g100
g101
ssg82
g3491
sg75
(lp3503
S':'
asbag68
(g89
g70
NtRp3504
(dp3505
g73
(dp3506
sg82
g3491
sg75
(lp3507
g68
(g69
g70
NtRp3508
(dp3509
g73
(dp3510
g81
I3
ssg82
g3504
sg75
(lp3511
g2013
asbasbasbag68
(g84
g70
NtRp3512
(dp3513
g73
(dp3514
sg82
g3214
sg75
(lp3515
g68
(g89
g70
NtRp3516
(dp3517
g73
(dp3518
g93
g94
ssg82
g3512
sg75
(lp3519
S'REQUEST_URI'
p3520
asbag68
(g89
g70
NtRp3521
(dp3522
g73
(dp3523
g100
g101
ssg82
g3512
sg75
(lp3524
S':'
asbag68
(g89
g70
NtRp3525
(dp3526
g73
(dp3527
sg82
g3512
sg75
(lp3528
g68
(g69
g70
NtRp3529
(dp3530
g73
(dp3531
g81
I3
ssg82
g3525
sg75
(lp3532
g1927
asbasbasbag68
(g84
g70
NtRp3533
(dp3534
g73
(dp3535
sg82
g3214
sg75
(lp3536
g68
(g89
g70
NtRp3537
(dp3538
g73
(dp3539
g93
g94
ssg82
g3533
sg75
(lp3540
S'SCRIPT_NAME'
p3541
asbag68
(g89
g70
NtRp3542
(dp3543
g73
(dp3544
g100
g101
ssg82
g3533
sg75
(lp3545
S':'
asbag68
(g89
g70
NtRp3546
(dp3547
g73
(dp3548
sg82
g3533
sg75
(lp3549
g68
(g69
g70
NtRp3550
(dp3551
g73
(dp3552
g81
I3
ssg82
g3546
sg75
(lp3553
S''
asbasbasbag68
(g84
g70
NtRp3554
(dp3555
g73
(dp3556
sg82
g3214
sg75
(lp3557
g68
(g89
g70
NtRp3558
(dp3559
g73
(dp3560
g93
g94
ssg82
g3554
sg75
(lp3561
S'SERVER_NAME'
p3562
asbag68
(g89
g70
NtRp3563
(dp3564
g73
(dp3565
g100
g101
ssg82
g3554
sg75
(lp3566
S':'
asbag68
(g89
g70
NtRp3567
(dp3568
g73
(dp3569
sg82
g3554
sg75
(lp3570
g68
(g69
g70
NtRp3571
(dp3572
g73
(dp3573
g81
I3
ssg82
g3567
sg75
(lp3574
g2077
asbasbasbag68
(g84
g70
NtRp3575
(dp3576
g73
(dp3577
sg82
g3214
sg75
(lp3578
g68
(g89
g70
NtRp3579
(dp3580
g73
(dp3581
g93
g94
ssg82
g3575
sg75
(lp3582
S'SERVER_PORT'
p3583
asbag68
(g89
g70
NtRp3584
(dp3585
g73
(dp3586
g100
g101
ssg82
g3575
sg75
(lp3587
S':'
asbag68
(g89
g70
NtRp3588
(dp3589
g73
(dp3590
sg82
g3575
sg75
(lp3591
g68
(g69
g70
NtRp3592
(dp3593
g73
(dp3594
g81
I3
ssg82
g3588
sg75
(lp3595
g2099
asbasbasbag68
(g84
g70
NtRp3596
(dp3597
g73
(dp3598
sg82
g3214
sg75
(lp3599
g68
(g89
g70
NtRp3600
(dp3601
g73
(dp3602
g93
g94
ssg82
g3596
sg75
(lp3603
S'SERVER_PROTOCOL'
p3604
asbag68
(g89
g70
NtRp3605
(dp3606
g73
(dp3607
g100
g101
ssg82
g3596
sg75
(lp3608
S':'
asbag68
(g89
g70
NtRp3609
(dp3610
g73
(dp3611
sg82
g3596
sg75
(lp3612
g68
(g69
g70
NtRp3613
(dp3614
g73
(dp3615
g81
I3
ssg82
g3609
sg75
(lp3616
g2121
asbasbasbag68
(g84
g70
NtRp3617
(dp3618
g73
(dp3619
sg82
g3214
sg75
(lp3620
g68
(g89
g70
NtRp3621
(dp3622
g73
(dp3623
g93
g94
ssg82
g3617
sg75
(lp3624
S'SERVER_SOFTWARE'
p3625
asbag68
(g89
g70
NtRp3626
(dp3627
g73
(dp3628
g100
g101
ssg82
g3617
sg75
(lp3629
S':'
asbag68
(g89
g70
NtRp3630
(dp3631
g73
(dp3632
sg82
g3617
sg75
(lp3633
g68
(g69
g70
NtRp3634
(dp3635
g73
(dp3636
g81
I3
ssg82
g3630
sg75
(lp3637
g2143
asbasbasbag68
(g84
g70
NtRp3638
(dp3639
g73
(dp3640
sg82
g3214
sg75
(lp3641
g68
(g89
g70
NtRp3642
(dp3643
g73
(dp3644
g93
g94
ssg82
g3638
sg75
(lp3645
S'wsgi.errors'
p3646
asbag68
(g89
g70
NtRp3647
(dp3648
g73
(dp3649
g100
g101
ssg82
g3638
sg75
(lp3650
S':'
asbag68
(g89
g70
NtRp3651
(dp3652
g73
(dp3653
sg82
g3638
sg75
(lp3654
g68
(g69
g70
NtRp3655
(dp3656
g73
(dp3657
g81
I3
ssg82
g3651
sg75
(lp3658
S"<open file '<stderr>', mode 'w' at 0xb77260d0>"
p3659
asbasbasbag68
(g84
g70
NtRp3660
(dp3661
g73
(dp3662
sg82
g3214
sg75
(lp3663
g68
(g89
g70
NtRp3664
(dp3665
g73
(dp3666
g93
g94
ssg82
g3660
sg75
(lp3667
S'wsgi.file_wrapper'
p3668
asbag68
(g89
g70
NtRp3669
(dp3670
g73
(dp3671
g100
g101
ssg82
g3660
sg75
(lp3672
S':'
asbag68
(g89
g70
NtRp3673
(dp3674
g73
(dp3675
sg82
g3660
sg75
(lp3676
g68
(g69
g70
NtRp3677
(dp3678
g73
(dp3679
g81
I3
ssg82
g3673
sg75
(lp3680
S'<class wsgiref.util.FileWrapper at 0x98b2cbc>'
p3681
asbasbasbag68
(g84
g70
NtRp3682
(dp3683
g73
(dp3684
sg82
g3214
sg75
(lp3685
g68
(g89
g70
NtRp3686
(dp3687
g73
(dp3688
g93
g94
ssg82
g3682
sg75
(lp3689
S'wsgi.input'
p3690
asbag68
(g89
g70
NtRp3691
(dp3692
g73
(dp3693
g100
g101
ssg82
g3682
sg75
(lp3694
S':'
asbag68
(g89
g70
NtRp3695
(dp3696
g73
(dp3697
sg82
g3682
sg75
(lp3698
g68
(g69
g70
NtRp3699
(dp3700
g73
(dp3701
g81
I3
ssg82
g3695
sg75
(lp3702
S'<cStringIO.StringO object at 0xa006d20>'
p3703
asbasbasbag68
(g84
g70
NtRp3704
(dp3705
g73
(dp3706
sg82
g3214
sg75
(lp3707
g68
(g89
g70
NtRp3708
(dp3709
g73
(dp3710
g93
g94
ssg82
g3704
sg75
(lp3711
S'wsgi.multiprocess'
p3712
asbag68
(g89
g70
NtRp3713
(dp3714
g73
(dp3715
g100
g101
ssg82
g3704
sg75
(lp3716
S':'
asbag68
(g89
g70
NtRp3717
(dp3718
g73
(dp3719
sg82
g3704
sg75
(lp3720
g68
(g69
g70
NtRp3721
(dp3722
g73
(dp3723
g81
I3
ssg82
g3717
sg75
(lp3724
g111
asbasbasbag68
(g84
g70
NtRp3725
(dp3726
g73
(dp3727
sg82
g3214
sg75
(lp3728
g68
(g89
g70
NtRp3729
(dp3730
g73
(dp3731
g93
g94
ssg82
g3725
sg75
(lp3732
S'wsgi.multithread'
p3733
asbag68
(g89
g70
NtRp3734
(dp3735
g73
(dp3736
g100
g101
ssg82
g3725
sg75
(lp3737
S':'
asbag68
(g89
g70
NtRp3738
(dp3739
g73
(dp3740
sg82
g3725
sg75
(lp3741
g68
(g69
g70
NtRp3742
(dp3743
g73
(dp3744
g81
I3
ssg82
g3738
sg75
(lp3745
g2360
asbasbasbag68
(g84
g70
NtRp3746
(dp3747
g73
(dp3748
sg82
g3214
sg75
(lp3749
g68
(g89
g70
NtRp3750
(dp3751
g73
(dp3752
g93
g94
ssg82
g3746
sg75
(lp3753
S'wsgi.run_once'
p3754
asbag68
(g89
g70
NtRp3755
(dp3756
g73
(dp3757
g100
g101
ssg82
g3746
sg75
(lp3758
S':'
asbag68
(g89
g70
NtRp3759
(dp3760
g73
(dp3761
sg82
g3746
sg75
(lp3762
g68
(g69
g70
NtRp3763
(dp3764
g73
(dp3765
g81
I3
ssg82
g3759
sg75
(lp3766
g111
asbasbasbag68
(g84
g70
NtRp3767
(dp3768
g73
(dp3769
sg82
g3214
sg75
(lp3770
g68
(g89
g70
NtRp3771
(dp3772
g73
(dp3773
g93
g94
ssg82
g3767
sg75
(lp3774
S'wsgi.url_scheme'
p3775
asbag68
(g89
g70
NtRp3776
(dp3777
g73
(dp3778
g100
g101
ssg82
g3767
sg75
(lp3779
S':'
asbag68
(g89
g70
NtRp3780
(dp3781
g73
(dp3782
sg82
g3767
sg75
(lp3783
g68
(g69
g70
NtRp3784
(dp3785
g73
(dp3786
g81
I3
ssg82
g3780
sg75
(lp3787
g2403
asbasbasbag68
(g84
g70
NtRp3788
(dp3789
g73
(dp3790
sg82
g3214
sg75
(lp3791
g68
(g89
g70
NtRp3792
(dp3793
g73
(dp3794
g93
g94
ssg82
g3788
sg75
(lp3795
S'wsgi.version'
p3796
asbag68
(g89
g70
NtRp3797
(dp3798
g73
(dp3799
g100
g101
ssg82
g3788
sg75
(lp3800
S':'
asbag68
(g89
g70
NtRp3801
(dp3802
g73
(dp3803
sg82
g3788
sg75
(lp3804
g68
(g69
g70
NtRp3805
(dp3806
g73
(dp3807
g81
I3
ssg82
g3801
sg75
(lp3808
S'1'
asbasbasbasbasbasbasbasbasbasbasbasbasbsS'frames'
p3809
(lp3810
(dp3811
S'file'
p3812
S'/home/pratyush/web2py/gluon/restricted.py'
p3813
sS'dump'
p3814
(dp3815
S'code'
p3816
S'"# -*- coding: utf-8 -*-\\n\\n#######################...me)s\')),\\n                Field(\'review\',\'text\'))\\n"'
p3817
sS'layer'
p3818
S"'/home/pratyush/web2py/applications/BuySell/models/db.py'"
p3819
sS'global compile2'
p3820
S'<function compile2>'
p3821
sS'ccode'
p3822
S'undefined'
p3823
ssS'lnum'
p3824
I211
sS'lines'
p3825
(dp3826
I206
S"    environment['__name__'] = '__restricted__'"
p3827
sI207
S'    try:'
p3828
sI208
S'        if isinstance(code, types.CodeType):'
p3829
sI209
S'            ccode = code'
p3830
sI210
S'        else:'
p3831
sI211
S'            ccode = compile2(code, layer)'
p3832
sI212
S'        exec ccode in environment'
p3833
sI213
S'    except HTTP:'
p3834
sI214
S'        raise'
p3835
sI215
S'    except RestrictedError:'
p3836
ssS'call'
p3837
S'(code="# -*- coding: utf-8 -*-\\n\\n#######################...me)s\')),\\n                Field(\'review\',\'text\'))\\n", environment={\'A\': <class \'gluon.html.A\'>, \'B\': <class \'gluon.html.B\'>, \'BEAUTIFY\': <class \'gluon.html.BEAUTIFY\'>, \'BODY\': <class \'gluon.html.BODY\'>, \'BR\': <class \'gluon.html.BR\'>, \'BUTTON\': <class \'gluon.html.BUTTON\'>, \'CAT\': <class \'gluon.html.CAT\'>, \'CENTER\': <class \'gluon.html.CENTER\'>, \'CLEANUP\': <class \'gluon.validators.CLEANUP\'>, \'CODE\': <class \'gluon.html.CODE\'>, ...}, layer=\'/home/pratyush/web2py/applications/BuySell/models/db.py\')'
p3838
sS'func'
p3839
S'restricted'
p3840
sa(dp3841
g3812
S'/home/pratyush/web2py/gluon/restricted.py'
p3842
sg3814
(dp3843
S'builtincompile'
p3844
S'<built-in function compile>'
p3845
sS'code'
p3846
S'"# -*- coding: utf-8 -*-\\n\\n#######################...me)s\')),\\n                Field(\'review\',\'text\'))\\n"'
p3847
sS'code.rstrip'
p3848
S'<built-in method rstrip of str object>'
p3849
sS').replace'
p3850
g3823
sS'layer'
p3851
S"'/home/pratyush/web2py/applications/BuySell/models/db.py'"
p3852
ssg3824
I194
sg3825
(dp3853
I192
S"    The +'\\n' is necessary else compile fails when code ends in a comment."
p3854
sI193
S'    """'
p3855
sI194
S"    return compile(code.rstrip().replace('\\r\\n', '\\n') + '\\n', layer, 'exec')"
p3856
sI195
S''
sI196
S''
sI197
S"def restricted(code, environment=None, layer='Unknown'):"
p3857
sI198
S'    """'
p3858
sI189
S''
sI190
S'def compile2(code, layer):'
p3859
sI191
S'    """'
p3860
ssg3837
S'(code="# -*- coding: utf-8 -*-\\n\\n#######################...me)s\')),\\n                Field(\'review\',\'text\'))\\n", layer=\'/home/pratyush/web2py/applications/BuySell/models/db.py\')'
p3861
sg3839
S'compile2'
p3862
sasS'pyver'
p3863
S'Python 2.7.2+: /usr/bin/python2.7'
p3864
sS'session'
p3865
g68
(g69
g70
NtRp3866
(dp3867
g73
(dp3868
sg75
(lp3869
g68
(g77
g70
NtRp3870
(dp3871
g73
(dp3872
g81
I5
ssg82
Nsg75
(lp3873
g68
(g84
g70
NtRp3874
(dp3875
g73
(dp3876
sg82
g3870
sg75
(lp3877
g68
(g89
g70
NtRp3878
(dp3879
g73
(dp3880
g93
g94
ssg82
g3874
sg75
(lp3881
S'auth'
p3882
asbag68
(g89
g70
NtRp3883
(dp3884
g73
(dp3885
g100
g101
ssg82
g3874
sg75
(lp3886
S':'
asbag68
(g89
g70
NtRp3887
(dp3888
g73
(dp3889
sg82
g3874
sg75
(lp3890
g68
(g69
g70
NtRp3891
(dp3892
g73
(dp3893
g81
I5
ssg82
g3887
sg75
(lp3894
g68
(g77
g70
NtRp3895
(dp3896
g73
(dp3897
g81
I4
ssg82
Nsg75
(lp3898
g68
(g84
g70
NtRp3899
(dp3900
g73
(dp3901
sg82
g3895
sg75
(lp3902
g68
(g89
g70
NtRp3903
(dp3904
g73
(dp3905
g93
g94
ssg82
g3899
sg75
(lp3906
S'expiration'
p3907
asbag68
(g89
g70
NtRp3908
(dp3909
g73
(dp3910
g100
g101
ssg82
g3899
sg75
(lp3911
S':'
asbag68
(g89
g70
NtRp3912
(dp3913
g73
(dp3914
sg82
g3899
sg75
(lp3915
g68
(g69
g70
NtRp3916
(dp3917
g73
(dp3918
g81
I4
ssg82
g3912
sg75
(lp3919
S'3600'
p3920
asbasbasbag68
(g84
g70
NtRp3921
(dp3922
g73
(dp3923
sg82
g3895
sg75
(lp3924
g68
(g89
g70
NtRp3925
(dp3926
g73
(dp3927
g93
g94
ssg82
g3921
sg75
(lp3928
S'hmac_key'
p3929
asbag68
(g89
g70
NtRp3930
(dp3931
g73
(dp3932
g100
g101
ssg82
g3921
sg75
(lp3933
S':'
asbag68
(g89
g70
NtRp3934
(dp3935
g73
(dp3936
sg82
g3921
sg75
(lp3937
g68
(g69
g70
NtRp3938
(dp3939
g73
(dp3940
g81
I4
ssg82
g3934
sg75
(lp3941
S'997d33dd-3159-44cc-8104-5600eb09acdc'
p3942
asbasbasbag68
(g84
g70
NtRp3943
(dp3944
g73
(dp3945
sg82
g3895
sg75
(lp3946
g68
(g89
g70
NtRp3947
(dp3948
g73
(dp3949
g93
g94
ssg82
g3943
sg75
(lp3950
S'last_visit'
p3951
asbag68
(g89
g70
NtRp3952
(dp3953
g73
(dp3954
g100
g101
ssg82
g3943
sg75
(lp3955
S':'
asbag68
(g89
g70
NtRp3956
(dp3957
g73
(dp3958
sg82
g3943
sg75
(lp3959
g68
(g69
g70
NtRp3960
(dp3961
g73
(dp3962
g81
I4
ssg82
g3956
sg75
(lp3963
S'datetime.datetime(2013, 4, 22, 21, 25, 1, 130652)'
p3964
asbasbasbag68
(g84
g70
NtRp3965
(dp3966
g73
(dp3967
sg82
g3895
sg75
(lp3968
g68
(g89
g70
NtRp3969
(dp3970
g73
(dp3971
g93
g94
ssg82
g3965
sg75
(lp3972
S'remember'
p3973
asbag68
(g89
g70
NtRp3974
(dp3975
g73
(dp3976
g100
g101
ssg82
g3965
sg75
(lp3977
S':'
asbag68
(g89
g70
NtRp3978
(dp3979
g73
(dp3980
sg82
g3965
sg75
(lp3981
g68
(g69
g70
NtRp3982
(dp3983
g73
(dp3984
g81
I4
ssg82
g3978
sg75
(lp3985
g111
asbasbasbag68
(g84
g70
NtRp3986
(dp3987
g73
(dp3988
sg82
g3895
sg75
(lp3989
g68
(g89
g70
NtRp3990
(dp3991
g73
(dp3992
g93
g94
ssg82
g3986
sg75
(lp3993
S'user'
p3994
asbag68
(g89
g70
NtRp3995
(dp3996
g73
(dp3997
g100
g101
ssg82
g3986
sg75
(lp3998
S':'
asbag68
(g89
g70
NtRp3999
(dp4000
g73
(dp4001
sg82
g3986
sg75
(lp4002
g68
(g69
g70
NtRp4003
(dp4004
g73
(dp4005
g81
I4
ssg82
g3999
sg75
(lp4006
g68
(g77
g70
NtRp4007
(dp4008
g73
(dp4009
g81
I3
ssg82
Nsg75
(lp4010
g68
(g84
g70
NtRp4011
(dp4012
g73
(dp4013
sg82
g4007
sg75
(lp4014
g68
(g89
g70
NtRp4015
(dp4016
g73
(dp4017
g93
g94
ssg82
g4011
sg75
(lp4018
S'email'
p4019
asbag68
(g89
g70
NtRp4020
(dp4021
g73
(dp4022
g100
g101
ssg82
g4011
sg75
(lp4023
S':'
asbag68
(g89
g70
NtRp4024
(dp4025
g73
(dp4026
sg82
g4011
sg75
(lp4027
g68
(g69
g70
NtRp4028
(dp4029
g73
(dp4030
g81
I3
ssg82
g4024
sg75
(lp4031
S'pratyush.nigam@gmail.com'
p4032
asbasbasbag68
(g84
g70
NtRp4033
(dp4034
g73
(dp4035
sg82
g4007
sg75
(lp4036
g68
(g89
g70
NtRp4037
(dp4038
g73
(dp4039
g93
g94
ssg82
g4033
sg75
(lp4040
S'first_name'
p4041
asbag68
(g89
g70
NtRp4042
(dp4043
g73
(dp4044
g100
g101
ssg82
g4033
sg75
(lp4045
S':'
asbag68
(g89
g70
NtRp4046
(dp4047
g73
(dp4048
sg82
g4033
sg75
(lp4049
g68
(g69
g70
NtRp4050
(dp4051
g73
(dp4052
g81
I3
ssg82
g4046
sg75
(lp4053
S'Pratyush'
p4054
asbasbasbag68
(g84
g70
NtRp4055
(dp4056
g73
(dp4057
sg82
g4007
sg75
(lp4058
g68
(g89
g70
NtRp4059
(dp4060
g73
(dp4061
g93
g94
ssg82
g4055
sg75
(lp4062
S'id'
p4063
asbag68
(g89
g70
NtRp4064
(dp4065
g73
(dp4066
g100
g101
ssg82
g4055
sg75
(lp4067
S':'
asbag68
(g89
g70
NtRp4068
(dp4069
g73
(dp4070
sg82
g4055
sg75
(lp4071
g68
(g69
g70
NtRp4072
(dp4073
g73
(dp4074
g81
I3
ssg82
g4068
sg75
(lp4075
S'1'
asbasbasbag68
(g84
g70
NtRp4076
(dp4077
g73
(dp4078
sg82
g4007
sg75
(lp4079
g68
(g89
g70
NtRp4080
(dp4081
g73
(dp4082
g93
g94
ssg82
g4076
sg75
(lp4083
S'last_name'
p4084
asbag68
(g89
g70
NtRp4085
(dp4086
g73
(dp4087
g100
g101
ssg82
g4076
sg75
(lp4088
S':'
asbag68
(g89
g70
NtRp4089
(dp4090
g73
(dp4091
sg82
g4076
sg75
(lp4092
g68
(g69
g70
NtRp4093
(dp4094
g73
(dp4095
g81
I3
ssg82
g4089
sg75
(lp4096
S'Nigam'
p4097
asbasbasbag68
(g84
g70
NtRp4098
(dp4099
g73
(dp4100
sg82
g4007
sg75
(lp4101
g68
(g89
g70
NtRp4102
(dp4103
g73
(dp4104
g93
g94
ssg82
g4098
sg75
(lp4105
S'registration_id'
p4106
asbag68
(g89
g70
NtRp4107
(dp4108
g73
(dp4109
g100
g101
ssg82
g4098
sg75
(lp4110
S':'
asbag68
(g89
g70
NtRp4111
(dp4112
g73
(dp4113
sg82
g4098
sg75
(lp4114
g68
(g69
g70
NtRp4115
(dp4116
g73
(dp4117
g81
I3
ssg82
g4111
sg75
(lp4118
S''
asbasbasbag68
(g84
g70
NtRp4119
(dp4120
g73
(dp4121
sg82
g4007
sg75
(lp4122
g68
(g89
g70
NtRp4123
(dp4124
g73
(dp4125
g93
g94
ssg82
g4119
sg75
(lp4126
S'registration_key'
p4127
asbag68
(g89
g70
NtRp4128
(dp4129
g73
(dp4130
g100
g101
ssg82
g4119
sg75
(lp4131
S':'
asbag68
(g89
g70
NtRp4132
(dp4133
g73
(dp4134
sg82
g4119
sg75
(lp4135
g68
(g69
g70
NtRp4136
(dp4137
g73
(dp4138
g81
I3
ssg82
g4132
sg75
(lp4139
S''
asbasbasbag68
(g84
g70
NtRp4140
(dp4141
g73
(dp4142
sg82
g4007
sg75
(lp4143
g68
(g89
g70
NtRp4144
(dp4145
g73
(dp4146
g93
g94
ssg82
g4140
sg75
(lp4147
S'reset_password_key'
p4148
asbag68
(g89
g70
NtRp4149
(dp4150
g73
(dp4151
g100
g101
ssg82
g4140
sg75
(lp4152
S':'
asbag68
(g89
g70
NtRp4153
(dp4154
g73
(dp4155
sg82
g4140
sg75
(lp4156
g68
(g69
g70
NtRp4157
(dp4158
g73
(dp4159
g81
I3
ssg82
g4153
sg75
(lp4160
S''
asbasbasbasbasbasbasbag68
(g84
g70
NtRp4161
(dp4162
g73
(dp4163
sg82
g3895
sg75
(lp4164
g68
(g89
g70
NtRp4165
(dp4166
g73
(dp4167
g93
g94
ssg82
g4161
sg75
(lp4168
S'user_groups'
p4169
asbag68
(g89
g70
NtRp4170
(dp4171
g73
(dp4172
g100
g101
ssg82
g4161
sg75
(lp4173
S':'
asbag68
(g89
g70
NtRp4174
(dp4175
g73
(dp4176
sg82
g4161
sg75
(lp4177
g68
(g69
g70
NtRp4178
(dp4179
g73
(dp4180
g81
I4
ssg82
g4174
sg75
(lp4181
g68
(g77
g70
NtRp4182
(dp4183
g73
(dp4184
g81
I3
ssg82
Nsg75
(lp4185
g68
(g84
g70
NtRp4186
(dp4187
g73
(dp4188
sg82
g4182
sg75
(lp4189
g68
(g89
g70
NtRp4190
(dp4191
g73
(dp4192
g93
g94
ssg82
g4186
sg75
(lp4193
S'1'
asbag68
(g89
g70
NtRp4194
(dp4195
g73
(dp4196
g100
g101
ssg82
g4186
sg75
(lp4197
S':'
asbag68
(g89
g70
NtRp4198
(dp4199
g73
(dp4200
sg82
g4186
sg75
(lp4201
g68
(g69
g70
NtRp4202
(dp4203
g73
(dp4204
g81
I3
ssg82
g4198
sg75
(lp4205
S'user_1'
p4206
asbasbasbasbasbasbasbasbasbasbasbag68
(g84
g70
NtRp4207
(dp4208
g73
(dp4209
sg82
g3870
sg75
(lp4210
g68
(g89
g70
NtRp4211
(dp4212
g73
(dp4213
g93
g94
ssg82
g4207
sg75
(lp4214
S'flash'
p4215
asbag68
(g89
g70
NtRp4216
(dp4217
g73
(dp4218
g100
g101
ssg82
g4207
sg75
(lp4219
S':'
asbag68
(g89
g70
NtRp4220
(dp4221
g73
(dp4222
sg82
g4207
sg75
(lp4223
g68
(g69
g70
NtRp4224
(dp4225
g73
(dp4226
g81
I5
ssg82
g4220
sg75
(lp4227
S'None'
p4228
asbasbasbag68
(g84
g70
NtRp4229
(dp4230
g73
(dp4231
sg82
g3870
sg75
(lp4232
g68
(g89
g70
NtRp4233
(dp4234
g73
(dp4235
g93
g94
ssg82
g4229
sg75
(lp4236
S'last_orderby'
p4237
asbag68
(g89
g70
NtRp4238
(dp4239
g73
(dp4240
g100
g101
ssg82
g4229
sg75
(lp4241
S':'
asbag68
(g89
g70
NtRp4242
(dp4243
g73
(dp4244
sg82
g4229
sg75
(lp4245
g68
(g69
g70
NtRp4246
(dp4247
g73
(dp4248
g81
I5
ssg82
g4242
sg75
(lp4249
S'None'
p4250
asbasbasbag68
(g84
g70
NtRp4251
(dp4252
g73
(dp4253
sg82
g3870
sg75
(lp4254
g68
(g89
g70
NtRp4255
(dp4256
g73
(dp4257
g93
g94
ssg82
g4251
sg75
(lp4258
S'last_query'
p4259
asbag68
(g89
g70
NtRp4260
(dp4261
g73
(dp4262
g100
g101
ssg82
g4251
sg75
(lp4263
S':'
asbag68
(g89
g70
NtRp4264
(dp4265
g73
(dp4266
sg82
g4251
sg75
(lp4267
g68
(g69
g70
NtRp4268
(dp4269
g73
(dp4270
g81
I5
ssg82
g4264
sg75
(lp4271
S'db.item.id>0'
p4272
asbasbasbasbasbsS'etype'
p4273
S"<type 'exceptions.SyntaxError'>"
p4274
sS'date'
p4275
S'Mon Apr 22 21:29:58 2013'
p4276
sS'response'
p4277
g68
(g69
g70
NtRp4278
(dp4279
g73
(dp4280
sg75
(lp4281
g68
(g77
g70
NtRp4282
(dp4283
g73
(dp4284
g81
I5
ssg82
Nsg75
(lp4285
g68
(g84
g70
NtRp4286
(dp4287
g73
(dp4288
sg82
g4282
sg75
(lp4289
g68
(g89
g70
NtRp4290
(dp4291
g73
(dp4292
g93
g94
ssg82
g4286
sg75
(lp4293
g166
asbag68
(g89
g70
NtRp4294
(dp4295
g73
(dp4296
g100
g101
ssg82
g4286
sg75
(lp4297
S':'
asbag68
(g89
g70
NtRp4298
(dp4299
g73
(dp4300
sg82
g4286
sg75
(lp4301
g68
(g69
g70
NtRp4302
(dp4303
g73
(dp4304
g81
I5
ssg82
g4298
sg75
(lp4305
S'<cStringIO.StringO object at 0xa126720>'
p4306
asbasbasbag68
(g84
g70
NtRp4307
(dp4308
g73
(dp4309
sg82
g4282
sg75
(lp4310
g68
(g89
g70
NtRp4311
(dp4312
g73
(dp4313
g93
g94
ssg82
g4307
sg75
(lp4314
g254
asbag68
(g89
g70
NtRp4315
(dp4316
g73
(dp4317
g100
g101
ssg82
g4307
sg75
(lp4318
S':'
asbag68
(g89
g70
NtRp4319
(dp4320
g73
(dp4321
sg82
g4307
sg75
(lp4322
g68
(g69
g70
NtRp4323
(dp4324
g73
(dp4325
g81
I5
ssg82
g4319
sg75
(lp4326
g68
(g77
g70
NtRp4327
(dp4328
g73
(dp4329
g81
I4
ssg82
Nsg75
(lp4330
g68
(g84
g70
NtRp4331
(dp4332
g73
(dp4333
sg82
g4327
sg75
(lp4334
g68
(g89
g70
NtRp4335
(dp4336
g73
(dp4337
g93
g94
ssg82
g4331
sg75
(lp4338
S'session_id_buysell'
p4339
asbag68
(g89
g70
NtRp4340
(dp4341
g73
(dp4342
g100
g101
ssg82
g4331
sg75
(lp4343
S':'
asbag68
(g89
g70
NtRp4344
(dp4345
g73
(dp4346
sg82
g4331
sg75
(lp4347
g68
(g69
g70
NtRp4348
(dp4349
g73
(dp4350
g81
I4
ssg82
g4344
sg75
(lp4351
g672
ag68
(g77
g70
NtRp4352
(dp4353
g73
(dp4354
g81
I3
ssg82
Nsg75
(lp4355
g68
(g84
g70
NtRp4356
(dp4357
g73
(dp4358
sg82
g4352
sg75
(lp4359
g68
(g89
g70
NtRp4360
(dp4361
g73
(dp4362
g93
g94
ssg82
g4356
sg75
(lp4363
g305
asbag68
(g89
g70
NtRp4364
(dp4365
g73
(dp4366
g100
g101
ssg82
g4356
sg75
(lp4367
S':'
asbag68
(g89
g70
NtRp4368
(dp4369
g73
(dp4370
sg82
g4356
sg75
(lp4371
g68
(g69
g70
NtRp4372
(dp4373
g73
(dp4374
g81
I3
ssg82
g4368
sg75
(lp4375
S''
asbasbasbag68
(g84
g70
NtRp4376
(dp4377
g73
(dp4378
sg82
g4352
sg75
(lp4379
g68
(g89
g70
NtRp4380
(dp4381
g73
(dp4382
g93
g94
ssg82
g4376
sg75
(lp4383
g326
asbag68
(g89
g70
NtRp4384
(dp4385
g73
(dp4386
g100
g101
ssg82
g4376
sg75
(lp4387
S':'
asbag68
(g89
g70
NtRp4388
(dp4389
g73
(dp4390
sg82
g4376
sg75
(lp4391
g68
(g69
g70
NtRp4392
(dp4393
g73
(dp4394
g81
I3
ssg82
g4388
sg75
(lp4395
S''
asbasbasbag68
(g84
g70
NtRp4396
(dp4397
g73
(dp4398
sg82
g4352
sg75
(lp4399
g68
(g89
g70
NtRp4400
(dp4401
g73
(dp4402
g93
g94
ssg82
g4396
sg75
(lp4403
g347
asbag68
(g89
g70
NtRp4404
(dp4405
g73
(dp4406
g100
g101
ssg82
g4396
sg75
(lp4407
S':'
asbag68
(g89
g70
NtRp4408
(dp4409
g73
(dp4410
sg82
g4396
sg75
(lp4411
g68
(g69
g70
NtRp4412
(dp4413
g73
(dp4414
g81
I3
ssg82
g4408
sg75
(lp4415
S''
asbasbasbag68
(g84
g70
NtRp4416
(dp4417
g73
(dp4418
sg82
g4352
sg75
(lp4419
g68
(g89
g70
NtRp4420
(dp4421
g73
(dp4422
g93
g94
ssg82
g4416
sg75
(lp4423
g368
asbag68
(g89
g70
NtRp4424
(dp4425
g73
(dp4426
g100
g101
ssg82
g4416
sg75
(lp4427
S':'
asbag68
(g89
g70
NtRp4428
(dp4429
g73
(dp4430
sg82
g4416
sg75
(lp4431
g68
(g69
g70
NtRp4432
(dp4433
g73
(dp4434
g81
I3
ssg82
g4428
sg75
(lp4435
S''
asbasbasbag68
(g84
g70
NtRp4436
(dp4437
g73
(dp4438
sg82
g4352
sg75
(lp4439
g68
(g89
g70
NtRp4440
(dp4441
g73
(dp4442
g93
g94
ssg82
g4436
sg75
(lp4443
g389
asbag68
(g89
g70
NtRp4444
(dp4445
g73
(dp4446
g100
g101
ssg82
g4436
sg75
(lp4447
S':'
asbag68
(g89
g70
NtRp4448
(dp4449
g73
(dp4450
sg82
g4436
sg75
(lp4451
g68
(g69
g70
NtRp4452
(dp4453
g73
(dp4454
g81
I3
ssg82
g4448
sg75
(lp4455
S''
asbasbasbag68
(g84
g70
NtRp4456
(dp4457
g73
(dp4458
sg82
g4352
sg75
(lp4459
g68
(g89
g70
NtRp4460
(dp4461
g73
(dp4462
g93
g94
ssg82
g4456
sg75
(lp4463
g410
asbag68
(g89
g70
NtRp4464
(dp4465
g73
(dp4466
g100
g101
ssg82
g4456
sg75
(lp4467
S':'
asbag68
(g89
g70
NtRp4468
(dp4469
g73
(dp4470
sg82
g4456
sg75
(lp4471
g68
(g69
g70
NtRp4472
(dp4473
g73
(dp4474
g81
I3
ssg82
g4468
sg75
(lp4475
S'/'
asbasbasbag68
(g84
g70
NtRp4476
(dp4477
g73
(dp4478
sg82
g4352
sg75
(lp4479
g68
(g89
g70
NtRp4480
(dp4481
g73
(dp4482
g93
g94
ssg82
g4476
sg75
(lp4483
g431
asbag68
(g89
g70
NtRp4484
(dp4485
g73
(dp4486
g100
g101
ssg82
g4476
sg75
(lp4487
S':'
asbag68
(g89
g70
NtRp4488
(dp4489
g73
(dp4490
sg82
g4476
sg75
(lp4491
g68
(g69
g70
NtRp4492
(dp4493
g73
(dp4494
g81
I3
ssg82
g4488
sg75
(lp4495
S''
asbasbasbag68
(g84
g70
NtRp4496
(dp4497
g73
(dp4498
sg82
g4352
sg75
(lp4499
g68
(g89
g70
NtRp4500
(dp4501
g73
(dp4502
g93
g94
ssg82
g4496
sg75
(lp4503
g452
asbag68
(g89
g70
NtRp4504
(dp4505
g73
(dp4506
g100
g101
ssg82
g4496
sg75
(lp4507
S':'
asbag68
(g89
g70
NtRp4508
(dp4509
g73
(dp4510
sg82
g4496
sg75
(lp4511
g68
(g69
g70
NtRp4512
(dp4513
g73
(dp4514
g81
I3
ssg82
g4508
sg75
(lp4515
S''
asbasbasbasbasbasbasbasbasbasbasbag68
(g84
g70
NtRp4516
(dp4517
g73
(dp4518
sg82
g4282
sg75
(lp4519
g68
(g89
g70
NtRp4520
(dp4521
g73
(dp4522
g93
g94
ssg82
g4516
sg75
(lp4523
S'delimiters'
p4524
asbag68
(g89
g70
NtRp4525
(dp4526
g73
(dp4527
g100
g101
ssg82
g4516
sg75
(lp4528
S':'
asbag68
(g89
g70
NtRp4529
(dp4530
g73
(dp4531
sg82
g4516
sg75
(lp4532
g68
(g69
g70
NtRp4533
(dp4534
g73
(dp4535
g81
I5
ssg82
g4529
sg75
(lp4536
g68
(g77
g70
NtRp4537
(dp4538
g73
(dp4539
g81
I4
ssg82
Nsg75
(lp4540
g68
(g84
g70
NtRp4541
(dp4542
g73
(dp4543
sg82
g4537
sg75
(lp4544
g68
(g89
g70
NtRp4545
(dp4546
g73
(dp4547
sg82
g4541
sg75
(lp4548
g68
(g69
g70
NtRp4549
(dp4550
g73
(dp4551
g81
I4
ssg82
g4545
sg75
(lp4552
S'{{'
p4553
asbasbasbag68
(g84
g70
NtRp4554
(dp4555
g73
(dp4556
sg82
g4537
sg75
(lp4557
g68
(g89
g70
NtRp4558
(dp4559
g73
(dp4560
sg82
g4554
sg75
(lp4561
g68
(g69
g70
NtRp4562
(dp4563
g73
(dp4564
g81
I4
ssg82
g4558
sg75
(lp4565
S'}}'
p4566
asbasbasbasbasbasbasbag68
(g84
g70
NtRp4567
(dp4568
g73
(dp4569
sg82
g4282
sg75
(lp4570
g68
(g89
g70
NtRp4571
(dp4572
g73
(dp4573
g93
g94
ssg82
g4567
sg75
(lp4574
S'files'
p4575
asbag68
(g89
g70
NtRp4576
(dp4577
g73
(dp4578
g100
g101
ssg82
g4567
sg75
(lp4579
S':'
asbag68
(g89
g70
NtRp4580
(dp4581
g73
(dp4582
sg82
g4567
sg75
(lp4583
g68
(g69
g70
NtRp4584
(dp4585
g73
(dp4586
g81
I5
ssg82
g4580
sg75
(lp4587
g68
(g77
g70
NtRp4588
(dp4589
g73
(dp4590
g81
I4
ssg82
Nsg75
(lp4591
sbasbasbasbag68
(g84
g70
NtRp4592
(dp4593
g73
(dp4594
sg82
g4282
sg75
(lp4595
g68
(g89
g70
NtRp4596
(dp4597
g73
(dp4598
g93
g94
ssg82
g4592
sg75
(lp4599
S'flash'
p4600
asbag68
(g89
g70
NtRp4601
(dp4602
g73
(dp4603
g100
g101
ssg82
g4592
sg75
(lp4604
S':'
asbag68
(g89
g70
NtRp4605
(dp4606
g73
(dp4607
sg82
g4592
sg75
(lp4608
g68
(g69
g70
NtRp4609
(dp4610
g73
(dp4611
g81
I5
ssg82
g4605
sg75
(lp4612
S''
asbasbasbag68
(g84
g70
NtRp4613
(dp4614
g73
(dp4615
sg82
g4282
sg75
(lp4616
g68
(g89
g70
NtRp4617
(dp4618
g73
(dp4619
g93
g94
ssg82
g4613
sg75
(lp4620
S'generic_patterns'
p4621
asbag68
(g89
g70
NtRp4622
(dp4623
g73
(dp4624
g100
g101
ssg82
g4613
sg75
(lp4625
S':'
asbag68
(g89
g70
NtRp4626
(dp4627
g73
(dp4628
sg82
g4613
sg75
(lp4629
g68
(g69
g70
NtRp4630
(dp4631
g73
(dp4632
g81
I5
ssg82
g4626
sg75
(lp4633
g68
(g77
g70
NtRp4634
(dp4635
g73
(dp4636
g81
I4
ssg82
Nsg75
(lp4637
sbasbasbasbag68
(g84
g70
NtRp4638
(dp4639
g73
(dp4640
sg82
g4282
sg75
(lp4641
g68
(g89
g70
NtRp4642
(dp4643
g73
(dp4644
g93
g94
ssg82
g4638
sg75
(lp4645
S'headers'
p4646
asbag68
(g89
g70
NtRp4647
(dp4648
g73
(dp4649
g100
g101
ssg82
g4638
sg75
(lp4650
S':'
asbag68
(g89
g70
NtRp4651
(dp4652
g73
(dp4653
sg82
g4638
sg75
(lp4654
g68
(g69
g70
NtRp4655
(dp4656
g73
(dp4657
g81
I5
ssg82
g4651
sg75
(lp4658
g68
(g77
g70
NtRp4659
(dp4660
g73
(dp4661
g81
I4
ssg82
Nsg75
(lp4662
g68
(g84
g70
NtRp4663
(dp4664
g73
(dp4665
sg82
g4659
sg75
(lp4666
g68
(g89
g70
NtRp4667
(dp4668
g73
(dp4669
g93
g94
ssg82
g4663
sg75
(lp4670
S'X-Powered-By'
p4671
asbag68
(g89
g70
NtRp4672
(dp4673
g73
(dp4674
g100
g101
ssg82
g4663
sg75
(lp4675
S':'
asbag68
(g89
g70
NtRp4676
(dp4677
g73
(dp4678
sg82
g4663
sg75
(lp4679
g68
(g69
g70
NtRp4680
(dp4681
g73
(dp4682
g81
I4
ssg82
g4676
sg75
(lp4683
S'web2py'
p4684
asbasbasbasbasbasbasbag68
(g84
g70
NtRp4685
(dp4686
g73
(dp4687
sg82
g4282
sg75
(lp4688
g68
(g89
g70
NtRp4689
(dp4690
g73
(dp4691
g93
g94
ssg82
g4685
sg75
(lp4692
S'menu'
p4693
asbag68
(g89
g70
NtRp4694
(dp4695
g73
(dp4696
g100
g101
ssg82
g4685
sg75
(lp4697
S':'
asbag68
(g89
g70
NtRp4698
(dp4699
g73
(dp4700
sg82
g4685
sg75
(lp4701
g68
(g69
g70
NtRp4702
(dp4703
g73
(dp4704
g81
I5
ssg82
g4698
sg75
(lp4705
g68
(g77
g70
NtRp4706
(dp4707
g73
(dp4708
g81
I4
ssg82
Nsg75
(lp4709
sbasbasbasbag68
(g84
g70
NtRp4710
(dp4711
g73
(dp4712
sg82
g4282
sg75
(lp4713
g68
(g89
g70
NtRp4714
(dp4715
g73
(dp4716
g93
g94
ssg82
g4710
sg75
(lp4717
S'meta'
p4718
asbag68
(g89
g70
NtRp4719
(dp4720
g73
(dp4721
g100
g101
ssg82
g4710
sg75
(lp4722
S':'
asbag68
(g89
g70
NtRp4723
(dp4724
g73
(dp4725
sg82
g4710
sg75
(lp4726
g68
(g69
g70
NtRp4727
(dp4728
g73
(dp4729
g81
I5
ssg82
g4723
sg75
(lp4730
g68
(g77
g70
NtRp4731
(dp4732
g73
(dp4733
g81
I4
ssg82
Nsg75
(lp4734
sbasbasbasbag68
(g84
g70
NtRp4735
(dp4736
g73
(dp4737
sg82
g4282
sg75
(lp4738
g68
(g89
g70
NtRp4739
(dp4740
g73
(dp4741
g93
g94
ssg82
g4735
sg75
(lp4742
S'models_to_run'
p4743
asbag68
(g89
g70
NtRp4744
(dp4745
g73
(dp4746
g100
g101
ssg82
g4735
sg75
(lp4747
S':'
asbag68
(g89
g70
NtRp4748
(dp4749
g73
(dp4750
sg82
g4735
sg75
(lp4751
g68
(g69
g70
NtRp4752
(dp4753
g73
(dp4754
g81
I5
ssg82
g4748
sg75
(lp4755
g68
(g77
g70
NtRp4756
(dp4757
g73
(dp4758
g81
I4
ssg82
Nsg75
(lp4759
g68
(g84
g70
NtRp4760
(dp4761
g73
(dp4762
sg82
g4756
sg75
(lp4763
g68
(g89
g70
NtRp4764
(dp4765
g73
(dp4766
sg82
g4760
sg75
(lp4767
g68
(g69
g70
NtRp4768
(dp4769
g73
(dp4770
g81
I4
ssg82
g4764
sg75
(lp4771
S'^\\w+\\.py$'
p4772
asbasbasbag68
(g84
g70
NtRp4773
(dp4774
g73
(dp4775
sg82
g4756
sg75
(lp4776
g68
(g89
g70
NtRp4777
(dp4778
g73
(dp4779
sg82
g4773
sg75
(lp4780
g68
(g69
g70
NtRp4781
(dp4782
g73
(dp4783
g81
I4
ssg82
g4777
sg75
(lp4784
S'^default/\\w+\\.py$'
p4785
asbasbasbag68
(g84
g70
NtRp4786
(dp4787
g73
(dp4788
sg82
g4756
sg75
(lp4789
g68
(g89
g70
NtRp4790
(dp4791
g73
(dp4792
sg82
g4786
sg75
(lp4793
g68
(g69
g70
NtRp4794
(dp4795
g73
(dp4796
g81
I4
ssg82
g4790
sg75
(lp4797
S'^default/fulfil_wishes/\\w+\\.py$'
p4798
asbasbasbasbasbasbasbag68
(g84
g70
NtRp4799
(dp4800
g73
(dp4801
sg82
g4282
sg75
(lp4802
g68
(g89
g70
NtRp4803
(dp4804
g73
(dp4805
g93
g94
ssg82
g4799
sg75
(lp4806
S'postprocessing'
p4807
asbag68
(g89
g70
NtRp4808
(dp4809
g73
(dp4810
g100
g101
ssg82
g4799
sg75
(lp4811
S':'
asbag68
(g89
g70
NtRp4812
(dp4813
g73
(dp4814
sg82
g4799
sg75
(lp4815
g68
(g69
g70
NtRp4816
(dp4817
g73
(dp4818
g81
I5
ssg82
g4812
sg75
(lp4819
g68
(g77
g70
NtRp4820
(dp4821
g73
(dp4822
g81
I4
ssg82
Nsg75
(lp4823
sbasbasbasbag68
(g84
g70
NtRp4824
(dp4825
g73
(dp4826
sg82
g4282
sg75
(lp4827
g68
(g89
g70
NtRp4828
(dp4829
g73
(dp4830
g93
g94
ssg82
g4824
sg75
(lp4831
S'session_cookie_expires'
p4832
asbag68
(g89
g70
NtRp4833
(dp4834
g73
(dp4835
g100
g101
ssg82
g4824
sg75
(lp4836
S':'
asbag68
(g89
g70
NtRp4837
(dp4838
g73
(dp4839
sg82
g4824
sg75
(lp4840
g68
(g69
g70
NtRp4841
(dp4842
g73
(dp4843
g81
I5
ssg82
g4837
sg75
(lp4844
S'None'
p4845
asbasbasbag68
(g84
g70
NtRp4846
(dp4847
g73
(dp4848
sg82
g4282
sg75
(lp4849
g68
(g89
g70
NtRp4850
(dp4851
g73
(dp4852
g93
g94
ssg82
g4846
sg75
(lp4853
S'session_data_name'
p4854
asbag68
(g89
g70
NtRp4855
(dp4856
g73
(dp4857
g100
g101
ssg82
g4846
sg75
(lp4858
S':'
asbag68
(g89
g70
NtRp4859
(dp4860
g73
(dp4861
sg82
g4846
sg75
(lp4862
g68
(g69
g70
NtRp4863
(dp4864
g73
(dp4865
g81
I5
ssg82
g4859
sg75
(lp4866
S'session_data_buysell'
p4867
asbasbasbag68
(g84
g70
NtRp4868
(dp4869
g73
(dp4870
sg82
g4282
sg75
(lp4871
g68
(g89
g70
NtRp4872
(dp4873
g73
(dp4874
g93
g94
ssg82
g4868
sg75
(lp4875
S'session_file'
p4876
asbag68
(g89
g70
NtRp4877
(dp4878
g73
(dp4879
g100
g101
ssg82
g4868
sg75
(lp4880
S':'
asbag68
(g89
g70
NtRp4881
(dp4882
g73
(dp4883
sg82
g4868
sg75
(lp4884
g68
(g69
g70
NtRp4885
(dp4886
g73
(dp4887
g81
I5
ssg82
g4881
sg75
(lp4888
S"<open file '/home/pratyush/web2py/applications/BuySell/sessions/127.0.0.1-d5a07803-4f5c-44c8-b05d-2876d30ca822', mode 'rb+' at 0x9cdaa18>"
p4889
asbasbasbag68
(g84
g70
NtRp4890
(dp4891
g73
(dp4892
sg82
g4282
sg75
(lp4893
g68
(g89
g70
NtRp4894
(dp4895
g73
(dp4896
g93
g94
ssg82
g4890
sg75
(lp4897
S'session_filename'
p4898
asbag68
(g89
g70
NtRp4899
(dp4900
g73
(dp4901
g100
g101
ssg82
g4890
sg75
(lp4902
S':'
asbag68
(g89
g70
NtRp4903
(dp4904
g73
(dp4905
sg82
g4890
sg75
(lp4906
g68
(g69
g70
NtRp4907
(dp4908
g73
(dp4909
g81
I5
ssg82
g4903
sg75
(lp4910
S'/home/pratyush/web2py/applications/BuySell/sessions/127.0.0.1-d5a07803-4f5c-44c8-b05d-2876d30ca822'
p4911
asbasbasbag68
(g84
g70
NtRp4912
(dp4913
g73
(dp4914
sg82
g4282
sg75
(lp4915
g68
(g89
g70
NtRp4916
(dp4917
g73
(dp4918
g93
g94
ssg82
g4912
sg75
(lp4919
S'session_id'
p4920
asbag68
(g89
g70
NtRp4921
(dp4922
g73
(dp4923
g100
g101
ssg82
g4912
sg75
(lp4924
S':'
asbag68
(g89
g70
NtRp4925
(dp4926
g73
(dp4927
sg82
g4912
sg75
(lp4928
g68
(g69
g70
NtRp4929
(dp4930
g73
(dp4931
g81
I5
ssg82
g4925
sg75
(lp4932
g672
asbasbasbag68
(g84
g70
NtRp4933
(dp4934
g73
(dp4935
sg82
g4282
sg75
(lp4936
g68
(g89
g70
NtRp4937
(dp4938
g73
(dp4939
g93
g94
ssg82
g4933
sg75
(lp4940
S'session_id_name'
p4941
asbag68
(g89
g70
NtRp4942
(dp4943
g73
(dp4944
g100
g101
ssg82
g4933
sg75
(lp4945
S':'
asbag68
(g89
g70
NtRp4946
(dp4947
g73
(dp4948
sg82
g4933
sg75
(lp4949
g68
(g69
g70
NtRp4950
(dp4951
g73
(dp4952
g81
I5
ssg82
g4946
sg75
(lp4953
g4339
asbasbasbag68
(g84
g70
NtRp4954
(dp4955
g73
(dp4956
sg82
g4282
sg75
(lp4957
g68
(g89
g70
NtRp4958
(dp4959
g73
(dp4960
g93
g94
ssg82
g4954
sg75
(lp4961
S'session_locked'
p4962
asbag68
(g89
g70
NtRp4963
(dp4964
g73
(dp4965
g100
g101
ssg82
g4954
sg75
(lp4966
S':'
asbag68
(g89
g70
NtRp4967
(dp4968
g73
(dp4969
sg82
g4954
sg75
(lp4970
g68
(g69
g70
NtRp4971
(dp4972
g73
(dp4973
g81
I5
ssg82
g4967
sg75
(lp4974
g2360
asbasbasbag68
(g84
g70
NtRp4975
(dp4976
g73
(dp4977
sg82
g4282
sg75
(lp4978
g68
(g89
g70
NtRp4979
(dp4980
g73
(dp4981
g93
g94
ssg82
g4975
sg75
(lp4982
S'session_new'
p4983
asbag68
(g89
g70
NtRp4984
(dp4985
g73
(dp4986
g100
g101
ssg82
g4975
sg75
(lp4987
S':'
asbag68
(g89
g70
NtRp4988
(dp4989
g73
(dp4990
sg82
g4975
sg75
(lp4991
g68
(g69
g70
NtRp4992
(dp4993
g73
(dp4994
g81
I5
ssg82
g4988
sg75
(lp4995
g111
asbasbasbag68
(g84
g70
NtRp4996
(dp4997
g73
(dp4998
sg82
g4282
sg75
(lp4999
g68
(g89
g70
NtRp5000
(dp5001
g73
(dp5002
g93
g94
ssg82
g4996
sg75
(lp5003
S'session_storage_type'
p5004
asbag68
(g89
g70
NtRp5005
(dp5006
g73
(dp5007
g100
g101
ssg82
g4996
sg75
(lp5008
S':'
asbag68
(g89
g70
NtRp5009
(dp5010
g73
(dp5011
sg82
g4996
sg75
(lp5012
g68
(g69
g70
NtRp5013
(dp5014
g73
(dp5015
g81
I5
ssg82
g5009
sg75
(lp5016
g3812
asbasbasbag68
(g84
g70
NtRp5017
(dp5018
g73
(dp5019
sg82
g4282
sg75
(lp5020
g68
(g89
g70
NtRp5021
(dp5022
g73
(dp5023
g93
g94
ssg82
g5017
sg75
(lp5024
S'status'
p5025
asbag68
(g89
g70
NtRp5026
(dp5027
g73
(dp5028
g100
g101
ssg82
g5017
sg75
(lp5029
S':'
asbag68
(g89
g70
NtRp5030
(dp5031
g73
(dp5032
sg82
g5017
sg75
(lp5033
g68
(g69
g70
NtRp5034
(dp5035
g73
(dp5036
g81
I5
ssg82
g5030
sg75
(lp5037
S'200'
p5038
asbasbasbag68
(g84
g70
NtRp5039
(dp5040
g73
(dp5041
sg82
g4282
sg75
(lp5042
g68
(g89
g70
NtRp5043
(dp5044
g73
(dp5045
g93
g94
ssg82
g5039
sg75
(lp5046
S'view'
p5047
asbag68
(g89
g70
NtRp5048
(dp5049
g73
(dp5050
g100
g101
ssg82
g5039
sg75
(lp5051
S':'
asbag68
(g89
g70
NtRp5052
(dp5053
g73
(dp5054
sg82
g5039
sg75
(lp5055
g68
(g69
g70
NtRp5056
(dp5057
g73
(dp5058
g81
I5
ssg82
g5052
sg75
(lp5059
S'default/fulfil_wishes.html'
p5060
asbasbasbasbasbsS'locals'
p5061
(dp5062
g4
S"'/home/pratyush/web2py/applications/BuySell/models/db.py'"
p5063
sg6
S'"# -*- coding: utf-8 -*-\\n\\n#######################...me)s\')),\\n                Field(\'review\',\'text\'))\\n"'
p5064
sssS'traceback'
p5065
S'Traceback (most recent call last):\n  File "/home/pratyush/web2py/gluon/restricted.py", line 211, in restricted\n    ccode = compile2(code, layer)\n  File "/home/pratyush/web2py/gluon/restricted.py", line 194, in compile2\n    return compile(code.rstrip().replace(\'\\r\\n\', \'\\n\') + \'\\n\', layer, \'exec\')\n  File "/home/pratyush/web2py/applications/BuySell/models/db.py", line 166\n    db.define_table(\'rating\',\n     ^\nSyntaxError: invalid syntax\n'
p5066
s.