(dp1
S'output'
p2
S"<type 'exceptions.SyntaxError'> invalid syntax (list_items.html, line 113)"
p3
sS'layer'
p4
S'/home/pratyush/web2py/applications/BuySell/views/default/list_items.html'
p5
sS'code'
p6
S'response.write(\'<!DOCTYPE html>\\n<!-- paulirish.com/2008/conditional-stylesheets-vs-css-hacks-answer-neither/ -->\\n<!--[if lt IE 7]><html class="ie ie6 ie-lte9 ie-lte8 ie-lte7 no-js" lang="\', escape=False)\nresponse.write(T.accepted_language or \'en\')\nresponse.write(\'"> <![endif]-->\\n<!--[if IE 7]><html class="ie ie7 ie-lte9 ie-lte8 ie-lte7 no-js" lang="\', escape=False)\nresponse.write(T.accepted_language or \'en\')\nresponse.write(\'"> <![endif]-->\\n<!--[if IE 8]><html class="ie ie8 ie-lte9 ie-lte8 no-js" lang="\', escape=False)\nresponse.write(T.accepted_language or \'en\')\nresponse.write(\'"> <![endif]-->\\n<!--[if IE 9]><html class="ie9 ie-lte9 no-js" lang="\', escape=False)\nresponse.write(T.accepted_language or \'en\')\nresponse.write(\'"> <![endif]-->\\n<!--[if (gt IE 9)|!(IE)]><!--> <html class="no-js" lang="\', escape=False)\nresponse.write(T.accepted_language or \'en\')\nresponse.write(\'"> <!--<![endif]-->\\n<head>\\n  <meta charset="utf-8" />\\n  <!-- www.phpied.com/conditional-comments-block-downloads/ -->\\n  <!-- Always force latest IE rendering engine\\n       (even in intranet) & Chrome Frame\\n       Remove this if you use the .htaccess -->\\n  <!--[if IE]>\\n      <meta http-equiv="X-UA-Compatible" content="IE=edge\', escape=False)\nresponse.write(not request.is_local and \',chrome=1\' or \'\')\nresponse.write(\'">\\n      <![endif]-->\\n\\n  <title>Buy/Sell</title>\\n\\n  <!-- http://dev.w3.org/html5/markup/meta.name.html -->\\n  <meta name="application-name" content="\', escape=False)\nresponse.write(request.application)\nresponse.write(\'" />\\n\\n  <!-- Speaking of Google, don\\\'t forget to set your site up:\\n       http://google.com/webmasters -->\\n  <meta name="google-site-verification" content="" />\\n\\n  <!--  Mobile Viewport Fix\\n        j.mp/mobileviewport & davidbcalhoun.com/2010/viewport-metatag\\n        device-width: Occupy full width of the screen in its current orientation\\n        initial-scale = 1.0 retains dimensions instead of zooming out if page height > device height\\n        user-scalable = yes allows the user to zoom in -->\\n  <meta name="viewport" content="width=device-width, initial-scale=1.0" />\\n\\n  <link rel="shortcut icon" href="\', escape=False)\nresponse.write(URL(\'static\',\'images/favicon.ico\'))\nresponse.write(\'" type="image/x-icon">\\n  <link rel="apple-touch-icon" href="\', escape=False)\nresponse.write(URL(\'static\',\'images/favicon.png\'))\nresponse.write(\'">\\n\\n  <!-- All JavaScript at the bottom, except for Modernizr which enables\\n       HTML5 elements & feature detects -->\\n  <script src="\', escape=False)\nresponse.write(URL(\'static\',\'js/modernizr.custom.js\'))\nresponse.write(\'"></script>\\n\\n  <!-- include stylesheets -->\\n  \', escape=False)\nresponse.files.append(URL(\'static\',\'css/web2py.css\'))\nresponse.files.append(URL(\'static\',\'css/bootstrap.min.css\'))\nresponse.files.append(URL(\'static\',\'css/bootstrap-responsive.min.css\'))\nresponse.files.append(URL(\'static\',\'css/web2py_bootstrap.css\'))\nresponse.write(\'\\n\\n  \', escape=False)\nresponse.write(\'<script type="text/javascript"><!--\\n    // These variables are used by the web2py_ajax_init function in web2py_ajax.js (which is loaded below).\\n    var w2p_ajax_confirm_message = "\', escape=False)\nresponse.write(T(\'Are you sure you want to delete this object?\'))\nresponse.write(\'";\\n    var w2p_ajax_date_format = "\', escape=False)\nresponse.write(T(\'%Y-%m-%d\'))\nresponse.write(\'";\\n    var w2p_ajax_datetime_format = "\', escape=False)\nresponse.write(T(\'%Y-%m-%d %H:%M:%S\'))\nresponse.write(\'";\\n    //--></script>\\n\', escape=False)\nresponse.files.insert(0,URL(\'static\',\'js/jquery.js\'))\nresponse.files.insert(1,URL(\'static\',\'css/calendar.css\'))\nresponse.files.insert(2,URL(\'static\',\'js/calendar.js\'))\nresponse.files.insert(3,URL(\'static\',\'js/web2py.js\'))\nresponse.include_meta()\nresponse.include_files()\nresponse.write(\'\\n\', escape=False)\nresponse.write(\'\\n\\n  \', escape=False)\n# using sidebars need to know what sidebar you want to use\nleft_sidebar_enabled = globals().get(\'left_sidebar_enabled\',False)\nright_sidebar_enabled = globals().get(\'right_sidebar_enabled\',False)\nmiddle_columns = {0:\'span12\',1:\'span9\',2:\'span6\'}[\n(left_sidebar_enabled and 1 or 0)+(right_sidebar_enabled and 1 or 0)]\nresponse.write(\'\\n\\n  <!-- uncomment here to load jquery-ui\\n       <link rel="stylesheet" href="http://ajax.googleapis.com/ajax/libs/jqueryui/1.8.16/themes/base/jquery-ui.css" type="text/css" media="all" />\\n       <script src="http://ajax.googleapis.com/ajax/libs/jqueryui/1.8.16/jquery-ui.min.js" type="text/javascript"></script>\\n       uncomment to load jquery-ui //-->\\n  <noscript><link href="\', escape=False)\nresponse.write(URL(\'static\', \'css/web2py_bootstrap_nojs.css\'))\nresponse.write(\'" rel="stylesheet" type="text/css" /></noscript>\\n  \', escape=False)\nresponse.write(\'\\n</head>\\n\\n<body>\\n  <!-- Navbar ================================================== -->\\n  <div class="navbar navbar-inverse navbar-fixed-top">\\n    <div class="flash">\', escape=False)\nresponse.write(response.flash or \'\')\nresponse.write(\'</div>\\n    <div class="navbar-inner">\\n      <div class="container">\\n        <!-- the next tag is necessary for bootstrap menus, do not remove -->\\n        <button type="button" class="btn btn-navbar" data-toggle="collapse" data-target=".nav-collapse">\\n          <span class="icon-bar"></span>\\n          <span class="icon-bar"></span>\\n          <span class="icon-bar"></span>\\n        </button>\\n\\t\', escape=False)\nresponse.write(response.logo or \'\')\nresponse.write(\'\\n        <ul id="navbar" class="nav pull-right">\', escape=False)\nresponse.write(\'auth\' in globals() and auth.navbar(mode="dropdown") or \'\')\nresponse.write(\'</ul>\\n        <div class="nav-collapse">\\n          \', escape=False)\nis_mobile=request.user_agent().is_mobile\nresponse.write(\'\\n          \', escape=False)\nif response.menu:\n    response.write(\'\\n          \', escape=False)\n    response.write(MENU(response.menu, _class=\'mobile-menu nav\' if is_mobile else \'nav\',mobile=is_mobile,li_class=\'dropdown\',ul_class=\'dropdown-menu\'))\n    response.write(\'\\n          \', escape=False)\n    pass\nresponse.write(\'\\n        </div><!--/.nav-collapse -->\\n      </div>\\n    </div>\\n  </div><!--/top navbar -->\\n\\n  <div class="container">\\n  <br /><br />\\n    <!-- Masthead ================================================== -->\\n    <!--<header class="mastheader row" id="header">\\n        <div class="span12">\\n            <div class="page-header">\\n                <h1>\\n                   Buy/Sell \\n                    <small>Your one stop to buy and sell customizable products</small>\\n                </h1>\\n            </div>\\n        </div>\\n    </header>-->\\n\\n    <section id="main" class="main row">\\n        \', escape=False)\nif left_sidebar_enabled:\n    response.write(\'\\n        <div class="span3 left-sidebar">\\n            \', escape=False)\n    response.write(\'\\n            <h3>Left Sidebar</h3>\\n            <p></p>\\n            \', escape=False)\n    response.write(\'\\n        </div>\\n        \', escape=False)\n    pass\nresponse.write(\'\\n\\n        <div class="\', escape=False)\nresponse.write(middle_columns)\nresponse.write(\'">\\n            \', escape=False)\nresponse.write(\'\\n            \', escape=False)\nresponse.write(\'\\n\', escape=False)\nresponse.write(form1)\nresponse.write(\'\\n\', escape=False)\nitems=items\nresponse.write(\'\\n\', escape=False)\nbid=bids\nresponse.write(\'\\n    <table>\\n    \\n    \', escape=False)\nfor i in items:\n    response.write(\'\\n        <tr>    \\n        <td><img src="\', escape=False)\n    response.write(URL(\'download\',args=i.image ))\n    response.write(\'" width=200px height=auto/></td>\\n        <td>\', escape=False)\n    response.write(A(i.name,_href=URL(r=request, f=\'item_d\', args=i.id)))\n    response.write(\' </td>\\n        <td>\\n        \', escape=False)\n    if i.selling_type==\'Bid\':\n        response.write(\'\\n            \', escape=False)\n        response.write(A(\'Bid\',_href=URL(r=request, f=\'place_bid\', args=i.id)))\n        response.write(\'\\n        \', escape=False)\n        pass\n    response.write(\'\\n        \', escape=False)\n    if i.selling_type==\'Buy\':\n        response.write(\'\\n            \', escape=False)\n        response.write(A(\'Buy\',_href=URL(r=request, f=\'buy_item\', args=i.id)))\n        response.write(\'\\n        \', escape=False)\n        pass\n    response.write(\'\\n        </td>\\n        <td>\\n        \\n        \', escape=False)\n    if i.selling_type==\'Bid\':\n        response.write(\'\\n            \', escape=False)\n        for j in bid:\n            response.write(\'\\n                \', escape=False)\n            if i.id==j.item_id:\n                response.write(\'\\n                    \', escape=False)\n                response.write(DIV(\'Current Bid : Rs.\',j.amount))\n                response.write(\'\\n                    \', escape=False)\n                break\n            response.write(\'\\n                \', escape=False)\n            pass\n        response.write(\'\\n            \', escape=False)\n        pass\n    response.write(\'\\n        \', escape=False)\nelif i.selling_type==\'Buy\':\n    response.write(\'\\n            \', escape=False)\n    response.write(DIV(\'Rs.\',i.price))\n    response.write(\'\\n        \', escape=False)\n    pass\nresponse.write(\'\\n        \\n        </td>\\n        </tr>\\n    \', escape=False)\npass\nresponse.write(\'\\n    \\n    </table>\\n        \', escape=False)\npass\nresponse.write(\'        \\n    <br />\', escape=False)\nresponse.write(\'\\n            \', escape=False)\nresponse.write(\'\\n        </div>\\n\\n        \', escape=False)\nif right_sidebar_enabled:\n    response.write(\'\\n        <div class="span3">\\n            \', escape=False)\n    response.write(\'\\n            <h3>Right Sidebar</h3>\\n            <p></p>\\n            \', escape=False)\n    response.write(\'\\n        </div>\\n        \', escape=False)\n    pass\nresponse.write(\'\\n    </section><!--/main-->\\n\\n    <!-- Footer ================================================== -->\\n    <div class="row">\\n        <footer class="footer span12" id="footer">\\n            <div class="footer-content">\\n                \', escape=False)\nresponse.write(\' <!-- this is default footer -->\\n                <div class="copyright pull-left">\', escape=False)\nresponse.write(T(\'Copyright\'))\nresponse.write(\' &#169; \', escape=False)\nresponse.write(request.now.year)\nresponse.write(\'</div>\\n                <div id="poweredBy" class="pull-right">\\n                    \', escape=False)\nresponse.write(T(\'Powered by\'))\nresponse.write(\'\\n                    <a href="http://www.web2py.com/">web2py</a>\\n                </div>\\n                \', escape=False)\nresponse.write(\'\\n            </div>\\n        </footer>\\n    </div>\\n\\n  </div> <!-- /container -->\\n\\n  <!-- The javascript =============================================\\n       (Placed at the end of the document so the pages load faster) -->\\n  <script src="\', escape=False)\nresponse.write(URL(\'static\',\'js/bootstrap.min.js\'))\nresponse.write(\'"></script>\\n  <script src="\', escape=False)\nresponse.write(URL(\'static\',\'js/web2py_bootstrap.js\'))\nresponse.write(\'"></script>\\n  <!--[if lt IE 7 ]>\\n      <script src="\', escape=False)\nresponse.write(URL(\'static\',\'js/dd_belatedpng.js\'))\nresponse.write(\'"></script>\\n      <script> DD_belatedPNG.fix(\\\'img, .png_bg\\\'); //fix any <img> or .png_bg background-images </script>\\n      <![endif]-->\\n  \\n  \', escape=False)\nif response.google_analytics_id:\n    response.write(\'\\n  <script src="\', escape=False)\n    response.write(URL(\'static\',\'js/analytics.js\'))\n    response.write(\'"></script>\\n  <script type="text/javascript">\\n  analytics.initialize({\\n    \\\'Google Analytics\\\':{trackingId:\\\'\', escape=False)\n    response.write(response.google_analytics_id)\n    response.write("\'} \\n  });</script>\\n  ", escape=False)\n    pass\nresponse.write(\'\\n  <script src="\', escape=False)\nresponse.write(URL(\'static\',\'js/share.js\',vars=dict(static=URL(\'static\',\'images\'))))\nresponse.write(\'"></script>\\n</body>\\n</html>\\n\\n\', escape=False)'
p7
sS'snapshot'
p8
(dp9
S'exception'
p10
(dp11
S'__getslice__'
p12
S"<method-wrapper '__getslice__' of exceptions.SyntaxError object>"
p13
sS'text'
p14
S'"elif i.selling_type==\'Buy\':\\n"'
p15
sS'__str__'
p16
S"<method-wrapper '__str__' of exceptions.SyntaxError object>"
p17
sS'__reduce__'
p18
S'<built-in method __reduce__ of exceptions.SyntaxError object>'
p19
sS'__dict__'
p20
S'{}'
p21
sS'__sizeof__'
p22
S'<built-in method __sizeof__ of exceptions.SyntaxError object>'
p23
sS'__init__'
p24
S"<method-wrapper '__init__' of exceptions.SyntaxError object>"
p25
sS'__setattr__'
p26
S"<method-wrapper '__setattr__' of exceptions.SyntaxError object>"
p27
sS'__reduce_ex__'
p28
S'<built-in method __reduce_ex__ of exceptions.SyntaxError object>'
p29
sS'__new__'
p30
S'<built-in method __new__ of type object>'
p31
sS'__format__'
p32
S'<built-in method __format__ of exceptions.SyntaxError object>'
p33
sS'__class__'
p34
S"<type 'exceptions.SyntaxError'>"
p35
sS'filename'
p36
S"'/home/pratyush/web2py/applications/BuySell/views/default/list_items.html'"
p37
sS'lineno'
p38
S'113'
p39
sS'msg'
p40
S"'invalid syntax'"
p41
sS'__doc__'
p42
S"'Invalid syntax.'"
p43
sS'__getitem__'
p44
S"<method-wrapper '__getitem__' of exceptions.SyntaxError object>"
p45
sS'__setstate__'
p46
S'<built-in method __setstate__ of exceptions.SyntaxError object>'
p47
sS'__getattribute__'
p48
S"<method-wrapper '__getattribute__' of exceptions.SyntaxError object>"
p49
sS'print_file_and_line'
p50
S'None'
p51
sS'args'
p52
S'(\'invalid syntax\', (\'/home/pratyush/web2py/applications/BuySell/views/default/list_items.html\', 113, 4, "elif i.selling_type==\'Buy\':\\n"))'
p53
sS'__subclasshook__'
p54
S'<built-in method __subclasshook__ of type object>'
p55
sS'offset'
p56
S'4'
sS'__unicode__'
p57
S'<built-in method __unicode__ of exceptions.SyntaxError object>'
p58
sS'__delattr__'
p59
S"<method-wrapper '__delattr__' of exceptions.SyntaxError object>"
p60
sS'__repr__'
p61
S"<method-wrapper '__repr__' of exceptions.SyntaxError object>"
p62
sS'__hash__'
p63
S"<method-wrapper '__hash__' of exceptions.SyntaxError object>"
p64
ssS'evalue'
p65
S'invalid syntax (list_items.html, line 113)'
p66
sS'request'
p67
ccopy_reg
_reconstructor
p68
(cgluon.html
BEAUTIFY
p69
c__builtin__
object
p70
NtRp71
(dp72
S'attributes'
p73
(dp74
sS'components'
p75
(lp76
g68
(cgluon.html
TABLE
p77
g70
NtRp78
(dp79
g73
(dp80
S'level'
p81
I5
ssS'parent'
p82
Nsg75
(lp83
g68
(cgluon.html
TR
p84
g70
NtRp85
(dp86
g73
(dp87
sg82
g78
sg75
(lp88
g68
(cgluon.html
TD
p89
g70
NtRp90
(dp91
g73
(dp92
S'_style'
p93
S'font-weight:bold;vertical-align:top'
p94
ssg82
g85
sg75
(lp95
S'ajax'
p96
asbag68
(g89
g70
NtRp97
(dp98
g73
(dp99
S'_valign'
p100
S'top'
p101
ssg82
g85
sg75
(lp102
S':'
asbag68
(g89
g70
NtRp103
(dp104
g73
(dp105
sg82
g85
sg75
(lp106
g68
(g69
g70
NtRp107
(dp108
g73
(dp109
g81
I5
ssg82
g103
sg75
(lp110
S'False'
p111
asbasbasbag68
(g84
g70
NtRp112
(dp113
g73
(dp114
sg82
g78
sg75
(lp115
g68
(g89
g70
NtRp116
(dp117
g73
(dp118
g93
g94
ssg82
g112
sg75
(lp119
S'application'
p120
asbag68
(g89
g70
NtRp121
(dp122
g73
(dp123
g100
g101
ssg82
g112
sg75
(lp124
S':'
asbag68
(g89
g70
NtRp125
(dp126
g73
(dp127
sg82
g112
sg75
(lp128
g68
(g69
g70
NtRp129
(dp130
g73
(dp131
g81
I5
ssg82
g125
sg75
(lp132
S'BuySell'
p133
asbasbasbag68
(g84
g70
NtRp134
(dp135
g73
(dp136
sg82
g78
sg75
(lp137
g68
(g89
g70
NtRp138
(dp139
g73
(dp140
g93
g94
ssg82
g134
sg75
(lp141
g52
asbag68
(g89
g70
NtRp142
(dp143
g73
(dp144
g100
g101
ssg82
g134
sg75
(lp145
S':'
asbag68
(g89
g70
NtRp146
(dp147
g73
(dp148
sg82
g134
sg75
(lp149
g68
(g69
g70
NtRp150
(dp151
g73
(dp152
g81
I5
ssg82
g146
sg75
(lp153
g68
(g77
g70
NtRp154
(dp155
g73
(dp156
g81
I4
ssg82
Nsg75
(lp157
sbasbasbasbag68
(g84
g70
NtRp158
(dp159
g73
(dp160
sg82
g78
sg75
(lp161
g68
(g89
g70
NtRp162
(dp163
g73
(dp164
g93
g94
ssg82
g158
sg75
(lp165
S'body'
p166
asbag68
(g89
g70
NtRp167
(dp168
g73
(dp169
g100
g101
ssg82
g158
sg75
(lp170
S':'
asbag68
(g89
g70
NtRp171
(dp172
g73
(dp173
sg82
g158
sg75
(lp174
g68
(g69
g70
NtRp175
(dp176
g73
(dp177
g81
I5
ssg82
g171
sg75
(lp178
S'<cStringIO.StringO object at 0xa65ac80>'
p179
asbasbasbag68
(g84
g70
NtRp180
(dp181
g73
(dp182
sg82
g78
sg75
(lp183
g68
(g89
g70
NtRp184
(dp185
g73
(dp186
g93
g94
ssg82
g180
sg75
(lp187
S'cid'
p188
asbag68
(g89
g70
NtRp189
(dp190
g73
(dp191
g100
g101
ssg82
g180
sg75
(lp192
S':'
asbag68
(g89
g70
NtRp193
(dp194
g73
(dp195
sg82
g180
sg75
(lp196
g68
(g69
g70
NtRp197
(dp198
g73
(dp199
g81
I5
ssg82
g193
sg75
(lp200
S'None'
p201
asbasbasbag68
(g84
g70
NtRp202
(dp203
g73
(dp204
sg82
g78
sg75
(lp205
g68
(g89
g70
NtRp206
(dp207
g73
(dp208
g93
g94
ssg82
g202
sg75
(lp209
S'client'
p210
asbag68
(g89
g70
NtRp211
(dp212
g73
(dp213
g100
g101
ssg82
g202
sg75
(lp214
S':'
asbag68
(g89
g70
NtRp215
(dp216
g73
(dp217
sg82
g202
sg75
(lp218
g68
(g69
g70
NtRp219
(dp220
g73
(dp221
g81
I5
ssg82
g215
sg75
(lp222
S'127.0.0.1'
p223
asbasbasbag68
(g84
g70
NtRp224
(dp225
g73
(dp226
sg82
g78
sg75
(lp227
g68
(g89
g70
NtRp228
(dp229
g73
(dp230
g93
g94
ssg82
g224
sg75
(lp231
S'controller'
p232
asbag68
(g89
g70
NtRp233
(dp234
g73
(dp235
g100
g101
ssg82
g224
sg75
(lp236
S':'
asbag68
(g89
g70
NtRp237
(dp238
g73
(dp239
sg82
g224
sg75
(lp240
g68
(g69
g70
NtRp241
(dp242
g73
(dp243
g81
I5
ssg82
g237
sg75
(lp244
S'default'
p245
asbasbasbag68
(g84
g70
NtRp246
(dp247
g73
(dp248
sg82
g78
sg75
(lp249
g68
(g89
g70
NtRp250
(dp251
g73
(dp252
g93
g94
ssg82
g246
sg75
(lp253
S'cookies'
p254
asbag68
(g89
g70
NtRp255
(dp256
g73
(dp257
g100
g101
ssg82
g246
sg75
(lp258
S':'
asbag68
(g89
g70
NtRp259
(dp260
g73
(dp261
sg82
g246
sg75
(lp262
g68
(g69
g70
NtRp263
(dp264
g73
(dp265
g81
I5
ssg82
g259
sg75
(lp266
g68
(g77
g70
NtRp267
(dp268
g73
(dp269
g81
I4
ssg82
Nsg75
(lp270
g68
(g84
g70
NtRp271
(dp272
g73
(dp273
sg82
g267
sg75
(lp274
g68
(g89
g70
NtRp275
(dp276
g73
(dp277
g93
g94
ssg82
g271
sg75
(lp278
S'registered'
p279
asbag68
(g89
g70
NtRp280
(dp281
g73
(dp282
g100
g101
ssg82
g271
sg75
(lp283
S':'
asbag68
(g89
g70
NtRp284
(dp285
g73
(dp286
sg82
g271
sg75
(lp287
g68
(g69
g70
NtRp288
(dp289
g73
(dp290
g81
I4
ssg82
g284
sg75
(lp291
S'yes'
p292
ag68
(g77
g70
NtRp293
(dp294
g73
(dp295
g81
I3
ssg82
Nsg75
(lp296
g68
(g84
g70
NtRp297
(dp298
g73
(dp299
sg82
g293
sg75
(lp300
g68
(g89
g70
NtRp301
(dp302
g73
(dp303
g93
g94
ssg82
g297
sg75
(lp304
S'comment'
p305
asbag68
(g89
g70
NtRp306
(dp307
g73
(dp308
g100
g101
ssg82
g297
sg75
(lp309
S':'
asbag68
(g89
g70
NtRp310
(dp311
g73
(dp312
sg82
g297
sg75
(lp313
g68
(g69
g70
NtRp314
(dp315
g73
(dp316
g81
I3
ssg82
g310
sg75
(lp317
S''
asbasbasbag68
(g84
g70
NtRp318
(dp319
g73
(dp320
sg82
g293
sg75
(lp321
g68
(g89
g70
NtRp322
(dp323
g73
(dp324
g93
g94
ssg82
g318
sg75
(lp325
S'domain'
p326
asbag68
(g89
g70
NtRp327
(dp328
g73
(dp329
g100
g101
ssg82
g318
sg75
(lp330
S':'
asbag68
(g89
g70
NtRp331
(dp332
g73
(dp333
sg82
g318
sg75
(lp334
g68
(g69
g70
NtRp335
(dp336
g73
(dp337
g81
I3
ssg82
g331
sg75
(lp338
S''
asbasbasbag68
(g84
g70
NtRp339
(dp340
g73
(dp341
sg82
g293
sg75
(lp342
g68
(g89
g70
NtRp343
(dp344
g73
(dp345
g93
g94
ssg82
g339
sg75
(lp346
S'expires'
p347
asbag68
(g89
g70
NtRp348
(dp349
g73
(dp350
g100
g101
ssg82
g339
sg75
(lp351
S':'
asbag68
(g89
g70
NtRp352
(dp353
g73
(dp354
sg82
g339
sg75
(lp355
g68
(g69
g70
NtRp356
(dp357
g73
(dp358
g81
I3
ssg82
g352
sg75
(lp359
S''
asbasbasbag68
(g84
g70
NtRp360
(dp361
g73
(dp362
sg82
g293
sg75
(lp363
g68
(g89
g70
NtRp364
(dp365
g73
(dp366
g93
g94
ssg82
g360
sg75
(lp367
S'httponly'
p368
asbag68
(g89
g70
NtRp369
(dp370
g73
(dp371
g100
g101
ssg82
g360
sg75
(lp372
S':'
asbag68
(g89
g70
NtRp373
(dp374
g73
(dp375
sg82
g360
sg75
(lp376
g68
(g69
g70
NtRp377
(dp378
g73
(dp379
g81
I3
ssg82
g373
sg75
(lp380
S''
asbasbasbag68
(g84
g70
NtRp381
(dp382
g73
(dp383
sg82
g293
sg75
(lp384
g68
(g89
g70
NtRp385
(dp386
g73
(dp387
g93
g94
ssg82
g381
sg75
(lp388
S'max-age'
p389
asbag68
(g89
g70
NtRp390
(dp391
g73
(dp392
g100
g101
ssg82
g381
sg75
(lp393
S':'
asbag68
(g89
g70
NtRp394
(dp395
g73
(dp396
sg82
g381
sg75
(lp397
g68
(g69
g70
NtRp398
(dp399
g73
(dp400
g81
I3
ssg82
g394
sg75
(lp401
S''
asbasbasbag68
(g84
g70
NtRp402
(dp403
g73
(dp404
sg82
g293
sg75
(lp405
g68
(g89
g70
NtRp406
(dp407
g73
(dp408
g93
g94
ssg82
g402
sg75
(lp409
S'path'
p410
asbag68
(g89
g70
NtRp411
(dp412
g73
(dp413
g100
g101
ssg82
g402
sg75
(lp414
S':'
asbag68
(g89
g70
NtRp415
(dp416
g73
(dp417
sg82
g402
sg75
(lp418
g68
(g69
g70
NtRp419
(dp420
g73
(dp421
g81
I3
ssg82
g415
sg75
(lp422
S''
asbasbasbag68
(g84
g70
NtRp423
(dp424
g73
(dp425
sg82
g293
sg75
(lp426
g68
(g89
g70
NtRp427
(dp428
g73
(dp429
g93
g94
ssg82
g423
sg75
(lp430
S'secure'
p431
asbag68
(g89
g70
NtRp432
(dp433
g73
(dp434
g100
g101
ssg82
g423
sg75
(lp435
S':'
asbag68
(g89
g70
NtRp436
(dp437
g73
(dp438
sg82
g423
sg75
(lp439
g68
(g69
g70
NtRp440
(dp441
g73
(dp442
g81
I3
ssg82
g436
sg75
(lp443
S''
asbasbasbag68
(g84
g70
NtRp444
(dp445
g73
(dp446
sg82
g293
sg75
(lp447
g68
(g89
g70
NtRp448
(dp449
g73
(dp450
g93
g94
ssg82
g444
sg75
(lp451
S'version'
p452
asbag68
(g89
g70
NtRp453
(dp454
g73
(dp455
g100
g101
ssg82
g444
sg75
(lp456
S':'
asbag68
(g89
g70
NtRp457
(dp458
g73
(dp459
sg82
g444
sg75
(lp460
g68
(g69
g70
NtRp461
(dp462
g73
(dp463
g81
I3
ssg82
g457
sg75
(lp464
S''
asbasbasbasbasbasbasbag68
(g84
g70
NtRp465
(dp466
g73
(dp467
sg82
g267
sg75
(lp468
g68
(g89
g70
NtRp469
(dp470
g73
(dp471
g93
g94
ssg82
g465
sg75
(lp472
S'session_id_admin'
p473
asbag68
(g89
g70
NtRp474
(dp475
g73
(dp476
g100
g101
ssg82
g465
sg75
(lp477
S':'
asbag68
(g89
g70
NtRp478
(dp479
g73
(dp480
sg82
g465
sg75
(lp481
g68
(g69
g70
NtRp482
(dp483
g73
(dp484
g81
I4
ssg82
g478
sg75
(lp485
S'127.0.0.1-9ed8b734-ef8d-434e-9a7b-79af6eec8abb'
p486
ag68
(g77
g70
NtRp487
(dp488
g73
(dp489
g81
I3
ssg82
Nsg75
(lp490
g68
(g84
g70
NtRp491
(dp492
g73
(dp493
sg82
g487
sg75
(lp494
g68
(g89
g70
NtRp495
(dp496
g73
(dp497
g93
g94
ssg82
g491
sg75
(lp498
g305
asbag68
(g89
g70
NtRp499
(dp500
g73
(dp501
g100
g101
ssg82
g491
sg75
(lp502
S':'
asbag68
(g89
g70
NtRp503
(dp504
g73
(dp505
sg82
g491
sg75
(lp506
g68
(g69
g70
NtRp507
(dp508
g73
(dp509
g81
I3
ssg82
g503
sg75
(lp510
S''
asbasbasbag68
(g84
g70
NtRp511
(dp512
g73
(dp513
sg82
g487
sg75
(lp514
g68
(g89
g70
NtRp515
(dp516
g73
(dp517
g93
g94
ssg82
g511
sg75
(lp518
g326
asbag68
(g89
g70
NtRp519
(dp520
g73
(dp521
g100
g101
ssg82
g511
sg75
(lp522
S':'
asbag68
(g89
g70
NtRp523
(dp524
g73
(dp525
sg82
g511
sg75
(lp526
g68
(g69
g70
NtRp527
(dp528
g73
(dp529
g81
I3
ssg82
g523
sg75
(lp530
S''
asbasbasbag68
(g84
g70
NtRp531
(dp532
g73
(dp533
sg82
g487
sg75
(lp534
g68
(g89
g70
NtRp535
(dp536
g73
(dp537
g93
g94
ssg82
g531
sg75
(lp538
g347
asbag68
(g89
g70
NtRp539
(dp540
g73
(dp541
g100
g101
ssg82
g531
sg75
(lp542
S':'
asbag68
(g89
g70
NtRp543
(dp544
g73
(dp545
sg82
g531
sg75
(lp546
g68
(g69
g70
NtRp547
(dp548
g73
(dp549
g81
I3
ssg82
g543
sg75
(lp550
S''
asbasbasbag68
(g84
g70
NtRp551
(dp552
g73
(dp553
sg82
g487
sg75
(lp554
g68
(g89
g70
NtRp555
(dp556
g73
(dp557
g93
g94
ssg82
g551
sg75
(lp558
g368
asbag68
(g89
g70
NtRp559
(dp560
g73
(dp561
g100
g101
ssg82
g551
sg75
(lp562
S':'
asbag68
(g89
g70
NtRp563
(dp564
g73
(dp565
sg82
g551
sg75
(lp566
g68
(g69
g70
NtRp567
(dp568
g73
(dp569
g81
I3
ssg82
g563
sg75
(lp570
S''
asbasbasbag68
(g84
g70
NtRp571
(dp572
g73
(dp573
sg82
g487
sg75
(lp574
g68
(g89
g70
NtRp575
(dp576
g73
(dp577
g93
g94
ssg82
g571
sg75
(lp578
g389
asbag68
(g89
g70
NtRp579
(dp580
g73
(dp581
g100
g101
ssg82
g571
sg75
(lp582
S':'
asbag68
(g89
g70
NtRp583
(dp584
g73
(dp585
sg82
g571
sg75
(lp586
g68
(g69
g70
NtRp587
(dp588
g73
(dp589
g81
I3
ssg82
g583
sg75
(lp590
S''
asbasbasbag68
(g84
g70
NtRp591
(dp592
g73
(dp593
sg82
g487
sg75
(lp594
g68
(g89
g70
NtRp595
(dp596
g73
(dp597
g93
g94
ssg82
g591
sg75
(lp598
g410
asbag68
(g89
g70
NtRp599
(dp600
g73
(dp601
g100
g101
ssg82
g591
sg75
(lp602
S':'
asbag68
(g89
g70
NtRp603
(dp604
g73
(dp605
sg82
g591
sg75
(lp606
g68
(g69
g70
NtRp607
(dp608
g73
(dp609
g81
I3
ssg82
g603
sg75
(lp610
S''
asbasbasbag68
(g84
g70
NtRp611
(dp612
g73
(dp613
sg82
g487
sg75
(lp614
g68
(g89
g70
NtRp615
(dp616
g73
(dp617
g93
g94
ssg82
g611
sg75
(lp618
g431
asbag68
(g89
g70
NtRp619
(dp620
g73
(dp621
g100
g101
ssg82
g611
sg75
(lp622
S':'
asbag68
(g89
g70
NtRp623
(dp624
g73
(dp625
sg82
g611
sg75
(lp626
g68
(g69
g70
NtRp627
(dp628
g73
(dp629
g81
I3
ssg82
g623
sg75
(lp630
S''
asbasbasbag68
(g84
g70
NtRp631
(dp632
g73
(dp633
sg82
g487
sg75
(lp634
g68
(g89
g70
NtRp635
(dp636
g73
(dp637
g93
g94
ssg82
g631
sg75
(lp638
g452
asbag68
(g89
g70
NtRp639
(dp640
g73
(dp641
g100
g101
ssg82
g631
sg75
(lp642
S':'
asbag68
(g89
g70
NtRp643
(dp644
g73
(dp645
sg82
g631
sg75
(lp646
g68
(g69
g70
NtRp647
(dp648
g73
(dp649
g81
I3
ssg82
g643
sg75
(lp650
S''
asbasbasbasbasbasbasbag68
(g84
g70
NtRp651
(dp652
g73
(dp653
sg82
g267
sg75
(lp654
g68
(g89
g70
NtRp655
(dp656
g73
(dp657
g93
g94
ssg82
g651
sg75
(lp658
S'session_id_buysell'
p659
asbag68
(g89
g70
NtRp660
(dp661
g73
(dp662
g100
g101
ssg82
g651
sg75
(lp663
S':'
asbag68
(g89
g70
NtRp664
(dp665
g73
(dp666
sg82
g651
sg75
(lp667
g68
(g69
g70
NtRp668
(dp669
g73
(dp670
g81
I4
ssg82
g664
sg75
(lp671
S'127.0.0.1-f42b8fb6-bce7-404a-b975-99002423340f'
p672
ag68
(g77
g70
NtRp673
(dp674
g73
(dp675
g81
I3
ssg82
Nsg75
(lp676
g68
(g84
g70
NtRp677
(dp678
g73
(dp679
sg82
g673
sg75
(lp680
g68
(g89
g70
NtRp681
(dp682
g73
(dp683
g93
g94
ssg82
g677
sg75
(lp684
g305
asbag68
(g89
g70
NtRp685
(dp686
g73
(dp687
g100
g101
ssg82
g677
sg75
(lp688
S':'
asbag68
(g89
g70
NtRp689
(dp690
g73
(dp691
sg82
g677
sg75
(lp692
g68
(g69
g70
NtRp693
(dp694
g73
(dp695
g81
I3
ssg82
g689
sg75
(lp696
S''
asbasbasbag68
(g84
g70
NtRp697
(dp698
g73
(dp699
sg82
g673
sg75
(lp700
g68
(g89
g70
NtRp701
(dp702
g73
(dp703
g93
g94
ssg82
g697
sg75
(lp704
g326
asbag68
(g89
g70
NtRp705
(dp706
g73
(dp707
g100
g101
ssg82
g697
sg75
(lp708
S':'
asbag68
(g89
g70
NtRp709
(dp710
g73
(dp711
sg82
g697
sg75
(lp712
g68
(g69
g70
NtRp713
(dp714
g73
(dp715
g81
I3
ssg82
g709
sg75
(lp716
S''
asbasbasbag68
(g84
g70
NtRp717
(dp718
g73
(dp719
sg82
g673
sg75
(lp720
g68
(g89
g70
NtRp721
(dp722
g73
(dp723
g93
g94
ssg82
g717
sg75
(lp724
g347
asbag68
(g89
g70
NtRp725
(dp726
g73
(dp727
g100
g101
ssg82
g717
sg75
(lp728
S':'
asbag68
(g89
g70
NtRp729
(dp730
g73
(dp731
sg82
g717
sg75
(lp732
g68
(g69
g70
NtRp733
(dp734
g73
(dp735
g81
I3
ssg82
g729
sg75
(lp736
S''
asbasbasbag68
(g84
g70
NtRp737
(dp738
g73
(dp739
sg82
g673
sg75
(lp740
g68
(g89
g70
NtRp741
(dp742
g73
(dp743
g93
g94
ssg82
g737
sg75
(lp744
g368
asbag68
(g89
g70
NtRp745
(dp746
g73
(dp747
g100
g101
ssg82
g737
sg75
(lp748
S':'
asbag68
(g89
g70
NtRp749
(dp750
g73
(dp751
sg82
g737
sg75
(lp752
g68
(g69
g70
NtRp753
(dp754
g73
(dp755
g81
I3
ssg82
g749
sg75
(lp756
S''
asbasbasbag68
(g84
g70
NtRp757
(dp758
g73
(dp759
sg82
g673
sg75
(lp760
g68
(g89
g70
NtRp761
(dp762
g73
(dp763
g93
g94
ssg82
g757
sg75
(lp764
g389
asbag68
(g89
g70
NtRp765
(dp766
g73
(dp767
g100
g101
ssg82
g757
sg75
(lp768
S':'
asbag68
(g89
g70
NtRp769
(dp770
g73
(dp771
sg82
g757
sg75
(lp772
g68
(g69
g70
NtRp773
(dp774
g73
(dp775
g81
I3
ssg82
g769
sg75
(lp776
S''
asbasbasbag68
(g84
g70
NtRp777
(dp778
g73
(dp779
sg82
g673
sg75
(lp780
g68
(g89
g70
NtRp781
(dp782
g73
(dp783
g93
g94
ssg82
g777
sg75
(lp784
g410
asbag68
(g89
g70
NtRp785
(dp786
g73
(dp787
g100
g101
ssg82
g777
sg75
(lp788
S':'
asbag68
(g89
g70
NtRp789
(dp790
g73
(dp791
sg82
g777
sg75
(lp792
g68
(g69
g70
NtRp793
(dp794
g73
(dp795
g81
I3
ssg82
g789
sg75
(lp796
S''
asbasbasbag68
(g84
g70
NtRp797
(dp798
g73
(dp799
sg82
g673
sg75
(lp800
g68
(g89
g70
NtRp801
(dp802
g73
(dp803
g93
g94
ssg82
g797
sg75
(lp804
g431
asbag68
(g89
g70
NtRp805
(dp806
g73
(dp807
g100
g101
ssg82
g797
sg75
(lp808
S':'
asbag68
(g89
g70
NtRp809
(dp810
g73
(dp811
sg82
g797
sg75
(lp812
g68
(g69
g70
NtRp813
(dp814
g73
(dp815
g81
I3
ssg82
g809
sg75
(lp816
S''
asbasbasbag68
(g84
g70
NtRp817
(dp818
g73
(dp819
sg82
g673
sg75
(lp820
g68
(g89
g70
NtRp821
(dp822
g73
(dp823
g93
g94
ssg82
g817
sg75
(lp824
g452
asbag68
(g89
g70
NtRp825
(dp826
g73
(dp827
g100
g101
ssg82
g817
sg75
(lp828
S':'
asbag68
(g89
g70
NtRp829
(dp830
g73
(dp831
sg82
g817
sg75
(lp832
g68
(g69
g70
NtRp833
(dp834
g73
(dp835
g81
I3
ssg82
g829
sg75
(lp836
S''
asbasbasbasbasbasbasbag68
(g84
g70
NtRp837
(dp838
g73
(dp839
sg82
g267
sg75
(lp840
g68
(g89
g70
NtRp841
(dp842
g73
(dp843
g93
g94
ssg82
g837
sg75
(lp844
S'session_id_welcome'
p845
asbag68
(g89
g70
NtRp846
(dp847
g73
(dp848
g100
g101
ssg82
g837
sg75
(lp849
S':'
asbag68
(g89
g70
NtRp850
(dp851
g73
(dp852
sg82
g837
sg75
(lp853
g68
(g69
g70
NtRp854
(dp855
g73
(dp856
g81
I4
ssg82
g850
sg75
(lp857
S'127.0.0.1-7f7cc58f-84a5-4666-8759-30cfd1f98bc1'
p858
ag68
(g77
g70
NtRp859
(dp860
g73
(dp861
g81
I3
ssg82
Nsg75
(lp862
g68
(g84
g70
NtRp863
(dp864
g73
(dp865
sg82
g859
sg75
(lp866
g68
(g89
g70
NtRp867
(dp868
g73
(dp869
g93
g94
ssg82
g863
sg75
(lp870
g305
asbag68
(g89
g70
NtRp871
(dp872
g73
(dp873
g100
g101
ssg82
g863
sg75
(lp874
S':'
asbag68
(g89
g70
NtRp875
(dp876
g73
(dp877
sg82
g863
sg75
(lp878
g68
(g69
g70
NtRp879
(dp880
g73
(dp881
g81
I3
ssg82
g875
sg75
(lp882
S''
asbasbasbag68
(g84
g70
NtRp883
(dp884
g73
(dp885
sg82
g859
sg75
(lp886
g68
(g89
g70
NtRp887
(dp888
g73
(dp889
g93
g94
ssg82
g883
sg75
(lp890
g326
asbag68
(g89
g70
NtRp891
(dp892
g73
(dp893
g100
g101
ssg82
g883
sg75
(lp894
S':'
asbag68
(g89
g70
NtRp895
(dp896
g73
(dp897
sg82
g883
sg75
(lp898
g68
(g69
g70
NtRp899
(dp900
g73
(dp901
g81
I3
ssg82
g895
sg75
(lp902
S''
asbasbasbag68
(g84
g70
NtRp903
(dp904
g73
(dp905
sg82
g859
sg75
(lp906
g68
(g89
g70
NtRp907
(dp908
g73
(dp909
g93
g94
ssg82
g903
sg75
(lp910
g347
asbag68
(g89
g70
NtRp911
(dp912
g73
(dp913
g100
g101
ssg82
g903
sg75
(lp914
S':'
asbag68
(g89
g70
NtRp915
(dp916
g73
(dp917
sg82
g903
sg75
(lp918
g68
(g69
g70
NtRp919
(dp920
g73
(dp921
g81
I3
ssg82
g915
sg75
(lp922
S''
asbasbasbag68
(g84
g70
NtRp923
(dp924
g73
(dp925
sg82
g859
sg75
(lp926
g68
(g89
g70
NtRp927
(dp928
g73
(dp929
g93
g94
ssg82
g923
sg75
(lp930
g368
asbag68
(g89
g70
NtRp931
(dp932
g73
(dp933
g100
g101
ssg82
g923
sg75
(lp934
S':'
asbag68
(g89
g70
NtRp935
(dp936
g73
(dp937
sg82
g923
sg75
(lp938
g68
(g69
g70
NtRp939
(dp940
g73
(dp941
g81
I3
ssg82
g935
sg75
(lp942
S''
asbasbasbag68
(g84
g70
NtRp943
(dp944
g73
(dp945
sg82
g859
sg75
(lp946
g68
(g89
g70
NtRp947
(dp948
g73
(dp949
g93
g94
ssg82
g943
sg75
(lp950
g389
asbag68
(g89
g70
NtRp951
(dp952
g73
(dp953
g100
g101
ssg82
g943
sg75
(lp954
S':'
asbag68
(g89
g70
NtRp955
(dp956
g73
(dp957
sg82
g943
sg75
(lp958
g68
(g69
g70
NtRp959
(dp960
g73
(dp961
g81
I3
ssg82
g955
sg75
(lp962
S''
asbasbasbag68
(g84
g70
NtRp963
(dp964
g73
(dp965
sg82
g859
sg75
(lp966
g68
(g89
g70
NtRp967
(dp968
g73
(dp969
g93
g94
ssg82
g963
sg75
(lp970
g410
asbag68
(g89
g70
NtRp971
(dp972
g73
(dp973
g100
g101
ssg82
g963
sg75
(lp974
S':'
asbag68
(g89
g70
NtRp975
(dp976
g73
(dp977
sg82
g963
sg75
(lp978
g68
(g69
g70
NtRp979
(dp980
g73
(dp981
g81
I3
ssg82
g975
sg75
(lp982
S''
asbasbasbag68
(g84
g70
NtRp983
(dp984
g73
(dp985
sg82
g859
sg75
(lp986
g68
(g89
g70
NtRp987
(dp988
g73
(dp989
g93
g94
ssg82
g983
sg75
(lp990
g431
asbag68
(g89
g70
NtRp991
(dp992
g73
(dp993
g100
g101
ssg82
g983
sg75
(lp994
S':'
asbag68
(g89
g70
NtRp995
(dp996
g73
(dp997
sg82
g983
sg75
(lp998
g68
(g69
g70
NtRp999
(dp1000
g73
(dp1001
g81
I3
ssg82
g995
sg75
(lp1002
S''
asbasbasbag68
(g84
g70
NtRp1003
(dp1004
g73
(dp1005
sg82
g859
sg75
(lp1006
g68
(g89
g70
NtRp1007
(dp1008
g73
(dp1009
g93
g94
ssg82
g1003
sg75
(lp1010
g452
asbag68
(g89
g70
NtRp1011
(dp1012
g73
(dp1013
g100
g101
ssg82
g1003
sg75
(lp1014
S':'
asbag68
(g89
g70
NtRp1015
(dp1016
g73
(dp1017
sg82
g1003
sg75
(lp1018
g68
(g69
g70
NtRp1019
(dp1020
g73
(dp1021
g81
I3
ssg82
g1015
sg75
(lp1022
S''
asbasbasbasbasbasbasbasbasbasbasbag68
(g84
g70
NtRp1023
(dp1024
g73
(dp1025
sg82
g78
sg75
(lp1026
g68
(g89
g70
NtRp1027
(dp1028
g73
(dp1029
g93
g94
ssg82
g1023
sg75
(lp1030
S'env'
p1031
asbag68
(g89
g70
NtRp1032
(dp1033
g73
(dp1034
g100
g101
ssg82
g1023
sg75
(lp1035
S':'
asbag68
(g89
g70
NtRp1036
(dp1037
g73
(dp1038
sg82
g1023
sg75
(lp1039
g68
(g69
g70
NtRp1040
(dp1041
g73
(dp1042
g81
I5
ssg82
g1036
sg75
(lp1043
g68
(g77
g70
NtRp1044
(dp1045
g73
(dp1046
g81
I4
ssg82
Nsg75
(lp1047
g68
(g84
g70
NtRp1048
(dp1049
g73
(dp1050
sg82
g1044
sg75
(lp1051
g68
(g89
g70
NtRp1052
(dp1053
g73
(dp1054
g93
g94
ssg82
g1048
sg75
(lp1055
S'app_folders'
p1056
asbag68
(g89
g70
NtRp1057
(dp1058
g73
(dp1059
g100
g101
ssg82
g1048
sg75
(lp1060
S':'
asbag68
(g89
g70
NtRp1061
(dp1062
g73
(dp1063
sg82
g1048
sg75
(lp1064
g68
(g69
g70
NtRp1065
(dp1066
g73
(dp1067
g81
I4
ssg82
g1061
sg75
(lp1068
S"set(['/home/pratyush/web2py/applications/welcome/', '/home/pratyush/web2py/applications/BuySell/', '/home/pratyush/web2py/applications/admin/'])"
p1069
asbasbasbag68
(g84
g70
NtRp1070
(dp1071
g73
(dp1072
sg82
g1044
sg75
(lp1073
g68
(g89
g70
NtRp1074
(dp1075
g73
(dp1076
g93
g94
ssg82
g1070
sg75
(lp1077
S'applications_parent'
p1078
asbag68
(g89
g70
NtRp1079
(dp1080
g73
(dp1081
g100
g101
ssg82
g1070
sg75
(lp1082
S':'
asbag68
(g89
g70
NtRp1083
(dp1084
g73
(dp1085
sg82
g1070
sg75
(lp1086
g68
(g69
g70
NtRp1087
(dp1088
g73
(dp1089
g81
I4
ssg82
g1083
sg75
(lp1090
S'/home/pratyush/web2py'
p1091
asbasbasbag68
(g84
g70
NtRp1092
(dp1093
g73
(dp1094
sg82
g1044
sg75
(lp1095
g68
(g89
g70
NtRp1096
(dp1097
g73
(dp1098
g93
g94
ssg82
g1092
sg75
(lp1099
S'cmd_args'
p1100
asbag68
(g89
g70
NtRp1101
(dp1102
g73
(dp1103
g100
g101
ssg82
g1092
sg75
(lp1104
S':'
asbag68
(g89
g70
NtRp1105
(dp1106
g73
(dp1107
sg82
g1092
sg75
(lp1108
g68
(g69
g70
NtRp1109
(dp1110
g73
(dp1111
g81
I4
ssg82
g1105
sg75
(lp1112
g68
(g77
g70
NtRp1113
(dp1114
g73
(dp1115
g81
I3
ssg82
Nsg75
(lp1116
sbasbasbasbag68
(g84
g70
NtRp1117
(dp1118
g73
(dp1119
sg82
g1044
sg75
(lp1120
g68
(g89
g70
NtRp1121
(dp1122
g73
(dp1123
g93
g94
ssg82
g1117
sg75
(lp1124
S'cmd_options'
p1125
asbag68
(g89
g70
NtRp1126
(dp1127
g73
(dp1128
g100
g101
ssg82
g1117
sg75
(lp1129
S':'
asbag68
(g89
g70
NtRp1130
(dp1131
g73
(dp1132
sg82
g1117
sg75
(lp1133
g68
(g69
g70
NtRp1134
(dp1135
g73
(dp1136
g81
I4
ssg82
g1130
sg75
(lp1137
S"<Values at 0x9a8004c: {'verbose': False, 'ip': '127.0.0.1', 'with_scheduler': False, 'ips': [], 'shutdown_timeout': 5, 'taskbar': False, 'port': 8001, 'maxthreads': None, 'softcron': False, 'server_name': 'alanzak', 'bpython': False, 'nogui': False, 'pid_filename': 'httpserver.pid', 'extcron': False, 'runcron': False, 'run_system_tests': False, 'test': None, 'folder': '/home/pratyush/web2py', 'config': '', 'import_models': False, 'winservice': '', 'shell': None, 'run': '', 'log_filename': 'httpserver.log', 'debuglevel': 30, 'args': [''], 'socket_timeout': 5, 'ssl_ca_certificate': None, 'scheduler': None, 'profiler_filename': None, 'ssl_private_key': '', 'scheduler_groups': None, 'password': '1', 'request_queue_size': 5, 'ssl_certificate': '', 'cronjob': False, 'numthreads': None, 'quiet': False, 'interfaces': None, 'minthreads': None, 'timeout': 10, 'plain': False, 'nobanner': False}>"
p1138
asbasbasbag68
(g84
g70
NtRp1139
(dp1140
g73
(dp1141
sg82
g1044
sg75
(lp1142
g68
(g89
g70
NtRp1143
(dp1144
g73
(dp1145
g93
g94
ssg82
g1139
sg75
(lp1146
S'db_sessions'
p1147
asbag68
(g89
g70
NtRp1148
(dp1149
g73
(dp1150
g100
g101
ssg82
g1139
sg75
(lp1151
S':'
asbag68
(g89
g70
NtRp1152
(dp1153
g73
(dp1154
sg82
g1139
sg75
(lp1155
g68
(g69
g70
NtRp1156
(dp1157
g73
(dp1158
g81
I4
ssg82
g1152
sg75
(lp1159
S'set([])'
p1160
asbasbasbag68
(g84
g70
NtRp1161
(dp1162
g73
(dp1163
sg82
g1044
sg75
(lp1164
g68
(g89
g70
NtRp1165
(dp1166
g73
(dp1167
g93
g94
ssg82
g1161
sg75
(lp1168
S'debugging'
p1169
asbag68
(g89
g70
NtRp1170
(dp1171
g73
(dp1172
g100
g101
ssg82
g1161
sg75
(lp1173
S':'
asbag68
(g89
g70
NtRp1174
(dp1175
g73
(dp1176
sg82
g1161
sg75
(lp1177
g68
(g69
g70
NtRp1178
(dp1179
g73
(dp1180
g81
I4
ssg82
g1174
sg75
(lp1181
g111
asbasbasbag68
(g84
g70
NtRp1182
(dp1183
g73
(dp1184
sg82
g1044
sg75
(lp1185
g68
(g89
g70
NtRp1186
(dp1187
g73
(dp1188
g93
g94
ssg82
g1182
sg75
(lp1189
S'gluon_parent'
p1190
asbag68
(g89
g70
NtRp1191
(dp1192
g73
(dp1193
g100
g101
ssg82
g1182
sg75
(lp1194
S':'
asbag68
(g89
g70
NtRp1195
(dp1196
g73
(dp1197
sg82
g1182
sg75
(lp1198
g68
(g69
g70
NtRp1199
(dp1200
g73
(dp1201
g81
I4
ssg82
g1195
sg75
(lp1202
S'/home/pratyush/web2py'
p1203
asbasbasbag68
(g84
g70
NtRp1204
(dp1205
g73
(dp1206
sg82
g1044
sg75
(lp1207
g68
(g89
g70
NtRp1208
(dp1209
g73
(dp1210
g93
g94
ssg82
g1204
sg75
(lp1211
S'http_accept'
p1212
asbag68
(g89
g70
NtRp1213
(dp1214
g73
(dp1215
g100
g101
ssg82
g1204
sg75
(lp1216
S':'
asbag68
(g89
g70
NtRp1217
(dp1218
g73
(dp1219
sg82
g1204
sg75
(lp1220
g68
(g69
g70
NtRp1221
(dp1222
g73
(dp1223
g81
I4
ssg82
g1217
sg75
(lp1224
S'text/html,application/xhtml+xml,application/xml;q=0.9,*/*;q=0.8'
p1225
asbasbasbag68
(g84
g70
NtRp1226
(dp1227
g73
(dp1228
sg82
g1044
sg75
(lp1229
g68
(g89
g70
NtRp1230
(dp1231
g73
(dp1232
g93
g94
ssg82
g1226
sg75
(lp1233
S'http_accept_charset'
p1234
asbag68
(g89
g70
NtRp1235
(dp1236
g73
(dp1237
g100
g101
ssg82
g1226
sg75
(lp1238
S':'
asbag68
(g89
g70
NtRp1239
(dp1240
g73
(dp1241
sg82
g1226
sg75
(lp1242
g68
(g69
g70
NtRp1243
(dp1244
g73
(dp1245
g81
I4
ssg82
g1239
sg75
(lp1246
S'ISO-8859-1,utf-8;q=0.7,*;q=0.3'
p1247
asbasbasbag68
(g84
g70
NtRp1248
(dp1249
g73
(dp1250
sg82
g1044
sg75
(lp1251
g68
(g89
g70
NtRp1252
(dp1253
g73
(dp1254
g93
g94
ssg82
g1248
sg75
(lp1255
S'http_accept_encoding'
p1256
asbag68
(g89
g70
NtRp1257
(dp1258
g73
(dp1259
g100
g101
ssg82
g1248
sg75
(lp1260
S':'
asbag68
(g89
g70
NtRp1261
(dp1262
g73
(dp1263
sg82
g1248
sg75
(lp1264
g68
(g69
g70
NtRp1265
(dp1266
g73
(dp1267
g81
I4
ssg82
g1261
sg75
(lp1268
S'gzip,deflate,sdch'
p1269
asbasbasbag68
(g84
g70
NtRp1270
(dp1271
g73
(dp1272
sg82
g1044
sg75
(lp1273
g68
(g89
g70
NtRp1274
(dp1275
g73
(dp1276
g93
g94
ssg82
g1270
sg75
(lp1277
S'http_accept_language'
p1278
asbag68
(g89
g70
NtRp1279
(dp1280
g73
(dp1281
g100
g101
ssg82
g1270
sg75
(lp1282
S':'
asbag68
(g89
g70
NtRp1283
(dp1284
g73
(dp1285
sg82
g1270
sg75
(lp1286
g68
(g69
g70
NtRp1287
(dp1288
g73
(dp1289
g81
I4
ssg82
g1283
sg75
(lp1290
S'en-US,en;q=0.8'
p1291
asbasbasbag68
(g84
g70
NtRp1292
(dp1293
g73
(dp1294
sg82
g1044
sg75
(lp1295
g68
(g89
g70
NtRp1296
(dp1297
g73
(dp1298
g93
g94
ssg82
g1292
sg75
(lp1299
S'http_cache_control'
p1300
asbag68
(g89
g70
NtRp1301
(dp1302
g73
(dp1303
g100
g101
ssg82
g1292
sg75
(lp1304
S':'
asbag68
(g89
g70
NtRp1305
(dp1306
g73
(dp1307
sg82
g1292
sg75
(lp1308
g68
(g69
g70
NtRp1309
(dp1310
g73
(dp1311
g81
I4
ssg82
g1305
sg75
(lp1312
S'max-age=0'
p1313
asbasbasbag68
(g84
g70
NtRp1314
(dp1315
g73
(dp1316
sg82
g1044
sg75
(lp1317
g68
(g89
g70
NtRp1318
(dp1319
g73
(dp1320
g93
g94
ssg82
g1314
sg75
(lp1321
S'http_connection'
p1322
asbag68
(g89
g70
NtRp1323
(dp1324
g73
(dp1325
g100
g101
ssg82
g1314
sg75
(lp1326
S':'
asbag68
(g89
g70
NtRp1327
(dp1328
g73
(dp1329
sg82
g1314
sg75
(lp1330
g68
(g69
g70
NtRp1331
(dp1332
g73
(dp1333
g81
I4
ssg82
g1327
sg75
(lp1334
S'keep-alive'
p1335
asbasbasbag68
(g84
g70
NtRp1336
(dp1337
g73
(dp1338
sg82
g1044
sg75
(lp1339
g68
(g89
g70
NtRp1340
(dp1341
g73
(dp1342
g93
g94
ssg82
g1336
sg75
(lp1343
S'http_cookie'
p1344
asbag68
(g89
g70
NtRp1345
(dp1346
g73
(dp1347
g100
g101
ssg82
g1336
sg75
(lp1348
S':'
asbag68
(g89
g70
NtRp1349
(dp1350
g73
(dp1351
sg82
g1336
sg75
(lp1352
g68
(g69
g70
NtRp1353
(dp1354
g73
(dp1355
g81
I4
ssg82
g1349
sg75
(lp1356
S'registered=yes; session_id_welcome=127.0.0.1-7f7cc58f-84a5-4666-8759-30cfd1f98bc1; session_id_buysell=127.0.0.1-f42b8fb6-bce7-404a-b975-99002423340f; session_id_admin=127.0.0.1-9ed8b734-ef8d-434e-9a7b-79af6eec8abb'
p1357
asbasbasbag68
(g84
g70
NtRp1358
(dp1359
g73
(dp1360
sg82
g1044
sg75
(lp1361
g68
(g89
g70
NtRp1362
(dp1363
g73
(dp1364
g93
g94
ssg82
g1358
sg75
(lp1365
S'http_host'
p1366
asbag68
(g89
g70
NtRp1367
(dp1368
g73
(dp1369
g100
g101
ssg82
g1358
sg75
(lp1370
S':'
asbag68
(g89
g70
NtRp1371
(dp1372
g73
(dp1373
sg82
g1358
sg75
(lp1374
g68
(g69
g70
NtRp1375
(dp1376
g73
(dp1377
g81
I4
ssg82
g1371
sg75
(lp1378
S'127.0.0.1:8001'
p1379
asbasbasbag68
(g84
g70
NtRp1380
(dp1381
g73
(dp1382
sg82
g1044
sg75
(lp1383
g68
(g89
g70
NtRp1384
(dp1385
g73
(dp1386
g93
g94
ssg82
g1380
sg75
(lp1387
S'http_referer'
p1388
asbag68
(g89
g70
NtRp1389
(dp1390
g73
(dp1391
g100
g101
ssg82
g1380
sg75
(lp1392
S':'
asbag68
(g89
g70
NtRp1393
(dp1394
g73
(dp1395
sg82
g1380
sg75
(lp1396
g68
(g69
g70
NtRp1397
(dp1398
g73
(dp1399
g81
I4
ssg82
g1393
sg75
(lp1400
S'http://127.0.0.1:8001/BuySell/default/index'
p1401
asbasbasbag68
(g84
g70
NtRp1402
(dp1403
g73
(dp1404
sg82
g1044
sg75
(lp1405
g68
(g89
g70
NtRp1406
(dp1407
g73
(dp1408
g93
g94
ssg82
g1402
sg75
(lp1409
S'http_user_agent'
p1410
asbag68
(g89
g70
NtRp1411
(dp1412
g73
(dp1413
g100
g101
ssg82
g1402
sg75
(lp1414
S':'
asbag68
(g89
g70
NtRp1415
(dp1416
g73
(dp1417
sg82
g1402
sg75
(lp1418
g68
(g69
g70
NtRp1419
(dp1420
g73
(dp1421
g81
I4
ssg82
g1415
sg75
(lp1422
S'Mozilla/5.0 (X11; Linux i686) AppleWebKit/537.4 (KHTML, like Gecko) Chrome/22.0.1229.79 Safari/537.4'
p1423
asbasbasbag68
(g84
g70
NtRp1424
(dp1425
g73
(dp1426
sg82
g1044
sg75
(lp1427
g68
(g89
g70
NtRp1428
(dp1429
g73
(dp1430
g93
g94
ssg82
g1424
sg75
(lp1431
S'is_jython'
p1432
asbag68
(g89
g70
NtRp1433
(dp1434
g73
(dp1435
g100
g101
ssg82
g1424
sg75
(lp1436
S':'
asbag68
(g89
g70
NtRp1437
(dp1438
g73
(dp1439
sg82
g1424
sg75
(lp1440
g68
(g69
g70
NtRp1441
(dp1442
g73
(dp1443
g81
I4
ssg82
g1437
sg75
(lp1444
g111
asbasbasbag68
(g84
g70
NtRp1445
(dp1446
g73
(dp1447
sg82
g1044
sg75
(lp1448
g68
(g89
g70
NtRp1449
(dp1450
g73
(dp1451
g93
g94
ssg82
g1445
sg75
(lp1452
S'is_pypy'
p1453
asbag68
(g89
g70
NtRp1454
(dp1455
g73
(dp1456
g100
g101
ssg82
g1445
sg75
(lp1457
S':'
asbag68
(g89
g70
NtRp1458
(dp1459
g73
(dp1460
sg82
g1445
sg75
(lp1461
g68
(g69
g70
NtRp1462
(dp1463
g73
(dp1464
g81
I4
ssg82
g1458
sg75
(lp1465
g111
asbasbasbag68
(g84
g70
NtRp1466
(dp1467
g73
(dp1468
sg82
g1044
sg75
(lp1469
g68
(g89
g70
NtRp1470
(dp1471
g73
(dp1472
g93
g94
ssg82
g1466
sg75
(lp1473
S'local_hosts'
p1474
asbag68
(g89
g70
NtRp1475
(dp1476
g73
(dp1477
g100
g101
ssg82
g1466
sg75
(lp1478
S':'
asbag68
(g89
g70
NtRp1479
(dp1480
g73
(dp1481
sg82
g1466
sg75
(lp1482
g68
(g69
g70
NtRp1483
(dp1484
g73
(dp1485
g81
I4
ssg82
g1479
sg75
(lp1486
g68
(g77
g70
NtRp1487
(dp1488
g73
(dp1489
g81
I3
ssg82
Nsg75
(lp1490
g68
(g84
g70
NtRp1491
(dp1492
g73
(dp1493
sg82
g1487
sg75
(lp1494
g68
(g89
g70
NtRp1495
(dp1496
g73
(dp1497
sg82
g1491
sg75
(lp1498
g68
(g69
g70
NtRp1499
(dp1500
g73
(dp1501
g81
I3
ssg82
g1495
sg75
(lp1502
S'127.0.1.1'
p1503
asbasbasbag68
(g84
g70
NtRp1504
(dp1505
g73
(dp1506
sg82
g1487
sg75
(lp1507
g68
(g89
g70
NtRp1508
(dp1509
g73
(dp1510
sg82
g1504
sg75
(lp1511
g68
(g69
g70
NtRp1512
(dp1513
g73
(dp1514
g81
I3
ssg82
g1508
sg75
(lp1515
S'::1'
p1516
asbasbasbag68
(g84
g70
NtRp1517
(dp1518
g73
(dp1519
sg82
g1487
sg75
(lp1520
g68
(g89
g70
NtRp1521
(dp1522
g73
(dp1523
sg82
g1517
sg75
(lp1524
g68
(g69
g70
NtRp1525
(dp1526
g73
(dp1527
g81
I3
ssg82
g1521
sg75
(lp1528
S'alanzak'
p1529
asbasbasbag68
(g84
g70
NtRp1530
(dp1531
g73
(dp1532
sg82
g1487
sg75
(lp1533
g68
(g89
g70
NtRp1534
(dp1535
g73
(dp1536
sg82
g1530
sg75
(lp1537
g68
(g69
g70
NtRp1538
(dp1539
g73
(dp1540
g81
I3
ssg82
g1534
sg75
(lp1541
S'::ffff:127.0.0.1'
p1542
asbasbasbag68
(g84
g70
NtRp1543
(dp1544
g73
(dp1545
sg82
g1487
sg75
(lp1546
g68
(g89
g70
NtRp1547
(dp1548
g73
(dp1549
sg82
g1543
sg75
(lp1550
g68
(g69
g70
NtRp1551
(dp1552
g73
(dp1553
g81
I3
ssg82
g1547
sg75
(lp1554
S'127.0.0.1'
p1555
asbasbasbasbasbasbasbag68
(g84
g70
NtRp1556
(dp1557
g73
(dp1558
sg82
g1044
sg75
(lp1559
g68
(g89
g70
NtRp1560
(dp1561
g73
(dp1562
g93
g94
ssg82
g1556
sg75
(lp1563
S'path_info'
p1564
asbag68
(g89
g70
NtRp1565
(dp1566
g73
(dp1567
g100
g101
ssg82
g1556
sg75
(lp1568
S':'
asbag68
(g89
g70
NtRp1569
(dp1570
g73
(dp1571
sg82
g1556
sg75
(lp1572
g68
(g69
g70
NtRp1573
(dp1574
g73
(dp1575
g81
I4
ssg82
g1569
sg75
(lp1576
S'/BuySell/default/list_items'
p1577
asbasbasbag68
(g84
g70
NtRp1578
(dp1579
g73
(dp1580
sg82
g1044
sg75
(lp1581
g68
(g89
g70
NtRp1582
(dp1583
g73
(dp1584
g93
g94
ssg82
g1578
sg75
(lp1585
S'query_string'
p1586
asbag68
(g89
g70
NtRp1587
(dp1588
g73
(dp1589
g100
g101
ssg82
g1578
sg75
(lp1590
S':'
asbag68
(g89
g70
NtRp1591
(dp1592
g73
(dp1593
sg82
g1578
sg75
(lp1594
g68
(g69
g70
NtRp1595
(dp1596
g73
(dp1597
g81
I4
ssg82
g1591
sg75
(lp1598
S''
asbasbasbag68
(g84
g70
NtRp1599
(dp1600
g73
(dp1601
sg82
g1044
sg75
(lp1602
g68
(g89
g70
NtRp1603
(dp1604
g73
(dp1605
g93
g94
ssg82
g1599
sg75
(lp1606
S'remote_addr'
p1607
asbag68
(g89
g70
NtRp1608
(dp1609
g73
(dp1610
g100
g101
ssg82
g1599
sg75
(lp1611
S':'
asbag68
(g89
g70
NtRp1612
(dp1613
g73
(dp1614
sg82
g1599
sg75
(lp1615
g68
(g69
g70
NtRp1616
(dp1617
g73
(dp1618
g81
I4
ssg82
g1612
sg75
(lp1619
g223
asbasbasbag68
(g84
g70
NtRp1620
(dp1621
g73
(dp1622
sg82
g1044
sg75
(lp1623
g68
(g89
g70
NtRp1624
(dp1625
g73
(dp1626
g93
g94
ssg82
g1620
sg75
(lp1627
S'remote_port'
p1628
asbag68
(g89
g70
NtRp1629
(dp1630
g73
(dp1631
g100
g101
ssg82
g1620
sg75
(lp1632
S':'
asbag68
(g89
g70
NtRp1633
(dp1634
g73
(dp1635
sg82
g1620
sg75
(lp1636
g68
(g69
g70
NtRp1637
(dp1638
g73
(dp1639
g81
I4
ssg82
g1633
sg75
(lp1640
S'54769'
p1641
asbasbasbag68
(g84
g70
NtRp1642
(dp1643
g73
(dp1644
sg82
g1044
sg75
(lp1645
g68
(g89
g70
NtRp1646
(dp1647
g73
(dp1648
g93
g94
ssg82
g1642
sg75
(lp1649
S'request_method'
p1650
asbag68
(g89
g70
NtRp1651
(dp1652
g73
(dp1653
g100
g101
ssg82
g1642
sg75
(lp1654
S':'
asbag68
(g89
g70
NtRp1655
(dp1656
g73
(dp1657
sg82
g1642
sg75
(lp1658
g68
(g69
g70
NtRp1659
(dp1660
g73
(dp1661
g81
I4
ssg82
g1655
sg75
(lp1662
S'GET'
p1663
asbasbasbag68
(g84
g70
NtRp1664
(dp1665
g73
(dp1666
sg82
g1044
sg75
(lp1667
g68
(g89
g70
NtRp1668
(dp1669
g73
(dp1670
g93
g94
ssg82
g1664
sg75
(lp1671
S'request_uri'
p1672
asbag68
(g89
g70
NtRp1673
(dp1674
g73
(dp1675
g100
g101
ssg82
g1664
sg75
(lp1676
S':'
asbag68
(g89
g70
NtRp1677
(dp1678
g73
(dp1679
sg82
g1664
sg75
(lp1680
g68
(g69
g70
NtRp1681
(dp1682
g73
(dp1683
g81
I4
ssg82
g1677
sg75
(lp1684
g1577
asbasbasbag68
(g84
g70
NtRp1685
(dp1686
g73
(dp1687
sg82
g1044
sg75
(lp1688
g68
(g89
g70
NtRp1689
(dp1690
g73
(dp1691
g93
g94
ssg82
g1685
sg75
(lp1692
S'script_name'
p1693
asbag68
(g89
g70
NtRp1694
(dp1695
g73
(dp1696
g100
g101
ssg82
g1685
sg75
(lp1697
S':'
asbag68
(g89
g70
NtRp1698
(dp1699
g73
(dp1700
sg82
g1685
sg75
(lp1701
g68
(g69
g70
NtRp1702
(dp1703
g73
(dp1704
g81
I4
ssg82
g1698
sg75
(lp1705
S''
asbasbasbag68
(g84
g70
NtRp1706
(dp1707
g73
(dp1708
sg82
g1044
sg75
(lp1709
g68
(g89
g70
NtRp1710
(dp1711
g73
(dp1712
g93
g94
ssg82
g1706
sg75
(lp1713
S'server_name'
p1714
asbag68
(g89
g70
NtRp1715
(dp1716
g73
(dp1717
g100
g101
ssg82
g1706
sg75
(lp1718
S':'
asbag68
(g89
g70
NtRp1719
(dp1720
g73
(dp1721
sg82
g1706
sg75
(lp1722
g68
(g69
g70
NtRp1723
(dp1724
g73
(dp1725
g81
I4
ssg82
g1719
sg75
(lp1726
S'alanzak'
p1727
asbasbasbag68
(g84
g70
NtRp1728
(dp1729
g73
(dp1730
sg82
g1044
sg75
(lp1731
g68
(g89
g70
NtRp1732
(dp1733
g73
(dp1734
g93
g94
ssg82
g1728
sg75
(lp1735
S'server_port'
p1736
asbag68
(g89
g70
NtRp1737
(dp1738
g73
(dp1739
g100
g101
ssg82
g1728
sg75
(lp1740
S':'
asbag68
(g89
g70
NtRp1741
(dp1742
g73
(dp1743
sg82
g1728
sg75
(lp1744
g68
(g69
g70
NtRp1745
(dp1746
g73
(dp1747
g81
I4
ssg82
g1741
sg75
(lp1748
S'8001'
p1749
asbasbasbag68
(g84
g70
NtRp1750
(dp1751
g73
(dp1752
sg82
g1044
sg75
(lp1753
g68
(g89
g70
NtRp1754
(dp1755
g73
(dp1756
g93
g94
ssg82
g1750
sg75
(lp1757
S'server_protocol'
p1758
asbag68
(g89
g70
NtRp1759
(dp1760
g73
(dp1761
g100
g101
ssg82
g1750
sg75
(lp1762
S':'
asbag68
(g89
g70
NtRp1763
(dp1764
g73
(dp1765
sg82
g1750
sg75
(lp1766
g68
(g69
g70
NtRp1767
(dp1768
g73
(dp1769
g81
I4
ssg82
g1763
sg75
(lp1770
S'HTTP/1.1'
p1771
asbasbasbag68
(g84
g70
NtRp1772
(dp1773
g73
(dp1774
sg82
g1044
sg75
(lp1775
g68
(g89
g70
NtRp1776
(dp1777
g73
(dp1778
g93
g94
ssg82
g1772
sg75
(lp1779
S'server_software'
p1780
asbag68
(g89
g70
NtRp1781
(dp1782
g73
(dp1783
g100
g101
ssg82
g1772
sg75
(lp1784
S':'
asbag68
(g89
g70
NtRp1785
(dp1786
g73
(dp1787
sg82
g1772
sg75
(lp1788
g68
(g69
g70
NtRp1789
(dp1790
g73
(dp1791
g81
I4
ssg82
g1785
sg75
(lp1792
S'Rocket 1.2.6'
p1793
asbasbasbag68
(g84
g70
NtRp1794
(dp1795
g73
(dp1796
sg82
g1044
sg75
(lp1797
g68
(g89
g70
NtRp1798
(dp1799
g73
(dp1800
g93
g94
ssg82
g1794
sg75
(lp1801
S'web2py_path'
p1802
asbag68
(g89
g70
NtRp1803
(dp1804
g73
(dp1805
g100
g101
ssg82
g1794
sg75
(lp1806
S':'
asbag68
(g89
g70
NtRp1807
(dp1808
g73
(dp1809
sg82
g1794
sg75
(lp1810
g68
(g69
g70
NtRp1811
(dp1812
g73
(dp1813
g81
I4
ssg82
g1807
sg75
(lp1814
g1091
asbasbasbag68
(g84
g70
NtRp1815
(dp1816
g73
(dp1817
sg82
g1044
sg75
(lp1818
g68
(g89
g70
NtRp1819
(dp1820
g73
(dp1821
g93
g94
ssg82
g1815
sg75
(lp1822
S'web2py_version'
p1823
asbag68
(g89
g70
NtRp1824
(dp1825
g73
(dp1826
g100
g101
ssg82
g1815
sg75
(lp1827
S':'
asbag68
(g89
g70
NtRp1828
(dp1829
g73
(dp1830
sg82
g1815
sg75
(lp1831
g68
(g69
g70
NtRp1832
(dp1833
g73
(dp1834
g81
I4
ssg82
g1828
sg75
(lp1835
g68
(g77
g70
NtRp1836
(dp1837
g73
(dp1838
g81
I3
ssg82
Nsg75
(lp1839
g68
(g84
g70
NtRp1840
(dp1841
g73
(dp1842
sg82
g1836
sg75
(lp1843
g68
(g89
g70
NtRp1844
(dp1845
g73
(dp1846
sg82
g1840
sg75
(lp1847
g68
(g69
g70
NtRp1848
(dp1849
g73
(dp1850
g81
I3
ssg82
g1844
sg75
(lp1851
S'2'
asbasbasbag68
(g84
g70
NtRp1852
(dp1853
g73
(dp1854
sg82
g1836
sg75
(lp1855
g68
(g89
g70
NtRp1856
(dp1857
g73
(dp1858
sg82
g1852
sg75
(lp1859
g68
(g69
g70
NtRp1860
(dp1861
g73
(dp1862
g81
I3
ssg82
g1856
sg75
(lp1863
S'3'
asbasbasbag68
(g84
g70
NtRp1864
(dp1865
g73
(dp1866
sg82
g1836
sg75
(lp1867
g68
(g89
g70
NtRp1868
(dp1869
g73
(dp1870
sg82
g1864
sg75
(lp1871
g68
(g69
g70
NtRp1872
(dp1873
g73
(dp1874
g81
I3
ssg82
g1868
sg75
(lp1875
S'2'
asbasbasbag68
(g84
g70
NtRp1876
(dp1877
g73
(dp1878
sg82
g1836
sg75
(lp1879
g68
(g89
g70
NtRp1880
(dp1881
g73
(dp1882
sg82
g1876
sg75
(lp1883
g68
(g69
g70
NtRp1884
(dp1885
g73
(dp1886
g81
I3
ssg82
g1880
sg75
(lp1887
S'datetime.datetime(2012, 12, 17, 15, 3, 30)'
p1888
asbasbasbag68
(g84
g70
NtRp1889
(dp1890
g73
(dp1891
sg82
g1836
sg75
(lp1892
g68
(g89
g70
NtRp1893
(dp1894
g73
(dp1895
sg82
g1889
sg75
(lp1896
g68
(g69
g70
NtRp1897
(dp1898
g73
(dp1899
g81
I3
ssg82
g1893
sg75
(lp1900
S'stable'
p1901
asbasbasbasbasbasbasbag68
(g84
g70
NtRp1902
(dp1903
g73
(dp1904
sg82
g1044
sg75
(lp1905
g68
(g89
g70
NtRp1906
(dp1907
g73
(dp1908
g93
g94
ssg82
g1902
sg75
(lp1909
S'wsgi_errors'
p1910
asbag68
(g89
g70
NtRp1911
(dp1912
g73
(dp1913
g100
g101
ssg82
g1902
sg75
(lp1914
S':'
asbag68
(g89
g70
NtRp1915
(dp1916
g73
(dp1917
sg82
g1902
sg75
(lp1918
g68
(g69
g70
NtRp1919
(dp1920
g73
(dp1921
g81
I4
ssg82
g1915
sg75
(lp1922
S"<open file '<stderr>', mode 'w' at 0xb78080d0>"
p1923
asbasbasbag68
(g84
g70
NtRp1924
(dp1925
g73
(dp1926
sg82
g1044
sg75
(lp1927
g68
(g89
g70
NtRp1928
(dp1929
g73
(dp1930
g93
g94
ssg82
g1924
sg75
(lp1931
S'wsgi_file_wrapper'
p1932
asbag68
(g89
g70
NtRp1933
(dp1934
g73
(dp1935
g100
g101
ssg82
g1924
sg75
(lp1936
S':'
asbag68
(g89
g70
NtRp1937
(dp1938
g73
(dp1939
sg82
g1924
sg75
(lp1940
g68
(g69
g70
NtRp1941
(dp1942
g73
(dp1943
g81
I4
ssg82
g1937
sg75
(lp1944
S'<class wsgiref.util.FileWrapper at 0x9a2dcbc>'
p1945
asbasbasbag68
(g84
g70
NtRp1946
(dp1947
g73
(dp1948
sg82
g1044
sg75
(lp1949
g68
(g89
g70
NtRp1950
(dp1951
g73
(dp1952
g93
g94
ssg82
g1946
sg75
(lp1953
S'wsgi_input'
p1954
asbag68
(g89
g70
NtRp1955
(dp1956
g73
(dp1957
g100
g101
ssg82
g1946
sg75
(lp1958
S':'
asbag68
(g89
g70
NtRp1959
(dp1960
g73
(dp1961
sg82
g1946
sg75
(lp1962
g68
(g69
g70
NtRp1963
(dp1964
g73
(dp1965
g81
I4
ssg82
g1959
sg75
(lp1966
S'<socket._fileobject object at 0x9c8edec>'
p1967
asbasbasbag68
(g84
g70
NtRp1968
(dp1969
g73
(dp1970
sg82
g1044
sg75
(lp1971
g68
(g89
g70
NtRp1972
(dp1973
g73
(dp1974
g93
g94
ssg82
g1968
sg75
(lp1975
S'wsgi_multiprocess'
p1976
asbag68
(g89
g70
NtRp1977
(dp1978
g73
(dp1979
g100
g101
ssg82
g1968
sg75
(lp1980
S':'
asbag68
(g89
g70
NtRp1981
(dp1982
g73
(dp1983
sg82
g1968
sg75
(lp1984
g68
(g69
g70
NtRp1985
(dp1986
g73
(dp1987
g81
I4
ssg82
g1981
sg75
(lp1988
g111
asbasbasbag68
(g84
g70
NtRp1989
(dp1990
g73
(dp1991
sg82
g1044
sg75
(lp1992
g68
(g89
g70
NtRp1993
(dp1994
g73
(dp1995
g93
g94
ssg82
g1989
sg75
(lp1996
S'wsgi_multithread'
p1997
asbag68
(g89
g70
NtRp1998
(dp1999
g73
(dp2000
g100
g101
ssg82
g1989
sg75
(lp2001
S':'
asbag68
(g89
g70
NtRp2002
(dp2003
g73
(dp2004
sg82
g1989
sg75
(lp2005
g68
(g69
g70
NtRp2006
(dp2007
g73
(dp2008
g81
I4
ssg82
g2002
sg75
(lp2009
S'True'
p2010
asbasbasbag68
(g84
g70
NtRp2011
(dp2012
g73
(dp2013
sg82
g1044
sg75
(lp2014
g68
(g89
g70
NtRp2015
(dp2016
g73
(dp2017
g93
g94
ssg82
g2011
sg75
(lp2018
S'wsgi_run_once'
p2019
asbag68
(g89
g70
NtRp2020
(dp2021
g73
(dp2022
g100
g101
ssg82
g2011
sg75
(lp2023
S':'
asbag68
(g89
g70
NtRp2024
(dp2025
g73
(dp2026
sg82
g2011
sg75
(lp2027
g68
(g69
g70
NtRp2028
(dp2029
g73
(dp2030
g81
I4
ssg82
g2024
sg75
(lp2031
g111
asbasbasbag68
(g84
g70
NtRp2032
(dp2033
g73
(dp2034
sg82
g1044
sg75
(lp2035
g68
(g89
g70
NtRp2036
(dp2037
g73
(dp2038
g93
g94
ssg82
g2032
sg75
(lp2039
S'wsgi_url_scheme'
p2040
asbag68
(g89
g70
NtRp2041
(dp2042
g73
(dp2043
g100
g101
ssg82
g2032
sg75
(lp2044
S':'
asbag68
(g89
g70
NtRp2045
(dp2046
g73
(dp2047
sg82
g2032
sg75
(lp2048
g68
(g69
g70
NtRp2049
(dp2050
g73
(dp2051
g81
I4
ssg82
g2045
sg75
(lp2052
S'http'
p2053
asbasbasbag68
(g84
g70
NtRp2054
(dp2055
g73
(dp2056
sg82
g1044
sg75
(lp2057
g68
(g89
g70
NtRp2058
(dp2059
g73
(dp2060
g93
g94
ssg82
g2054
sg75
(lp2061
S'wsgi_version'
p2062
asbag68
(g89
g70
NtRp2063
(dp2064
g73
(dp2065
g100
g101
ssg82
g2054
sg75
(lp2066
S':'
asbag68
(g89
g70
NtRp2067
(dp2068
g73
(dp2069
sg82
g2054
sg75
(lp2070
g68
(g69
g70
NtRp2071
(dp2072
g73
(dp2073
g81
I4
ssg82
g2067
sg75
(lp2074
g68
(g77
g70
NtRp2075
(dp2076
g73
(dp2077
g81
I3
ssg82
Nsg75
(lp2078
g68
(g84
g70
NtRp2079
(dp2080
g73
(dp2081
sg82
g2075
sg75
(lp2082
g68
(g89
g70
NtRp2083
(dp2084
g73
(dp2085
sg82
g2079
sg75
(lp2086
g68
(g69
g70
NtRp2087
(dp2088
g73
(dp2089
g81
I3
ssg82
g2083
sg75
(lp2090
S'1'
asbasbasbag68
(g84
g70
NtRp2091
(dp2092
g73
(dp2093
sg82
g2075
sg75
(lp2094
g68
(g89
g70
NtRp2095
(dp2096
g73
(dp2097
sg82
g2091
sg75
(lp2098
g68
(g69
g70
NtRp2099
(dp2100
g73
(dp2101
g81
I3
ssg82
g2095
sg75
(lp2102
S'0'
asbasbasbasbasbasbasbasbasbasbasbag68
(g84
g70
NtRp2103
(dp2104
g73
(dp2105
sg82
g78
sg75
(lp2106
g68
(g89
g70
NtRp2107
(dp2108
g73
(dp2109
g93
g94
ssg82
g2103
sg75
(lp2110
S'extension'
p2111
asbag68
(g89
g70
NtRp2112
(dp2113
g73
(dp2114
g100
g101
ssg82
g2103
sg75
(lp2115
S':'
asbag68
(g89
g70
NtRp2116
(dp2117
g73
(dp2118
sg82
g2103
sg75
(lp2119
g68
(g69
g70
NtRp2120
(dp2121
g73
(dp2122
g81
I5
ssg82
g2116
sg75
(lp2123
S'html'
p2124
asbasbasbag68
(g84
g70
NtRp2125
(dp2126
g73
(dp2127
sg82
g78
sg75
(lp2128
g68
(g89
g70
NtRp2129
(dp2130
g73
(dp2131
g93
g94
ssg82
g2125
sg75
(lp2132
S'folder'
p2133
asbag68
(g89
g70
NtRp2134
(dp2135
g73
(dp2136
g100
g101
ssg82
g2125
sg75
(lp2137
S':'
asbag68
(g89
g70
NtRp2138
(dp2139
g73
(dp2140
sg82
g2125
sg75
(lp2141
g68
(g69
g70
NtRp2142
(dp2143
g73
(dp2144
g81
I5
ssg82
g2138
sg75
(lp2145
S'/home/pratyush/web2py/applications/BuySell/'
p2146
asbasbasbag68
(g84
g70
NtRp2147
(dp2148
g73
(dp2149
sg82
g78
sg75
(lp2150
g68
(g89
g70
NtRp2151
(dp2152
g73
(dp2153
g93
g94
ssg82
g2147
sg75
(lp2154
S'function'
p2155
asbag68
(g89
g70
NtRp2156
(dp2157
g73
(dp2158
g100
g101
ssg82
g2147
sg75
(lp2159
S':'
asbag68
(g89
g70
NtRp2160
(dp2161
g73
(dp2162
sg82
g2147
sg75
(lp2163
g68
(g69
g70
NtRp2164
(dp2165
g73
(dp2166
g81
I5
ssg82
g2160
sg75
(lp2167
S'list_items'
p2168
asbasbasbag68
(g84
g70
NtRp2169
(dp2170
g73
(dp2171
sg82
g78
sg75
(lp2172
g68
(g89
g70
NtRp2173
(dp2174
g73
(dp2175
g93
g94
ssg82
g2169
sg75
(lp2176
S'get_vars'
p2177
asbag68
(g89
g70
NtRp2178
(dp2179
g73
(dp2180
g100
g101
ssg82
g2169
sg75
(lp2181
S':'
asbag68
(g89
g70
NtRp2182
(dp2183
g73
(dp2184
sg82
g2169
sg75
(lp2185
g68
(g69
g70
NtRp2186
(dp2187
g73
(dp2188
g81
I5
ssg82
g2182
sg75
(lp2189
g68
(g77
g70
NtRp2190
(dp2191
g73
(dp2192
g81
I4
ssg82
Nsg75
(lp2193
sbasbasbasbag68
(g84
g70
NtRp2194
(dp2195
g73
(dp2196
sg82
g78
sg75
(lp2197
g68
(g89
g70
NtRp2198
(dp2199
g73
(dp2200
g93
g94
ssg82
g2194
sg75
(lp2201
S'global_settings'
p2202
asbag68
(g89
g70
NtRp2203
(dp2204
g73
(dp2205
g100
g101
ssg82
g2194
sg75
(lp2206
S':'
asbag68
(g89
g70
NtRp2207
(dp2208
g73
(dp2209
sg82
g2194
sg75
(lp2210
g68
(g69
g70
NtRp2211
(dp2212
g73
(dp2213
g81
I5
ssg82
g2207
sg75
(lp2214
g68
(g77
g70
NtRp2215
(dp2216
g73
(dp2217
g81
I4
ssg82
Nsg75
(lp2218
g68
(g84
g70
NtRp2219
(dp2220
g73
(dp2221
sg82
g2215
sg75
(lp2222
g68
(g89
g70
NtRp2223
(dp2224
g73
(dp2225
g93
g94
ssg82
g2219
sg75
(lp2226
g1056
asbag68
(g89
g70
NtRp2227
(dp2228
g73
(dp2229
g100
g101
ssg82
g2219
sg75
(lp2230
S':'
asbag68
(g89
g70
NtRp2231
(dp2232
g73
(dp2233
sg82
g2219
sg75
(lp2234
g68
(g69
g70
NtRp2235
(dp2236
g73
(dp2237
g81
I4
ssg82
g2231
sg75
(lp2238
S"set(['/home/pratyush/web2py/applications/welcome/', '/home/pratyush/web2py/applications/BuySell/', '/home/pratyush/web2py/applications/admin/'])"
p2239
asbasbasbag68
(g84
g70
NtRp2240
(dp2241
g73
(dp2242
sg82
g2215
sg75
(lp2243
g68
(g89
g70
NtRp2244
(dp2245
g73
(dp2246
g93
g94
ssg82
g2240
sg75
(lp2247
g1078
asbag68
(g89
g70
NtRp2248
(dp2249
g73
(dp2250
g100
g101
ssg82
g2240
sg75
(lp2251
S':'
asbag68
(g89
g70
NtRp2252
(dp2253
g73
(dp2254
sg82
g2240
sg75
(lp2255
g68
(g69
g70
NtRp2256
(dp2257
g73
(dp2258
g81
I4
ssg82
g2252
sg75
(lp2259
g1091
asbasbasbag68
(g84
g70
NtRp2260
(dp2261
g73
(dp2262
sg82
g2215
sg75
(lp2263
g68
(g89
g70
NtRp2264
(dp2265
g73
(dp2266
g93
g94
ssg82
g2260
sg75
(lp2267
g1100
asbag68
(g89
g70
NtRp2268
(dp2269
g73
(dp2270
g100
g101
ssg82
g2260
sg75
(lp2271
S':'
asbag68
(g89
g70
NtRp2272
(dp2273
g73
(dp2274
sg82
g2260
sg75
(lp2275
g68
(g69
g70
NtRp2276
(dp2277
g73
(dp2278
g81
I4
ssg82
g2272
sg75
(lp2279
g68
(g77
g70
NtRp2280
(dp2281
g73
(dp2282
g81
I3
ssg82
Nsg75
(lp2283
sbasbasbasbag68
(g84
g70
NtRp2284
(dp2285
g73
(dp2286
sg82
g2215
sg75
(lp2287
g68
(g89
g70
NtRp2288
(dp2289
g73
(dp2290
g93
g94
ssg82
g2284
sg75
(lp2291
g1125
asbag68
(g89
g70
NtRp2292
(dp2293
g73
(dp2294
g100
g101
ssg82
g2284
sg75
(lp2295
S':'
asbag68
(g89
g70
NtRp2296
(dp2297
g73
(dp2298
sg82
g2284
sg75
(lp2299
g68
(g69
g70
NtRp2300
(dp2301
g73
(dp2302
g81
I4
ssg82
g2296
sg75
(lp2303
S"<Values at 0x9a8004c: {'verbose': False, 'ip': '127.0.0.1', 'with_scheduler': False, 'ips': [], 'shutdown_timeout': 5, 'taskbar': False, 'port': 8001, 'maxthreads': None, 'softcron': False, 'server_name': 'alanzak', 'bpython': False, 'nogui': False, 'pid_filename': 'httpserver.pid', 'extcron': False, 'runcron': False, 'run_system_tests': False, 'test': None, 'folder': '/home/pratyush/web2py', 'config': '', 'import_models': False, 'winservice': '', 'shell': None, 'run': '', 'log_filename': 'httpserver.log', 'debuglevel': 30, 'args': [''], 'socket_timeout': 5, 'ssl_ca_certificate': None, 'scheduler': None, 'profiler_filename': None, 'ssl_private_key': '', 'scheduler_groups': None, 'password': '1', 'request_queue_size': 5, 'ssl_certificate': '', 'cronjob': False, 'numthreads': None, 'quiet': False, 'interfaces': None, 'minthreads': None, 'timeout': 10, 'plain': False, 'nobanner': False}>"
p2304
asbasbasbag68
(g84
g70
NtRp2305
(dp2306
g73
(dp2307
sg82
g2215
sg75
(lp2308
g68
(g89
g70
NtRp2309
(dp2310
g73
(dp2311
g93
g94
ssg82
g2305
sg75
(lp2312
g1147
asbag68
(g89
g70
NtRp2313
(dp2314
g73
(dp2315
g100
g101
ssg82
g2305
sg75
(lp2316
S':'
asbag68
(g89
g70
NtRp2317
(dp2318
g73
(dp2319
sg82
g2305
sg75
(lp2320
g68
(g69
g70
NtRp2321
(dp2322
g73
(dp2323
g81
I4
ssg82
g2317
sg75
(lp2324
S'set([])'
p2325
asbasbasbag68
(g84
g70
NtRp2326
(dp2327
g73
(dp2328
sg82
g2215
sg75
(lp2329
g68
(g89
g70
NtRp2330
(dp2331
g73
(dp2332
g93
g94
ssg82
g2326
sg75
(lp2333
g1169
asbag68
(g89
g70
NtRp2334
(dp2335
g73
(dp2336
g100
g101
ssg82
g2326
sg75
(lp2337
S':'
asbag68
(g89
g70
NtRp2338
(dp2339
g73
(dp2340
sg82
g2326
sg75
(lp2341
g68
(g69
g70
NtRp2342
(dp2343
g73
(dp2344
g81
I4
ssg82
g2338
sg75
(lp2345
g111
asbasbasbag68
(g84
g70
NtRp2346
(dp2347
g73
(dp2348
sg82
g2215
sg75
(lp2349
g68
(g89
g70
NtRp2350
(dp2351
g73
(dp2352
g93
g94
ssg82
g2346
sg75
(lp2353
g1190
asbag68
(g89
g70
NtRp2354
(dp2355
g73
(dp2356
g100
g101
ssg82
g2346
sg75
(lp2357
S':'
asbag68
(g89
g70
NtRp2358
(dp2359
g73
(dp2360
sg82
g2346
sg75
(lp2361
g68
(g69
g70
NtRp2362
(dp2363
g73
(dp2364
g81
I4
ssg82
g2358
sg75
(lp2365
g1203
asbasbasbag68
(g84
g70
NtRp2366
(dp2367
g73
(dp2368
sg82
g2215
sg75
(lp2369
g68
(g89
g70
NtRp2370
(dp2371
g73
(dp2372
g93
g94
ssg82
g2366
sg75
(lp2373
g1432
asbag68
(g89
g70
NtRp2374
(dp2375
g73
(dp2376
g100
g101
ssg82
g2366
sg75
(lp2377
S':'
asbag68
(g89
g70
NtRp2378
(dp2379
g73
(dp2380
sg82
g2366
sg75
(lp2381
g68
(g69
g70
NtRp2382
(dp2383
g73
(dp2384
g81
I4
ssg82
g2378
sg75
(lp2385
g111
asbasbasbag68
(g84
g70
NtRp2386
(dp2387
g73
(dp2388
sg82
g2215
sg75
(lp2389
g68
(g89
g70
NtRp2390
(dp2391
g73
(dp2392
g93
g94
ssg82
g2386
sg75
(lp2393
g1453
asbag68
(g89
g70
NtRp2394
(dp2395
g73
(dp2396
g100
g101
ssg82
g2386
sg75
(lp2397
S':'
asbag68
(g89
g70
NtRp2398
(dp2399
g73
(dp2400
sg82
g2386
sg75
(lp2401
g68
(g69
g70
NtRp2402
(dp2403
g73
(dp2404
g81
I4
ssg82
g2398
sg75
(lp2405
g111
asbasbasbag68
(g84
g70
NtRp2406
(dp2407
g73
(dp2408
sg82
g2215
sg75
(lp2409
g68
(g89
g70
NtRp2410
(dp2411
g73
(dp2412
g93
g94
ssg82
g2406
sg75
(lp2413
g1474
asbag68
(g89
g70
NtRp2414
(dp2415
g73
(dp2416
g100
g101
ssg82
g2406
sg75
(lp2417
S':'
asbag68
(g89
g70
NtRp2418
(dp2419
g73
(dp2420
sg82
g2406
sg75
(lp2421
g68
(g69
g70
NtRp2422
(dp2423
g73
(dp2424
g81
I4
ssg82
g2418
sg75
(lp2425
g68
(g77
g70
NtRp2426
(dp2427
g73
(dp2428
g81
I3
ssg82
Nsg75
(lp2429
g68
(g84
g70
NtRp2430
(dp2431
g73
(dp2432
sg82
g2426
sg75
(lp2433
g68
(g89
g70
NtRp2434
(dp2435
g73
(dp2436
sg82
g2430
sg75
(lp2437
g68
(g69
g70
NtRp2438
(dp2439
g73
(dp2440
g81
I3
ssg82
g2434
sg75
(lp2441
g1503
asbasbasbag68
(g84
g70
NtRp2442
(dp2443
g73
(dp2444
sg82
g2426
sg75
(lp2445
g68
(g89
g70
NtRp2446
(dp2447
g73
(dp2448
sg82
g2442
sg75
(lp2449
g68
(g69
g70
NtRp2450
(dp2451
g73
(dp2452
g81
I3
ssg82
g2446
sg75
(lp2453
g1516
asbasbasbag68
(g84
g70
NtRp2454
(dp2455
g73
(dp2456
sg82
g2426
sg75
(lp2457
g68
(g89
g70
NtRp2458
(dp2459
g73
(dp2460
sg82
g2454
sg75
(lp2461
g68
(g69
g70
NtRp2462
(dp2463
g73
(dp2464
g81
I3
ssg82
g2458
sg75
(lp2465
g1529
asbasbasbag68
(g84
g70
NtRp2466
(dp2467
g73
(dp2468
sg82
g2426
sg75
(lp2469
g68
(g89
g70
NtRp2470
(dp2471
g73
(dp2472
sg82
g2466
sg75
(lp2473
g68
(g69
g70
NtRp2474
(dp2475
g73
(dp2476
g81
I3
ssg82
g2470
sg75
(lp2477
g1542
asbasbasbag68
(g84
g70
NtRp2478
(dp2479
g73
(dp2480
sg82
g2426
sg75
(lp2481
g68
(g89
g70
NtRp2482
(dp2483
g73
(dp2484
sg82
g2478
sg75
(lp2485
g68
(g69
g70
NtRp2486
(dp2487
g73
(dp2488
g81
I3
ssg82
g2482
sg75
(lp2489
g1555
asbasbasbasbasbasbasbag68
(g84
g70
NtRp2490
(dp2491
g73
(dp2492
sg82
g2215
sg75
(lp2493
g68
(g89
g70
NtRp2494
(dp2495
g73
(dp2496
g93
g94
ssg82
g2490
sg75
(lp2497
g1823
asbag68
(g89
g70
NtRp2498
(dp2499
g73
(dp2500
g100
g101
ssg82
g2490
sg75
(lp2501
S':'
asbag68
(g89
g70
NtRp2502
(dp2503
g73
(dp2504
sg82
g2490
sg75
(lp2505
g68
(g69
g70
NtRp2506
(dp2507
g73
(dp2508
g81
I4
ssg82
g2502
sg75
(lp2509
g68
(g77
g70
NtRp2510
(dp2511
g73
(dp2512
g81
I3
ssg82
Nsg75
(lp2513
g68
(g84
g70
NtRp2514
(dp2515
g73
(dp2516
sg82
g2510
sg75
(lp2517
g68
(g89
g70
NtRp2518
(dp2519
g73
(dp2520
sg82
g2514
sg75
(lp2521
g68
(g69
g70
NtRp2522
(dp2523
g73
(dp2524
g81
I3
ssg82
g2518
sg75
(lp2525
S'2'
asbasbasbag68
(g84
g70
NtRp2526
(dp2527
g73
(dp2528
sg82
g2510
sg75
(lp2529
g68
(g89
g70
NtRp2530
(dp2531
g73
(dp2532
sg82
g2526
sg75
(lp2533
g68
(g69
g70
NtRp2534
(dp2535
g73
(dp2536
g81
I3
ssg82
g2530
sg75
(lp2537
S'3'
asbasbasbag68
(g84
g70
NtRp2538
(dp2539
g73
(dp2540
sg82
g2510
sg75
(lp2541
g68
(g89
g70
NtRp2542
(dp2543
g73
(dp2544
sg82
g2538
sg75
(lp2545
g68
(g69
g70
NtRp2546
(dp2547
g73
(dp2548
g81
I3
ssg82
g2542
sg75
(lp2549
S'2'
asbasbasbag68
(g84
g70
NtRp2550
(dp2551
g73
(dp2552
sg82
g2510
sg75
(lp2553
g68
(g89
g70
NtRp2554
(dp2555
g73
(dp2556
sg82
g2550
sg75
(lp2557
g68
(g69
g70
NtRp2558
(dp2559
g73
(dp2560
g81
I3
ssg82
g2554
sg75
(lp2561
S'datetime.datetime(2012, 12, 17, 15, 3, 30)'
p2562
asbasbasbag68
(g84
g70
NtRp2563
(dp2564
g73
(dp2565
sg82
g2510
sg75
(lp2566
g68
(g89
g70
NtRp2567
(dp2568
g73
(dp2569
sg82
g2563
sg75
(lp2570
g68
(g69
g70
NtRp2571
(dp2572
g73
(dp2573
g81
I3
ssg82
g2567
sg75
(lp2574
g1901
asbasbasbasbasbasbasbasbasbasbasbag68
(g84
g70
NtRp2575
(dp2576
g73
(dp2577
sg82
g78
sg75
(lp2578
g68
(g89
g70
NtRp2579
(dp2580
g73
(dp2581
g93
g94
ssg82
g2575
sg75
(lp2582
S'is_https'
p2583
asbag68
(g89
g70
NtRp2584
(dp2585
g73
(dp2586
g100
g101
ssg82
g2575
sg75
(lp2587
S':'
asbag68
(g89
g70
NtRp2588
(dp2589
g73
(dp2590
sg82
g2575
sg75
(lp2591
g68
(g69
g70
NtRp2592
(dp2593
g73
(dp2594
g81
I5
ssg82
g2588
sg75
(lp2595
g111
asbasbasbag68
(g84
g70
NtRp2596
(dp2597
g73
(dp2598
sg82
g78
sg75
(lp2599
g68
(g89
g70
NtRp2600
(dp2601
g73
(dp2602
g93
g94
ssg82
g2596
sg75
(lp2603
S'is_local'
p2604
asbag68
(g89
g70
NtRp2605
(dp2606
g73
(dp2607
g100
g101
ssg82
g2596
sg75
(lp2608
S':'
asbag68
(g89
g70
NtRp2609
(dp2610
g73
(dp2611
sg82
g2596
sg75
(lp2612
g68
(g69
g70
NtRp2613
(dp2614
g73
(dp2615
g81
I5
ssg82
g2609
sg75
(lp2616
g2010
asbasbasbag68
(g84
g70
NtRp2617
(dp2618
g73
(dp2619
sg82
g78
sg75
(lp2620
g68
(g89
g70
NtRp2621
(dp2622
g73
(dp2623
g93
g94
ssg82
g2617
sg75
(lp2624
S'is_restful'
p2625
asbag68
(g89
g70
NtRp2626
(dp2627
g73
(dp2628
g100
g101
ssg82
g2617
sg75
(lp2629
S':'
asbag68
(g89
g70
NtRp2630
(dp2631
g73
(dp2632
sg82
g2617
sg75
(lp2633
g68
(g69
g70
NtRp2634
(dp2635
g73
(dp2636
g81
I5
ssg82
g2630
sg75
(lp2637
g111
asbasbasbag68
(g84
g70
NtRp2638
(dp2639
g73
(dp2640
sg82
g78
sg75
(lp2641
g68
(g89
g70
NtRp2642
(dp2643
g73
(dp2644
g93
g94
ssg82
g2638
sg75
(lp2645
S'now'
p2646
asbag68
(g89
g70
NtRp2647
(dp2648
g73
(dp2649
g100
g101
ssg82
g2638
sg75
(lp2650
S':'
asbag68
(g89
g70
NtRp2651
(dp2652
g73
(dp2653
sg82
g2638
sg75
(lp2654
g68
(g69
g70
NtRp2655
(dp2656
g73
(dp2657
g81
I5
ssg82
g2651
sg75
(lp2658
S'datetime.datetime(2013, 4, 23, 10, 34, 1, 642078)'
p2659
asbasbasbag68
(g84
g70
NtRp2660
(dp2661
g73
(dp2662
sg82
g78
sg75
(lp2663
g68
(g89
g70
NtRp2664
(dp2665
g73
(dp2666
g93
g94
ssg82
g2660
sg75
(lp2667
S'post_vars'
p2668
asbag68
(g89
g70
NtRp2669
(dp2670
g73
(dp2671
g100
g101
ssg82
g2660
sg75
(lp2672
S':'
asbag68
(g89
g70
NtRp2673
(dp2674
g73
(dp2675
sg82
g2660
sg75
(lp2676
g68
(g69
g70
NtRp2677
(dp2678
g73
(dp2679
g81
I5
ssg82
g2673
sg75
(lp2680
g68
(g77
g70
NtRp2681
(dp2682
g73
(dp2683
g81
I4
ssg82
Nsg75
(lp2684
sbasbasbasbag68
(g84
g70
NtRp2685
(dp2686
g73
(dp2687
sg82
g78
sg75
(lp2688
g68
(g89
g70
NtRp2689
(dp2690
g73
(dp2691
g93
g94
ssg82
g2685
sg75
(lp2692
S'raw_args'
p2693
asbag68
(g89
g70
NtRp2694
(dp2695
g73
(dp2696
g100
g101
ssg82
g2685
sg75
(lp2697
S':'
asbag68
(g89
g70
NtRp2698
(dp2699
g73
(dp2700
sg82
g2685
sg75
(lp2701
g68
(g69
g70
NtRp2702
(dp2703
g73
(dp2704
g81
I5
ssg82
g2698
sg75
(lp2705
S''
asbasbasbag68
(g84
g70
NtRp2706
(dp2707
g73
(dp2708
sg82
g78
sg75
(lp2709
g68
(g89
g70
NtRp2710
(dp2711
g73
(dp2712
g93
g94
ssg82
g2706
sg75
(lp2713
S'raw_extension'
p2714
asbag68
(g89
g70
NtRp2715
(dp2716
g73
(dp2717
g100
g101
ssg82
g2706
sg75
(lp2718
S':'
asbag68
(g89
g70
NtRp2719
(dp2720
g73
(dp2721
sg82
g2706
sg75
(lp2722
g68
(g69
g70
NtRp2723
(dp2724
g73
(dp2725
g81
I5
ssg82
g2719
sg75
(lp2726
S'None'
p2727
asbasbasbag68
(g84
g70
NtRp2728
(dp2729
g73
(dp2730
sg82
g78
sg75
(lp2731
g68
(g89
g70
NtRp2732
(dp2733
g73
(dp2734
g93
g94
ssg82
g2728
sg75
(lp2735
S'url'
p2736
asbag68
(g89
g70
NtRp2737
(dp2738
g73
(dp2739
g100
g101
ssg82
g2728
sg75
(lp2740
S':'
asbag68
(g89
g70
NtRp2741
(dp2742
g73
(dp2743
sg82
g2728
sg75
(lp2744
g68
(g69
g70
NtRp2745
(dp2746
g73
(dp2747
g81
I5
ssg82
g2741
sg75
(lp2748
g1577
asbasbasbag68
(g84
g70
NtRp2749
(dp2750
g73
(dp2751
sg82
g78
sg75
(lp2752
g68
(g89
g70
NtRp2753
(dp2754
g73
(dp2755
g93
g94
ssg82
g2749
sg75
(lp2756
S'utcnow'
p2757
asbag68
(g89
g70
NtRp2758
(dp2759
g73
(dp2760
g100
g101
ssg82
g2749
sg75
(lp2761
S':'
asbag68
(g89
g70
NtRp2762
(dp2763
g73
(dp2764
sg82
g2749
sg75
(lp2765
g68
(g69
g70
NtRp2766
(dp2767
g73
(dp2768
g81
I5
ssg82
g2762
sg75
(lp2769
S'datetime.datetime(2013, 4, 23, 5, 4, 1, 642115)'
p2770
asbasbasbag68
(g84
g70
NtRp2771
(dp2772
g73
(dp2773
sg82
g78
sg75
(lp2774
g68
(g89
g70
NtRp2775
(dp2776
g73
(dp2777
g93
g94
ssg82
g2771
sg75
(lp2778
S'uuid'
p2779
asbag68
(g89
g70
NtRp2780
(dp2781
g73
(dp2782
g100
g101
ssg82
g2771
sg75
(lp2783
S':'
asbag68
(g89
g70
NtRp2784
(dp2785
g73
(dp2786
sg82
g2771
sg75
(lp2787
g68
(g69
g70
NtRp2788
(dp2789
g73
(dp2790
g81
I5
ssg82
g2784
sg75
(lp2791
S'BuySell/127.0.0.1.2013-04-23.10-34-01.ea24aec2-b1cf-4b1e-b680-0debe3fa1b30'
p2792
asbasbasbag68
(g84
g70
NtRp2793
(dp2794
g73
(dp2795
sg82
g78
sg75
(lp2796
g68
(g89
g70
NtRp2797
(dp2798
g73
(dp2799
g93
g94
ssg82
g2793
sg75
(lp2800
S'vars'
p2801
asbag68
(g89
g70
NtRp2802
(dp2803
g73
(dp2804
g100
g101
ssg82
g2793
sg75
(lp2805
S':'
asbag68
(g89
g70
NtRp2806
(dp2807
g73
(dp2808
sg82
g2793
sg75
(lp2809
g68
(g69
g70
NtRp2810
(dp2811
g73
(dp2812
g81
I5
ssg82
g2806
sg75
(lp2813
g68
(g77
g70
NtRp2814
(dp2815
g73
(dp2816
g81
I4
ssg82
Nsg75
(lp2817
sbasbasbasbag68
(g84
g70
NtRp2818
(dp2819
g73
(dp2820
sg82
g78
sg75
(lp2821
g68
(g89
g70
NtRp2822
(dp2823
g73
(dp2824
g93
g94
ssg82
g2818
sg75
(lp2825
S'wsgi'
p2826
asbag68
(g89
g70
NtRp2827
(dp2828
g73
(dp2829
g100
g101
ssg82
g2818
sg75
(lp2830
S':'
asbag68
(g89
g70
NtRp2831
(dp2832
g73
(dp2833
sg82
g2818
sg75
(lp2834
g68
(g69
g70
NtRp2835
(dp2836
g73
(dp2837
g81
I5
ssg82
g2831
sg75
(lp2838
g68
(g77
g70
NtRp2839
(dp2840
g73
(dp2841
g81
I4
ssg82
Nsg75
(lp2842
g68
(g84
g70
NtRp2843
(dp2844
g73
(dp2845
sg82
g2839
sg75
(lp2846
g68
(g89
g70
NtRp2847
(dp2848
g73
(dp2849
g93
g94
ssg82
g2843
sg75
(lp2850
S'environ'
p2851
asbag68
(g89
g70
NtRp2852
(dp2853
g73
(dp2854
g100
g101
ssg82
g2843
sg75
(lp2855
S':'
asbag68
(g89
g70
NtRp2856
(dp2857
g73
(dp2858
sg82
g2843
sg75
(lp2859
g68
(g69
g70
NtRp2860
(dp2861
g73
(dp2862
g81
I4
ssg82
g2856
sg75
(lp2863
g68
(g77
g70
NtRp2864
(dp2865
g73
(dp2866
g81
I3
ssg82
Nsg75
(lp2867
g68
(g84
g70
NtRp2868
(dp2869
g73
(dp2870
sg82
g2864
sg75
(lp2871
g68
(g89
g70
NtRp2872
(dp2873
g73
(dp2874
g93
g94
ssg82
g2868
sg75
(lp2875
S'HTTP_ACCEPT'
p2876
asbag68
(g89
g70
NtRp2877
(dp2878
g73
(dp2879
g100
g101
ssg82
g2868
sg75
(lp2880
S':'
asbag68
(g89
g70
NtRp2881
(dp2882
g73
(dp2883
sg82
g2868
sg75
(lp2884
g68
(g69
g70
NtRp2885
(dp2886
g73
(dp2887
g81
I3
ssg82
g2881
sg75
(lp2888
g1225
asbasbasbag68
(g84
g70
NtRp2889
(dp2890
g73
(dp2891
sg82
g2864
sg75
(lp2892
g68
(g89
g70
NtRp2893
(dp2894
g73
(dp2895
g93
g94
ssg82
g2889
sg75
(lp2896
S'HTTP_ACCEPT_CHARSET'
p2897
asbag68
(g89
g70
NtRp2898
(dp2899
g73
(dp2900
g100
g101
ssg82
g2889
sg75
(lp2901
S':'
asbag68
(g89
g70
NtRp2902
(dp2903
g73
(dp2904
sg82
g2889
sg75
(lp2905
g68
(g69
g70
NtRp2906
(dp2907
g73
(dp2908
g81
I3
ssg82
g2902
sg75
(lp2909
g1247
asbasbasbag68
(g84
g70
NtRp2910
(dp2911
g73
(dp2912
sg82
g2864
sg75
(lp2913
g68
(g89
g70
NtRp2914
(dp2915
g73
(dp2916
g93
g94
ssg82
g2910
sg75
(lp2917
S'HTTP_ACCEPT_ENCODING'
p2918
asbag68
(g89
g70
NtRp2919
(dp2920
g73
(dp2921
g100
g101
ssg82
g2910
sg75
(lp2922
S':'
asbag68
(g89
g70
NtRp2923
(dp2924
g73
(dp2925
sg82
g2910
sg75
(lp2926
g68
(g69
g70
NtRp2927
(dp2928
g73
(dp2929
g81
I3
ssg82
g2923
sg75
(lp2930
g1269
asbasbasbag68
(g84
g70
NtRp2931
(dp2932
g73
(dp2933
sg82
g2864
sg75
(lp2934
g68
(g89
g70
NtRp2935
(dp2936
g73
(dp2937
g93
g94
ssg82
g2931
sg75
(lp2938
S'HTTP_ACCEPT_LANGUAGE'
p2939
asbag68
(g89
g70
NtRp2940
(dp2941
g73
(dp2942
g100
g101
ssg82
g2931
sg75
(lp2943
S':'
asbag68
(g89
g70
NtRp2944
(dp2945
g73
(dp2946
sg82
g2931
sg75
(lp2947
g68
(g69
g70
NtRp2948
(dp2949
g73
(dp2950
g81
I3
ssg82
g2944
sg75
(lp2951
g1291
asbasbasbag68
(g84
g70
NtRp2952
(dp2953
g73
(dp2954
sg82
g2864
sg75
(lp2955
g68
(g89
g70
NtRp2956
(dp2957
g73
(dp2958
g93
g94
ssg82
g2952
sg75
(lp2959
S'HTTP_CACHE_CONTROL'
p2960
asbag68
(g89
g70
NtRp2961
(dp2962
g73
(dp2963
g100
g101
ssg82
g2952
sg75
(lp2964
S':'
asbag68
(g89
g70
NtRp2965
(dp2966
g73
(dp2967
sg82
g2952
sg75
(lp2968
g68
(g69
g70
NtRp2969
(dp2970
g73
(dp2971
g81
I3
ssg82
g2965
sg75
(lp2972
g1313
asbasbasbag68
(g84
g70
NtRp2973
(dp2974
g73
(dp2975
sg82
g2864
sg75
(lp2976
g68
(g89
g70
NtRp2977
(dp2978
g73
(dp2979
g93
g94
ssg82
g2973
sg75
(lp2980
S'HTTP_CONNECTION'
p2981
asbag68
(g89
g70
NtRp2982
(dp2983
g73
(dp2984
g100
g101
ssg82
g2973
sg75
(lp2985
S':'
asbag68
(g89
g70
NtRp2986
(dp2987
g73
(dp2988
sg82
g2973
sg75
(lp2989
g68
(g69
g70
NtRp2990
(dp2991
g73
(dp2992
g81
I3
ssg82
g2986
sg75
(lp2993
g1335
asbasbasbag68
(g84
g70
NtRp2994
(dp2995
g73
(dp2996
sg82
g2864
sg75
(lp2997
g68
(g89
g70
NtRp2998
(dp2999
g73
(dp3000
g93
g94
ssg82
g2994
sg75
(lp3001
S'HTTP_COOKIE'
p3002
asbag68
(g89
g70
NtRp3003
(dp3004
g73
(dp3005
g100
g101
ssg82
g2994
sg75
(lp3006
S':'
asbag68
(g89
g70
NtRp3007
(dp3008
g73
(dp3009
sg82
g2994
sg75
(lp3010
g68
(g69
g70
NtRp3011
(dp3012
g73
(dp3013
g81
I3
ssg82
g3007
sg75
(lp3014
g1357
asbasbasbag68
(g84
g70
NtRp3015
(dp3016
g73
(dp3017
sg82
g2864
sg75
(lp3018
g68
(g89
g70
NtRp3019
(dp3020
g73
(dp3021
g93
g94
ssg82
g3015
sg75
(lp3022
S'HTTP_HOST'
p3023
asbag68
(g89
g70
NtRp3024
(dp3025
g73
(dp3026
g100
g101
ssg82
g3015
sg75
(lp3027
S':'
asbag68
(g89
g70
NtRp3028
(dp3029
g73
(dp3030
sg82
g3015
sg75
(lp3031
g68
(g69
g70
NtRp3032
(dp3033
g73
(dp3034
g81
I3
ssg82
g3028
sg75
(lp3035
g1379
asbasbasbag68
(g84
g70
NtRp3036
(dp3037
g73
(dp3038
sg82
g2864
sg75
(lp3039
g68
(g89
g70
NtRp3040
(dp3041
g73
(dp3042
g93
g94
ssg82
g3036
sg75
(lp3043
S'HTTP_REFERER'
p3044
asbag68
(g89
g70
NtRp3045
(dp3046
g73
(dp3047
g100
g101
ssg82
g3036
sg75
(lp3048
S':'
asbag68
(g89
g70
NtRp3049
(dp3050
g73
(dp3051
sg82
g3036
sg75
(lp3052
g68
(g69
g70
NtRp3053
(dp3054
g73
(dp3055
g81
I3
ssg82
g3049
sg75
(lp3056
g1401
asbasbasbag68
(g84
g70
NtRp3057
(dp3058
g73
(dp3059
sg82
g2864
sg75
(lp3060
g68
(g89
g70
NtRp3061
(dp3062
g73
(dp3063
g93
g94
ssg82
g3057
sg75
(lp3064
S'HTTP_USER_AGENT'
p3065
asbag68
(g89
g70
NtRp3066
(dp3067
g73
(dp3068
g100
g101
ssg82
g3057
sg75
(lp3069
S':'
asbag68
(g89
g70
NtRp3070
(dp3071
g73
(dp3072
sg82
g3057
sg75
(lp3073
g68
(g69
g70
NtRp3074
(dp3075
g73
(dp3076
g81
I3
ssg82
g3070
sg75
(lp3077
g1423
asbasbasbag68
(g84
g70
NtRp3078
(dp3079
g73
(dp3080
sg82
g2864
sg75
(lp3081
g68
(g89
g70
NtRp3082
(dp3083
g73
(dp3084
g93
g94
ssg82
g3078
sg75
(lp3085
S'PATH_INFO'
p3086
asbag68
(g89
g70
NtRp3087
(dp3088
g73
(dp3089
g100
g101
ssg82
g3078
sg75
(lp3090
S':'
asbag68
(g89
g70
NtRp3091
(dp3092
g73
(dp3093
sg82
g3078
sg75
(lp3094
g68
(g69
g70
NtRp3095
(dp3096
g73
(dp3097
g81
I3
ssg82
g3091
sg75
(lp3098
g1577
asbasbasbag68
(g84
g70
NtRp3099
(dp3100
g73
(dp3101
sg82
g2864
sg75
(lp3102
g68
(g89
g70
NtRp3103
(dp3104
g73
(dp3105
g93
g94
ssg82
g3099
sg75
(lp3106
S'QUERY_STRING'
p3107
asbag68
(g89
g70
NtRp3108
(dp3109
g73
(dp3110
g100
g101
ssg82
g3099
sg75
(lp3111
S':'
asbag68
(g89
g70
NtRp3112
(dp3113
g73
(dp3114
sg82
g3099
sg75
(lp3115
g68
(g69
g70
NtRp3116
(dp3117
g73
(dp3118
g81
I3
ssg82
g3112
sg75
(lp3119
S''
asbasbasbag68
(g84
g70
NtRp3120
(dp3121
g73
(dp3122
sg82
g2864
sg75
(lp3123
g68
(g89
g70
NtRp3124
(dp3125
g73
(dp3126
g93
g94
ssg82
g3120
sg75
(lp3127
S'REMOTE_ADDR'
p3128
asbag68
(g89
g70
NtRp3129
(dp3130
g73
(dp3131
g100
g101
ssg82
g3120
sg75
(lp3132
S':'
asbag68
(g89
g70
NtRp3133
(dp3134
g73
(dp3135
sg82
g3120
sg75
(lp3136
g68
(g69
g70
NtRp3137
(dp3138
g73
(dp3139
g81
I3
ssg82
g3133
sg75
(lp3140
g223
asbasbasbag68
(g84
g70
NtRp3141
(dp3142
g73
(dp3143
sg82
g2864
sg75
(lp3144
g68
(g89
g70
NtRp3145
(dp3146
g73
(dp3147
g93
g94
ssg82
g3141
sg75
(lp3148
S'REMOTE_PORT'
p3149
asbag68
(g89
g70
NtRp3150
(dp3151
g73
(dp3152
g100
g101
ssg82
g3141
sg75
(lp3153
S':'
asbag68
(g89
g70
NtRp3154
(dp3155
g73
(dp3156
sg82
g3141
sg75
(lp3157
g68
(g69
g70
NtRp3158
(dp3159
g73
(dp3160
g81
I3
ssg82
g3154
sg75
(lp3161
g1641
asbasbasbag68
(g84
g70
NtRp3162
(dp3163
g73
(dp3164
sg82
g2864
sg75
(lp3165
g68
(g89
g70
NtRp3166
(dp3167
g73
(dp3168
g93
g94
ssg82
g3162
sg75
(lp3169
S'REQUEST_METHOD'
p3170
asbag68
(g89
g70
NtRp3171
(dp3172
g73
(dp3173
g100
g101
ssg82
g3162
sg75
(lp3174
S':'
asbag68
(g89
g70
NtRp3175
(dp3176
g73
(dp3177
sg82
g3162
sg75
(lp3178
g68
(g69
g70
NtRp3179
(dp3180
g73
(dp3181
g81
I3
ssg82
g3175
sg75
(lp3182
g1663
asbasbasbag68
(g84
g70
NtRp3183
(dp3184
g73
(dp3185
sg82
g2864
sg75
(lp3186
g68
(g89
g70
NtRp3187
(dp3188
g73
(dp3189
g93
g94
ssg82
g3183
sg75
(lp3190
S'REQUEST_URI'
p3191
asbag68
(g89
g70
NtRp3192
(dp3193
g73
(dp3194
g100
g101
ssg82
g3183
sg75
(lp3195
S':'
asbag68
(g89
g70
NtRp3196
(dp3197
g73
(dp3198
sg82
g3183
sg75
(lp3199
g68
(g69
g70
NtRp3200
(dp3201
g73
(dp3202
g81
I3
ssg82
g3196
sg75
(lp3203
g1577
asbasbasbag68
(g84
g70
NtRp3204
(dp3205
g73
(dp3206
sg82
g2864
sg75
(lp3207
g68
(g89
g70
NtRp3208
(dp3209
g73
(dp3210
g93
g94
ssg82
g3204
sg75
(lp3211
S'SCRIPT_NAME'
p3212
asbag68
(g89
g70
NtRp3213
(dp3214
g73
(dp3215
g100
g101
ssg82
g3204
sg75
(lp3216
S':'
asbag68
(g89
g70
NtRp3217
(dp3218
g73
(dp3219
sg82
g3204
sg75
(lp3220
g68
(g69
g70
NtRp3221
(dp3222
g73
(dp3223
g81
I3
ssg82
g3217
sg75
(lp3224
S''
asbasbasbag68
(g84
g70
NtRp3225
(dp3226
g73
(dp3227
sg82
g2864
sg75
(lp3228
g68
(g89
g70
NtRp3229
(dp3230
g73
(dp3231
g93
g94
ssg82
g3225
sg75
(lp3232
S'SERVER_NAME'
p3233
asbag68
(g89
g70
NtRp3234
(dp3235
g73
(dp3236
g100
g101
ssg82
g3225
sg75
(lp3237
S':'
asbag68
(g89
g70
NtRp3238
(dp3239
g73
(dp3240
sg82
g3225
sg75
(lp3241
g68
(g69
g70
NtRp3242
(dp3243
g73
(dp3244
g81
I3
ssg82
g3238
sg75
(lp3245
g1727
asbasbasbag68
(g84
g70
NtRp3246
(dp3247
g73
(dp3248
sg82
g2864
sg75
(lp3249
g68
(g89
g70
NtRp3250
(dp3251
g73
(dp3252
g93
g94
ssg82
g3246
sg75
(lp3253
S'SERVER_PORT'
p3254
asbag68
(g89
g70
NtRp3255
(dp3256
g73
(dp3257
g100
g101
ssg82
g3246
sg75
(lp3258
S':'
asbag68
(g89
g70
NtRp3259
(dp3260
g73
(dp3261
sg82
g3246
sg75
(lp3262
g68
(g69
g70
NtRp3263
(dp3264
g73
(dp3265
g81
I3
ssg82
g3259
sg75
(lp3266
g1749
asbasbasbag68
(g84
g70
NtRp3267
(dp3268
g73
(dp3269
sg82
g2864
sg75
(lp3270
g68
(g89
g70
NtRp3271
(dp3272
g73
(dp3273
g93
g94
ssg82
g3267
sg75
(lp3274
S'SERVER_PROTOCOL'
p3275
asbag68
(g89
g70
NtRp3276
(dp3277
g73
(dp3278
g100
g101
ssg82
g3267
sg75
(lp3279
S':'
asbag68
(g89
g70
NtRp3280
(dp3281
g73
(dp3282
sg82
g3267
sg75
(lp3283
g68
(g69
g70
NtRp3284
(dp3285
g73
(dp3286
g81
I3
ssg82
g3280
sg75
(lp3287
g1771
asbasbasbag68
(g84
g70
NtRp3288
(dp3289
g73
(dp3290
sg82
g2864
sg75
(lp3291
g68
(g89
g70
NtRp3292
(dp3293
g73
(dp3294
g93
g94
ssg82
g3288
sg75
(lp3295
S'SERVER_SOFTWARE'
p3296
asbag68
(g89
g70
NtRp3297
(dp3298
g73
(dp3299
g100
g101
ssg82
g3288
sg75
(lp3300
S':'
asbag68
(g89
g70
NtRp3301
(dp3302
g73
(dp3303
sg82
g3288
sg75
(lp3304
g68
(g69
g70
NtRp3305
(dp3306
g73
(dp3307
g81
I3
ssg82
g3301
sg75
(lp3308
g1793
asbasbasbag68
(g84
g70
NtRp3309
(dp3310
g73
(dp3311
sg82
g2864
sg75
(lp3312
g68
(g89
g70
NtRp3313
(dp3314
g73
(dp3315
g93
g94
ssg82
g3309
sg75
(lp3316
S'wsgi.errors'
p3317
asbag68
(g89
g70
NtRp3318
(dp3319
g73
(dp3320
g100
g101
ssg82
g3309
sg75
(lp3321
S':'
asbag68
(g89
g70
NtRp3322
(dp3323
g73
(dp3324
sg82
g3309
sg75
(lp3325
g68
(g69
g70
NtRp3326
(dp3327
g73
(dp3328
g81
I3
ssg82
g3322
sg75
(lp3329
S"<open file '<stderr>', mode 'w' at 0xb78080d0>"
p3330
asbasbasbag68
(g84
g70
NtRp3331
(dp3332
g73
(dp3333
sg82
g2864
sg75
(lp3334
g68
(g89
g70
NtRp3335
(dp3336
g73
(dp3337
g93
g94
ssg82
g3331
sg75
(lp3338
S'wsgi.file_wrapper'
p3339
asbag68
(g89
g70
NtRp3340
(dp3341
g73
(dp3342
g100
g101
ssg82
g3331
sg75
(lp3343
S':'
asbag68
(g89
g70
NtRp3344
(dp3345
g73
(dp3346
sg82
g3331
sg75
(lp3347
g68
(g69
g70
NtRp3348
(dp3349
g73
(dp3350
g81
I3
ssg82
g3344
sg75
(lp3351
S'<class wsgiref.util.FileWrapper at 0x9a2dcbc>'
p3352
asbasbasbag68
(g84
g70
NtRp3353
(dp3354
g73
(dp3355
sg82
g2864
sg75
(lp3356
g68
(g89
g70
NtRp3357
(dp3358
g73
(dp3359
g93
g94
ssg82
g3353
sg75
(lp3360
S'wsgi.input'
p3361
asbag68
(g89
g70
NtRp3362
(dp3363
g73
(dp3364
g100
g101
ssg82
g3353
sg75
(lp3365
S':'
asbag68
(g89
g70
NtRp3366
(dp3367
g73
(dp3368
sg82
g3353
sg75
(lp3369
g68
(g69
g70
NtRp3370
(dp3371
g73
(dp3372
g81
I3
ssg82
g3366
sg75
(lp3373
S'<cStringIO.StringO object at 0xa65ac80>'
p3374
asbasbasbag68
(g84
g70
NtRp3375
(dp3376
g73
(dp3377
sg82
g2864
sg75
(lp3378
g68
(g89
g70
NtRp3379
(dp3380
g73
(dp3381
g93
g94
ssg82
g3375
sg75
(lp3382
S'wsgi.multiprocess'
p3383
asbag68
(g89
g70
NtRp3384
(dp3385
g73
(dp3386
g100
g101
ssg82
g3375
sg75
(lp3387
S':'
asbag68
(g89
g70
NtRp3388
(dp3389
g73
(dp3390
sg82
g3375
sg75
(lp3391
g68
(g69
g70
NtRp3392
(dp3393
g73
(dp3394
g81
I3
ssg82
g3388
sg75
(lp3395
g111
asbasbasbag68
(g84
g70
NtRp3396
(dp3397
g73
(dp3398
sg82
g2864
sg75
(lp3399
g68
(g89
g70
NtRp3400
(dp3401
g73
(dp3402
g93
g94
ssg82
g3396
sg75
(lp3403
S'wsgi.multithread'
p3404
asbag68
(g89
g70
NtRp3405
(dp3406
g73
(dp3407
g100
g101
ssg82
g3396
sg75
(lp3408
S':'
asbag68
(g89
g70
NtRp3409
(dp3410
g73
(dp3411
sg82
g3396
sg75
(lp3412
g68
(g69
g70
NtRp3413
(dp3414
g73
(dp3415
g81
I3
ssg82
g3409
sg75
(lp3416
g2010
asbasbasbag68
(g84
g70
NtRp3417
(dp3418
g73
(dp3419
sg82
g2864
sg75
(lp3420
g68
(g89
g70
NtRp3421
(dp3422
g73
(dp3423
g93
g94
ssg82
g3417
sg75
(lp3424
S'wsgi.run_once'
p3425
asbag68
(g89
g70
NtRp3426
(dp3427
g73
(dp3428
g100
g101
ssg82
g3417
sg75
(lp3429
S':'
asbag68
(g89
g70
NtRp3430
(dp3431
g73
(dp3432
sg82
g3417
sg75
(lp3433
g68
(g69
g70
NtRp3434
(dp3435
g73
(dp3436
g81
I3
ssg82
g3430
sg75
(lp3437
g111
asbasbasbag68
(g84
g70
NtRp3438
(dp3439
g73
(dp3440
sg82
g2864
sg75
(lp3441
g68
(g89
g70
NtRp3442
(dp3443
g73
(dp3444
g93
g94
ssg82
g3438
sg75
(lp3445
S'wsgi.url_scheme'
p3446
asbag68
(g89
g70
NtRp3447
(dp3448
g73
(dp3449
g100
g101
ssg82
g3438
sg75
(lp3450
S':'
asbag68
(g89
g70
NtRp3451
(dp3452
g73
(dp3453
sg82
g3438
sg75
(lp3454
g68
(g69
g70
NtRp3455
(dp3456
g73
(dp3457
g81
I3
ssg82
g3451
sg75
(lp3458
g2053
asbasbasbag68
(g84
g70
NtRp3459
(dp3460
g73
(dp3461
sg82
g2864
sg75
(lp3462
g68
(g89
g70
NtRp3463
(dp3464
g73
(dp3465
g93
g94
ssg82
g3459
sg75
(lp3466
S'wsgi.version'
p3467
asbag68
(g89
g70
NtRp3468
(dp3469
g73
(dp3470
g100
g101
ssg82
g3459
sg75
(lp3471
S':'
asbag68
(g89
g70
NtRp3472
(dp3473
g73
(dp3474
sg82
g3459
sg75
(lp3475
g68
(g69
g70
NtRp3476
(dp3477
g73
(dp3478
g81
I3
ssg82
g3472
sg75
(lp3479
S'1'
asbasbasbasbasbasbasbasbasbasbasbasbasbsS'frames'
p3480
(lp3481
(dp3482
S'file'
p3483
S'/home/pratyush/web2py/gluon/restricted.py'
p3484
sS'dump'
p3485
(dp3486
S'code'
p3487
S'\'response.write(\\\'<!DOCTYPE html>\\\\n<!-- paulirish...."></script>\\\\n</body>\\\\n</html>\\\\n\\\\n\\\', escape=False)\''
p3488
sS'layer'
p3489
S"'/home/pratyush/web2py/applications/BuySell/views/default/list_items.html'"
p3490
sS'global compile2'
p3491
S'<function compile2>'
p3492
sS'ccode'
p3493
S'undefined'
p3494
ssS'lnum'
p3495
I211
sS'lines'
p3496
(dp3497
I206
S"    environment['__name__'] = '__restricted__'"
p3498
sI207
S'    try:'
p3499
sI208
S'        if isinstance(code, types.CodeType):'
p3500
sI209
S'            ccode = code'
p3501
sI210
S'        else:'
p3502
sI211
S'            ccode = compile2(code, layer)'
p3503
sI212
S'        exec ccode in environment'
p3504
sI213
S'    except HTTP:'
p3505
sI214
S'        raise'
p3506
sI215
S'    except RestrictedError:'
p3507
ssS'call'
p3508
S'(code=\'response.write(\\\'<!DOCTYPE html>\\\\n<!-- paulirish...."></script>\\\\n</body>\\\\n</html>\\\\n\\\\n\\\', escape=False)\', environment={\'A\': <class \'gluon.html.A\'>, \'Auth\': <class \'gluon.tools.Auth\'>, \'B\': <class \'gluon.html.B\'>, \'BEAUTIFY\': <class \'gluon.html.BEAUTIFY\'>, \'BODY\': <class \'gluon.html.BODY\'>, \'BR\': <class \'gluon.html.BR\'>, \'BUTTON\': <class \'gluon.html.BUTTON\'>, \'CAT\': <class \'gluon.html.CAT\'>, \'CENTER\': <class \'gluon.html.CENTER\'>, \'CLEANUP\': <class \'gluon.validators.CLEANUP\'>, ...}, layer=\'/home/pratyush/web2py/applications/BuySell/views/default/list_items.html\')'
p3509
sS'func'
p3510
S'restricted'
p3511
sa(dp3512
g3483
S'/home/pratyush/web2py/gluon/restricted.py'
p3513
sg3485
(dp3514
S'builtincompile'
p3515
S'<built-in function compile>'
p3516
sS'code'
p3517
S'\'response.write(\\\'<!DOCTYPE html>\\\\n<!-- paulirish...."></script>\\\\n</body>\\\\n</html>\\\\n\\\\n\\\', escape=False)\''
p3518
sS'code.rstrip'
p3519
S'<built-in method rstrip of str object>'
p3520
sS').replace'
p3521
g3494
sS'layer'
p3522
S"'/home/pratyush/web2py/applications/BuySell/views/default/list_items.html'"
p3523
ssg3495
I194
sg3496
(dp3524
I192
S"    The +'\\n' is necessary else compile fails when code ends in a comment."
p3525
sI193
S'    """'
p3526
sI194
S"    return compile(code.rstrip().replace('\\r\\n', '\\n') + '\\n', layer, 'exec')"
p3527
sI195
S''
sI196
S''
sI197
S"def restricted(code, environment=None, layer='Unknown'):"
p3528
sI198
S'    """'
p3529
sI189
S''
sI190
S'def compile2(code, layer):'
p3530
sI191
S'    """'
p3531
ssg3508
S'(code=\'response.write(\\\'<!DOCTYPE html>\\\\n<!-- paulirish...."></script>\\\\n</body>\\\\n</html>\\\\n\\\\n\\\', escape=False)\', layer=\'/home/pratyush/web2py/applications/BuySell/views/default/list_items.html\')'
p3532
sg3510
S'compile2'
p3533
sasS'pyver'
p3534
S'Python 2.7.2+: /usr/bin/python2.7'
p3535
sS'session'
p3536
g68
(g69
g70
NtRp3537
(dp3538
g73
(dp3539
sg75
(lp3540
g68
(g77
g70
NtRp3541
(dp3542
g73
(dp3543
g81
I5
ssg82
Nsg75
(lp3544
g68
(g84
g70
NtRp3545
(dp3546
g73
(dp3547
sg82
g3541
sg75
(lp3548
g68
(g89
g70
NtRp3549
(dp3550
g73
(dp3551
g93
g94
ssg82
g3545
sg75
(lp3552
S'auth'
p3553
asbag68
(g89
g70
NtRp3554
(dp3555
g73
(dp3556
g100
g101
ssg82
g3545
sg75
(lp3557
S':'
asbag68
(g89
g70
NtRp3558
(dp3559
g73
(dp3560
sg82
g3545
sg75
(lp3561
g68
(g69
g70
NtRp3562
(dp3563
g73
(dp3564
g81
I5
ssg82
g3558
sg75
(lp3565
g68
(g77
g70
NtRp3566
(dp3567
g73
(dp3568
g81
I4
ssg82
Nsg75
(lp3569
g68
(g84
g70
NtRp3570
(dp3571
g73
(dp3572
sg82
g3566
sg75
(lp3573
g68
(g89
g70
NtRp3574
(dp3575
g73
(dp3576
g93
g94
ssg82
g3570
sg75
(lp3577
S'expiration'
p3578
asbag68
(g89
g70
NtRp3579
(dp3580
g73
(dp3581
g100
g101
ssg82
g3570
sg75
(lp3582
S':'
asbag68
(g89
g70
NtRp3583
(dp3584
g73
(dp3585
sg82
g3570
sg75
(lp3586
g68
(g69
g70
NtRp3587
(dp3588
g73
(dp3589
g81
I4
ssg82
g3583
sg75
(lp3590
S'3600'
p3591
asbasbasbag68
(g84
g70
NtRp3592
(dp3593
g73
(dp3594
sg82
g3566
sg75
(lp3595
g68
(g89
g70
NtRp3596
(dp3597
g73
(dp3598
g93
g94
ssg82
g3592
sg75
(lp3599
S'hmac_key'
p3600
asbag68
(g89
g70
NtRp3601
(dp3602
g73
(dp3603
g100
g101
ssg82
g3592
sg75
(lp3604
S':'
asbag68
(g89
g70
NtRp3605
(dp3606
g73
(dp3607
sg82
g3592
sg75
(lp3608
g68
(g69
g70
NtRp3609
(dp3610
g73
(dp3611
g81
I4
ssg82
g3605
sg75
(lp3612
S'90ed2782-b33b-4249-8b8c-dcff0b943064'
p3613
asbasbasbag68
(g84
g70
NtRp3614
(dp3615
g73
(dp3616
sg82
g3566
sg75
(lp3617
g68
(g89
g70
NtRp3618
(dp3619
g73
(dp3620
g93
g94
ssg82
g3614
sg75
(lp3621
S'last_visit'
p3622
asbag68
(g89
g70
NtRp3623
(dp3624
g73
(dp3625
g100
g101
ssg82
g3614
sg75
(lp3626
S':'
asbag68
(g89
g70
NtRp3627
(dp3628
g73
(dp3629
sg82
g3614
sg75
(lp3630
g68
(g69
g70
NtRp3631
(dp3632
g73
(dp3633
g81
I4
ssg82
g3627
sg75
(lp3634
S'datetime.datetime(2013, 4, 23, 10, 34, 1, 642078)'
p3635
asbasbasbag68
(g84
g70
NtRp3636
(dp3637
g73
(dp3638
sg82
g3566
sg75
(lp3639
g68
(g89
g70
NtRp3640
(dp3641
g73
(dp3642
g93
g94
ssg82
g3636
sg75
(lp3643
S'remember'
p3644
asbag68
(g89
g70
NtRp3645
(dp3646
g73
(dp3647
g100
g101
ssg82
g3636
sg75
(lp3648
S':'
asbag68
(g89
g70
NtRp3649
(dp3650
g73
(dp3651
sg82
g3636
sg75
(lp3652
g68
(g69
g70
NtRp3653
(dp3654
g73
(dp3655
g81
I4
ssg82
g3649
sg75
(lp3656
g111
asbasbasbag68
(g84
g70
NtRp3657
(dp3658
g73
(dp3659
sg82
g3566
sg75
(lp3660
g68
(g89
g70
NtRp3661
(dp3662
g73
(dp3663
g93
g94
ssg82
g3657
sg75
(lp3664
S'user'
p3665
asbag68
(g89
g70
NtRp3666
(dp3667
g73
(dp3668
g100
g101
ssg82
g3657
sg75
(lp3669
S':'
asbag68
(g89
g70
NtRp3670
(dp3671
g73
(dp3672
sg82
g3657
sg75
(lp3673
g68
(g69
g70
NtRp3674
(dp3675
g73
(dp3676
g81
I4
ssg82
g3670
sg75
(lp3677
g68
(g77
g70
NtRp3678
(dp3679
g73
(dp3680
g81
I3
ssg82
Nsg75
(lp3681
g68
(g84
g70
NtRp3682
(dp3683
g73
(dp3684
sg82
g3678
sg75
(lp3685
g68
(g89
g70
NtRp3686
(dp3687
g73
(dp3688
g93
g94
ssg82
g3682
sg75
(lp3689
S'email'
p3690
asbag68
(g89
g70
NtRp3691
(dp3692
g73
(dp3693
g100
g101
ssg82
g3682
sg75
(lp3694
S':'
asbag68
(g89
g70
NtRp3695
(dp3696
g73
(dp3697
sg82
g3682
sg75
(lp3698
g68
(g69
g70
NtRp3699
(dp3700
g73
(dp3701
g81
I3
ssg82
g3695
sg75
(lp3702
S'pratyush.nigam@gmail.com'
p3703
asbasbasbag68
(g84
g70
NtRp3704
(dp3705
g73
(dp3706
sg82
g3678
sg75
(lp3707
g68
(g89
g70
NtRp3708
(dp3709
g73
(dp3710
g93
g94
ssg82
g3704
sg75
(lp3711
S'first_name'
p3712
asbag68
(g89
g70
NtRp3713
(dp3714
g73
(dp3715
g100
g101
ssg82
g3704
sg75
(lp3716
S':'
asbag68
(g89
g70
NtRp3717
(dp3718
g73
(dp3719
sg82
g3704
sg75
(lp3720
g68
(g69
g70
NtRp3721
(dp3722
g73
(dp3723
g81
I3
ssg82
g3717
sg75
(lp3724
S'Pratyush'
p3725
asbasbasbag68
(g84
g70
NtRp3726
(dp3727
g73
(dp3728
sg82
g3678
sg75
(lp3729
g68
(g89
g70
NtRp3730
(dp3731
g73
(dp3732
g93
g94
ssg82
g3726
sg75
(lp3733
S'id'
p3734
asbag68
(g89
g70
NtRp3735
(dp3736
g73
(dp3737
g100
g101
ssg82
g3726
sg75
(lp3738
S':'
asbag68
(g89
g70
NtRp3739
(dp3740
g73
(dp3741
sg82
g3726
sg75
(lp3742
g68
(g69
g70
NtRp3743
(dp3744
g73
(dp3745
g81
I3
ssg82
g3739
sg75
(lp3746
S'1'
asbasbasbag68
(g84
g70
NtRp3747
(dp3748
g73
(dp3749
sg82
g3678
sg75
(lp3750
g68
(g89
g70
NtRp3751
(dp3752
g73
(dp3753
g93
g94
ssg82
g3747
sg75
(lp3754
S'last_name'
p3755
asbag68
(g89
g70
NtRp3756
(dp3757
g73
(dp3758
g100
g101
ssg82
g3747
sg75
(lp3759
S':'
asbag68
(g89
g70
NtRp3760
(dp3761
g73
(dp3762
sg82
g3747
sg75
(lp3763
g68
(g69
g70
NtRp3764
(dp3765
g73
(dp3766
g81
I3
ssg82
g3760
sg75
(lp3767
S'Nigam'
p3768
asbasbasbag68
(g84
g70
NtRp3769
(dp3770
g73
(dp3771
sg82
g3678
sg75
(lp3772
g68
(g89
g70
NtRp3773
(dp3774
g73
(dp3775
g93
g94
ssg82
g3769
sg75
(lp3776
S'registration_id'
p3777
asbag68
(g89
g70
NtRp3778
(dp3779
g73
(dp3780
g100
g101
ssg82
g3769
sg75
(lp3781
S':'
asbag68
(g89
g70
NtRp3782
(dp3783
g73
(dp3784
sg82
g3769
sg75
(lp3785
g68
(g69
g70
NtRp3786
(dp3787
g73
(dp3788
g81
I3
ssg82
g3782
sg75
(lp3789
S''
asbasbasbag68
(g84
g70
NtRp3790
(dp3791
g73
(dp3792
sg82
g3678
sg75
(lp3793
g68
(g89
g70
NtRp3794
(dp3795
g73
(dp3796
g93
g94
ssg82
g3790
sg75
(lp3797
S'registration_key'
p3798
asbag68
(g89
g70
NtRp3799
(dp3800
g73
(dp3801
g100
g101
ssg82
g3790
sg75
(lp3802
S':'
asbag68
(g89
g70
NtRp3803
(dp3804
g73
(dp3805
sg82
g3790
sg75
(lp3806
g68
(g69
g70
NtRp3807
(dp3808
g73
(dp3809
g81
I3
ssg82
g3803
sg75
(lp3810
S''
asbasbasbag68
(g84
g70
NtRp3811
(dp3812
g73
(dp3813
sg82
g3678
sg75
(lp3814
g68
(g89
g70
NtRp3815
(dp3816
g73
(dp3817
g93
g94
ssg82
g3811
sg75
(lp3818
S'reset_password_key'
p3819
asbag68
(g89
g70
NtRp3820
(dp3821
g73
(dp3822
g100
g101
ssg82
g3811
sg75
(lp3823
S':'
asbag68
(g89
g70
NtRp3824
(dp3825
g73
(dp3826
sg82
g3811
sg75
(lp3827
g68
(g69
g70
NtRp3828
(dp3829
g73
(dp3830
g81
I3
ssg82
g3824
sg75
(lp3831
S''
asbasbasbasbasbasbasbag68
(g84
g70
NtRp3832
(dp3833
g73
(dp3834
sg82
g3566
sg75
(lp3835
g68
(g89
g70
NtRp3836
(dp3837
g73
(dp3838
g93
g94
ssg82
g3832
sg75
(lp3839
S'user_groups'
p3840
asbag68
(g89
g70
NtRp3841
(dp3842
g73
(dp3843
g100
g101
ssg82
g3832
sg75
(lp3844
S':'
asbag68
(g89
g70
NtRp3845
(dp3846
g73
(dp3847
sg82
g3832
sg75
(lp3848
g68
(g69
g70
NtRp3849
(dp3850
g73
(dp3851
g81
I4
ssg82
g3845
sg75
(lp3852
g68
(g77
g70
NtRp3853
(dp3854
g73
(dp3855
g81
I3
ssg82
Nsg75
(lp3856
g68
(g84
g70
NtRp3857
(dp3858
g73
(dp3859
sg82
g3853
sg75
(lp3860
g68
(g89
g70
NtRp3861
(dp3862
g73
(dp3863
g93
g94
ssg82
g3857
sg75
(lp3864
S'1'
asbag68
(g89
g70
NtRp3865
(dp3866
g73
(dp3867
g100
g101
ssg82
g3857
sg75
(lp3868
S':'
asbag68
(g89
g70
NtRp3869
(dp3870
g73
(dp3871
sg82
g3857
sg75
(lp3872
g68
(g69
g70
NtRp3873
(dp3874
g73
(dp3875
g81
I3
ssg82
g3869
sg75
(lp3876
S'user_1'
p3877
asbasbasbasbasbasbasbasbasbasbasbag68
(g84
g70
NtRp3878
(dp3879
g73
(dp3880
sg82
g3541
sg75
(lp3881
g68
(g89
g70
NtRp3882
(dp3883
g73
(dp3884
g93
g94
ssg82
g3878
sg75
(lp3885
S'flash'
p3886
asbag68
(g89
g70
NtRp3887
(dp3888
g73
(dp3889
g100
g101
ssg82
g3878
sg75
(lp3890
S':'
asbag68
(g89
g70
NtRp3891
(dp3892
g73
(dp3893
sg82
g3878
sg75
(lp3894
g68
(g69
g70
NtRp3895
(dp3896
g73
(dp3897
g81
I5
ssg82
g3891
sg75
(lp3898
S'None'
p3899
asbasbasbag68
(g84
g70
NtRp3900
(dp3901
g73
(dp3902
sg82
g3541
sg75
(lp3903
g68
(g89
g70
NtRp3904
(dp3905
g73
(dp3906
g93
g94
ssg82
g3900
sg75
(lp3907
S'last_orderby'
p3908
asbag68
(g89
g70
NtRp3909
(dp3910
g73
(dp3911
g100
g101
ssg82
g3900
sg75
(lp3912
S':'
asbag68
(g89
g70
NtRp3913
(dp3914
g73
(dp3915
sg82
g3900
sg75
(lp3916
g68
(g69
g70
NtRp3917
(dp3918
g73
(dp3919
g81
I5
ssg82
g3913
sg75
(lp3920
S'None'
p3921
asbasbasbag68
(g84
g70
NtRp3922
(dp3923
g73
(dp3924
sg82
g3541
sg75
(lp3925
g68
(g89
g70
NtRp3926
(dp3927
g73
(dp3928
g93
g94
ssg82
g3922
sg75
(lp3929
S'last_query'
p3930
asbag68
(g89
g70
NtRp3931
(dp3932
g73
(dp3933
g100
g101
ssg82
g3922
sg75
(lp3934
S':'
asbag68
(g89
g70
NtRp3935
(dp3936
g73
(dp3937
sg82
g3922
sg75
(lp3938
g68
(g69
g70
NtRp3939
(dp3940
g73
(dp3941
g81
I5
ssg82
g3935
sg75
(lp3942
S'db.sold.id>0'
p3943
asbasbasbasbasbsS'etype'
p3944
S"<type 'exceptions.SyntaxError'>"
p3945
sS'date'
p3946
S'Tue Apr 23 10:34:01 2013'
p3947
sS'response'
p3948
g68
(g69
g70
NtRp3949
(dp3950
g73
(dp3951
sg75
(lp3952
g68
(g77
g70
NtRp3953
(dp3954
g73
(dp3955
g81
I5
ssg82
Nsg75
(lp3956
g68
(g84
g70
NtRp3957
(dp3958
g73
(dp3959
sg82
g3953
sg75
(lp3960
g68
(g89
g70
NtRp3961
(dp3962
g73
(dp3963
g93
g94
ssg82
g3957
sg75
(lp3964
g166
asbag68
(g89
g70
NtRp3965
(dp3966
g73
(dp3967
g100
g101
ssg82
g3957
sg75
(lp3968
S':'
asbag68
(g89
g70
NtRp3969
(dp3970
g73
(dp3971
sg82
g3957
sg75
(lp3972
g68
(g69
g70
NtRp3973
(dp3974
g73
(dp3975
g81
I5
ssg82
g3969
sg75
(lp3976
S'<cStringIO.StringO object at 0xa8788a0>'
p3977
asbasbasbag68
(g84
g70
NtRp3978
(dp3979
g73
(dp3980
sg82
g3953
sg75
(lp3981
g68
(g89
g70
NtRp3982
(dp3983
g73
(dp3984
g93
g94
ssg82
g3978
sg75
(lp3985
g254
asbag68
(g89
g70
NtRp3986
(dp3987
g73
(dp3988
g100
g101
ssg82
g3978
sg75
(lp3989
S':'
asbag68
(g89
g70
NtRp3990
(dp3991
g73
(dp3992
sg82
g3978
sg75
(lp3993
g68
(g69
g70
NtRp3994
(dp3995
g73
(dp3996
g81
I5
ssg82
g3990
sg75
(lp3997
g68
(g77
g70
NtRp3998
(dp3999
g73
(dp4000
g81
I4
ssg82
Nsg75
(lp4001
g68
(g84
g70
NtRp4002
(dp4003
g73
(dp4004
sg82
g3998
sg75
(lp4005
g68
(g89
g70
NtRp4006
(dp4007
g73
(dp4008
g93
g94
ssg82
g4002
sg75
(lp4009
S'session_id_buysell'
p4010
asbag68
(g89
g70
NtRp4011
(dp4012
g73
(dp4013
g100
g101
ssg82
g4002
sg75
(lp4014
S':'
asbag68
(g89
g70
NtRp4015
(dp4016
g73
(dp4017
sg82
g4002
sg75
(lp4018
g68
(g69
g70
NtRp4019
(dp4020
g73
(dp4021
g81
I4
ssg82
g4015
sg75
(lp4022
g672
ag68
(g77
g70
NtRp4023
(dp4024
g73
(dp4025
g81
I3
ssg82
Nsg75
(lp4026
g68
(g84
g70
NtRp4027
(dp4028
g73
(dp4029
sg82
g4023
sg75
(lp4030
g68
(g89
g70
NtRp4031
(dp4032
g73
(dp4033
g93
g94
ssg82
g4027
sg75
(lp4034
g305
asbag68
(g89
g70
NtRp4035
(dp4036
g73
(dp4037
g100
g101
ssg82
g4027
sg75
(lp4038
S':'
asbag68
(g89
g70
NtRp4039
(dp4040
g73
(dp4041
sg82
g4027
sg75
(lp4042
g68
(g69
g70
NtRp4043
(dp4044
g73
(dp4045
g81
I3
ssg82
g4039
sg75
(lp4046
S''
asbasbasbag68
(g84
g70
NtRp4047
(dp4048
g73
(dp4049
sg82
g4023
sg75
(lp4050
g68
(g89
g70
NtRp4051
(dp4052
g73
(dp4053
g93
g94
ssg82
g4047
sg75
(lp4054
g326
asbag68
(g89
g70
NtRp4055
(dp4056
g73
(dp4057
g100
g101
ssg82
g4047
sg75
(lp4058
S':'
asbag68
(g89
g70
NtRp4059
(dp4060
g73
(dp4061
sg82
g4047
sg75
(lp4062
g68
(g69
g70
NtRp4063
(dp4064
g73
(dp4065
g81
I3
ssg82
g4059
sg75
(lp4066
S''
asbasbasbag68
(g84
g70
NtRp4067
(dp4068
g73
(dp4069
sg82
g4023
sg75
(lp4070
g68
(g89
g70
NtRp4071
(dp4072
g73
(dp4073
g93
g94
ssg82
g4067
sg75
(lp4074
g347
asbag68
(g89
g70
NtRp4075
(dp4076
g73
(dp4077
g100
g101
ssg82
g4067
sg75
(lp4078
S':'
asbag68
(g89
g70
NtRp4079
(dp4080
g73
(dp4081
sg82
g4067
sg75
(lp4082
g68
(g69
g70
NtRp4083
(dp4084
g73
(dp4085
g81
I3
ssg82
g4079
sg75
(lp4086
S''
asbasbasbag68
(g84
g70
NtRp4087
(dp4088
g73
(dp4089
sg82
g4023
sg75
(lp4090
g68
(g89
g70
NtRp4091
(dp4092
g73
(dp4093
g93
g94
ssg82
g4087
sg75
(lp4094
g368
asbag68
(g89
g70
NtRp4095
(dp4096
g73
(dp4097
g100
g101
ssg82
g4087
sg75
(lp4098
S':'
asbag68
(g89
g70
NtRp4099
(dp4100
g73
(dp4101
sg82
g4087
sg75
(lp4102
g68
(g69
g70
NtRp4103
(dp4104
g73
(dp4105
g81
I3
ssg82
g4099
sg75
(lp4106
S''
asbasbasbag68
(g84
g70
NtRp4107
(dp4108
g73
(dp4109
sg82
g4023
sg75
(lp4110
g68
(g89
g70
NtRp4111
(dp4112
g73
(dp4113
g93
g94
ssg82
g4107
sg75
(lp4114
g389
asbag68
(g89
g70
NtRp4115
(dp4116
g73
(dp4117
g100
g101
ssg82
g4107
sg75
(lp4118
S':'
asbag68
(g89
g70
NtRp4119
(dp4120
g73
(dp4121
sg82
g4107
sg75
(lp4122
g68
(g69
g70
NtRp4123
(dp4124
g73
(dp4125
g81
I3
ssg82
g4119
sg75
(lp4126
S''
asbasbasbag68
(g84
g70
NtRp4127
(dp4128
g73
(dp4129
sg82
g4023
sg75
(lp4130
g68
(g89
g70
NtRp4131
(dp4132
g73
(dp4133
g93
g94
ssg82
g4127
sg75
(lp4134
g410
asbag68
(g89
g70
NtRp4135
(dp4136
g73
(dp4137
g100
g101
ssg82
g4127
sg75
(lp4138
S':'
asbag68
(g89
g70
NtRp4139
(dp4140
g73
(dp4141
sg82
g4127
sg75
(lp4142
g68
(g69
g70
NtRp4143
(dp4144
g73
(dp4145
g81
I3
ssg82
g4139
sg75
(lp4146
S'/'
asbasbasbag68
(g84
g70
NtRp4147
(dp4148
g73
(dp4149
sg82
g4023
sg75
(lp4150
g68
(g89
g70
NtRp4151
(dp4152
g73
(dp4153
g93
g94
ssg82
g4147
sg75
(lp4154
g431
asbag68
(g89
g70
NtRp4155
(dp4156
g73
(dp4157
g100
g101
ssg82
g4147
sg75
(lp4158
S':'
asbag68
(g89
g70
NtRp4159
(dp4160
g73
(dp4161
sg82
g4147
sg75
(lp4162
g68
(g69
g70
NtRp4163
(dp4164
g73
(dp4165
g81
I3
ssg82
g4159
sg75
(lp4166
S''
asbasbasbag68
(g84
g70
NtRp4167
(dp4168
g73
(dp4169
sg82
g4023
sg75
(lp4170
g68
(g89
g70
NtRp4171
(dp4172
g73
(dp4173
g93
g94
ssg82
g4167
sg75
(lp4174
g452
asbag68
(g89
g70
NtRp4175
(dp4176
g73
(dp4177
g100
g101
ssg82
g4167
sg75
(lp4178
S':'
asbag68
(g89
g70
NtRp4179
(dp4180
g73
(dp4181
sg82
g4167
sg75
(lp4182
g68
(g69
g70
NtRp4183
(dp4184
g73
(dp4185
g81
I3
ssg82
g4179
sg75
(lp4186
S''
asbasbasbasbasbasbasbasbasbasbasbag68
(g84
g70
NtRp4187
(dp4188
g73
(dp4189
sg82
g3953
sg75
(lp4190
g68
(g89
g70
NtRp4191
(dp4192
g73
(dp4193
g93
g94
ssg82
g4187
sg75
(lp4194
S'delimiters'
p4195
asbag68
(g89
g70
NtRp4196
(dp4197
g73
(dp4198
g100
g101
ssg82
g4187
sg75
(lp4199
S':'
asbag68
(g89
g70
NtRp4200
(dp4201
g73
(dp4202
sg82
g4187
sg75
(lp4203
g68
(g69
g70
NtRp4204
(dp4205
g73
(dp4206
g81
I5
ssg82
g4200
sg75
(lp4207
g68
(g77
g70
NtRp4208
(dp4209
g73
(dp4210
g81
I4
ssg82
Nsg75
(lp4211
g68
(g84
g70
NtRp4212
(dp4213
g73
(dp4214
sg82
g4208
sg75
(lp4215
g68
(g89
g70
NtRp4216
(dp4217
g73
(dp4218
sg82
g4212
sg75
(lp4219
g68
(g69
g70
NtRp4220
(dp4221
g73
(dp4222
g81
I4
ssg82
g4216
sg75
(lp4223
S'{{'
p4224
asbasbasbag68
(g84
g70
NtRp4225
(dp4226
g73
(dp4227
sg82
g4208
sg75
(lp4228
g68
(g89
g70
NtRp4229
(dp4230
g73
(dp4231
sg82
g4225
sg75
(lp4232
g68
(g69
g70
NtRp4233
(dp4234
g73
(dp4235
g81
I4
ssg82
g4229
sg75
(lp4236
S'}}'
p4237
asbasbasbasbasbasbasbag68
(g84
g70
NtRp4238
(dp4239
g73
(dp4240
sg82
g3953
sg75
(lp4241
g68
(g89
g70
NtRp4242
(dp4243
g73
(dp4244
g93
g94
ssg82
g4238
sg75
(lp4245
S'files'
p4246
asbag68
(g89
g70
NtRp4247
(dp4248
g73
(dp4249
g100
g101
ssg82
g4238
sg75
(lp4250
S':'
asbag68
(g89
g70
NtRp4251
(dp4252
g73
(dp4253
sg82
g4238
sg75
(lp4254
g68
(g69
g70
NtRp4255
(dp4256
g73
(dp4257
g81
I5
ssg82
g4251
sg75
(lp4258
g68
(g77
g70
NtRp4259
(dp4260
g73
(dp4261
g81
I4
ssg82
Nsg75
(lp4262
sbasbasbasbag68
(g84
g70
NtRp4263
(dp4264
g73
(dp4265
sg82
g3953
sg75
(lp4266
g68
(g89
g70
NtRp4267
(dp4268
g73
(dp4269
g93
g94
ssg82
g4263
sg75
(lp4270
S'flash'
p4271
asbag68
(g89
g70
NtRp4272
(dp4273
g73
(dp4274
g100
g101
ssg82
g4263
sg75
(lp4275
S':'
asbag68
(g89
g70
NtRp4276
(dp4277
g73
(dp4278
sg82
g4263
sg75
(lp4279
g68
(g69
g70
NtRp4280
(dp4281
g73
(dp4282
g81
I5
ssg82
g4276
sg75
(lp4283
S''
asbasbasbag68
(g84
g70
NtRp4284
(dp4285
g73
(dp4286
sg82
g3953
sg75
(lp4287
g68
(g89
g70
NtRp4288
(dp4289
g73
(dp4290
g93
g94
ssg82
g4284
sg75
(lp4291
S'generic_patterns'
p4292
asbag68
(g89
g70
NtRp4293
(dp4294
g73
(dp4295
g100
g101
ssg82
g4284
sg75
(lp4296
S':'
asbag68
(g89
g70
NtRp4297
(dp4298
g73
(dp4299
sg82
g4284
sg75
(lp4300
g68
(g69
g70
NtRp4301
(dp4302
g73
(dp4303
g81
I5
ssg82
g4297
sg75
(lp4304
g68
(g77
g70
NtRp4305
(dp4306
g73
(dp4307
g81
I4
ssg82
Nsg75
(lp4308
g68
(g84
g70
NtRp4309
(dp4310
g73
(dp4311
sg82
g4305
sg75
(lp4312
g68
(g89
g70
NtRp4313
(dp4314
g73
(dp4315
sg82
g4309
sg75
(lp4316
g68
(g69
g70
NtRp4317
(dp4318
g73
(dp4319
g81
I4
ssg82
g4313
sg75
(lp4320
S'*'
asbasbasbasbasbasbasbag68
(g84
g70
NtRp4321
(dp4322
g73
(dp4323
sg82
g3953
sg75
(lp4324
g68
(g89
g70
NtRp4325
(dp4326
g73
(dp4327
g93
g94
ssg82
g4321
sg75
(lp4328
S'google_analytics_id'
p4329
asbag68
(g89
g70
NtRp4330
(dp4331
g73
(dp4332
g100
g101
ssg82
g4321
sg75
(lp4333
S':'
asbag68
(g89
g70
NtRp4334
(dp4335
g73
(dp4336
sg82
g4321
sg75
(lp4337
g68
(g69
g70
NtRp4338
(dp4339
g73
(dp4340
g81
I5
ssg82
g4334
sg75
(lp4341
S'None'
p4342
asbasbasbag68
(g84
g70
NtRp4343
(dp4344
g73
(dp4345
sg82
g3953
sg75
(lp4346
g68
(g89
g70
NtRp4347
(dp4348
g73
(dp4349
g93
g94
ssg82
g4343
sg75
(lp4350
S'headers'
p4351
asbag68
(g89
g70
NtRp4352
(dp4353
g73
(dp4354
g100
g101
ssg82
g4343
sg75
(lp4355
S':'
asbag68
(g89
g70
NtRp4356
(dp4357
g73
(dp4358
sg82
g4343
sg75
(lp4359
g68
(g69
g70
NtRp4360
(dp4361
g73
(dp4362
g81
I5
ssg82
g4356
sg75
(lp4363
g68
(g77
g70
NtRp4364
(dp4365
g73
(dp4366
g81
I4
ssg82
Nsg75
(lp4367
g68
(g84
g70
NtRp4368
(dp4369
g73
(dp4370
sg82
g4364
sg75
(lp4371
g68
(g89
g70
NtRp4372
(dp4373
g73
(dp4374
g93
g94
ssg82
g4368
sg75
(lp4375
S'X-Powered-By'
p4376
asbag68
(g89
g70
NtRp4377
(dp4378
g73
(dp4379
g100
g101
ssg82
g4368
sg75
(lp4380
S':'
asbag68
(g89
g70
NtRp4381
(dp4382
g73
(dp4383
sg82
g4368
sg75
(lp4384
g68
(g69
g70
NtRp4385
(dp4386
g73
(dp4387
g81
I4
ssg82
g4381
sg75
(lp4388
S'web2py'
p4389
asbasbasbasbasbasbasbag68
(g84
g70
NtRp4390
(dp4391
g73
(dp4392
sg82
g3953
sg75
(lp4393
g68
(g89
g70
NtRp4394
(dp4395
g73
(dp4396
g93
g94
ssg82
g4390
sg75
(lp4397
S'logo'
p4398
asbag68
(g89
g70
NtRp4399
(dp4400
g73
(dp4401
g100
g101
ssg82
g4390
sg75
(lp4402
S':'
asbag68
(g89
g70
NtRp4403
(dp4404
g73
(dp4405
sg82
g4390
sg75
(lp4406
g68
(g69
g70
NtRp4407
(dp4408
g73
(dp4409
g81
I5
ssg82
g4403
sg75
(lp4410
g68
(cgluon.html
A
p4411
g70
NtRp4412
(dp4413
g73
(dp4414
S'_class'
p4415
S'brand'
p4416
sS'_href'
p4417
S''
ssg82
Nsg75
(lp4418
g68
(cgluon.html
B
p4419
g70
NtRp4420
(dp4421
g73
(dp4422
sg82
g4412
sg75
(lp4423
S'Buy/Sell'
p4424
asbacgluon.html
XML_unpickle
p4425
(S's\r\x00\x00\x00&trade;&nbsp;'
tRp4426
asbasbasbasbag68
(g84
g70
NtRp4427
(dp4428
g73
(dp4429
sg82
g3953
sg75
(lp4430
g68
(g89
g70
NtRp4431
(dp4432
g73
(dp4433
g93
g94
ssg82
g4427
sg75
(lp4434
S'menu'
p4435
asbag68
(g89
g70
NtRp4436
(dp4437
g73
(dp4438
g100
g101
ssg82
g4427
sg75
(lp4439
S':'
asbag68
(g89
g70
NtRp4440
(dp4441
g73
(dp4442
sg82
g4427
sg75
(lp4443
g68
(g69
g70
NtRp4444
(dp4445
g73
(dp4446
g81
I5
ssg82
g4440
sg75
(lp4447
g68
(g77
g70
NtRp4448
(dp4449
g73
(dp4450
g81
I4
ssg82
Nsg75
(lp4451
g68
(g84
g70
NtRp4452
(dp4453
g73
(dp4454
sg82
g4448
sg75
(lp4455
g68
(g89
g70
NtRp4456
(dp4457
g73
(dp4458
sg82
g4452
sg75
(lp4459
g68
(g69
g70
NtRp4460
(dp4461
g73
(dp4462
g81
I4
ssg82
g4456
sg75
(lp4463
g68
(g77
g70
NtRp4464
(dp4465
g73
(dp4466
g81
I3
ssg82
Nsg75
(lp4467
g68
(g84
g70
NtRp4468
(dp4469
g73
(dp4470
sg82
g4464
sg75
(lp4471
g68
(g89
g70
NtRp4472
(dp4473
g73
(dp4474
sg82
g4468
sg75
(lp4475
g68
(g69
g70
NtRp4476
(dp4477
g73
(dp4478
g81
I3
ssg82
g4472
sg75
(lp4479
cgluon.languages
lazyT_unpickle
p4480
(S's\x04\x00\x00\x00Home'
tRp4481
asbasbasbag68
(g84
g70
NtRp4482
(dp4483
g73
(dp4484
sg82
g4464
sg75
(lp4485
g68
(g89
g70
NtRp4486
(dp4487
g73
(dp4488
sg82
g4482
sg75
(lp4489
g68
(g69
g70
NtRp4490
(dp4491
g73
(dp4492
g81
I3
ssg82
g4486
sg75
(lp4493
g111
asbasbasbag68
(g84
g70
NtRp4494
(dp4495
g73
(dp4496
sg82
g4464
sg75
(lp4497
g68
(g89
g70
NtRp4498
(dp4499
g73
(dp4500
sg82
g4494
sg75
(lp4501
g68
(g69
g70
NtRp4502
(dp4503
g73
(dp4504
g81
I3
ssg82
g4498
sg75
(lp4505
S'/BuySell/default/index'
p4506
asbasbasbag68
(g84
g70
NtRp4507
(dp4508
g73
(dp4509
sg82
g4464
sg75
(lp4510
g68
(g89
g70
NtRp4511
(dp4512
g73
(dp4513
sg82
g4507
sg75
(lp4514
g68
(g69
g70
NtRp4515
(dp4516
g73
(dp4517
g81
I3
ssg82
g4511
sg75
(lp4518
g68
(g77
g70
NtRp4519
(dp4520
g73
(dp4521
g81
I2
ssg82
Nsg75
(lp4522
sbasbasbasbasbasbasbasbag68
(g84
g70
NtRp4523
(dp4524
g73
(dp4525
sg82
g4448
sg75
(lp4526
g68
(g89
g70
NtRp4527
(dp4528
g73
(dp4529
sg82
g4523
sg75
(lp4530
g68
(g69
g70
NtRp4531
(dp4532
g73
(dp4533
g81
I4
ssg82
g4527
sg75
(lp4534
g68
(g77
g70
NtRp4535
(dp4536
g73
(dp4537
g81
I3
ssg82
Nsg75
(lp4538
g68
(g84
g70
NtRp4539
(dp4540
g73
(dp4541
sg82
g4535
sg75
(lp4542
g68
(g89
g70
NtRp4543
(dp4544
g73
(dp4545
sg82
g4539
sg75
(lp4546
g68
(g69
g70
NtRp4547
(dp4548
g73
(dp4549
g81
I3
ssg82
g4543
sg75
(lp4550
g68
(cgluon.html
SPAN
p4551
g70
NtRp4552
(dp4553
g73
(dp4554
g4415
S'highlighted'
p4555
ssg82
Nsg75
(lp4556
S'Navigate'
p4557
asbasbasbasbag68
(g84
g70
NtRp4558
(dp4559
g73
(dp4560
sg82
g4535
sg75
(lp4561
g68
(g89
g70
NtRp4562
(dp4563
g73
(dp4564
sg82
g4558
sg75
(lp4565
g68
(g69
g70
NtRp4566
(dp4567
g73
(dp4568
g81
I3
ssg82
g4562
sg75
(lp4569
g111
asbasbasbag68
(g84
g70
NtRp4570
(dp4571
g73
(dp4572
sg82
g4535
sg75
(lp4573
g68
(g89
g70
NtRp4574
(dp4575
g73
(dp4576
sg82
g4570
sg75
(lp4577
g68
(g69
g70
NtRp4578
(dp4579
g73
(dp4580
g81
I3
ssg82
g4574
sg75
(lp4581
S''
asbasbasbag68
(g84
g70
NtRp4582
(dp4583
g73
(dp4584
sg82
g4535
sg75
(lp4585
g68
(g89
g70
NtRp4586
(dp4587
g73
(dp4588
sg82
g4582
sg75
(lp4589
g68
(g69
g70
NtRp4590
(dp4591
g73
(dp4592
g81
I3
ssg82
g4586
sg75
(lp4593
g68
(g77
g70
NtRp4594
(dp4595
g73
(dp4596
g81
I2
ssg82
Nsg75
(lp4597
g68
(g84
g70
NtRp4598
(dp4599
g73
(dp4600
sg82
g4594
sg75
(lp4601
g68
(g89
g70
NtRp4602
(dp4603
g73
(dp4604
sg82
g4598
sg75
(lp4605
g68
(g69
g70
NtRp4606
(dp4607
g73
(dp4608
g81
I2
ssg82
g4602
sg75
(lp4609
g68
(g77
g70
NtRp4610
(dp4611
g73
(dp4612
g81
I1
ssg82
Nsg75
(lp4613
g68
(g84
g70
NtRp4614
(dp4615
g73
(dp4616
sg82
g4610
sg75
(lp4617
g68
(g89
g70
NtRp4618
(dp4619
g73
(dp4620
sg82
g4614
sg75
(lp4621
g68
(g69
g70
NtRp4622
(dp4623
g73
(dp4624
g81
I1
ssg82
g4618
sg75
(lp4625
g4480
(S's\r\x00\x00\x00List of items'
tRp4626
asbasbasbag68
(g84
g70
NtRp4627
(dp4628
g73
(dp4629
sg82
g4610
sg75
(lp4630
g68
(g89
g70
NtRp4631
(dp4632
g73
(dp4633
sg82
g4627
sg75
(lp4634
g68
(g69
g70
NtRp4635
(dp4636
g73
(dp4637
g81
I1
ssg82
g4631
sg75
(lp4638
I00
asbasbasbag68
(g84
g70
NtRp4639
(dp4640
g73
(dp4641
sg82
g4610
sg75
(lp4642
g68
(g89
g70
NtRp4643
(dp4644
g73
(dp4645
sg82
g4639
sg75
(lp4646
g68
(g69
g70
NtRp4647
(dp4648
g73
(dp4649
g81
I1
ssg82
g4643
sg75
(lp4650
S'/BuySell/default/list_items'
p4651
asbasbasbasbasbasbasbag68
(g84
g70
NtRp4652
(dp4653
g73
(dp4654
sg82
g4594
sg75
(lp4655
g68
(g89
g70
NtRp4656
(dp4657
g73
(dp4658
sg82
g4652
sg75
(lp4659
g68
(g69
g70
NtRp4660
(dp4661
g73
(dp4662
g81
I2
ssg82
g4656
sg75
(lp4663
g68
(g77
g70
NtRp4664
(dp4665
g73
(dp4666
g81
I1
ssg82
Nsg75
(lp4667
g68
(g84
g70
NtRp4668
(dp4669
g73
(dp4670
sg82
g4664
sg75
(lp4671
g68
(g89
g70
NtRp4672
(dp4673
g73
(dp4674
sg82
g4668
sg75
(lp4675
g68
(g69
g70
NtRp4676
(dp4677
g73
(dp4678
g81
I1
ssg82
g4672
sg75
(lp4679
g4480
(S't\x04\x00\x00\x00Sell'
tRp4680
asbasbasbag68
(g84
g70
NtRp4681
(dp4682
g73
(dp4683
sg82
g4664
sg75
(lp4684
g68
(g89
g70
NtRp4685
(dp4686
g73
(dp4687
sg82
g4681
sg75
(lp4688
g68
(g69
g70
NtRp4689
(dp4690
g73
(dp4691
g81
I1
ssg82
g4685
sg75
(lp4692
I00
asbasbasbag68
(g84
g70
NtRp4693
(dp4694
g73
(dp4695
sg82
g4664
sg75
(lp4696
g68
(g89
g70
NtRp4697
(dp4698
g73
(dp4699
sg82
g4693
sg75
(lp4700
g68
(g69
g70
NtRp4701
(dp4702
g73
(dp4703
g81
I1
ssg82
g4697
sg75
(lp4704
S''
asbasbasbag68
(g84
g70
NtRp4705
(dp4706
g73
(dp4707
sg82
g4664
sg75
(lp4708
g68
(g89
g70
NtRp4709
(dp4710
g73
(dp4711
sg82
g4705
sg75
(lp4712
g68
(g69
g70
NtRp4713
(dp4714
g73
(dp4715
g81
I1
ssg82
g4709
sg75
(lp4716
(lp4717
(g4480
(S's\x08\x00\x00\x00Add Item'
tRp4718
I00
S'/BuySell/default/add_item'
tp4719
a(g4480
(S's\x11\x00\x00\x00Your Listed Items'
tRp4720
I00
S'/BuySell/default/listed_items'
tp4721
a(g4480
(S's\n\x00\x00\x00Items Sold'
tRp4722
I00
S'/BuySell/default/item_sold'
tp4723
a(g4480
(S's\r\x00\x00\x00Fulfil Wishes'
tRp4724
I00
S'/BuySell/default/fulfil_wishes'
tp4725
aasbasbasbasbasbasbasbag68
(g84
g70
NtRp4726
(dp4727
g73
(dp4728
sg82
g4594
sg75
(lp4729
g68
(g89
g70
NtRp4730
(dp4731
g73
(dp4732
sg82
g4726
sg75
(lp4733
g68
(g69
g70
NtRp4734
(dp4735
g73
(dp4736
g81
I2
ssg82
g4730
sg75
(lp4737
g68
(g77
g70
NtRp4738
(dp4739
g73
(dp4740
g81
I1
ssg82
Nsg75
(lp4741
g68
(g84
g70
NtRp4742
(dp4743
g73
(dp4744
sg82
g4738
sg75
(lp4745
g68
(g89
g70
NtRp4746
(dp4747
g73
(dp4748
sg82
g4742
sg75
(lp4749
g68
(g69
g70
NtRp4750
(dp4751
g73
(dp4752
g81
I1
ssg82
g4746
sg75
(lp4753
S'Buy'
p4754
asbasbasbag68
(g84
g70
NtRp4755
(dp4756
g73
(dp4757
sg82
g4738
sg75
(lp4758
g68
(g89
g70
NtRp4759
(dp4760
g73
(dp4761
sg82
g4755
sg75
(lp4762
g68
(g69
g70
NtRp4763
(dp4764
g73
(dp4765
g81
I1
ssg82
g4759
sg75
(lp4766
I00
asbasbasbag68
(g84
g70
NtRp4767
(dp4768
g73
(dp4769
sg82
g4738
sg75
(lp4770
g68
(g89
g70
NtRp4771
(dp4772
g73
(dp4773
sg82
g4767
sg75
(lp4774
g68
(g69
g70
NtRp4775
(dp4776
g73
(dp4777
g81
I1
ssg82
g4771
sg75
(lp4778
S''
asbasbasbag68
(g84
g70
NtRp4779
(dp4780
g73
(dp4781
sg82
g4738
sg75
(lp4782
g68
(g89
g70
NtRp4783
(dp4784
g73
(dp4785
sg82
g4779
sg75
(lp4786
g68
(g69
g70
NtRp4787
(dp4788
g73
(dp4789
g81
I1
ssg82
g4783
sg75
(lp4790
(lp4791
(g4480
(S's\x0b\x00\x00\x00Make a wish'
tRp4792
I00
S'/BuySell/default/add_wish'
tp4793
a(g4480
(S's\x0e\x00\x00\x00Your Wish List'
tRp4794
I00
S'/BuySell/default/wish_list'
tp4795
a(g4480
(S's\x10\x00\x00\x00Fulfilled Wishes'
tRp4796
I00
S'/BuySell/default/fulfilled'
tp4797
a(g4480
(S's\x15\x00\x00\x00Items Bought/Bids Won'
tRp4798
I00
S'/BuySell/default/item_bought'
tp4799
aasbasbasbasbasbasbasbag68
(g84
g70
NtRp4800
(dp4801
g73
(dp4802
sg82
g4594
sg75
(lp4803
g68
(g89
g70
NtRp4804
(dp4805
g73
(dp4806
sg82
g4800
sg75
(lp4807
g68
(g69
g70
NtRp4808
(dp4809
g73
(dp4810
g81
I2
ssg82
g4804
sg75
(lp4811
g68
(g77
g70
NtRp4812
(dp4813
g73
(dp4814
g81
I1
ssg82
Nsg75
(lp4815
g68
(g84
g70
NtRp4816
(dp4817
g73
(dp4818
sg82
g4812
sg75
(lp4819
g68
(g89
g70
NtRp4820
(dp4821
g73
(dp4822
sg82
g4816
sg75
(lp4823
g68
(g69
g70
NtRp4824
(dp4825
g73
(dp4826
g81
I1
ssg82
g4820
sg75
(lp4827
g4480
(S's\x0e\x00\x00\x00All Categories'
tRp4828
asbasbasbag68
(g84
g70
NtRp4829
(dp4830
g73
(dp4831
sg82
g4812
sg75
(lp4832
g68
(g89
g70
NtRp4833
(dp4834
g73
(dp4835
sg82
g4829
sg75
(lp4836
g68
(g69
g70
NtRp4837
(dp4838
g73
(dp4839
g81
I1
ssg82
g4833
sg75
(lp4840
I00
asbasbasbag68
(g84
g70
NtRp4841
(dp4842
g73
(dp4843
sg82
g4812
sg75
(lp4844
g68
(g89
g70
NtRp4845
(dp4846
g73
(dp4847
sg82
g4841
sg75
(lp4848
g68
(g69
g70
NtRp4849
(dp4850
g73
(dp4851
g81
I1
ssg82
g4845
sg75
(lp4852
S'http://www.web2py.com/book'
p4853
asbasbasbag68
(g84
g70
NtRp4854
(dp4855
g73
(dp4856
sg82
g4812
sg75
(lp4857
g68
(g89
g70
NtRp4858
(dp4859
g73
(dp4860
sg82
g4854
sg75
(lp4861
g68
(g69
g70
NtRp4862
(dp4863
g73
(dp4864
g81
I1
ssg82
g4858
sg75
(lp4865
(lp4866
(g4480
(S's\x0f\x00\x00\x00Arts and Crafts'
tRp4867
I00
S'/BuySell/default/categories/1'
tp4868
a(g4480
(S't\x08\x00\x00\x00Clothing'
tRp4869
I00
S'/BuySell/default/categories/2'
tp4870
a(g4480
(S't\x08\x00\x00\x00Footwear'
tRp4871
I00
S'/BuySell/default/categories/3'
tp4872
a(g4480
(S't\x05\x00\x00\x00Gifts'
tRp4873
I00
S'/BuySell/default/categories/4'
tp4874
aasbasbasbasbasbasbasbag68
(g84
g70
NtRp4875
(dp4876
g73
(dp4877
sg82
g4594
sg75
(lp4878
g68
(g89
g70
NtRp4879
(dp4880
g73
(dp4881
sg82
g4875
sg75
(lp4882
g68
(g69
g70
NtRp4883
(dp4884
g73
(dp4885
g81
I2
ssg82
g4879
sg75
(lp4886
g68
(g77
g70
NtRp4887
(dp4888
g73
(dp4889
g81
I1
ssg82
Nsg75
(lp4890
g68
(g84
g70
NtRp4891
(dp4892
g73
(dp4893
sg82
g4887
sg75
(lp4894
g68
(g89
g70
NtRp4895
(dp4896
g73
(dp4897
sg82
g4891
sg75
(lp4898
g68
(g69
g70
NtRp4899
(dp4900
g73
(dp4901
g81
I1
ssg82
g4895
sg75
(lp4902
g4480
(S's\t\x00\x00\x00Community'
tRp4903
asbasbasbag68
(g84
g70
NtRp4904
(dp4905
g73
(dp4906
sg82
g4887
sg75
(lp4907
g68
(g89
g70
NtRp4908
(dp4909
g73
(dp4910
sg82
g4904
sg75
(lp4911
g68
(g69
g70
NtRp4912
(dp4913
g73
(dp4914
g81
I1
ssg82
g4908
sg75
(lp4915
I00
asbasbasbag68
(g84
g70
NtRp4916
(dp4917
g73
(dp4918
sg82
g4887
sg75
(lp4919
g68
(g89
g70
NtRp4920
(dp4921
g73
(dp4922
sg82
g4916
sg75
(lp4923
g68
(g69
g70
NtRp4924
(dp4925
g73
(dp4926
g81
I1
ssg82
g4920
sg75
(lp4927
Nasbasbasbag68
(g84
g70
NtRp4928
(dp4929
g73
(dp4930
sg82
g4887
sg75
(lp4931
g68
(g89
g70
NtRp4932
(dp4933
g73
(dp4934
sg82
g4928
sg75
(lp4935
g68
(g69
g70
NtRp4936
(dp4937
g73
(dp4938
g81
I1
ssg82
g4932
sg75
(lp4939
(lp4940
(g4480
(S's\x07\x00\x00\x00Twitter'
tRp4941
I00
S'http://twitter.com/buy_sell'
p4942
tp4943
a(g4480
(S's\t\x00\x00\x00Live Chat'
tRp4944
I00
S'http://webchat.freenode.net/?channels=buysell'
p4945
tp4946
aasbasbasbasbasbasbasbag68
(g84
g70
NtRp4947
(dp4948
g73
(dp4949
sg82
g4594
sg75
(lp4950
g68
(g89
g70
NtRp4951
(dp4952
g73
(dp4953
sg82
g4947
sg75
(lp4954
g68
(g69
g70
NtRp4955
(dp4956
g73
(dp4957
g81
I2
ssg82
g4951
sg75
(lp4958
g68
(g77
g70
NtRp4959
(dp4960
g73
(dp4961
g81
I1
ssg82
Nsg75
(lp4962
g68
(g84
g70
NtRp4963
(dp4964
g73
(dp4965
sg82
g4959
sg75
(lp4966
g68
(g89
g70
NtRp4967
(dp4968
g73
(dp4969
sg82
g4963
sg75
(lp4970
g68
(g69
g70
NtRp4971
(dp4972
g73
(dp4973
g81
I1
ssg82
g4967
sg75
(lp4974
g4480
(S't\x04\x00\x00\x00Help'
tRp4975
asbasbasbag68
(g84
g70
NtRp4976
(dp4977
g73
(dp4978
sg82
g4959
sg75
(lp4979
g68
(g89
g70
NtRp4980
(dp4981
g73
(dp4982
sg82
g4976
sg75
(lp4983
g68
(g69
g70
NtRp4984
(dp4985
g73
(dp4986
g81
I1
ssg82
g4980
sg75
(lp4987
I00
asbasbasbag68
(g84
g70
NtRp4988
(dp4989
g73
(dp4990
sg82
g4959
sg75
(lp4991
g68
(g89
g70
NtRp4992
(dp4993
g73
(dp4994
sg82
g4988
sg75
(lp4995
g68
(g69
g70
NtRp4996
(dp4997
g73
(dp4998
g81
I1
ssg82
g4992
sg75
(lp4999
Nasbasbasbag68
(g84
g70
NtRp5000
(dp5001
g73
(dp5002
sg82
g4959
sg75
(lp5003
g68
(g89
g70
NtRp5004
(dp5005
g73
(dp5006
sg82
g5000
sg75
(lp5007
g68
(g69
g70
NtRp5008
(dp5009
g73
(dp5010
g81
I1
ssg82
g5004
sg75
(lp5011
(lp5012
(S'FAQ'
p5013
I00
S'/BuySell/default/index'
tp5014
a(S'Report a Problem'
p5015
I00
S'/BuySell/default/report'
tp5016
aasbasbasbasbasbasbasbasbasbasbasbasbasbasbasbasbasbasbasbag68
(g84
g70
NtRp5017
(dp5018
g73
(dp5019
sg82
g3953
sg75
(lp5020
g68
(g89
g70
NtRp5021
(dp5022
g73
(dp5023
g93
g94
ssg82
g5017
sg75
(lp5024
S'meta'
p5025
asbag68
(g89
g70
NtRp5026
(dp5027
g73
(dp5028
g100
g101
ssg82
g5017
sg75
(lp5029
S':'
asbag68
(g89
g70
NtRp5030
(dp5031
g73
(dp5032
sg82
g5017
sg75
(lp5033
g68
(g69
g70
NtRp5034
(dp5035
g73
(dp5036
g81
I5
ssg82
g5030
sg75
(lp5037
g68
(g77
g70
NtRp5038
(dp5039
g73
(dp5040
g81
I4
ssg82
Nsg75
(lp5041
g68
(g84
g70
NtRp5042
(dp5043
g73
(dp5044
sg82
g5038
sg75
(lp5045
g68
(g89
g70
NtRp5046
(dp5047
g73
(dp5048
g93
g94
ssg82
g5042
sg75
(lp5049
S'author'
p5050
asbag68
(g89
g70
NtRp5051
(dp5052
g73
(dp5053
g100
g101
ssg82
g5042
sg75
(lp5054
S':'
asbag68
(g89
g70
NtRp5055
(dp5056
g73
(dp5057
sg82
g5042
sg75
(lp5058
g68
(g69
g70
NtRp5059
(dp5060
g73
(dp5061
g81
I4
ssg82
g5055
sg75
(lp5062
S'Your Name <you@example.com>'
p5063
asbasbasbag68
(g84
g70
NtRp5064
(dp5065
g73
(dp5066
sg82
g5038
sg75
(lp5067
g68
(g89
g70
NtRp5068
(dp5069
g73
(dp5070
g93
g94
ssg82
g5064
sg75
(lp5071
S'description'
p5072
asbag68
(g89
g70
NtRp5073
(dp5074
g73
(dp5075
g100
g101
ssg82
g5064
sg75
(lp5076
S':'
asbag68
(g89
g70
NtRp5077
(dp5078
g73
(dp5079
sg82
g5064
sg75
(lp5080
g68
(g69
g70
NtRp5081
(dp5082
g73
(dp5083
g81
I4
ssg82
g5077
sg75
(lp5084
S'a cool new app'
p5085
asbasbasbag68
(g84
g70
NtRp5086
(dp5087
g73
(dp5088
sg82
g5038
sg75
(lp5089
g68
(g89
g70
NtRp5090
(dp5091
g73
(dp5092
g93
g94
ssg82
g5086
sg75
(lp5093
S'generator'
p5094
asbag68
(g89
g70
NtRp5095
(dp5096
g73
(dp5097
g100
g101
ssg82
g5086
sg75
(lp5098
S':'
asbag68
(g89
g70
NtRp5099
(dp5100
g73
(dp5101
sg82
g5086
sg75
(lp5102
g68
(g69
g70
NtRp5103
(dp5104
g73
(dp5105
g81
I4
ssg82
g5099
sg75
(lp5106
S'Web2py Web Framework'
p5107
asbasbasbag68
(g84
g70
NtRp5108
(dp5109
g73
(dp5110
sg82
g5038
sg75
(lp5111
g68
(g89
g70
NtRp5112
(dp5113
g73
(dp5114
g93
g94
ssg82
g5108
sg75
(lp5115
S'keywords'
p5116
asbag68
(g89
g70
NtRp5117
(dp5118
g73
(dp5119
g100
g101
ssg82
g5108
sg75
(lp5120
S':'
asbag68
(g89
g70
NtRp5121
(dp5122
g73
(dp5123
sg82
g5108
sg75
(lp5124
g68
(g69
g70
NtRp5125
(dp5126
g73
(dp5127
g81
I4
ssg82
g5121
sg75
(lp5128
S'web2py, python, framework'
p5129
asbasbasbasbasbasbasbag68
(g84
g70
NtRp5130
(dp5131
g73
(dp5132
sg82
g3953
sg75
(lp5133
g68
(g89
g70
NtRp5134
(dp5135
g73
(dp5136
g93
g94
ssg82
g5130
sg75
(lp5137
S'models_to_run'
p5138
asbag68
(g89
g70
NtRp5139
(dp5140
g73
(dp5141
g100
g101
ssg82
g5130
sg75
(lp5142
S':'
asbag68
(g89
g70
NtRp5143
(dp5144
g73
(dp5145
sg82
g5130
sg75
(lp5146
g68
(g69
g70
NtRp5147
(dp5148
g73
(dp5149
g81
I5
ssg82
g5143
sg75
(lp5150
g68
(g77
g70
NtRp5151
(dp5152
g73
(dp5153
g81
I4
ssg82
Nsg75
(lp5154
g68
(g84
g70
NtRp5155
(dp5156
g73
(dp5157
sg82
g5151
sg75
(lp5158
g68
(g89
g70
NtRp5159
(dp5160
g73
(dp5161
sg82
g5155
sg75
(lp5162
g68
(g69
g70
NtRp5163
(dp5164
g73
(dp5165
g81
I4
ssg82
g5159
sg75
(lp5166
S'^\\w+\\.py$'
p5167
asbasbasbag68
(g84
g70
NtRp5168
(dp5169
g73
(dp5170
sg82
g5151
sg75
(lp5171
g68
(g89
g70
NtRp5172
(dp5173
g73
(dp5174
sg82
g5168
sg75
(lp5175
g68
(g69
g70
NtRp5176
(dp5177
g73
(dp5178
g81
I4
ssg82
g5172
sg75
(lp5179
S'^default/\\w+\\.py$'
p5180
asbasbasbag68
(g84
g70
NtRp5181
(dp5182
g73
(dp5183
sg82
g5151
sg75
(lp5184
g68
(g89
g70
NtRp5185
(dp5186
g73
(dp5187
sg82
g5181
sg75
(lp5188
g68
(g69
g70
NtRp5189
(dp5190
g73
(dp5191
g81
I4
ssg82
g5185
sg75
(lp5192
S'^default/list_items/\\w+\\.py$'
p5193
asbasbasbasbasbasbasbag68
(g84
g70
NtRp5194
(dp5195
g73
(dp5196
sg82
g3953
sg75
(lp5197
g68
(g89
g70
NtRp5198
(dp5199
g73
(dp5200
g93
g94
ssg82
g5194
sg75
(lp5201
S'postprocessing'
p5202
asbag68
(g89
g70
NtRp5203
(dp5204
g73
(dp5205
g100
g101
ssg82
g5194
sg75
(lp5206
S':'
asbag68
(g89
g70
NtRp5207
(dp5208
g73
(dp5209
sg82
g5194
sg75
(lp5210
g68
(g69
g70
NtRp5211
(dp5212
g73
(dp5213
g81
I5
ssg82
g5207
sg75
(lp5214
g68
(g77
g70
NtRp5215
(dp5216
g73
(dp5217
g81
I4
ssg82
Nsg75
(lp5218
sbasbasbasbag68
(g84
g70
NtRp5219
(dp5220
g73
(dp5221
sg82
g3953
sg75
(lp5222
g68
(g89
g70
NtRp5223
(dp5224
g73
(dp5225
g93
g94
ssg82
g5219
sg75
(lp5226
S'session_cookie_expires'
p5227
asbag68
(g89
g70
NtRp5228
(dp5229
g73
(dp5230
g100
g101
ssg82
g5219
sg75
(lp5231
S':'
asbag68
(g89
g70
NtRp5232
(dp5233
g73
(dp5234
sg82
g5219
sg75
(lp5235
g68
(g69
g70
NtRp5236
(dp5237
g73
(dp5238
g81
I5
ssg82
g5232
sg75
(lp5239
S'None'
p5240
asbasbasbag68
(g84
g70
NtRp5241
(dp5242
g73
(dp5243
sg82
g3953
sg75
(lp5244
g68
(g89
g70
NtRp5245
(dp5246
g73
(dp5247
g93
g94
ssg82
g5241
sg75
(lp5248
S'session_data_name'
p5249
asbag68
(g89
g70
NtRp5250
(dp5251
g73
(dp5252
g100
g101
ssg82
g5241
sg75
(lp5253
S':'
asbag68
(g89
g70
NtRp5254
(dp5255
g73
(dp5256
sg82
g5241
sg75
(lp5257
g68
(g69
g70
NtRp5258
(dp5259
g73
(dp5260
g81
I5
ssg82
g5254
sg75
(lp5261
S'session_data_buysell'
p5262
asbasbasbag68
(g84
g70
NtRp5263
(dp5264
g73
(dp5265
sg82
g3953
sg75
(lp5266
g68
(g89
g70
NtRp5267
(dp5268
g73
(dp5269
g93
g94
ssg82
g5263
sg75
(lp5270
S'session_file'
p5271
asbag68
(g89
g70
NtRp5272
(dp5273
g73
(dp5274
g100
g101
ssg82
g5263
sg75
(lp5275
S':'
asbag68
(g89
g70
NtRp5276
(dp5277
g73
(dp5278
sg82
g5263
sg75
(lp5279
g68
(g69
g70
NtRp5280
(dp5281
g73
(dp5282
g81
I5
ssg82
g5276
sg75
(lp5283
S"<open file '/home/pratyush/web2py/applications/BuySell/sessions/127.0.0.1-f42b8fb6-bce7-404a-b975-99002423340f', mode 'rb+' at 0xa250808>"
p5284
asbasbasbag68
(g84
g70
NtRp5285
(dp5286
g73
(dp5287
sg82
g3953
sg75
(lp5288
g68
(g89
g70
NtRp5289
(dp5290
g73
(dp5291
g93
g94
ssg82
g5285
sg75
(lp5292
S'session_filename'
p5293
asbag68
(g89
g70
NtRp5294
(dp5295
g73
(dp5296
g100
g101
ssg82
g5285
sg75
(lp5297
S':'
asbag68
(g89
g70
NtRp5298
(dp5299
g73
(dp5300
sg82
g5285
sg75
(lp5301
g68
(g69
g70
NtRp5302
(dp5303
g73
(dp5304
g81
I5
ssg82
g5298
sg75
(lp5305
S'/home/pratyush/web2py/applications/BuySell/sessions/127.0.0.1-f42b8fb6-bce7-404a-b975-99002423340f'
p5306
asbasbasbag68
(g84
g70
NtRp5307
(dp5308
g73
(dp5309
sg82
g3953
sg75
(lp5310
g68
(g89
g70
NtRp5311
(dp5312
g73
(dp5313
g93
g94
ssg82
g5307
sg75
(lp5314
S'session_id'
p5315
asbag68
(g89
g70
NtRp5316
(dp5317
g73
(dp5318
g100
g101
ssg82
g5307
sg75
(lp5319
S':'
asbag68
(g89
g70
NtRp5320
(dp5321
g73
(dp5322
sg82
g5307
sg75
(lp5323
g68
(g69
g70
NtRp5324
(dp5325
g73
(dp5326
g81
I5
ssg82
g5320
sg75
(lp5327
g672
asbasbasbag68
(g84
g70
NtRp5328
(dp5329
g73
(dp5330
sg82
g3953
sg75
(lp5331
g68
(g89
g70
NtRp5332
(dp5333
g73
(dp5334
g93
g94
ssg82
g5328
sg75
(lp5335
S'session_id_name'
p5336
asbag68
(g89
g70
NtRp5337
(dp5338
g73
(dp5339
g100
g101
ssg82
g5328
sg75
(lp5340
S':'
asbag68
(g89
g70
NtRp5341
(dp5342
g73
(dp5343
sg82
g5328
sg75
(lp5344
g68
(g69
g70
NtRp5345
(dp5346
g73
(dp5347
g81
I5
ssg82
g5341
sg75
(lp5348
g4010
asbasbasbag68
(g84
g70
NtRp5349
(dp5350
g73
(dp5351
sg82
g3953
sg75
(lp5352
g68
(g89
g70
NtRp5353
(dp5354
g73
(dp5355
g93
g94
ssg82
g5349
sg75
(lp5356
S'session_locked'
p5357
asbag68
(g89
g70
NtRp5358
(dp5359
g73
(dp5360
g100
g101
ssg82
g5349
sg75
(lp5361
S':'
asbag68
(g89
g70
NtRp5362
(dp5363
g73
(dp5364
sg82
g5349
sg75
(lp5365
g68
(g69
g70
NtRp5366
(dp5367
g73
(dp5368
g81
I5
ssg82
g5362
sg75
(lp5369
g2010
asbasbasbag68
(g84
g70
NtRp5370
(dp5371
g73
(dp5372
sg82
g3953
sg75
(lp5373
g68
(g89
g70
NtRp5374
(dp5375
g73
(dp5376
g93
g94
ssg82
g5370
sg75
(lp5377
S'session_new'
p5378
asbag68
(g89
g70
NtRp5379
(dp5380
g73
(dp5381
g100
g101
ssg82
g5370
sg75
(lp5382
S':'
asbag68
(g89
g70
NtRp5383
(dp5384
g73
(dp5385
sg82
g5370
sg75
(lp5386
g68
(g69
g70
NtRp5387
(dp5388
g73
(dp5389
g81
I5
ssg82
g5383
sg75
(lp5390
g111
asbasbasbag68
(g84
g70
NtRp5391
(dp5392
g73
(dp5393
sg82
g3953
sg75
(lp5394
g68
(g89
g70
NtRp5395
(dp5396
g73
(dp5397
g93
g94
ssg82
g5391
sg75
(lp5398
S'session_storage_type'
p5399
asbag68
(g89
g70
NtRp5400
(dp5401
g73
(dp5402
g100
g101
ssg82
g5391
sg75
(lp5403
S':'
asbag68
(g89
g70
NtRp5404
(dp5405
g73
(dp5406
sg82
g5391
sg75
(lp5407
g68
(g69
g70
NtRp5408
(dp5409
g73
(dp5410
g81
I5
ssg82
g5404
sg75
(lp5411
g3483
asbasbasbag68
(g84
g70
NtRp5412
(dp5413
g73
(dp5414
sg82
g3953
sg75
(lp5415
g68
(g89
g70
NtRp5416
(dp5417
g73
(dp5418
g93
g94
ssg82
g5412
sg75
(lp5419
S'status'
p5420
asbag68
(g89
g70
NtRp5421
(dp5422
g73
(dp5423
g100
g101
ssg82
g5412
sg75
(lp5424
S':'
asbag68
(g89
g70
NtRp5425
(dp5426
g73
(dp5427
sg82
g5412
sg75
(lp5428
g68
(g69
g70
NtRp5429
(dp5430
g73
(dp5431
g81
I5
ssg82
g5425
sg75
(lp5432
S'200'
p5433
asbasbasbag68
(g84
g70
NtRp5434
(dp5435
g73
(dp5436
sg82
g3953
sg75
(lp5437
g68
(g89
g70
NtRp5438
(dp5439
g73
(dp5440
g93
g94
ssg82
g5434
sg75
(lp5441
S'subtitle'
p5442
asbag68
(g89
g70
NtRp5443
(dp5444
g73
(dp5445
g100
g101
ssg82
g5434
sg75
(lp5446
S':'
asbag68
(g89
g70
NtRp5447
(dp5448
g73
(dp5449
sg82
g5434
sg75
(lp5450
g68
(g69
g70
NtRp5451
(dp5452
g73
(dp5453
g81
I5
ssg82
g5447
sg75
(lp5454
g4480
(S's\r\x00\x00\x00customize me!'
tRp5455
asbasbasbag68
(g84
g70
NtRp5456
(dp5457
g73
(dp5458
sg82
g3953
sg75
(lp5459
g68
(g89
g70
NtRp5460
(dp5461
g73
(dp5462
g93
g94
ssg82
g5456
sg75
(lp5463
S'title'
p5464
asbag68
(g89
g70
NtRp5465
(dp5466
g73
(dp5467
g100
g101
ssg82
g5456
sg75
(lp5468
S':'
asbag68
(g89
g70
NtRp5469
(dp5470
g73
(dp5471
sg82
g5456
sg75
(lp5472
g68
(g69
g70
NtRp5473
(dp5474
g73
(dp5475
g81
I5
ssg82
g5469
sg75
(lp5476
S'Buysell'
p5477
asbasbasbag68
(g84
g70
NtRp5478
(dp5479
g73
(dp5480
sg82
g3953
sg75
(lp5481
g68
(g89
g70
NtRp5482
(dp5483
g73
(dp5484
g93
g94
ssg82
g5478
sg75
(lp5485
S'view'
p5486
asbag68
(g89
g70
NtRp5487
(dp5488
g73
(dp5489
g100
g101
ssg82
g5478
sg75
(lp5490
S':'
asbag68
(g89
g70
NtRp5491
(dp5492
g73
(dp5493
sg82
g5478
sg75
(lp5494
g68
(g69
g70
NtRp5495
(dp5496
g73
(dp5497
g81
I5
ssg82
g5491
sg75
(lp5498
S'default/list_items.html'
p5499
asbasbasbasbasbsS'locals'
p5500
(dp5501
g4
S"'/home/pratyush/web2py/applications/BuySell/views/default/list_items.html'"
p5502
sg6
S'\'response.write(\\\'<!DOCTYPE html>\\\\n<!-- paulirish...."></script>\\\\n</body>\\\\n</html>\\\\n\\\\n\\\', escape=False)\''
p5503
sssS'traceback'
p5504
S'Traceback (most recent call last):\n  File "/home/pratyush/web2py/gluon/restricted.py", line 211, in restricted\n    ccode = compile2(code, layer)\n  File "/home/pratyush/web2py/gluon/restricted.py", line 194, in compile2\n    return compile(code.rstrip().replace(\'\\r\\n\', \'\\n\') + \'\\n\', layer, \'exec\')\n  File "/home/pratyush/web2py/applications/BuySell/views/default/list_items.html", line 113\n    elif i.selling_type==\'Buy\':\n       ^\nSyntaxError: invalid syntax\n'
p5505
s.