(dp1
S'output'
p2
S"<type 'exceptions.SyntaxError'> invalid syntax (list_items.html, line 95)"
p3
sS'layer'
p4
S'/home/pratyush/web2py/applications/BuySell/views/default/list_items.html'
p5
sS'code'
p6
S'response.write(\'<!DOCTYPE html>\\n<!-- paulirish.com/2008/conditional-stylesheets-vs-css-hacks-answer-neither/ -->\\n<!--[if lt IE 7]><html class="ie ie6 ie-lte9 ie-lte8 ie-lte7 no-js" lang="\', escape=False)\nresponse.write(T.accepted_language or \'en\')\nresponse.write(\'"> <![endif]-->\\n<!--[if IE 7]><html class="ie ie7 ie-lte9 ie-lte8 ie-lte7 no-js" lang="\', escape=False)\nresponse.write(T.accepted_language or \'en\')\nresponse.write(\'"> <![endif]-->\\n<!--[if IE 8]><html class="ie ie8 ie-lte9 ie-lte8 no-js" lang="\', escape=False)\nresponse.write(T.accepted_language or \'en\')\nresponse.write(\'"> <![endif]-->\\n<!--[if IE 9]><html class="ie9 ie-lte9 no-js" lang="\', escape=False)\nresponse.write(T.accepted_language or \'en\')\nresponse.write(\'"> <![endif]-->\\n<!--[if (gt IE 9)|!(IE)]><!--> <html class="no-js" lang="\', escape=False)\nresponse.write(T.accepted_language or \'en\')\nresponse.write(\'"> <!--<![endif]-->\\n<head>\\n  <meta charset="utf-8" />\\n  <!-- www.phpied.com/conditional-comments-block-downloads/ -->\\n  <!-- Always force latest IE rendering engine\\n       (even in intranet) & Chrome Frame\\n       Remove this if you use the .htaccess -->\\n  <!--[if IE]>\\n      <meta http-equiv="X-UA-Compatible" content="IE=edge\', escape=False)\nresponse.write(not request.is_local and \',chrome=1\' or \'\')\nresponse.write(\'">\\n      <![endif]-->\\n\\n  <title>Buy/Sell</title>\\n\\n  <!-- http://dev.w3.org/html5/markup/meta.name.html -->\\n  <meta name="application-name" content="\', escape=False)\nresponse.write(request.application)\nresponse.write(\'" />\\n\\n  <!-- Speaking of Google, don\\\'t forget to set your site up:\\n       http://google.com/webmasters -->\\n  <meta name="google-site-verification" content="" />\\n\\n  <!--  Mobile Viewport Fix\\n        j.mp/mobileviewport & davidbcalhoun.com/2010/viewport-metatag\\n        device-width: Occupy full width of the screen in its current orientation\\n        initial-scale = 1.0 retains dimensions instead of zooming out if page height > device height\\n        user-scalable = yes allows the user to zoom in -->\\n  <meta name="viewport" content="width=device-width, initial-scale=1.0" />\\n\\n  <link rel="shortcut icon" href="\', escape=False)\nresponse.write(URL(\'static\',\'images/favicon.ico\'))\nresponse.write(\'" type="image/x-icon">\\n  <link rel="apple-touch-icon" href="\', escape=False)\nresponse.write(URL(\'static\',\'images/favicon.png\'))\nresponse.write(\'">\\n\\n  <!-- All JavaScript at the bottom, except for Modernizr which enables\\n       HTML5 elements & feature detects -->\\n  <script src="\', escape=False)\nresponse.write(URL(\'static\',\'js/modernizr.custom.js\'))\nresponse.write(\'"></script>\\n\\n  <!-- include stylesheets -->\\n  \', escape=False)\nresponse.files.append(URL(\'static\',\'css/web2py.css\'))\nresponse.files.append(URL(\'static\',\'css/bootstrap.min.css\'))\nresponse.files.append(URL(\'static\',\'css/bootstrap-responsive.min.css\'))\nresponse.files.append(URL(\'static\',\'css/web2py_bootstrap.css\'))\nresponse.write(\'\\n\\n  \', escape=False)\nresponse.write(\'<script type="text/javascript"><!--\\n    // These variables are used by the web2py_ajax_init function in web2py_ajax.js (which is loaded below).\\n    var w2p_ajax_confirm_message = "\', escape=False)\nresponse.write(T(\'Are you sure you want to delete this object?\'))\nresponse.write(\'";\\n    var w2p_ajax_date_format = "\', escape=False)\nresponse.write(T(\'%Y-%m-%d\'))\nresponse.write(\'";\\n    var w2p_ajax_datetime_format = "\', escape=False)\nresponse.write(T(\'%Y-%m-%d %H:%M:%S\'))\nresponse.write(\'";\\n    //--></script>\\n\', escape=False)\nresponse.files.insert(0,URL(\'static\',\'js/jquery.js\'))\nresponse.files.insert(1,URL(\'static\',\'css/calendar.css\'))\nresponse.files.insert(2,URL(\'static\',\'js/calendar.js\'))\nresponse.files.insert(3,URL(\'static\',\'js/web2py.js\'))\nresponse.include_meta()\nresponse.include_files()\nresponse.write(\'\\n\', escape=False)\nresponse.write(\'\\n\\n  \', escape=False)\n# using sidebars need to know what sidebar you want to use\nleft_sidebar_enabled = globals().get(\'left_sidebar_enabled\',False)\nright_sidebar_enabled = globals().get(\'right_sidebar_enabled\',False)\nmiddle_columns = {0:\'span12\',1:\'span9\',2:\'span6\'}[\n(left_sidebar_enabled and 1 or 0)+(right_sidebar_enabled and 1 or 0)]\nresponse.write(\'\\n\\n  <!-- uncomment here to load jquery-ui\\n       <link rel="stylesheet" href="http://ajax.googleapis.com/ajax/libs/jqueryui/1.8.16/themes/base/jquery-ui.css" type="text/css" media="all" />\\n       <script src="http://ajax.googleapis.com/ajax/libs/jqueryui/1.8.16/jquery-ui.min.js" type="text/javascript"></script>\\n       uncomment to load jquery-ui //-->\\n  <noscript><link href="\', escape=False)\nresponse.write(URL(\'static\', \'css/web2py_bootstrap_nojs.css\'))\nresponse.write(\'" rel="stylesheet" type="text/css" /></noscript>\\n  \', escape=False)\nresponse.write(\'\\n</head>\\n\\n<body>\\n  <!-- Navbar ================================================== -->\\n  <div class="navbar navbar-inverse navbar-fixed-top">\\n    <div class="flash">\', escape=False)\nresponse.write(response.flash or \'\')\nresponse.write(\'</div>\\n    <div class="navbar-inner">\\n      <div class="container">\\n        <!-- the next tag is necessary for bootstrap menus, do not remove -->\\n        <button type="button" class="btn btn-navbar" data-toggle="collapse" data-target=".nav-collapse">\\n          <span class="icon-bar"></span>\\n          <span class="icon-bar"></span>\\n          <span class="icon-bar"></span>\\n        </button>\\n\\t\', escape=False)\nresponse.write(response.logo or \'\')\nresponse.write(\'\\n        <ul id="navbar" class="nav pull-right">\', escape=False)\nresponse.write(\'auth\' in globals() and auth.navbar(mode="dropdown") or \'\')\nresponse.write(\'</ul>\\n        <div class="nav-collapse">\\n          \', escape=False)\nis_mobile=request.user_agent().is_mobile\nresponse.write(\'\\n          \', escape=False)\nif response.menu:\n    response.write(\'\\n          \', escape=False)\n    response.write(MENU(response.menu, _class=\'mobile-menu nav\' if is_mobile else \'nav\',mobile=is_mobile,li_class=\'dropdown\',ul_class=\'dropdown-menu\'))\n    response.write(\'\\n          \', escape=False)\n    pass\nresponse.write(\'\\n        </div><!--/.nav-collapse -->\\n      </div>\\n    </div>\\n  </div><!--/top navbar -->\\n\\n  <div class="container">\\n  <br /><br />\\n    <!-- Masthead ================================================== -->\\n    <!--<header class="mastheader row" id="header">\\n        <div class="span12">\\n            <div class="page-header">\\n                <h1>\\n                   Buy/Sell \\n                    <small>Your one stop to buy and sell customizable products</small>\\n                </h1>\\n            </div>\\n        </div>\\n    </header>-->\\n\\n    <section id="main" class="main row">\\n        \', escape=False)\nif left_sidebar_enabled:\n    response.write(\'\\n        <div class="span3 left-sidebar">\\n            \', escape=False)\n    response.write(\'\\n            <h3>Left Sidebar</h3>\\n            <p></p>\\n            \', escape=False)\n    response.write(\'\\n        </div>\\n        \', escape=False)\n    pass\nresponse.write(\'\\n\\n        <div class="\', escape=False)\nresponse.write(middle_columns)\nresponse.write(\'">\\n            \', escape=False)\nresponse.write(\'\\n            \', escape=False)\nresponse.write(\'\\n\', escape=False)\nresponse.write(form1)\nresponse.write(\'\\n\', escape=False)\nitems=items\nresponse.write(\'\\n\', escape=False)\nbid=bids\nresponse.write(\'\\n\', escape=False)\nno_bids=no_bids\nresponse.write(\'\\n    <table>\\n    \\n    \', escape=False)\nfor i in items:\n    response.write(\'\\n        <tr>    \\n        <td><img src="\', escape=False)\n    response.write(URL(\'download\',args=i.image ))\n    response.write(\'" width=200px height=auto/></td>\\n        <td>\', escape=False)\n    response.write(A(i.name,_href=URL(r=request, f=\'item_d\', args=i.id)))\n    response.write(\' </td>\\n        \\n        <td>\\n        \', escape=False)\n    if i.selling_type==\'Buy\':\n        response.write(\'\\n            \', escape=False)\n        response.write(DIV(\'Rs.\',i.price))\n        response.write(\'\\n        \', escape=False)\n    else:\n        response.write(\'\\n            \', escape=False)\n        if no_bids.has_key(i.id)\n        response.write(\'\\n                \', escape=False)\n        response.write(DIV(\'No bid placed, initial price Rs.\',no_bid[i.id]))\n        response.write(\'\\n            \', escape=False)\n    else:\n        response.write(\'\\n                \', escape=False)\n        for j in bid:\n            response.write(\'\\n                    \', escape=False)\n            if i.id==j.item_id:\n                response.write(\'\\n                     \', escape=False)\n                response.write(DIV(\'Current Bid : Rs.\',j.amount))\n                response.write(\'\\n                    \', escape=False)\n                pass\n            response.write(\'\\n                \', escape=False)\n            pass\n        response.write(\'\\n            \', escape=False)\n        pass\n    response.write(\'\\n        \', escape=False)\n    pass\nresponse.write(\'\\n        \\n        \\n        </td>\\n        \\n        <td>\\n        \', escape=False)\nif i.selling_type==\'Buy\':\n    response.write(\'\\n            \', escape=False)\n    response.write(A(\'Buy this item\',_href=URL(r=request, f=\'buy_item\', args=i.id)))\n    response.write(\'\\n        \', escape=False)\nelse:\n    response.write(\'\\n            \', escape=False)\n    response.write(A(\'Place a Bid\',_href=URL(r=request, f=\'place_bid\', args=i.id)))\n    response.write(\'\\n        \', escape=False)\n    pass\nresponse.write(\'\\n        \\n        </td>\\n        </tr>\\n    \', escape=False)\npass\nresponse.write(\'\\n    \\n    </table>\\n        \', escape=False)\npass\nresponse.write(\'        \\n    <br />\', escape=False)\nresponse.write(\'\\n            \', escape=False)\nresponse.write(\'\\n        </div>\\n\\n        \', escape=False)\nif right_sidebar_enabled:\n    response.write(\'\\n        <div class="span3">\\n            \', escape=False)\n    response.write(\'\\n            <h3>Right Sidebar</h3>\\n            <p></p>\\n            \', escape=False)\n    response.write(\'\\n        </div>\\n        \', escape=False)\n    pass\nresponse.write(\'\\n    </section><!--/main-->\\n\\n    <!-- Footer ================================================== -->\\n    <div class="row">\\n        <footer class="footer span12" id="footer">\\n            <div class="footer-content">\\n                \', escape=False)\nresponse.write(\' <!-- this is default footer -->\\n                <div class="copyright pull-left">\', escape=False)\nresponse.write(T(\'Copyright\'))\nresponse.write(\' &#169; \', escape=False)\nresponse.write(request.now.year)\nresponse.write(\'</div>\\n                <div id="poweredBy" class="pull-right">\\n                    \', escape=False)\nresponse.write(T(\'Powered by\'))\nresponse.write(\'\\n                    <a href="http://www.web2py.com/">web2py</a>\\n                </div>\\n                \', escape=False)\nresponse.write(\'\\n            </div>\\n        </footer>\\n    </div>\\n\\n  </div> <!-- /container -->\\n\\n  <!-- The javascript =============================================\\n       (Placed at the end of the document so the pages load faster) -->\\n  <script src="\', escape=False)\nresponse.write(URL(\'static\',\'js/bootstrap.min.js\'))\nresponse.write(\'"></script>\\n  <script src="\', escape=False)\nresponse.write(URL(\'static\',\'js/web2py_bootstrap.js\'))\nresponse.write(\'"></script>\\n  <!--[if lt IE 7 ]>\\n      <script src="\', escape=False)\nresponse.write(URL(\'static\',\'js/dd_belatedpng.js\'))\nresponse.write(\'"></script>\\n      <script> DD_belatedPNG.fix(\\\'img, .png_bg\\\'); //fix any <img> or .png_bg background-images </script>\\n      <![endif]-->\\n  \\n  \', escape=False)\nif response.google_analytics_id:\n    response.write(\'\\n  <script src="\', escape=False)\n    response.write(URL(\'static\',\'js/analytics.js\'))\n    response.write(\'"></script>\\n  <script type="text/javascript">\\n  analytics.initialize({\\n    \\\'Google Analytics\\\':{trackingId:\\\'\', escape=False)\n    response.write(response.google_analytics_id)\n    response.write("\'} \\n  });</script>\\n  ", escape=False)\n    pass\nresponse.write(\'\\n  <script src="\', escape=False)\nresponse.write(URL(\'static\',\'js/share.js\',vars=dict(static=URL(\'static\',\'images\'))))\nresponse.write(\'"></script>\\n</body>\\n</html>\\n\\n\', escape=False)'
p7
sS'snapshot'
p8
(dp9
S'exception'
p10
(dp11
S'__getslice__'
p12
S"<method-wrapper '__getslice__' of exceptions.SyntaxError object>"
p13
sS'text'
p14
S"'        if no_bids.has_key(i.id)\\n'"
p15
sS'__str__'
p16
S"<method-wrapper '__str__' of exceptions.SyntaxError object>"
p17
sS'__reduce__'
p18
S'<built-in method __reduce__ of exceptions.SyntaxError object>'
p19
sS'__dict__'
p20
S'{}'
p21
sS'__sizeof__'
p22
S'<built-in method __sizeof__ of exceptions.SyntaxError object>'
p23
sS'__init__'
p24
S"<method-wrapper '__init__' of exceptions.SyntaxError object>"
p25
sS'__setattr__'
p26
S"<method-wrapper '__setattr__' of exceptions.SyntaxError object>"
p27
sS'__reduce_ex__'
p28
S'<built-in method __reduce_ex__ of exceptions.SyntaxError object>'
p29
sS'__new__'
p30
S'<built-in method __new__ of type object>'
p31
sS'__format__'
p32
S'<built-in method __format__ of exceptions.SyntaxError object>'
p33
sS'__class__'
p34
S"<type 'exceptions.SyntaxError'>"
p35
sS'filename'
p36
S"'/home/pratyush/web2py/applications/BuySell/views/default/list_items.html'"
p37
sS'lineno'
p38
S'95'
p39
sS'msg'
p40
S"'invalid syntax'"
p41
sS'__doc__'
p42
S"'Invalid syntax.'"
p43
sS'__getitem__'
p44
S"<method-wrapper '__getitem__' of exceptions.SyntaxError object>"
p45
sS'__setstate__'
p46
S'<built-in method __setstate__ of exceptions.SyntaxError object>'
p47
sS'__getattribute__'
p48
S"<method-wrapper '__getattribute__' of exceptions.SyntaxError object>"
p49
sS'print_file_and_line'
p50
S'None'
p51
sS'args'
p52
S"('invalid syntax', ('/home/pratyush/web2py/applications/BuySell/views/default/list_items.html', 95, 33, '        if no_bids.has_key(i.id)\\n'))"
p53
sS'__subclasshook__'
p54
S'<built-in method __subclasshook__ of type object>'
p55
sS'offset'
p56
S'33'
p57
sS'__unicode__'
p58
S'<built-in method __unicode__ of exceptions.SyntaxError object>'
p59
sS'__delattr__'
p60
S"<method-wrapper '__delattr__' of exceptions.SyntaxError object>"
p61
sS'__repr__'
p62
S"<method-wrapper '__repr__' of exceptions.SyntaxError object>"
p63
sS'__hash__'
p64
S"<method-wrapper '__hash__' of exceptions.SyntaxError object>"
p65
ssS'evalue'
p66
S'invalid syntax (list_items.html, line 95)'
p67
sS'request'
p68
ccopy_reg
_reconstructor
p69
(cgluon.html
BEAUTIFY
p70
c__builtin__
object
p71
NtRp72
(dp73
S'attributes'
p74
(dp75
sS'components'
p76
(lp77
g69
(cgluon.html
TABLE
p78
g71
NtRp79
(dp80
g74
(dp81
S'level'
p82
I5
ssS'parent'
p83
Nsg76
(lp84
g69
(cgluon.html
TR
p85
g71
NtRp86
(dp87
g74
(dp88
sg83
g79
sg76
(lp89
g69
(cgluon.html
TD
p90
g71
NtRp91
(dp92
g74
(dp93
S'_style'
p94
S'font-weight:bold;vertical-align:top'
p95
ssg83
g86
sg76
(lp96
S'ajax'
p97
asbag69
(g90
g71
NtRp98
(dp99
g74
(dp100
S'_valign'
p101
S'top'
p102
ssg83
g86
sg76
(lp103
S':'
asbag69
(g90
g71
NtRp104
(dp105
g74
(dp106
sg83
g86
sg76
(lp107
g69
(g70
g71
NtRp108
(dp109
g74
(dp110
g82
I5
ssg83
g104
sg76
(lp111
S'False'
p112
asbasbasbag69
(g85
g71
NtRp113
(dp114
g74
(dp115
sg83
g79
sg76
(lp116
g69
(g90
g71
NtRp117
(dp118
g74
(dp119
g94
g95
ssg83
g113
sg76
(lp120
S'application'
p121
asbag69
(g90
g71
NtRp122
(dp123
g74
(dp124
g101
g102
ssg83
g113
sg76
(lp125
S':'
asbag69
(g90
g71
NtRp126
(dp127
g74
(dp128
sg83
g113
sg76
(lp129
g69
(g70
g71
NtRp130
(dp131
g74
(dp132
g82
I5
ssg83
g126
sg76
(lp133
S'BuySell'
p134
asbasbasbag69
(g85
g71
NtRp135
(dp136
g74
(dp137
sg83
g79
sg76
(lp138
g69
(g90
g71
NtRp139
(dp140
g74
(dp141
g94
g95
ssg83
g135
sg76
(lp142
g52
asbag69
(g90
g71
NtRp143
(dp144
g74
(dp145
g101
g102
ssg83
g135
sg76
(lp146
S':'
asbag69
(g90
g71
NtRp147
(dp148
g74
(dp149
sg83
g135
sg76
(lp150
g69
(g70
g71
NtRp151
(dp152
g74
(dp153
g82
I5
ssg83
g147
sg76
(lp154
g69
(g78
g71
NtRp155
(dp156
g74
(dp157
g82
I4
ssg83
Nsg76
(lp158
sbasbasbasbag69
(g85
g71
NtRp159
(dp160
g74
(dp161
sg83
g79
sg76
(lp162
g69
(g90
g71
NtRp163
(dp164
g74
(dp165
g94
g95
ssg83
g159
sg76
(lp166
S'body'
p167
asbag69
(g90
g71
NtRp168
(dp169
g74
(dp170
g101
g102
ssg83
g159
sg76
(lp171
S':'
asbag69
(g90
g71
NtRp172
(dp173
g74
(dp174
sg83
g159
sg76
(lp175
g69
(g70
g71
NtRp176
(dp177
g74
(dp178
g82
I5
ssg83
g172
sg76
(lp179
S'<cStringIO.StringO object at 0xa674980>'
p180
asbasbasbag69
(g85
g71
NtRp181
(dp182
g74
(dp183
sg83
g79
sg76
(lp184
g69
(g90
g71
NtRp185
(dp186
g74
(dp187
g94
g95
ssg83
g181
sg76
(lp188
S'cid'
p189
asbag69
(g90
g71
NtRp190
(dp191
g74
(dp192
g101
g102
ssg83
g181
sg76
(lp193
S':'
asbag69
(g90
g71
NtRp194
(dp195
g74
(dp196
sg83
g181
sg76
(lp197
g69
(g70
g71
NtRp198
(dp199
g74
(dp200
g82
I5
ssg83
g194
sg76
(lp201
S'None'
p202
asbasbasbag69
(g85
g71
NtRp203
(dp204
g74
(dp205
sg83
g79
sg76
(lp206
g69
(g90
g71
NtRp207
(dp208
g74
(dp209
g94
g95
ssg83
g203
sg76
(lp210
S'client'
p211
asbag69
(g90
g71
NtRp212
(dp213
g74
(dp214
g101
g102
ssg83
g203
sg76
(lp215
S':'
asbag69
(g90
g71
NtRp216
(dp217
g74
(dp218
sg83
g203
sg76
(lp219
g69
(g70
g71
NtRp220
(dp221
g74
(dp222
g82
I5
ssg83
g216
sg76
(lp223
S'127.0.0.1'
p224
asbasbasbag69
(g85
g71
NtRp225
(dp226
g74
(dp227
sg83
g79
sg76
(lp228
g69
(g90
g71
NtRp229
(dp230
g74
(dp231
g94
g95
ssg83
g225
sg76
(lp232
S'controller'
p233
asbag69
(g90
g71
NtRp234
(dp235
g74
(dp236
g101
g102
ssg83
g225
sg76
(lp237
S':'
asbag69
(g90
g71
NtRp238
(dp239
g74
(dp240
sg83
g225
sg76
(lp241
g69
(g70
g71
NtRp242
(dp243
g74
(dp244
g82
I5
ssg83
g238
sg76
(lp245
S'default'
p246
asbasbasbag69
(g85
g71
NtRp247
(dp248
g74
(dp249
sg83
g79
sg76
(lp250
g69
(g90
g71
NtRp251
(dp252
g74
(dp253
g94
g95
ssg83
g247
sg76
(lp254
S'cookies'
p255
asbag69
(g90
g71
NtRp256
(dp257
g74
(dp258
g101
g102
ssg83
g247
sg76
(lp259
S':'
asbag69
(g90
g71
NtRp260
(dp261
g74
(dp262
sg83
g247
sg76
(lp263
g69
(g70
g71
NtRp264
(dp265
g74
(dp266
g82
I5
ssg83
g260
sg76
(lp267
g69
(g78
g71
NtRp268
(dp269
g74
(dp270
g82
I4
ssg83
Nsg76
(lp271
g69
(g85
g71
NtRp272
(dp273
g74
(dp274
sg83
g268
sg76
(lp275
g69
(g90
g71
NtRp276
(dp277
g74
(dp278
g94
g95
ssg83
g272
sg76
(lp279
S'registered'
p280
asbag69
(g90
g71
NtRp281
(dp282
g74
(dp283
g101
g102
ssg83
g272
sg76
(lp284
S':'
asbag69
(g90
g71
NtRp285
(dp286
g74
(dp287
sg83
g272
sg76
(lp288
g69
(g70
g71
NtRp289
(dp290
g74
(dp291
g82
I4
ssg83
g285
sg76
(lp292
S'yes'
p293
ag69
(g78
g71
NtRp294
(dp295
g74
(dp296
g82
I3
ssg83
Nsg76
(lp297
g69
(g85
g71
NtRp298
(dp299
g74
(dp300
sg83
g294
sg76
(lp301
g69
(g90
g71
NtRp302
(dp303
g74
(dp304
g94
g95
ssg83
g298
sg76
(lp305
S'comment'
p306
asbag69
(g90
g71
NtRp307
(dp308
g74
(dp309
g101
g102
ssg83
g298
sg76
(lp310
S':'
asbag69
(g90
g71
NtRp311
(dp312
g74
(dp313
sg83
g298
sg76
(lp314
g69
(g70
g71
NtRp315
(dp316
g74
(dp317
g82
I3
ssg83
g311
sg76
(lp318
S''
asbasbasbag69
(g85
g71
NtRp319
(dp320
g74
(dp321
sg83
g294
sg76
(lp322
g69
(g90
g71
NtRp323
(dp324
g74
(dp325
g94
g95
ssg83
g319
sg76
(lp326
S'domain'
p327
asbag69
(g90
g71
NtRp328
(dp329
g74
(dp330
g101
g102
ssg83
g319
sg76
(lp331
S':'
asbag69
(g90
g71
NtRp332
(dp333
g74
(dp334
sg83
g319
sg76
(lp335
g69
(g70
g71
NtRp336
(dp337
g74
(dp338
g82
I3
ssg83
g332
sg76
(lp339
S''
asbasbasbag69
(g85
g71
NtRp340
(dp341
g74
(dp342
sg83
g294
sg76
(lp343
g69
(g90
g71
NtRp344
(dp345
g74
(dp346
g94
g95
ssg83
g340
sg76
(lp347
S'expires'
p348
asbag69
(g90
g71
NtRp349
(dp350
g74
(dp351
g101
g102
ssg83
g340
sg76
(lp352
S':'
asbag69
(g90
g71
NtRp353
(dp354
g74
(dp355
sg83
g340
sg76
(lp356
g69
(g70
g71
NtRp357
(dp358
g74
(dp359
g82
I3
ssg83
g353
sg76
(lp360
S''
asbasbasbag69
(g85
g71
NtRp361
(dp362
g74
(dp363
sg83
g294
sg76
(lp364
g69
(g90
g71
NtRp365
(dp366
g74
(dp367
g94
g95
ssg83
g361
sg76
(lp368
S'httponly'
p369
asbag69
(g90
g71
NtRp370
(dp371
g74
(dp372
g101
g102
ssg83
g361
sg76
(lp373
S':'
asbag69
(g90
g71
NtRp374
(dp375
g74
(dp376
sg83
g361
sg76
(lp377
g69
(g70
g71
NtRp378
(dp379
g74
(dp380
g82
I3
ssg83
g374
sg76
(lp381
S''
asbasbasbag69
(g85
g71
NtRp382
(dp383
g74
(dp384
sg83
g294
sg76
(lp385
g69
(g90
g71
NtRp386
(dp387
g74
(dp388
g94
g95
ssg83
g382
sg76
(lp389
S'max-age'
p390
asbag69
(g90
g71
NtRp391
(dp392
g74
(dp393
g101
g102
ssg83
g382
sg76
(lp394
S':'
asbag69
(g90
g71
NtRp395
(dp396
g74
(dp397
sg83
g382
sg76
(lp398
g69
(g70
g71
NtRp399
(dp400
g74
(dp401
g82
I3
ssg83
g395
sg76
(lp402
S''
asbasbasbag69
(g85
g71
NtRp403
(dp404
g74
(dp405
sg83
g294
sg76
(lp406
g69
(g90
g71
NtRp407
(dp408
g74
(dp409
g94
g95
ssg83
g403
sg76
(lp410
S'path'
p411
asbag69
(g90
g71
NtRp412
(dp413
g74
(dp414
g101
g102
ssg83
g403
sg76
(lp415
S':'
asbag69
(g90
g71
NtRp416
(dp417
g74
(dp418
sg83
g403
sg76
(lp419
g69
(g70
g71
NtRp420
(dp421
g74
(dp422
g82
I3
ssg83
g416
sg76
(lp423
S''
asbasbasbag69
(g85
g71
NtRp424
(dp425
g74
(dp426
sg83
g294
sg76
(lp427
g69
(g90
g71
NtRp428
(dp429
g74
(dp430
g94
g95
ssg83
g424
sg76
(lp431
S'secure'
p432
asbag69
(g90
g71
NtRp433
(dp434
g74
(dp435
g101
g102
ssg83
g424
sg76
(lp436
S':'
asbag69
(g90
g71
NtRp437
(dp438
g74
(dp439
sg83
g424
sg76
(lp440
g69
(g70
g71
NtRp441
(dp442
g74
(dp443
g82
I3
ssg83
g437
sg76
(lp444
S''
asbasbasbag69
(g85
g71
NtRp445
(dp446
g74
(dp447
sg83
g294
sg76
(lp448
g69
(g90
g71
NtRp449
(dp450
g74
(dp451
g94
g95
ssg83
g445
sg76
(lp452
S'version'
p453
asbag69
(g90
g71
NtRp454
(dp455
g74
(dp456
g101
g102
ssg83
g445
sg76
(lp457
S':'
asbag69
(g90
g71
NtRp458
(dp459
g74
(dp460
sg83
g445
sg76
(lp461
g69
(g70
g71
NtRp462
(dp463
g74
(dp464
g82
I3
ssg83
g458
sg76
(lp465
S''
asbasbasbasbasbasbasbag69
(g85
g71
NtRp466
(dp467
g74
(dp468
sg83
g268
sg76
(lp469
g69
(g90
g71
NtRp470
(dp471
g74
(dp472
g94
g95
ssg83
g466
sg76
(lp473
S'session_id_admin'
p474
asbag69
(g90
g71
NtRp475
(dp476
g74
(dp477
g101
g102
ssg83
g466
sg76
(lp478
S':'
asbag69
(g90
g71
NtRp479
(dp480
g74
(dp481
sg83
g466
sg76
(lp482
g69
(g70
g71
NtRp483
(dp484
g74
(dp485
g82
I4
ssg83
g479
sg76
(lp486
S'127.0.0.1-9ed8b734-ef8d-434e-9a7b-79af6eec8abb'
p487
ag69
(g78
g71
NtRp488
(dp489
g74
(dp490
g82
I3
ssg83
Nsg76
(lp491
g69
(g85
g71
NtRp492
(dp493
g74
(dp494
sg83
g488
sg76
(lp495
g69
(g90
g71
NtRp496
(dp497
g74
(dp498
g94
g95
ssg83
g492
sg76
(lp499
g306
asbag69
(g90
g71
NtRp500
(dp501
g74
(dp502
g101
g102
ssg83
g492
sg76
(lp503
S':'
asbag69
(g90
g71
NtRp504
(dp505
g74
(dp506
sg83
g492
sg76
(lp507
g69
(g70
g71
NtRp508
(dp509
g74
(dp510
g82
I3
ssg83
g504
sg76
(lp511
S''
asbasbasbag69
(g85
g71
NtRp512
(dp513
g74
(dp514
sg83
g488
sg76
(lp515
g69
(g90
g71
NtRp516
(dp517
g74
(dp518
g94
g95
ssg83
g512
sg76
(lp519
g327
asbag69
(g90
g71
NtRp520
(dp521
g74
(dp522
g101
g102
ssg83
g512
sg76
(lp523
S':'
asbag69
(g90
g71
NtRp524
(dp525
g74
(dp526
sg83
g512
sg76
(lp527
g69
(g70
g71
NtRp528
(dp529
g74
(dp530
g82
I3
ssg83
g524
sg76
(lp531
S''
asbasbasbag69
(g85
g71
NtRp532
(dp533
g74
(dp534
sg83
g488
sg76
(lp535
g69
(g90
g71
NtRp536
(dp537
g74
(dp538
g94
g95
ssg83
g532
sg76
(lp539
g348
asbag69
(g90
g71
NtRp540
(dp541
g74
(dp542
g101
g102
ssg83
g532
sg76
(lp543
S':'
asbag69
(g90
g71
NtRp544
(dp545
g74
(dp546
sg83
g532
sg76
(lp547
g69
(g70
g71
NtRp548
(dp549
g74
(dp550
g82
I3
ssg83
g544
sg76
(lp551
S''
asbasbasbag69
(g85
g71
NtRp552
(dp553
g74
(dp554
sg83
g488
sg76
(lp555
g69
(g90
g71
NtRp556
(dp557
g74
(dp558
g94
g95
ssg83
g552
sg76
(lp559
g369
asbag69
(g90
g71
NtRp560
(dp561
g74
(dp562
g101
g102
ssg83
g552
sg76
(lp563
S':'
asbag69
(g90
g71
NtRp564
(dp565
g74
(dp566
sg83
g552
sg76
(lp567
g69
(g70
g71
NtRp568
(dp569
g74
(dp570
g82
I3
ssg83
g564
sg76
(lp571
S''
asbasbasbag69
(g85
g71
NtRp572
(dp573
g74
(dp574
sg83
g488
sg76
(lp575
g69
(g90
g71
NtRp576
(dp577
g74
(dp578
g94
g95
ssg83
g572
sg76
(lp579
g390
asbag69
(g90
g71
NtRp580
(dp581
g74
(dp582
g101
g102
ssg83
g572
sg76
(lp583
S':'
asbag69
(g90
g71
NtRp584
(dp585
g74
(dp586
sg83
g572
sg76
(lp587
g69
(g70
g71
NtRp588
(dp589
g74
(dp590
g82
I3
ssg83
g584
sg76
(lp591
S''
asbasbasbag69
(g85
g71
NtRp592
(dp593
g74
(dp594
sg83
g488
sg76
(lp595
g69
(g90
g71
NtRp596
(dp597
g74
(dp598
g94
g95
ssg83
g592
sg76
(lp599
g411
asbag69
(g90
g71
NtRp600
(dp601
g74
(dp602
g101
g102
ssg83
g592
sg76
(lp603
S':'
asbag69
(g90
g71
NtRp604
(dp605
g74
(dp606
sg83
g592
sg76
(lp607
g69
(g70
g71
NtRp608
(dp609
g74
(dp610
g82
I3
ssg83
g604
sg76
(lp611
S''
asbasbasbag69
(g85
g71
NtRp612
(dp613
g74
(dp614
sg83
g488
sg76
(lp615
g69
(g90
g71
NtRp616
(dp617
g74
(dp618
g94
g95
ssg83
g612
sg76
(lp619
g432
asbag69
(g90
g71
NtRp620
(dp621
g74
(dp622
g101
g102
ssg83
g612
sg76
(lp623
S':'
asbag69
(g90
g71
NtRp624
(dp625
g74
(dp626
sg83
g612
sg76
(lp627
g69
(g70
g71
NtRp628
(dp629
g74
(dp630
g82
I3
ssg83
g624
sg76
(lp631
S''
asbasbasbag69
(g85
g71
NtRp632
(dp633
g74
(dp634
sg83
g488
sg76
(lp635
g69
(g90
g71
NtRp636
(dp637
g74
(dp638
g94
g95
ssg83
g632
sg76
(lp639
g453
asbag69
(g90
g71
NtRp640
(dp641
g74
(dp642
g101
g102
ssg83
g632
sg76
(lp643
S':'
asbag69
(g90
g71
NtRp644
(dp645
g74
(dp646
sg83
g632
sg76
(lp647
g69
(g70
g71
NtRp648
(dp649
g74
(dp650
g82
I3
ssg83
g644
sg76
(lp651
S''
asbasbasbasbasbasbasbag69
(g85
g71
NtRp652
(dp653
g74
(dp654
sg83
g268
sg76
(lp655
g69
(g90
g71
NtRp656
(dp657
g74
(dp658
g94
g95
ssg83
g652
sg76
(lp659
S'session_id_buysell'
p660
asbag69
(g90
g71
NtRp661
(dp662
g74
(dp663
g101
g102
ssg83
g652
sg76
(lp664
S':'
asbag69
(g90
g71
NtRp665
(dp666
g74
(dp667
sg83
g652
sg76
(lp668
g69
(g70
g71
NtRp669
(dp670
g74
(dp671
g82
I4
ssg83
g665
sg76
(lp672
S'127.0.0.1-f42b8fb6-bce7-404a-b975-99002423340f'
p673
ag69
(g78
g71
NtRp674
(dp675
g74
(dp676
g82
I3
ssg83
Nsg76
(lp677
g69
(g85
g71
NtRp678
(dp679
g74
(dp680
sg83
g674
sg76
(lp681
g69
(g90
g71
NtRp682
(dp683
g74
(dp684
g94
g95
ssg83
g678
sg76
(lp685
g306
asbag69
(g90
g71
NtRp686
(dp687
g74
(dp688
g101
g102
ssg83
g678
sg76
(lp689
S':'
asbag69
(g90
g71
NtRp690
(dp691
g74
(dp692
sg83
g678
sg76
(lp693
g69
(g70
g71
NtRp694
(dp695
g74
(dp696
g82
I3
ssg83
g690
sg76
(lp697
S''
asbasbasbag69
(g85
g71
NtRp698
(dp699
g74
(dp700
sg83
g674
sg76
(lp701
g69
(g90
g71
NtRp702
(dp703
g74
(dp704
g94
g95
ssg83
g698
sg76
(lp705
g327
asbag69
(g90
g71
NtRp706
(dp707
g74
(dp708
g101
g102
ssg83
g698
sg76
(lp709
S':'
asbag69
(g90
g71
NtRp710
(dp711
g74
(dp712
sg83
g698
sg76
(lp713
g69
(g70
g71
NtRp714
(dp715
g74
(dp716
g82
I3
ssg83
g710
sg76
(lp717
S''
asbasbasbag69
(g85
g71
NtRp718
(dp719
g74
(dp720
sg83
g674
sg76
(lp721
g69
(g90
g71
NtRp722
(dp723
g74
(dp724
g94
g95
ssg83
g718
sg76
(lp725
g348
asbag69
(g90
g71
NtRp726
(dp727
g74
(dp728
g101
g102
ssg83
g718
sg76
(lp729
S':'
asbag69
(g90
g71
NtRp730
(dp731
g74
(dp732
sg83
g718
sg76
(lp733
g69
(g70
g71
NtRp734
(dp735
g74
(dp736
g82
I3
ssg83
g730
sg76
(lp737
S''
asbasbasbag69
(g85
g71
NtRp738
(dp739
g74
(dp740
sg83
g674
sg76
(lp741
g69
(g90
g71
NtRp742
(dp743
g74
(dp744
g94
g95
ssg83
g738
sg76
(lp745
g369
asbag69
(g90
g71
NtRp746
(dp747
g74
(dp748
g101
g102
ssg83
g738
sg76
(lp749
S':'
asbag69
(g90
g71
NtRp750
(dp751
g74
(dp752
sg83
g738
sg76
(lp753
g69
(g70
g71
NtRp754
(dp755
g74
(dp756
g82
I3
ssg83
g750
sg76
(lp757
S''
asbasbasbag69
(g85
g71
NtRp758
(dp759
g74
(dp760
sg83
g674
sg76
(lp761
g69
(g90
g71
NtRp762
(dp763
g74
(dp764
g94
g95
ssg83
g758
sg76
(lp765
g390
asbag69
(g90
g71
NtRp766
(dp767
g74
(dp768
g101
g102
ssg83
g758
sg76
(lp769
S':'
asbag69
(g90
g71
NtRp770
(dp771
g74
(dp772
sg83
g758
sg76
(lp773
g69
(g70
g71
NtRp774
(dp775
g74
(dp776
g82
I3
ssg83
g770
sg76
(lp777
S''
asbasbasbag69
(g85
g71
NtRp778
(dp779
g74
(dp780
sg83
g674
sg76
(lp781
g69
(g90
g71
NtRp782
(dp783
g74
(dp784
g94
g95
ssg83
g778
sg76
(lp785
g411
asbag69
(g90
g71
NtRp786
(dp787
g74
(dp788
g101
g102
ssg83
g778
sg76
(lp789
S':'
asbag69
(g90
g71
NtRp790
(dp791
g74
(dp792
sg83
g778
sg76
(lp793
g69
(g70
g71
NtRp794
(dp795
g74
(dp796
g82
I3
ssg83
g790
sg76
(lp797
S''
asbasbasbag69
(g85
g71
NtRp798
(dp799
g74
(dp800
sg83
g674
sg76
(lp801
g69
(g90
g71
NtRp802
(dp803
g74
(dp804
g94
g95
ssg83
g798
sg76
(lp805
g432
asbag69
(g90
g71
NtRp806
(dp807
g74
(dp808
g101
g102
ssg83
g798
sg76
(lp809
S':'
asbag69
(g90
g71
NtRp810
(dp811
g74
(dp812
sg83
g798
sg76
(lp813
g69
(g70
g71
NtRp814
(dp815
g74
(dp816
g82
I3
ssg83
g810
sg76
(lp817
S''
asbasbasbag69
(g85
g71
NtRp818
(dp819
g74
(dp820
sg83
g674
sg76
(lp821
g69
(g90
g71
NtRp822
(dp823
g74
(dp824
g94
g95
ssg83
g818
sg76
(lp825
g453
asbag69
(g90
g71
NtRp826
(dp827
g74
(dp828
g101
g102
ssg83
g818
sg76
(lp829
S':'
asbag69
(g90
g71
NtRp830
(dp831
g74
(dp832
sg83
g818
sg76
(lp833
g69
(g70
g71
NtRp834
(dp835
g74
(dp836
g82
I3
ssg83
g830
sg76
(lp837
S''
asbasbasbasbasbasbasbag69
(g85
g71
NtRp838
(dp839
g74
(dp840
sg83
g268
sg76
(lp841
g69
(g90
g71
NtRp842
(dp843
g74
(dp844
g94
g95
ssg83
g838
sg76
(lp845
S'session_id_welcome'
p846
asbag69
(g90
g71
NtRp847
(dp848
g74
(dp849
g101
g102
ssg83
g838
sg76
(lp850
S':'
asbag69
(g90
g71
NtRp851
(dp852
g74
(dp853
sg83
g838
sg76
(lp854
g69
(g70
g71
NtRp855
(dp856
g74
(dp857
g82
I4
ssg83
g851
sg76
(lp858
S'127.0.0.1-7f7cc58f-84a5-4666-8759-30cfd1f98bc1'
p859
ag69
(g78
g71
NtRp860
(dp861
g74
(dp862
g82
I3
ssg83
Nsg76
(lp863
g69
(g85
g71
NtRp864
(dp865
g74
(dp866
sg83
g860
sg76
(lp867
g69
(g90
g71
NtRp868
(dp869
g74
(dp870
g94
g95
ssg83
g864
sg76
(lp871
g306
asbag69
(g90
g71
NtRp872
(dp873
g74
(dp874
g101
g102
ssg83
g864
sg76
(lp875
S':'
asbag69
(g90
g71
NtRp876
(dp877
g74
(dp878
sg83
g864
sg76
(lp879
g69
(g70
g71
NtRp880
(dp881
g74
(dp882
g82
I3
ssg83
g876
sg76
(lp883
S''
asbasbasbag69
(g85
g71
NtRp884
(dp885
g74
(dp886
sg83
g860
sg76
(lp887
g69
(g90
g71
NtRp888
(dp889
g74
(dp890
g94
g95
ssg83
g884
sg76
(lp891
g327
asbag69
(g90
g71
NtRp892
(dp893
g74
(dp894
g101
g102
ssg83
g884
sg76
(lp895
S':'
asbag69
(g90
g71
NtRp896
(dp897
g74
(dp898
sg83
g884
sg76
(lp899
g69
(g70
g71
NtRp900
(dp901
g74
(dp902
g82
I3
ssg83
g896
sg76
(lp903
S''
asbasbasbag69
(g85
g71
NtRp904
(dp905
g74
(dp906
sg83
g860
sg76
(lp907
g69
(g90
g71
NtRp908
(dp909
g74
(dp910
g94
g95
ssg83
g904
sg76
(lp911
g348
asbag69
(g90
g71
NtRp912
(dp913
g74
(dp914
g101
g102
ssg83
g904
sg76
(lp915
S':'
asbag69
(g90
g71
NtRp916
(dp917
g74
(dp918
sg83
g904
sg76
(lp919
g69
(g70
g71
NtRp920
(dp921
g74
(dp922
g82
I3
ssg83
g916
sg76
(lp923
S''
asbasbasbag69
(g85
g71
NtRp924
(dp925
g74
(dp926
sg83
g860
sg76
(lp927
g69
(g90
g71
NtRp928
(dp929
g74
(dp930
g94
g95
ssg83
g924
sg76
(lp931
g369
asbag69
(g90
g71
NtRp932
(dp933
g74
(dp934
g101
g102
ssg83
g924
sg76
(lp935
S':'
asbag69
(g90
g71
NtRp936
(dp937
g74
(dp938
sg83
g924
sg76
(lp939
g69
(g70
g71
NtRp940
(dp941
g74
(dp942
g82
I3
ssg83
g936
sg76
(lp943
S''
asbasbasbag69
(g85
g71
NtRp944
(dp945
g74
(dp946
sg83
g860
sg76
(lp947
g69
(g90
g71
NtRp948
(dp949
g74
(dp950
g94
g95
ssg83
g944
sg76
(lp951
g390
asbag69
(g90
g71
NtRp952
(dp953
g74
(dp954
g101
g102
ssg83
g944
sg76
(lp955
S':'
asbag69
(g90
g71
NtRp956
(dp957
g74
(dp958
sg83
g944
sg76
(lp959
g69
(g70
g71
NtRp960
(dp961
g74
(dp962
g82
I3
ssg83
g956
sg76
(lp963
S''
asbasbasbag69
(g85
g71
NtRp964
(dp965
g74
(dp966
sg83
g860
sg76
(lp967
g69
(g90
g71
NtRp968
(dp969
g74
(dp970
g94
g95
ssg83
g964
sg76
(lp971
g411
asbag69
(g90
g71
NtRp972
(dp973
g74
(dp974
g101
g102
ssg83
g964
sg76
(lp975
S':'
asbag69
(g90
g71
NtRp976
(dp977
g74
(dp978
sg83
g964
sg76
(lp979
g69
(g70
g71
NtRp980
(dp981
g74
(dp982
g82
I3
ssg83
g976
sg76
(lp983
S''
asbasbasbag69
(g85
g71
NtRp984
(dp985
g74
(dp986
sg83
g860
sg76
(lp987
g69
(g90
g71
NtRp988
(dp989
g74
(dp990
g94
g95
ssg83
g984
sg76
(lp991
g432
asbag69
(g90
g71
NtRp992
(dp993
g74
(dp994
g101
g102
ssg83
g984
sg76
(lp995
S':'
asbag69
(g90
g71
NtRp996
(dp997
g74
(dp998
sg83
g984
sg76
(lp999
g69
(g70
g71
NtRp1000
(dp1001
g74
(dp1002
g82
I3
ssg83
g996
sg76
(lp1003
S''
asbasbasbag69
(g85
g71
NtRp1004
(dp1005
g74
(dp1006
sg83
g860
sg76
(lp1007
g69
(g90
g71
NtRp1008
(dp1009
g74
(dp1010
g94
g95
ssg83
g1004
sg76
(lp1011
g453
asbag69
(g90
g71
NtRp1012
(dp1013
g74
(dp1014
g101
g102
ssg83
g1004
sg76
(lp1015
S':'
asbag69
(g90
g71
NtRp1016
(dp1017
g74
(dp1018
sg83
g1004
sg76
(lp1019
g69
(g70
g71
NtRp1020
(dp1021
g74
(dp1022
g82
I3
ssg83
g1016
sg76
(lp1023
S''
asbasbasbasbasbasbasbasbasbasbasbag69
(g85
g71
NtRp1024
(dp1025
g74
(dp1026
sg83
g79
sg76
(lp1027
g69
(g90
g71
NtRp1028
(dp1029
g74
(dp1030
g94
g95
ssg83
g1024
sg76
(lp1031
S'env'
p1032
asbag69
(g90
g71
NtRp1033
(dp1034
g74
(dp1035
g101
g102
ssg83
g1024
sg76
(lp1036
S':'
asbag69
(g90
g71
NtRp1037
(dp1038
g74
(dp1039
sg83
g1024
sg76
(lp1040
g69
(g70
g71
NtRp1041
(dp1042
g74
(dp1043
g82
I5
ssg83
g1037
sg76
(lp1044
g69
(g78
g71
NtRp1045
(dp1046
g74
(dp1047
g82
I4
ssg83
Nsg76
(lp1048
g69
(g85
g71
NtRp1049
(dp1050
g74
(dp1051
sg83
g1045
sg76
(lp1052
g69
(g90
g71
NtRp1053
(dp1054
g74
(dp1055
g94
g95
ssg83
g1049
sg76
(lp1056
S'app_folders'
p1057
asbag69
(g90
g71
NtRp1058
(dp1059
g74
(dp1060
g101
g102
ssg83
g1049
sg76
(lp1061
S':'
asbag69
(g90
g71
NtRp1062
(dp1063
g74
(dp1064
sg83
g1049
sg76
(lp1065
g69
(g70
g71
NtRp1066
(dp1067
g74
(dp1068
g82
I4
ssg83
g1062
sg76
(lp1069
S"set(['/home/pratyush/web2py/applications/welcome/', '/home/pratyush/web2py/applications/BuySell/', '/home/pratyush/web2py/applications/admin/'])"
p1070
asbasbasbag69
(g85
g71
NtRp1071
(dp1072
g74
(dp1073
sg83
g1045
sg76
(lp1074
g69
(g90
g71
NtRp1075
(dp1076
g74
(dp1077
g94
g95
ssg83
g1071
sg76
(lp1078
S'applications_parent'
p1079
asbag69
(g90
g71
NtRp1080
(dp1081
g74
(dp1082
g101
g102
ssg83
g1071
sg76
(lp1083
S':'
asbag69
(g90
g71
NtRp1084
(dp1085
g74
(dp1086
sg83
g1071
sg76
(lp1087
g69
(g70
g71
NtRp1088
(dp1089
g74
(dp1090
g82
I4
ssg83
g1084
sg76
(lp1091
S'/home/pratyush/web2py'
p1092
asbasbasbag69
(g85
g71
NtRp1093
(dp1094
g74
(dp1095
sg83
g1045
sg76
(lp1096
g69
(g90
g71
NtRp1097
(dp1098
g74
(dp1099
g94
g95
ssg83
g1093
sg76
(lp1100
S'cmd_args'
p1101
asbag69
(g90
g71
NtRp1102
(dp1103
g74
(dp1104
g101
g102
ssg83
g1093
sg76
(lp1105
S':'
asbag69
(g90
g71
NtRp1106
(dp1107
g74
(dp1108
sg83
g1093
sg76
(lp1109
g69
(g70
g71
NtRp1110
(dp1111
g74
(dp1112
g82
I4
ssg83
g1106
sg76
(lp1113
g69
(g78
g71
NtRp1114
(dp1115
g74
(dp1116
g82
I3
ssg83
Nsg76
(lp1117
sbasbasbasbag69
(g85
g71
NtRp1118
(dp1119
g74
(dp1120
sg83
g1045
sg76
(lp1121
g69
(g90
g71
NtRp1122
(dp1123
g74
(dp1124
g94
g95
ssg83
g1118
sg76
(lp1125
S'cmd_options'
p1126
asbag69
(g90
g71
NtRp1127
(dp1128
g74
(dp1129
g101
g102
ssg83
g1118
sg76
(lp1130
S':'
asbag69
(g90
g71
NtRp1131
(dp1132
g74
(dp1133
sg83
g1118
sg76
(lp1134
g69
(g70
g71
NtRp1135
(dp1136
g74
(dp1137
g82
I4
ssg83
g1131
sg76
(lp1138
S"<Values at 0x9a8004c: {'verbose': False, 'ip': '127.0.0.1', 'with_scheduler': False, 'ips': [], 'shutdown_timeout': 5, 'taskbar': False, 'port': 8001, 'maxthreads': None, 'softcron': False, 'server_name': 'alanzak', 'bpython': False, 'nogui': False, 'pid_filename': 'httpserver.pid', 'extcron': False, 'runcron': False, 'run_system_tests': False, 'test': None, 'folder': '/home/pratyush/web2py', 'config': '', 'import_models': False, 'winservice': '', 'shell': None, 'run': '', 'log_filename': 'httpserver.log', 'debuglevel': 30, 'args': [''], 'socket_timeout': 5, 'ssl_ca_certificate': None, 'scheduler': None, 'profiler_filename': None, 'ssl_private_key': '', 'scheduler_groups': None, 'password': '1', 'request_queue_size': 5, 'ssl_certificate': '', 'cronjob': False, 'numthreads': None, 'quiet': False, 'interfaces': None, 'minthreads': None, 'timeout': 10, 'plain': False, 'nobanner': False}>"
p1139
asbasbasbag69
(g85
g71
NtRp1140
(dp1141
g74
(dp1142
sg83
g1045
sg76
(lp1143
g69
(g90
g71
NtRp1144
(dp1145
g74
(dp1146
g94
g95
ssg83
g1140
sg76
(lp1147
S'db_sessions'
p1148
asbag69
(g90
g71
NtRp1149
(dp1150
g74
(dp1151
g101
g102
ssg83
g1140
sg76
(lp1152
S':'
asbag69
(g90
g71
NtRp1153
(dp1154
g74
(dp1155
sg83
g1140
sg76
(lp1156
g69
(g70
g71
NtRp1157
(dp1158
g74
(dp1159
g82
I4
ssg83
g1153
sg76
(lp1160
S'set([])'
p1161
asbasbasbag69
(g85
g71
NtRp1162
(dp1163
g74
(dp1164
sg83
g1045
sg76
(lp1165
g69
(g90
g71
NtRp1166
(dp1167
g74
(dp1168
g94
g95
ssg83
g1162
sg76
(lp1169
S'debugging'
p1170
asbag69
(g90
g71
NtRp1171
(dp1172
g74
(dp1173
g101
g102
ssg83
g1162
sg76
(lp1174
S':'
asbag69
(g90
g71
NtRp1175
(dp1176
g74
(dp1177
sg83
g1162
sg76
(lp1178
g69
(g70
g71
NtRp1179
(dp1180
g74
(dp1181
g82
I4
ssg83
g1175
sg76
(lp1182
g112
asbasbasbag69
(g85
g71
NtRp1183
(dp1184
g74
(dp1185
sg83
g1045
sg76
(lp1186
g69
(g90
g71
NtRp1187
(dp1188
g74
(dp1189
g94
g95
ssg83
g1183
sg76
(lp1190
S'gluon_parent'
p1191
asbag69
(g90
g71
NtRp1192
(dp1193
g74
(dp1194
g101
g102
ssg83
g1183
sg76
(lp1195
S':'
asbag69
(g90
g71
NtRp1196
(dp1197
g74
(dp1198
sg83
g1183
sg76
(lp1199
g69
(g70
g71
NtRp1200
(dp1201
g74
(dp1202
g82
I4
ssg83
g1196
sg76
(lp1203
S'/home/pratyush/web2py'
p1204
asbasbasbag69
(g85
g71
NtRp1205
(dp1206
g74
(dp1207
sg83
g1045
sg76
(lp1208
g69
(g90
g71
NtRp1209
(dp1210
g74
(dp1211
g94
g95
ssg83
g1205
sg76
(lp1212
S'http_accept'
p1213
asbag69
(g90
g71
NtRp1214
(dp1215
g74
(dp1216
g101
g102
ssg83
g1205
sg76
(lp1217
S':'
asbag69
(g90
g71
NtRp1218
(dp1219
g74
(dp1220
sg83
g1205
sg76
(lp1221
g69
(g70
g71
NtRp1222
(dp1223
g74
(dp1224
g82
I4
ssg83
g1218
sg76
(lp1225
S'text/html,application/xhtml+xml,application/xml;q=0.9,*/*;q=0.8'
p1226
asbasbasbag69
(g85
g71
NtRp1227
(dp1228
g74
(dp1229
sg83
g1045
sg76
(lp1230
g69
(g90
g71
NtRp1231
(dp1232
g74
(dp1233
g94
g95
ssg83
g1227
sg76
(lp1234
S'http_accept_charset'
p1235
asbag69
(g90
g71
NtRp1236
(dp1237
g74
(dp1238
g101
g102
ssg83
g1227
sg76
(lp1239
S':'
asbag69
(g90
g71
NtRp1240
(dp1241
g74
(dp1242
sg83
g1227
sg76
(lp1243
g69
(g70
g71
NtRp1244
(dp1245
g74
(dp1246
g82
I4
ssg83
g1240
sg76
(lp1247
S'ISO-8859-1,utf-8;q=0.7,*;q=0.3'
p1248
asbasbasbag69
(g85
g71
NtRp1249
(dp1250
g74
(dp1251
sg83
g1045
sg76
(lp1252
g69
(g90
g71
NtRp1253
(dp1254
g74
(dp1255
g94
g95
ssg83
g1249
sg76
(lp1256
S'http_accept_encoding'
p1257
asbag69
(g90
g71
NtRp1258
(dp1259
g74
(dp1260
g101
g102
ssg83
g1249
sg76
(lp1261
S':'
asbag69
(g90
g71
NtRp1262
(dp1263
g74
(dp1264
sg83
g1249
sg76
(lp1265
g69
(g70
g71
NtRp1266
(dp1267
g74
(dp1268
g82
I4
ssg83
g1262
sg76
(lp1269
S'gzip,deflate,sdch'
p1270
asbasbasbag69
(g85
g71
NtRp1271
(dp1272
g74
(dp1273
sg83
g1045
sg76
(lp1274
g69
(g90
g71
NtRp1275
(dp1276
g74
(dp1277
g94
g95
ssg83
g1271
sg76
(lp1278
S'http_accept_language'
p1279
asbag69
(g90
g71
NtRp1280
(dp1281
g74
(dp1282
g101
g102
ssg83
g1271
sg76
(lp1283
S':'
asbag69
(g90
g71
NtRp1284
(dp1285
g74
(dp1286
sg83
g1271
sg76
(lp1287
g69
(g70
g71
NtRp1288
(dp1289
g74
(dp1290
g82
I4
ssg83
g1284
sg76
(lp1291
S'en-US,en;q=0.8'
p1292
asbasbasbag69
(g85
g71
NtRp1293
(dp1294
g74
(dp1295
sg83
g1045
sg76
(lp1296
g69
(g90
g71
NtRp1297
(dp1298
g74
(dp1299
g94
g95
ssg83
g1293
sg76
(lp1300
S'http_cache_control'
p1301
asbag69
(g90
g71
NtRp1302
(dp1303
g74
(dp1304
g101
g102
ssg83
g1293
sg76
(lp1305
S':'
asbag69
(g90
g71
NtRp1306
(dp1307
g74
(dp1308
sg83
g1293
sg76
(lp1309
g69
(g70
g71
NtRp1310
(dp1311
g74
(dp1312
g82
I4
ssg83
g1306
sg76
(lp1313
S'max-age=0'
p1314
asbasbasbag69
(g85
g71
NtRp1315
(dp1316
g74
(dp1317
sg83
g1045
sg76
(lp1318
g69
(g90
g71
NtRp1319
(dp1320
g74
(dp1321
g94
g95
ssg83
g1315
sg76
(lp1322
S'http_connection'
p1323
asbag69
(g90
g71
NtRp1324
(dp1325
g74
(dp1326
g101
g102
ssg83
g1315
sg76
(lp1327
S':'
asbag69
(g90
g71
NtRp1328
(dp1329
g74
(dp1330
sg83
g1315
sg76
(lp1331
g69
(g70
g71
NtRp1332
(dp1333
g74
(dp1334
g82
I4
ssg83
g1328
sg76
(lp1335
S'keep-alive'
p1336
asbasbasbag69
(g85
g71
NtRp1337
(dp1338
g74
(dp1339
sg83
g1045
sg76
(lp1340
g69
(g90
g71
NtRp1341
(dp1342
g74
(dp1343
g94
g95
ssg83
g1337
sg76
(lp1344
S'http_cookie'
p1345
asbag69
(g90
g71
NtRp1346
(dp1347
g74
(dp1348
g101
g102
ssg83
g1337
sg76
(lp1349
S':'
asbag69
(g90
g71
NtRp1350
(dp1351
g74
(dp1352
sg83
g1337
sg76
(lp1353
g69
(g70
g71
NtRp1354
(dp1355
g74
(dp1356
g82
I4
ssg83
g1350
sg76
(lp1357
S'registered=yes; session_id_welcome=127.0.0.1-7f7cc58f-84a5-4666-8759-30cfd1f98bc1; session_id_admin=127.0.0.1-9ed8b734-ef8d-434e-9a7b-79af6eec8abb; session_id_buysell=127.0.0.1-f42b8fb6-bce7-404a-b975-99002423340f'
p1358
asbasbasbag69
(g85
g71
NtRp1359
(dp1360
g74
(dp1361
sg83
g1045
sg76
(lp1362
g69
(g90
g71
NtRp1363
(dp1364
g74
(dp1365
g94
g95
ssg83
g1359
sg76
(lp1366
S'http_host'
p1367
asbag69
(g90
g71
NtRp1368
(dp1369
g74
(dp1370
g101
g102
ssg83
g1359
sg76
(lp1371
S':'
asbag69
(g90
g71
NtRp1372
(dp1373
g74
(dp1374
sg83
g1359
sg76
(lp1375
g69
(g70
g71
NtRp1376
(dp1377
g74
(dp1378
g82
I4
ssg83
g1372
sg76
(lp1379
S'127.0.0.1:8001'
p1380
asbasbasbag69
(g85
g71
NtRp1381
(dp1382
g74
(dp1383
sg83
g1045
sg76
(lp1384
g69
(g90
g71
NtRp1385
(dp1386
g74
(dp1387
g94
g95
ssg83
g1381
sg76
(lp1388
S'http_referer'
p1389
asbag69
(g90
g71
NtRp1390
(dp1391
g74
(dp1392
g101
g102
ssg83
g1381
sg76
(lp1393
S':'
asbag69
(g90
g71
NtRp1394
(dp1395
g74
(dp1396
sg83
g1381
sg76
(lp1397
g69
(g70
g71
NtRp1398
(dp1399
g74
(dp1400
g82
I4
ssg83
g1394
sg76
(lp1401
S'http://127.0.0.1:8001/BuySell/default/index'
p1402
asbasbasbag69
(g85
g71
NtRp1403
(dp1404
g74
(dp1405
sg83
g1045
sg76
(lp1406
g69
(g90
g71
NtRp1407
(dp1408
g74
(dp1409
g94
g95
ssg83
g1403
sg76
(lp1410
S'http_user_agent'
p1411
asbag69
(g90
g71
NtRp1412
(dp1413
g74
(dp1414
g101
g102
ssg83
g1403
sg76
(lp1415
S':'
asbag69
(g90
g71
NtRp1416
(dp1417
g74
(dp1418
sg83
g1403
sg76
(lp1419
g69
(g70
g71
NtRp1420
(dp1421
g74
(dp1422
g82
I4
ssg83
g1416
sg76
(lp1423
S'Mozilla/5.0 (X11; Linux i686) AppleWebKit/537.4 (KHTML, like Gecko) Chrome/22.0.1229.79 Safari/537.4'
p1424
asbasbasbag69
(g85
g71
NtRp1425
(dp1426
g74
(dp1427
sg83
g1045
sg76
(lp1428
g69
(g90
g71
NtRp1429
(dp1430
g74
(dp1431
g94
g95
ssg83
g1425
sg76
(lp1432
S'is_jython'
p1433
asbag69
(g90
g71
NtRp1434
(dp1435
g74
(dp1436
g101
g102
ssg83
g1425
sg76
(lp1437
S':'
asbag69
(g90
g71
NtRp1438
(dp1439
g74
(dp1440
sg83
g1425
sg76
(lp1441
g69
(g70
g71
NtRp1442
(dp1443
g74
(dp1444
g82
I4
ssg83
g1438
sg76
(lp1445
g112
asbasbasbag69
(g85
g71
NtRp1446
(dp1447
g74
(dp1448
sg83
g1045
sg76
(lp1449
g69
(g90
g71
NtRp1450
(dp1451
g74
(dp1452
g94
g95
ssg83
g1446
sg76
(lp1453
S'is_pypy'
p1454
asbag69
(g90
g71
NtRp1455
(dp1456
g74
(dp1457
g101
g102
ssg83
g1446
sg76
(lp1458
S':'
asbag69
(g90
g71
NtRp1459
(dp1460
g74
(dp1461
sg83
g1446
sg76
(lp1462
g69
(g70
g71
NtRp1463
(dp1464
g74
(dp1465
g82
I4
ssg83
g1459
sg76
(lp1466
g112
asbasbasbag69
(g85
g71
NtRp1467
(dp1468
g74
(dp1469
sg83
g1045
sg76
(lp1470
g69
(g90
g71
NtRp1471
(dp1472
g74
(dp1473
g94
g95
ssg83
g1467
sg76
(lp1474
S'local_hosts'
p1475
asbag69
(g90
g71
NtRp1476
(dp1477
g74
(dp1478
g101
g102
ssg83
g1467
sg76
(lp1479
S':'
asbag69
(g90
g71
NtRp1480
(dp1481
g74
(dp1482
sg83
g1467
sg76
(lp1483
g69
(g70
g71
NtRp1484
(dp1485
g74
(dp1486
g82
I4
ssg83
g1480
sg76
(lp1487
g69
(g78
g71
NtRp1488
(dp1489
g74
(dp1490
g82
I3
ssg83
Nsg76
(lp1491
g69
(g85
g71
NtRp1492
(dp1493
g74
(dp1494
sg83
g1488
sg76
(lp1495
g69
(g90
g71
NtRp1496
(dp1497
g74
(dp1498
sg83
g1492
sg76
(lp1499
g69
(g70
g71
NtRp1500
(dp1501
g74
(dp1502
g82
I3
ssg83
g1496
sg76
(lp1503
S'127.0.1.1'
p1504
asbasbasbag69
(g85
g71
NtRp1505
(dp1506
g74
(dp1507
sg83
g1488
sg76
(lp1508
g69
(g90
g71
NtRp1509
(dp1510
g74
(dp1511
sg83
g1505
sg76
(lp1512
g69
(g70
g71
NtRp1513
(dp1514
g74
(dp1515
g82
I3
ssg83
g1509
sg76
(lp1516
S'::1'
p1517
asbasbasbag69
(g85
g71
NtRp1518
(dp1519
g74
(dp1520
sg83
g1488
sg76
(lp1521
g69
(g90
g71
NtRp1522
(dp1523
g74
(dp1524
sg83
g1518
sg76
(lp1525
g69
(g70
g71
NtRp1526
(dp1527
g74
(dp1528
g82
I3
ssg83
g1522
sg76
(lp1529
S'alanzak'
p1530
asbasbasbag69
(g85
g71
NtRp1531
(dp1532
g74
(dp1533
sg83
g1488
sg76
(lp1534
g69
(g90
g71
NtRp1535
(dp1536
g74
(dp1537
sg83
g1531
sg76
(lp1538
g69
(g70
g71
NtRp1539
(dp1540
g74
(dp1541
g82
I3
ssg83
g1535
sg76
(lp1542
S'::ffff:127.0.0.1'
p1543
asbasbasbag69
(g85
g71
NtRp1544
(dp1545
g74
(dp1546
sg83
g1488
sg76
(lp1547
g69
(g90
g71
NtRp1548
(dp1549
g74
(dp1550
sg83
g1544
sg76
(lp1551
g69
(g70
g71
NtRp1552
(dp1553
g74
(dp1554
g82
I3
ssg83
g1548
sg76
(lp1555
S'127.0.0.1'
p1556
asbasbasbasbasbasbasbag69
(g85
g71
NtRp1557
(dp1558
g74
(dp1559
sg83
g1045
sg76
(lp1560
g69
(g90
g71
NtRp1561
(dp1562
g74
(dp1563
g94
g95
ssg83
g1557
sg76
(lp1564
S'path_info'
p1565
asbag69
(g90
g71
NtRp1566
(dp1567
g74
(dp1568
g101
g102
ssg83
g1557
sg76
(lp1569
S':'
asbag69
(g90
g71
NtRp1570
(dp1571
g74
(dp1572
sg83
g1557
sg76
(lp1573
g69
(g70
g71
NtRp1574
(dp1575
g74
(dp1576
g82
I4
ssg83
g1570
sg76
(lp1577
S'/BuySell/default/list_items'
p1578
asbasbasbag69
(g85
g71
NtRp1579
(dp1580
g74
(dp1581
sg83
g1045
sg76
(lp1582
g69
(g90
g71
NtRp1583
(dp1584
g74
(dp1585
g94
g95
ssg83
g1579
sg76
(lp1586
S'query_string'
p1587
asbag69
(g90
g71
NtRp1588
(dp1589
g74
(dp1590
g101
g102
ssg83
g1579
sg76
(lp1591
S':'
asbag69
(g90
g71
NtRp1592
(dp1593
g74
(dp1594
sg83
g1579
sg76
(lp1595
g69
(g70
g71
NtRp1596
(dp1597
g74
(dp1598
g82
I4
ssg83
g1592
sg76
(lp1599
S''
asbasbasbag69
(g85
g71
NtRp1600
(dp1601
g74
(dp1602
sg83
g1045
sg76
(lp1603
g69
(g90
g71
NtRp1604
(dp1605
g74
(dp1606
g94
g95
ssg83
g1600
sg76
(lp1607
S'remote_addr'
p1608
asbag69
(g90
g71
NtRp1609
(dp1610
g74
(dp1611
g101
g102
ssg83
g1600
sg76
(lp1612
S':'
asbag69
(g90
g71
NtRp1613
(dp1614
g74
(dp1615
sg83
g1600
sg76
(lp1616
g69
(g70
g71
NtRp1617
(dp1618
g74
(dp1619
g82
I4
ssg83
g1613
sg76
(lp1620
g224
asbasbasbag69
(g85
g71
NtRp1621
(dp1622
g74
(dp1623
sg83
g1045
sg76
(lp1624
g69
(g90
g71
NtRp1625
(dp1626
g74
(dp1627
g94
g95
ssg83
g1621
sg76
(lp1628
S'remote_port'
p1629
asbag69
(g90
g71
NtRp1630
(dp1631
g74
(dp1632
g101
g102
ssg83
g1621
sg76
(lp1633
S':'
asbag69
(g90
g71
NtRp1634
(dp1635
g74
(dp1636
sg83
g1621
sg76
(lp1637
g69
(g70
g71
NtRp1638
(dp1639
g74
(dp1640
g82
I4
ssg83
g1634
sg76
(lp1641
S'55018'
p1642
asbasbasbag69
(g85
g71
NtRp1643
(dp1644
g74
(dp1645
sg83
g1045
sg76
(lp1646
g69
(g90
g71
NtRp1647
(dp1648
g74
(dp1649
g94
g95
ssg83
g1643
sg76
(lp1650
S'request_method'
p1651
asbag69
(g90
g71
NtRp1652
(dp1653
g74
(dp1654
g101
g102
ssg83
g1643
sg76
(lp1655
S':'
asbag69
(g90
g71
NtRp1656
(dp1657
g74
(dp1658
sg83
g1643
sg76
(lp1659
g69
(g70
g71
NtRp1660
(dp1661
g74
(dp1662
g82
I4
ssg83
g1656
sg76
(lp1663
S'GET'
p1664
asbasbasbag69
(g85
g71
NtRp1665
(dp1666
g74
(dp1667
sg83
g1045
sg76
(lp1668
g69
(g90
g71
NtRp1669
(dp1670
g74
(dp1671
g94
g95
ssg83
g1665
sg76
(lp1672
S'request_uri'
p1673
asbag69
(g90
g71
NtRp1674
(dp1675
g74
(dp1676
g101
g102
ssg83
g1665
sg76
(lp1677
S':'
asbag69
(g90
g71
NtRp1678
(dp1679
g74
(dp1680
sg83
g1665
sg76
(lp1681
g69
(g70
g71
NtRp1682
(dp1683
g74
(dp1684
g82
I4
ssg83
g1678
sg76
(lp1685
g1578
asbasbasbag69
(g85
g71
NtRp1686
(dp1687
g74
(dp1688
sg83
g1045
sg76
(lp1689
g69
(g90
g71
NtRp1690
(dp1691
g74
(dp1692
g94
g95
ssg83
g1686
sg76
(lp1693
S'script_name'
p1694
asbag69
(g90
g71
NtRp1695
(dp1696
g74
(dp1697
g101
g102
ssg83
g1686
sg76
(lp1698
S':'
asbag69
(g90
g71
NtRp1699
(dp1700
g74
(dp1701
sg83
g1686
sg76
(lp1702
g69
(g70
g71
NtRp1703
(dp1704
g74
(dp1705
g82
I4
ssg83
g1699
sg76
(lp1706
S''
asbasbasbag69
(g85
g71
NtRp1707
(dp1708
g74
(dp1709
sg83
g1045
sg76
(lp1710
g69
(g90
g71
NtRp1711
(dp1712
g74
(dp1713
g94
g95
ssg83
g1707
sg76
(lp1714
S'server_name'
p1715
asbag69
(g90
g71
NtRp1716
(dp1717
g74
(dp1718
g101
g102
ssg83
g1707
sg76
(lp1719
S':'
asbag69
(g90
g71
NtRp1720
(dp1721
g74
(dp1722
sg83
g1707
sg76
(lp1723
g69
(g70
g71
NtRp1724
(dp1725
g74
(dp1726
g82
I4
ssg83
g1720
sg76
(lp1727
S'alanzak'
p1728
asbasbasbag69
(g85
g71
NtRp1729
(dp1730
g74
(dp1731
sg83
g1045
sg76
(lp1732
g69
(g90
g71
NtRp1733
(dp1734
g74
(dp1735
g94
g95
ssg83
g1729
sg76
(lp1736
S'server_port'
p1737
asbag69
(g90
g71
NtRp1738
(dp1739
g74
(dp1740
g101
g102
ssg83
g1729
sg76
(lp1741
S':'
asbag69
(g90
g71
NtRp1742
(dp1743
g74
(dp1744
sg83
g1729
sg76
(lp1745
g69
(g70
g71
NtRp1746
(dp1747
g74
(dp1748
g82
I4
ssg83
g1742
sg76
(lp1749
S'8001'
p1750
asbasbasbag69
(g85
g71
NtRp1751
(dp1752
g74
(dp1753
sg83
g1045
sg76
(lp1754
g69
(g90
g71
NtRp1755
(dp1756
g74
(dp1757
g94
g95
ssg83
g1751
sg76
(lp1758
S'server_protocol'
p1759
asbag69
(g90
g71
NtRp1760
(dp1761
g74
(dp1762
g101
g102
ssg83
g1751
sg76
(lp1763
S':'
asbag69
(g90
g71
NtRp1764
(dp1765
g74
(dp1766
sg83
g1751
sg76
(lp1767
g69
(g70
g71
NtRp1768
(dp1769
g74
(dp1770
g82
I4
ssg83
g1764
sg76
(lp1771
S'HTTP/1.1'
p1772
asbasbasbag69
(g85
g71
NtRp1773
(dp1774
g74
(dp1775
sg83
g1045
sg76
(lp1776
g69
(g90
g71
NtRp1777
(dp1778
g74
(dp1779
g94
g95
ssg83
g1773
sg76
(lp1780
S'server_software'
p1781
asbag69
(g90
g71
NtRp1782
(dp1783
g74
(dp1784
g101
g102
ssg83
g1773
sg76
(lp1785
S':'
asbag69
(g90
g71
NtRp1786
(dp1787
g74
(dp1788
sg83
g1773
sg76
(lp1789
g69
(g70
g71
NtRp1790
(dp1791
g74
(dp1792
g82
I4
ssg83
g1786
sg76
(lp1793
S'Rocket 1.2.6'
p1794
asbasbasbag69
(g85
g71
NtRp1795
(dp1796
g74
(dp1797
sg83
g1045
sg76
(lp1798
g69
(g90
g71
NtRp1799
(dp1800
g74
(dp1801
g94
g95
ssg83
g1795
sg76
(lp1802
S'web2py_path'
p1803
asbag69
(g90
g71
NtRp1804
(dp1805
g74
(dp1806
g101
g102
ssg83
g1795
sg76
(lp1807
S':'
asbag69
(g90
g71
NtRp1808
(dp1809
g74
(dp1810
sg83
g1795
sg76
(lp1811
g69
(g70
g71
NtRp1812
(dp1813
g74
(dp1814
g82
I4
ssg83
g1808
sg76
(lp1815
g1092
asbasbasbag69
(g85
g71
NtRp1816
(dp1817
g74
(dp1818
sg83
g1045
sg76
(lp1819
g69
(g90
g71
NtRp1820
(dp1821
g74
(dp1822
g94
g95
ssg83
g1816
sg76
(lp1823
S'web2py_version'
p1824
asbag69
(g90
g71
NtRp1825
(dp1826
g74
(dp1827
g101
g102
ssg83
g1816
sg76
(lp1828
S':'
asbag69
(g90
g71
NtRp1829
(dp1830
g74
(dp1831
sg83
g1816
sg76
(lp1832
g69
(g70
g71
NtRp1833
(dp1834
g74
(dp1835
g82
I4
ssg83
g1829
sg76
(lp1836
g69
(g78
g71
NtRp1837
(dp1838
g74
(dp1839
g82
I3
ssg83
Nsg76
(lp1840
g69
(g85
g71
NtRp1841
(dp1842
g74
(dp1843
sg83
g1837
sg76
(lp1844
g69
(g90
g71
NtRp1845
(dp1846
g74
(dp1847
sg83
g1841
sg76
(lp1848
g69
(g70
g71
NtRp1849
(dp1850
g74
(dp1851
g82
I3
ssg83
g1845
sg76
(lp1852
S'2'
asbasbasbag69
(g85
g71
NtRp1853
(dp1854
g74
(dp1855
sg83
g1837
sg76
(lp1856
g69
(g90
g71
NtRp1857
(dp1858
g74
(dp1859
sg83
g1853
sg76
(lp1860
g69
(g70
g71
NtRp1861
(dp1862
g74
(dp1863
g82
I3
ssg83
g1857
sg76
(lp1864
S'3'
asbasbasbag69
(g85
g71
NtRp1865
(dp1866
g74
(dp1867
sg83
g1837
sg76
(lp1868
g69
(g90
g71
NtRp1869
(dp1870
g74
(dp1871
sg83
g1865
sg76
(lp1872
g69
(g70
g71
NtRp1873
(dp1874
g74
(dp1875
g82
I3
ssg83
g1869
sg76
(lp1876
S'2'
asbasbasbag69
(g85
g71
NtRp1877
(dp1878
g74
(dp1879
sg83
g1837
sg76
(lp1880
g69
(g90
g71
NtRp1881
(dp1882
g74
(dp1883
sg83
g1877
sg76
(lp1884
g69
(g70
g71
NtRp1885
(dp1886
g74
(dp1887
g82
I3
ssg83
g1881
sg76
(lp1888
S'datetime.datetime(2012, 12, 17, 15, 3, 30)'
p1889
asbasbasbag69
(g85
g71
NtRp1890
(dp1891
g74
(dp1892
sg83
g1837
sg76
(lp1893
g69
(g90
g71
NtRp1894
(dp1895
g74
(dp1896
sg83
g1890
sg76
(lp1897
g69
(g70
g71
NtRp1898
(dp1899
g74
(dp1900
g82
I3
ssg83
g1894
sg76
(lp1901
S'stable'
p1902
asbasbasbasbasbasbasbag69
(g85
g71
NtRp1903
(dp1904
g74
(dp1905
sg83
g1045
sg76
(lp1906
g69
(g90
g71
NtRp1907
(dp1908
g74
(dp1909
g94
g95
ssg83
g1903
sg76
(lp1910
S'wsgi_errors'
p1911
asbag69
(g90
g71
NtRp1912
(dp1913
g74
(dp1914
g101
g102
ssg83
g1903
sg76
(lp1915
S':'
asbag69
(g90
g71
NtRp1916
(dp1917
g74
(dp1918
sg83
g1903
sg76
(lp1919
g69
(g70
g71
NtRp1920
(dp1921
g74
(dp1922
g82
I4
ssg83
g1916
sg76
(lp1923
S"<open file '<stderr>', mode 'w' at 0xb78080d0>"
p1924
asbasbasbag69
(g85
g71
NtRp1925
(dp1926
g74
(dp1927
sg83
g1045
sg76
(lp1928
g69
(g90
g71
NtRp1929
(dp1930
g74
(dp1931
g94
g95
ssg83
g1925
sg76
(lp1932
S'wsgi_file_wrapper'
p1933
asbag69
(g90
g71
NtRp1934
(dp1935
g74
(dp1936
g101
g102
ssg83
g1925
sg76
(lp1937
S':'
asbag69
(g90
g71
NtRp1938
(dp1939
g74
(dp1940
sg83
g1925
sg76
(lp1941
g69
(g70
g71
NtRp1942
(dp1943
g74
(dp1944
g82
I4
ssg83
g1938
sg76
(lp1945
S'<class wsgiref.util.FileWrapper at 0x9a2dcbc>'
p1946
asbasbasbag69
(g85
g71
NtRp1947
(dp1948
g74
(dp1949
sg83
g1045
sg76
(lp1950
g69
(g90
g71
NtRp1951
(dp1952
g74
(dp1953
g94
g95
ssg83
g1947
sg76
(lp1954
S'wsgi_input'
p1955
asbag69
(g90
g71
NtRp1956
(dp1957
g74
(dp1958
g101
g102
ssg83
g1947
sg76
(lp1959
S':'
asbag69
(g90
g71
NtRp1960
(dp1961
g74
(dp1962
sg83
g1947
sg76
(lp1963
g69
(g70
g71
NtRp1964
(dp1965
g74
(dp1966
g82
I4
ssg83
g1960
sg76
(lp1967
S'<socket._fileobject object at 0xad7c36c>'
p1968
asbasbasbag69
(g85
g71
NtRp1969
(dp1970
g74
(dp1971
sg83
g1045
sg76
(lp1972
g69
(g90
g71
NtRp1973
(dp1974
g74
(dp1975
g94
g95
ssg83
g1969
sg76
(lp1976
S'wsgi_multiprocess'
p1977
asbag69
(g90
g71
NtRp1978
(dp1979
g74
(dp1980
g101
g102
ssg83
g1969
sg76
(lp1981
S':'
asbag69
(g90
g71
NtRp1982
(dp1983
g74
(dp1984
sg83
g1969
sg76
(lp1985
g69
(g70
g71
NtRp1986
(dp1987
g74
(dp1988
g82
I4
ssg83
g1982
sg76
(lp1989
g112
asbasbasbag69
(g85
g71
NtRp1990
(dp1991
g74
(dp1992
sg83
g1045
sg76
(lp1993
g69
(g90
g71
NtRp1994
(dp1995
g74
(dp1996
g94
g95
ssg83
g1990
sg76
(lp1997
S'wsgi_multithread'
p1998
asbag69
(g90
g71
NtRp1999
(dp2000
g74
(dp2001
g101
g102
ssg83
g1990
sg76
(lp2002
S':'
asbag69
(g90
g71
NtRp2003
(dp2004
g74
(dp2005
sg83
g1990
sg76
(lp2006
g69
(g70
g71
NtRp2007
(dp2008
g74
(dp2009
g82
I4
ssg83
g2003
sg76
(lp2010
S'True'
p2011
asbasbasbag69
(g85
g71
NtRp2012
(dp2013
g74
(dp2014
sg83
g1045
sg76
(lp2015
g69
(g90
g71
NtRp2016
(dp2017
g74
(dp2018
g94
g95
ssg83
g2012
sg76
(lp2019
S'wsgi_run_once'
p2020
asbag69
(g90
g71
NtRp2021
(dp2022
g74
(dp2023
g101
g102
ssg83
g2012
sg76
(lp2024
S':'
asbag69
(g90
g71
NtRp2025
(dp2026
g74
(dp2027
sg83
g2012
sg76
(lp2028
g69
(g70
g71
NtRp2029
(dp2030
g74
(dp2031
g82
I4
ssg83
g2025
sg76
(lp2032
g112
asbasbasbag69
(g85
g71
NtRp2033
(dp2034
g74
(dp2035
sg83
g1045
sg76
(lp2036
g69
(g90
g71
NtRp2037
(dp2038
g74
(dp2039
g94
g95
ssg83
g2033
sg76
(lp2040
S'wsgi_url_scheme'
p2041
asbag69
(g90
g71
NtRp2042
(dp2043
g74
(dp2044
g101
g102
ssg83
g2033
sg76
(lp2045
S':'
asbag69
(g90
g71
NtRp2046
(dp2047
g74
(dp2048
sg83
g2033
sg76
(lp2049
g69
(g70
g71
NtRp2050
(dp2051
g74
(dp2052
g82
I4
ssg83
g2046
sg76
(lp2053
S'http'
p2054
asbasbasbag69
(g85
g71
NtRp2055
(dp2056
g74
(dp2057
sg83
g1045
sg76
(lp2058
g69
(g90
g71
NtRp2059
(dp2060
g74
(dp2061
g94
g95
ssg83
g2055
sg76
(lp2062
S'wsgi_version'
p2063
asbag69
(g90
g71
NtRp2064
(dp2065
g74
(dp2066
g101
g102
ssg83
g2055
sg76
(lp2067
S':'
asbag69
(g90
g71
NtRp2068
(dp2069
g74
(dp2070
sg83
g2055
sg76
(lp2071
g69
(g70
g71
NtRp2072
(dp2073
g74
(dp2074
g82
I4
ssg83
g2068
sg76
(lp2075
g69
(g78
g71
NtRp2076
(dp2077
g74
(dp2078
g82
I3
ssg83
Nsg76
(lp2079
g69
(g85
g71
NtRp2080
(dp2081
g74
(dp2082
sg83
g2076
sg76
(lp2083
g69
(g90
g71
NtRp2084
(dp2085
g74
(dp2086
sg83
g2080
sg76
(lp2087
g69
(g70
g71
NtRp2088
(dp2089
g74
(dp2090
g82
I3
ssg83
g2084
sg76
(lp2091
S'1'
asbasbasbag69
(g85
g71
NtRp2092
(dp2093
g74
(dp2094
sg83
g2076
sg76
(lp2095
g69
(g90
g71
NtRp2096
(dp2097
g74
(dp2098
sg83
g2092
sg76
(lp2099
g69
(g70
g71
NtRp2100
(dp2101
g74
(dp2102
g82
I3
ssg83
g2096
sg76
(lp2103
S'0'
asbasbasbasbasbasbasbasbasbasbasbag69
(g85
g71
NtRp2104
(dp2105
g74
(dp2106
sg83
g79
sg76
(lp2107
g69
(g90
g71
NtRp2108
(dp2109
g74
(dp2110
g94
g95
ssg83
g2104
sg76
(lp2111
S'extension'
p2112
asbag69
(g90
g71
NtRp2113
(dp2114
g74
(dp2115
g101
g102
ssg83
g2104
sg76
(lp2116
S':'
asbag69
(g90
g71
NtRp2117
(dp2118
g74
(dp2119
sg83
g2104
sg76
(lp2120
g69
(g70
g71
NtRp2121
(dp2122
g74
(dp2123
g82
I5
ssg83
g2117
sg76
(lp2124
S'html'
p2125
asbasbasbag69
(g85
g71
NtRp2126
(dp2127
g74
(dp2128
sg83
g79
sg76
(lp2129
g69
(g90
g71
NtRp2130
(dp2131
g74
(dp2132
g94
g95
ssg83
g2126
sg76
(lp2133
S'folder'
p2134
asbag69
(g90
g71
NtRp2135
(dp2136
g74
(dp2137
g101
g102
ssg83
g2126
sg76
(lp2138
S':'
asbag69
(g90
g71
NtRp2139
(dp2140
g74
(dp2141
sg83
g2126
sg76
(lp2142
g69
(g70
g71
NtRp2143
(dp2144
g74
(dp2145
g82
I5
ssg83
g2139
sg76
(lp2146
S'/home/pratyush/web2py/applications/BuySell/'
p2147
asbasbasbag69
(g85
g71
NtRp2148
(dp2149
g74
(dp2150
sg83
g79
sg76
(lp2151
g69
(g90
g71
NtRp2152
(dp2153
g74
(dp2154
g94
g95
ssg83
g2148
sg76
(lp2155
S'function'
p2156
asbag69
(g90
g71
NtRp2157
(dp2158
g74
(dp2159
g101
g102
ssg83
g2148
sg76
(lp2160
S':'
asbag69
(g90
g71
NtRp2161
(dp2162
g74
(dp2163
sg83
g2148
sg76
(lp2164
g69
(g70
g71
NtRp2165
(dp2166
g74
(dp2167
g82
I5
ssg83
g2161
sg76
(lp2168
S'list_items'
p2169
asbasbasbag69
(g85
g71
NtRp2170
(dp2171
g74
(dp2172
sg83
g79
sg76
(lp2173
g69
(g90
g71
NtRp2174
(dp2175
g74
(dp2176
g94
g95
ssg83
g2170
sg76
(lp2177
S'get_vars'
p2178
asbag69
(g90
g71
NtRp2179
(dp2180
g74
(dp2181
g101
g102
ssg83
g2170
sg76
(lp2182
S':'
asbag69
(g90
g71
NtRp2183
(dp2184
g74
(dp2185
sg83
g2170
sg76
(lp2186
g69
(g70
g71
NtRp2187
(dp2188
g74
(dp2189
g82
I5
ssg83
g2183
sg76
(lp2190
g69
(g78
g71
NtRp2191
(dp2192
g74
(dp2193
g82
I4
ssg83
Nsg76
(lp2194
sbasbasbasbag69
(g85
g71
NtRp2195
(dp2196
g74
(dp2197
sg83
g79
sg76
(lp2198
g69
(g90
g71
NtRp2199
(dp2200
g74
(dp2201
g94
g95
ssg83
g2195
sg76
(lp2202
S'global_settings'
p2203
asbag69
(g90
g71
NtRp2204
(dp2205
g74
(dp2206
g101
g102
ssg83
g2195
sg76
(lp2207
S':'
asbag69
(g90
g71
NtRp2208
(dp2209
g74
(dp2210
sg83
g2195
sg76
(lp2211
g69
(g70
g71
NtRp2212
(dp2213
g74
(dp2214
g82
I5
ssg83
g2208
sg76
(lp2215
g69
(g78
g71
NtRp2216
(dp2217
g74
(dp2218
g82
I4
ssg83
Nsg76
(lp2219
g69
(g85
g71
NtRp2220
(dp2221
g74
(dp2222
sg83
g2216
sg76
(lp2223
g69
(g90
g71
NtRp2224
(dp2225
g74
(dp2226
g94
g95
ssg83
g2220
sg76
(lp2227
g1057
asbag69
(g90
g71
NtRp2228
(dp2229
g74
(dp2230
g101
g102
ssg83
g2220
sg76
(lp2231
S':'
asbag69
(g90
g71
NtRp2232
(dp2233
g74
(dp2234
sg83
g2220
sg76
(lp2235
g69
(g70
g71
NtRp2236
(dp2237
g74
(dp2238
g82
I4
ssg83
g2232
sg76
(lp2239
S"set(['/home/pratyush/web2py/applications/welcome/', '/home/pratyush/web2py/applications/BuySell/', '/home/pratyush/web2py/applications/admin/'])"
p2240
asbasbasbag69
(g85
g71
NtRp2241
(dp2242
g74
(dp2243
sg83
g2216
sg76
(lp2244
g69
(g90
g71
NtRp2245
(dp2246
g74
(dp2247
g94
g95
ssg83
g2241
sg76
(lp2248
g1079
asbag69
(g90
g71
NtRp2249
(dp2250
g74
(dp2251
g101
g102
ssg83
g2241
sg76
(lp2252
S':'
asbag69
(g90
g71
NtRp2253
(dp2254
g74
(dp2255
sg83
g2241
sg76
(lp2256
g69
(g70
g71
NtRp2257
(dp2258
g74
(dp2259
g82
I4
ssg83
g2253
sg76
(lp2260
g1092
asbasbasbag69
(g85
g71
NtRp2261
(dp2262
g74
(dp2263
sg83
g2216
sg76
(lp2264
g69
(g90
g71
NtRp2265
(dp2266
g74
(dp2267
g94
g95
ssg83
g2261
sg76
(lp2268
g1101
asbag69
(g90
g71
NtRp2269
(dp2270
g74
(dp2271
g101
g102
ssg83
g2261
sg76
(lp2272
S':'
asbag69
(g90
g71
NtRp2273
(dp2274
g74
(dp2275
sg83
g2261
sg76
(lp2276
g69
(g70
g71
NtRp2277
(dp2278
g74
(dp2279
g82
I4
ssg83
g2273
sg76
(lp2280
g69
(g78
g71
NtRp2281
(dp2282
g74
(dp2283
g82
I3
ssg83
Nsg76
(lp2284
sbasbasbasbag69
(g85
g71
NtRp2285
(dp2286
g74
(dp2287
sg83
g2216
sg76
(lp2288
g69
(g90
g71
NtRp2289
(dp2290
g74
(dp2291
g94
g95
ssg83
g2285
sg76
(lp2292
g1126
asbag69
(g90
g71
NtRp2293
(dp2294
g74
(dp2295
g101
g102
ssg83
g2285
sg76
(lp2296
S':'
asbag69
(g90
g71
NtRp2297
(dp2298
g74
(dp2299
sg83
g2285
sg76
(lp2300
g69
(g70
g71
NtRp2301
(dp2302
g74
(dp2303
g82
I4
ssg83
g2297
sg76
(lp2304
S"<Values at 0x9a8004c: {'verbose': False, 'ip': '127.0.0.1', 'with_scheduler': False, 'ips': [], 'shutdown_timeout': 5, 'taskbar': False, 'port': 8001, 'maxthreads': None, 'softcron': False, 'server_name': 'alanzak', 'bpython': False, 'nogui': False, 'pid_filename': 'httpserver.pid', 'extcron': False, 'runcron': False, 'run_system_tests': False, 'test': None, 'folder': '/home/pratyush/web2py', 'config': '', 'import_models': False, 'winservice': '', 'shell': None, 'run': '', 'log_filename': 'httpserver.log', 'debuglevel': 30, 'args': [''], 'socket_timeout': 5, 'ssl_ca_certificate': None, 'scheduler': None, 'profiler_filename': None, 'ssl_private_key': '', 'scheduler_groups': None, 'password': '1', 'request_queue_size': 5, 'ssl_certificate': '', 'cronjob': False, 'numthreads': None, 'quiet': False, 'interfaces': None, 'minthreads': None, 'timeout': 10, 'plain': False, 'nobanner': False}>"
p2305
asbasbasbag69
(g85
g71
NtRp2306
(dp2307
g74
(dp2308
sg83
g2216
sg76
(lp2309
g69
(g90
g71
NtRp2310
(dp2311
g74
(dp2312
g94
g95
ssg83
g2306
sg76
(lp2313
g1148
asbag69
(g90
g71
NtRp2314
(dp2315
g74
(dp2316
g101
g102
ssg83
g2306
sg76
(lp2317
S':'
asbag69
(g90
g71
NtRp2318
(dp2319
g74
(dp2320
sg83
g2306
sg76
(lp2321
g69
(g70
g71
NtRp2322
(dp2323
g74
(dp2324
g82
I4
ssg83
g2318
sg76
(lp2325
S'set([])'
p2326
asbasbasbag69
(g85
g71
NtRp2327
(dp2328
g74
(dp2329
sg83
g2216
sg76
(lp2330
g69
(g90
g71
NtRp2331
(dp2332
g74
(dp2333
g94
g95
ssg83
g2327
sg76
(lp2334
g1170
asbag69
(g90
g71
NtRp2335
(dp2336
g74
(dp2337
g101
g102
ssg83
g2327
sg76
(lp2338
S':'
asbag69
(g90
g71
NtRp2339
(dp2340
g74
(dp2341
sg83
g2327
sg76
(lp2342
g69
(g70
g71
NtRp2343
(dp2344
g74
(dp2345
g82
I4
ssg83
g2339
sg76
(lp2346
g112
asbasbasbag69
(g85
g71
NtRp2347
(dp2348
g74
(dp2349
sg83
g2216
sg76
(lp2350
g69
(g90
g71
NtRp2351
(dp2352
g74
(dp2353
g94
g95
ssg83
g2347
sg76
(lp2354
g1191
asbag69
(g90
g71
NtRp2355
(dp2356
g74
(dp2357
g101
g102
ssg83
g2347
sg76
(lp2358
S':'
asbag69
(g90
g71
NtRp2359
(dp2360
g74
(dp2361
sg83
g2347
sg76
(lp2362
g69
(g70
g71
NtRp2363
(dp2364
g74
(dp2365
g82
I4
ssg83
g2359
sg76
(lp2366
g1204
asbasbasbag69
(g85
g71
NtRp2367
(dp2368
g74
(dp2369
sg83
g2216
sg76
(lp2370
g69
(g90
g71
NtRp2371
(dp2372
g74
(dp2373
g94
g95
ssg83
g2367
sg76
(lp2374
g1433
asbag69
(g90
g71
NtRp2375
(dp2376
g74
(dp2377
g101
g102
ssg83
g2367
sg76
(lp2378
S':'
asbag69
(g90
g71
NtRp2379
(dp2380
g74
(dp2381
sg83
g2367
sg76
(lp2382
g69
(g70
g71
NtRp2383
(dp2384
g74
(dp2385
g82
I4
ssg83
g2379
sg76
(lp2386
g112
asbasbasbag69
(g85
g71
NtRp2387
(dp2388
g74
(dp2389
sg83
g2216
sg76
(lp2390
g69
(g90
g71
NtRp2391
(dp2392
g74
(dp2393
g94
g95
ssg83
g2387
sg76
(lp2394
g1454
asbag69
(g90
g71
NtRp2395
(dp2396
g74
(dp2397
g101
g102
ssg83
g2387
sg76
(lp2398
S':'
asbag69
(g90
g71
NtRp2399
(dp2400
g74
(dp2401
sg83
g2387
sg76
(lp2402
g69
(g70
g71
NtRp2403
(dp2404
g74
(dp2405
g82
I4
ssg83
g2399
sg76
(lp2406
g112
asbasbasbag69
(g85
g71
NtRp2407
(dp2408
g74
(dp2409
sg83
g2216
sg76
(lp2410
g69
(g90
g71
NtRp2411
(dp2412
g74
(dp2413
g94
g95
ssg83
g2407
sg76
(lp2414
g1475
asbag69
(g90
g71
NtRp2415
(dp2416
g74
(dp2417
g101
g102
ssg83
g2407
sg76
(lp2418
S':'
asbag69
(g90
g71
NtRp2419
(dp2420
g74
(dp2421
sg83
g2407
sg76
(lp2422
g69
(g70
g71
NtRp2423
(dp2424
g74
(dp2425
g82
I4
ssg83
g2419
sg76
(lp2426
g69
(g78
g71
NtRp2427
(dp2428
g74
(dp2429
g82
I3
ssg83
Nsg76
(lp2430
g69
(g85
g71
NtRp2431
(dp2432
g74
(dp2433
sg83
g2427
sg76
(lp2434
g69
(g90
g71
NtRp2435
(dp2436
g74
(dp2437
sg83
g2431
sg76
(lp2438
g69
(g70
g71
NtRp2439
(dp2440
g74
(dp2441
g82
I3
ssg83
g2435
sg76
(lp2442
g1504
asbasbasbag69
(g85
g71
NtRp2443
(dp2444
g74
(dp2445
sg83
g2427
sg76
(lp2446
g69
(g90
g71
NtRp2447
(dp2448
g74
(dp2449
sg83
g2443
sg76
(lp2450
g69
(g70
g71
NtRp2451
(dp2452
g74
(dp2453
g82
I3
ssg83
g2447
sg76
(lp2454
g1517
asbasbasbag69
(g85
g71
NtRp2455
(dp2456
g74
(dp2457
sg83
g2427
sg76
(lp2458
g69
(g90
g71
NtRp2459
(dp2460
g74
(dp2461
sg83
g2455
sg76
(lp2462
g69
(g70
g71
NtRp2463
(dp2464
g74
(dp2465
g82
I3
ssg83
g2459
sg76
(lp2466
g1530
asbasbasbag69
(g85
g71
NtRp2467
(dp2468
g74
(dp2469
sg83
g2427
sg76
(lp2470
g69
(g90
g71
NtRp2471
(dp2472
g74
(dp2473
sg83
g2467
sg76
(lp2474
g69
(g70
g71
NtRp2475
(dp2476
g74
(dp2477
g82
I3
ssg83
g2471
sg76
(lp2478
g1543
asbasbasbag69
(g85
g71
NtRp2479
(dp2480
g74
(dp2481
sg83
g2427
sg76
(lp2482
g69
(g90
g71
NtRp2483
(dp2484
g74
(dp2485
sg83
g2479
sg76
(lp2486
g69
(g70
g71
NtRp2487
(dp2488
g74
(dp2489
g82
I3
ssg83
g2483
sg76
(lp2490
g1556
asbasbasbasbasbasbasbag69
(g85
g71
NtRp2491
(dp2492
g74
(dp2493
sg83
g2216
sg76
(lp2494
g69
(g90
g71
NtRp2495
(dp2496
g74
(dp2497
g94
g95
ssg83
g2491
sg76
(lp2498
g1824
asbag69
(g90
g71
NtRp2499
(dp2500
g74
(dp2501
g101
g102
ssg83
g2491
sg76
(lp2502
S':'
asbag69
(g90
g71
NtRp2503
(dp2504
g74
(dp2505
sg83
g2491
sg76
(lp2506
g69
(g70
g71
NtRp2507
(dp2508
g74
(dp2509
g82
I4
ssg83
g2503
sg76
(lp2510
g69
(g78
g71
NtRp2511
(dp2512
g74
(dp2513
g82
I3
ssg83
Nsg76
(lp2514
g69
(g85
g71
NtRp2515
(dp2516
g74
(dp2517
sg83
g2511
sg76
(lp2518
g69
(g90
g71
NtRp2519
(dp2520
g74
(dp2521
sg83
g2515
sg76
(lp2522
g69
(g70
g71
NtRp2523
(dp2524
g74
(dp2525
g82
I3
ssg83
g2519
sg76
(lp2526
S'2'
asbasbasbag69
(g85
g71
NtRp2527
(dp2528
g74
(dp2529
sg83
g2511
sg76
(lp2530
g69
(g90
g71
NtRp2531
(dp2532
g74
(dp2533
sg83
g2527
sg76
(lp2534
g69
(g70
g71
NtRp2535
(dp2536
g74
(dp2537
g82
I3
ssg83
g2531
sg76
(lp2538
S'3'
asbasbasbag69
(g85
g71
NtRp2539
(dp2540
g74
(dp2541
sg83
g2511
sg76
(lp2542
g69
(g90
g71
NtRp2543
(dp2544
g74
(dp2545
sg83
g2539
sg76
(lp2546
g69
(g70
g71
NtRp2547
(dp2548
g74
(dp2549
g82
I3
ssg83
g2543
sg76
(lp2550
S'2'
asbasbasbag69
(g85
g71
NtRp2551
(dp2552
g74
(dp2553
sg83
g2511
sg76
(lp2554
g69
(g90
g71
NtRp2555
(dp2556
g74
(dp2557
sg83
g2551
sg76
(lp2558
g69
(g70
g71
NtRp2559
(dp2560
g74
(dp2561
g82
I3
ssg83
g2555
sg76
(lp2562
S'datetime.datetime(2012, 12, 17, 15, 3, 30)'
p2563
asbasbasbag69
(g85
g71
NtRp2564
(dp2565
g74
(dp2566
sg83
g2511
sg76
(lp2567
g69
(g90
g71
NtRp2568
(dp2569
g74
(dp2570
sg83
g2564
sg76
(lp2571
g69
(g70
g71
NtRp2572
(dp2573
g74
(dp2574
g82
I3
ssg83
g2568
sg76
(lp2575
g1902
asbasbasbasbasbasbasbasbasbasbasbag69
(g85
g71
NtRp2576
(dp2577
g74
(dp2578
sg83
g79
sg76
(lp2579
g69
(g90
g71
NtRp2580
(dp2581
g74
(dp2582
g94
g95
ssg83
g2576
sg76
(lp2583
S'is_https'
p2584
asbag69
(g90
g71
NtRp2585
(dp2586
g74
(dp2587
g101
g102
ssg83
g2576
sg76
(lp2588
S':'
asbag69
(g90
g71
NtRp2589
(dp2590
g74
(dp2591
sg83
g2576
sg76
(lp2592
g69
(g70
g71
NtRp2593
(dp2594
g74
(dp2595
g82
I5
ssg83
g2589
sg76
(lp2596
g112
asbasbasbag69
(g85
g71
NtRp2597
(dp2598
g74
(dp2599
sg83
g79
sg76
(lp2600
g69
(g90
g71
NtRp2601
(dp2602
g74
(dp2603
g94
g95
ssg83
g2597
sg76
(lp2604
S'is_local'
p2605
asbag69
(g90
g71
NtRp2606
(dp2607
g74
(dp2608
g101
g102
ssg83
g2597
sg76
(lp2609
S':'
asbag69
(g90
g71
NtRp2610
(dp2611
g74
(dp2612
sg83
g2597
sg76
(lp2613
g69
(g70
g71
NtRp2614
(dp2615
g74
(dp2616
g82
I5
ssg83
g2610
sg76
(lp2617
g2011
asbasbasbag69
(g85
g71
NtRp2618
(dp2619
g74
(dp2620
sg83
g79
sg76
(lp2621
g69
(g90
g71
NtRp2622
(dp2623
g74
(dp2624
g94
g95
ssg83
g2618
sg76
(lp2625
S'is_restful'
p2626
asbag69
(g90
g71
NtRp2627
(dp2628
g74
(dp2629
g101
g102
ssg83
g2618
sg76
(lp2630
S':'
asbag69
(g90
g71
NtRp2631
(dp2632
g74
(dp2633
sg83
g2618
sg76
(lp2634
g69
(g70
g71
NtRp2635
(dp2636
g74
(dp2637
g82
I5
ssg83
g2631
sg76
(lp2638
g112
asbasbasbag69
(g85
g71
NtRp2639
(dp2640
g74
(dp2641
sg83
g79
sg76
(lp2642
g69
(g90
g71
NtRp2643
(dp2644
g74
(dp2645
g94
g95
ssg83
g2639
sg76
(lp2646
S'now'
p2647
asbag69
(g90
g71
NtRp2648
(dp2649
g74
(dp2650
g101
g102
ssg83
g2639
sg76
(lp2651
S':'
asbag69
(g90
g71
NtRp2652
(dp2653
g74
(dp2654
sg83
g2639
sg76
(lp2655
g69
(g70
g71
NtRp2656
(dp2657
g74
(dp2658
g82
I5
ssg83
g2652
sg76
(lp2659
S'datetime.datetime(2013, 4, 23, 10, 50, 6, 427171)'
p2660
asbasbasbag69
(g85
g71
NtRp2661
(dp2662
g74
(dp2663
sg83
g79
sg76
(lp2664
g69
(g90
g71
NtRp2665
(dp2666
g74
(dp2667
g94
g95
ssg83
g2661
sg76
(lp2668
S'post_vars'
p2669
asbag69
(g90
g71
NtRp2670
(dp2671
g74
(dp2672
g101
g102
ssg83
g2661
sg76
(lp2673
S':'
asbag69
(g90
g71
NtRp2674
(dp2675
g74
(dp2676
sg83
g2661
sg76
(lp2677
g69
(g70
g71
NtRp2678
(dp2679
g74
(dp2680
g82
I5
ssg83
g2674
sg76
(lp2681
g69
(g78
g71
NtRp2682
(dp2683
g74
(dp2684
g82
I4
ssg83
Nsg76
(lp2685
sbasbasbasbag69
(g85
g71
NtRp2686
(dp2687
g74
(dp2688
sg83
g79
sg76
(lp2689
g69
(g90
g71
NtRp2690
(dp2691
g74
(dp2692
g94
g95
ssg83
g2686
sg76
(lp2693
S'raw_args'
p2694
asbag69
(g90
g71
NtRp2695
(dp2696
g74
(dp2697
g101
g102
ssg83
g2686
sg76
(lp2698
S':'
asbag69
(g90
g71
NtRp2699
(dp2700
g74
(dp2701
sg83
g2686
sg76
(lp2702
g69
(g70
g71
NtRp2703
(dp2704
g74
(dp2705
g82
I5
ssg83
g2699
sg76
(lp2706
S''
asbasbasbag69
(g85
g71
NtRp2707
(dp2708
g74
(dp2709
sg83
g79
sg76
(lp2710
g69
(g90
g71
NtRp2711
(dp2712
g74
(dp2713
g94
g95
ssg83
g2707
sg76
(lp2714
S'raw_extension'
p2715
asbag69
(g90
g71
NtRp2716
(dp2717
g74
(dp2718
g101
g102
ssg83
g2707
sg76
(lp2719
S':'
asbag69
(g90
g71
NtRp2720
(dp2721
g74
(dp2722
sg83
g2707
sg76
(lp2723
g69
(g70
g71
NtRp2724
(dp2725
g74
(dp2726
g82
I5
ssg83
g2720
sg76
(lp2727
S'None'
p2728
asbasbasbag69
(g85
g71
NtRp2729
(dp2730
g74
(dp2731
sg83
g79
sg76
(lp2732
g69
(g90
g71
NtRp2733
(dp2734
g74
(dp2735
g94
g95
ssg83
g2729
sg76
(lp2736
S'url'
p2737
asbag69
(g90
g71
NtRp2738
(dp2739
g74
(dp2740
g101
g102
ssg83
g2729
sg76
(lp2741
S':'
asbag69
(g90
g71
NtRp2742
(dp2743
g74
(dp2744
sg83
g2729
sg76
(lp2745
g69
(g70
g71
NtRp2746
(dp2747
g74
(dp2748
g82
I5
ssg83
g2742
sg76
(lp2749
g1578
asbasbasbag69
(g85
g71
NtRp2750
(dp2751
g74
(dp2752
sg83
g79
sg76
(lp2753
g69
(g90
g71
NtRp2754
(dp2755
g74
(dp2756
g94
g95
ssg83
g2750
sg76
(lp2757
S'utcnow'
p2758
asbag69
(g90
g71
NtRp2759
(dp2760
g74
(dp2761
g101
g102
ssg83
g2750
sg76
(lp2762
S':'
asbag69
(g90
g71
NtRp2763
(dp2764
g74
(dp2765
sg83
g2750
sg76
(lp2766
g69
(g70
g71
NtRp2767
(dp2768
g74
(dp2769
g82
I5
ssg83
g2763
sg76
(lp2770
S'datetime.datetime(2013, 4, 23, 5, 20, 6, 427209)'
p2771
asbasbasbag69
(g85
g71
NtRp2772
(dp2773
g74
(dp2774
sg83
g79
sg76
(lp2775
g69
(g90
g71
NtRp2776
(dp2777
g74
(dp2778
g94
g95
ssg83
g2772
sg76
(lp2779
S'uuid'
p2780
asbag69
(g90
g71
NtRp2781
(dp2782
g74
(dp2783
g101
g102
ssg83
g2772
sg76
(lp2784
S':'
asbag69
(g90
g71
NtRp2785
(dp2786
g74
(dp2787
sg83
g2772
sg76
(lp2788
g69
(g70
g71
NtRp2789
(dp2790
g74
(dp2791
g82
I5
ssg83
g2785
sg76
(lp2792
S'BuySell/127.0.0.1.2013-04-23.10-50-06.8edd8dc3-103a-41d8-b668-e952abfead48'
p2793
asbasbasbag69
(g85
g71
NtRp2794
(dp2795
g74
(dp2796
sg83
g79
sg76
(lp2797
g69
(g90
g71
NtRp2798
(dp2799
g74
(dp2800
g94
g95
ssg83
g2794
sg76
(lp2801
S'vars'
p2802
asbag69
(g90
g71
NtRp2803
(dp2804
g74
(dp2805
g101
g102
ssg83
g2794
sg76
(lp2806
S':'
asbag69
(g90
g71
NtRp2807
(dp2808
g74
(dp2809
sg83
g2794
sg76
(lp2810
g69
(g70
g71
NtRp2811
(dp2812
g74
(dp2813
g82
I5
ssg83
g2807
sg76
(lp2814
g69
(g78
g71
NtRp2815
(dp2816
g74
(dp2817
g82
I4
ssg83
Nsg76
(lp2818
sbasbasbasbag69
(g85
g71
NtRp2819
(dp2820
g74
(dp2821
sg83
g79
sg76
(lp2822
g69
(g90
g71
NtRp2823
(dp2824
g74
(dp2825
g94
g95
ssg83
g2819
sg76
(lp2826
S'wsgi'
p2827
asbag69
(g90
g71
NtRp2828
(dp2829
g74
(dp2830
g101
g102
ssg83
g2819
sg76
(lp2831
S':'
asbag69
(g90
g71
NtRp2832
(dp2833
g74
(dp2834
sg83
g2819
sg76
(lp2835
g69
(g70
g71
NtRp2836
(dp2837
g74
(dp2838
g82
I5
ssg83
g2832
sg76
(lp2839
g69
(g78
g71
NtRp2840
(dp2841
g74
(dp2842
g82
I4
ssg83
Nsg76
(lp2843
g69
(g85
g71
NtRp2844
(dp2845
g74
(dp2846
sg83
g2840
sg76
(lp2847
g69
(g90
g71
NtRp2848
(dp2849
g74
(dp2850
g94
g95
ssg83
g2844
sg76
(lp2851
S'environ'
p2852
asbag69
(g90
g71
NtRp2853
(dp2854
g74
(dp2855
g101
g102
ssg83
g2844
sg76
(lp2856
S':'
asbag69
(g90
g71
NtRp2857
(dp2858
g74
(dp2859
sg83
g2844
sg76
(lp2860
g69
(g70
g71
NtRp2861
(dp2862
g74
(dp2863
g82
I4
ssg83
g2857
sg76
(lp2864
g69
(g78
g71
NtRp2865
(dp2866
g74
(dp2867
g82
I3
ssg83
Nsg76
(lp2868
g69
(g85
g71
NtRp2869
(dp2870
g74
(dp2871
sg83
g2865
sg76
(lp2872
g69
(g90
g71
NtRp2873
(dp2874
g74
(dp2875
g94
g95
ssg83
g2869
sg76
(lp2876
S'HTTP_ACCEPT'
p2877
asbag69
(g90
g71
NtRp2878
(dp2879
g74
(dp2880
g101
g102
ssg83
g2869
sg76
(lp2881
S':'
asbag69
(g90
g71
NtRp2882
(dp2883
g74
(dp2884
sg83
g2869
sg76
(lp2885
g69
(g70
g71
NtRp2886
(dp2887
g74
(dp2888
g82
I3
ssg83
g2882
sg76
(lp2889
g1226
asbasbasbag69
(g85
g71
NtRp2890
(dp2891
g74
(dp2892
sg83
g2865
sg76
(lp2893
g69
(g90
g71
NtRp2894
(dp2895
g74
(dp2896
g94
g95
ssg83
g2890
sg76
(lp2897
S'HTTP_ACCEPT_CHARSET'
p2898
asbag69
(g90
g71
NtRp2899
(dp2900
g74
(dp2901
g101
g102
ssg83
g2890
sg76
(lp2902
S':'
asbag69
(g90
g71
NtRp2903
(dp2904
g74
(dp2905
sg83
g2890
sg76
(lp2906
g69
(g70
g71
NtRp2907
(dp2908
g74
(dp2909
g82
I3
ssg83
g2903
sg76
(lp2910
g1248
asbasbasbag69
(g85
g71
NtRp2911
(dp2912
g74
(dp2913
sg83
g2865
sg76
(lp2914
g69
(g90
g71
NtRp2915
(dp2916
g74
(dp2917
g94
g95
ssg83
g2911
sg76
(lp2918
S'HTTP_ACCEPT_ENCODING'
p2919
asbag69
(g90
g71
NtRp2920
(dp2921
g74
(dp2922
g101
g102
ssg83
g2911
sg76
(lp2923
S':'
asbag69
(g90
g71
NtRp2924
(dp2925
g74
(dp2926
sg83
g2911
sg76
(lp2927
g69
(g70
g71
NtRp2928
(dp2929
g74
(dp2930
g82
I3
ssg83
g2924
sg76
(lp2931
g1270
asbasbasbag69
(g85
g71
NtRp2932
(dp2933
g74
(dp2934
sg83
g2865
sg76
(lp2935
g69
(g90
g71
NtRp2936
(dp2937
g74
(dp2938
g94
g95
ssg83
g2932
sg76
(lp2939
S'HTTP_ACCEPT_LANGUAGE'
p2940
asbag69
(g90
g71
NtRp2941
(dp2942
g74
(dp2943
g101
g102
ssg83
g2932
sg76
(lp2944
S':'
asbag69
(g90
g71
NtRp2945
(dp2946
g74
(dp2947
sg83
g2932
sg76
(lp2948
g69
(g70
g71
NtRp2949
(dp2950
g74
(dp2951
g82
I3
ssg83
g2945
sg76
(lp2952
g1292
asbasbasbag69
(g85
g71
NtRp2953
(dp2954
g74
(dp2955
sg83
g2865
sg76
(lp2956
g69
(g90
g71
NtRp2957
(dp2958
g74
(dp2959
g94
g95
ssg83
g2953
sg76
(lp2960
S'HTTP_CACHE_CONTROL'
p2961
asbag69
(g90
g71
NtRp2962
(dp2963
g74
(dp2964
g101
g102
ssg83
g2953
sg76
(lp2965
S':'
asbag69
(g90
g71
NtRp2966
(dp2967
g74
(dp2968
sg83
g2953
sg76
(lp2969
g69
(g70
g71
NtRp2970
(dp2971
g74
(dp2972
g82
I3
ssg83
g2966
sg76
(lp2973
g1314
asbasbasbag69
(g85
g71
NtRp2974
(dp2975
g74
(dp2976
sg83
g2865
sg76
(lp2977
g69
(g90
g71
NtRp2978
(dp2979
g74
(dp2980
g94
g95
ssg83
g2974
sg76
(lp2981
S'HTTP_CONNECTION'
p2982
asbag69
(g90
g71
NtRp2983
(dp2984
g74
(dp2985
g101
g102
ssg83
g2974
sg76
(lp2986
S':'
asbag69
(g90
g71
NtRp2987
(dp2988
g74
(dp2989
sg83
g2974
sg76
(lp2990
g69
(g70
g71
NtRp2991
(dp2992
g74
(dp2993
g82
I3
ssg83
g2987
sg76
(lp2994
g1336
asbasbasbag69
(g85
g71
NtRp2995
(dp2996
g74
(dp2997
sg83
g2865
sg76
(lp2998
g69
(g90
g71
NtRp2999
(dp3000
g74
(dp3001
g94
g95
ssg83
g2995
sg76
(lp3002
S'HTTP_COOKIE'
p3003
asbag69
(g90
g71
NtRp3004
(dp3005
g74
(dp3006
g101
g102
ssg83
g2995
sg76
(lp3007
S':'
asbag69
(g90
g71
NtRp3008
(dp3009
g74
(dp3010
sg83
g2995
sg76
(lp3011
g69
(g70
g71
NtRp3012
(dp3013
g74
(dp3014
g82
I3
ssg83
g3008
sg76
(lp3015
g1358
asbasbasbag69
(g85
g71
NtRp3016
(dp3017
g74
(dp3018
sg83
g2865
sg76
(lp3019
g69
(g90
g71
NtRp3020
(dp3021
g74
(dp3022
g94
g95
ssg83
g3016
sg76
(lp3023
S'HTTP_HOST'
p3024
asbag69
(g90
g71
NtRp3025
(dp3026
g74
(dp3027
g101
g102
ssg83
g3016
sg76
(lp3028
S':'
asbag69
(g90
g71
NtRp3029
(dp3030
g74
(dp3031
sg83
g3016
sg76
(lp3032
g69
(g70
g71
NtRp3033
(dp3034
g74
(dp3035
g82
I3
ssg83
g3029
sg76
(lp3036
g1380
asbasbasbag69
(g85
g71
NtRp3037
(dp3038
g74
(dp3039
sg83
g2865
sg76
(lp3040
g69
(g90
g71
NtRp3041
(dp3042
g74
(dp3043
g94
g95
ssg83
g3037
sg76
(lp3044
S'HTTP_REFERER'
p3045
asbag69
(g90
g71
NtRp3046
(dp3047
g74
(dp3048
g101
g102
ssg83
g3037
sg76
(lp3049
S':'
asbag69
(g90
g71
NtRp3050
(dp3051
g74
(dp3052
sg83
g3037
sg76
(lp3053
g69
(g70
g71
NtRp3054
(dp3055
g74
(dp3056
g82
I3
ssg83
g3050
sg76
(lp3057
g1402
asbasbasbag69
(g85
g71
NtRp3058
(dp3059
g74
(dp3060
sg83
g2865
sg76
(lp3061
g69
(g90
g71
NtRp3062
(dp3063
g74
(dp3064
g94
g95
ssg83
g3058
sg76
(lp3065
S'HTTP_USER_AGENT'
p3066
asbag69
(g90
g71
NtRp3067
(dp3068
g74
(dp3069
g101
g102
ssg83
g3058
sg76
(lp3070
S':'
asbag69
(g90
g71
NtRp3071
(dp3072
g74
(dp3073
sg83
g3058
sg76
(lp3074
g69
(g70
g71
NtRp3075
(dp3076
g74
(dp3077
g82
I3
ssg83
g3071
sg76
(lp3078
g1424
asbasbasbag69
(g85
g71
NtRp3079
(dp3080
g74
(dp3081
sg83
g2865
sg76
(lp3082
g69
(g90
g71
NtRp3083
(dp3084
g74
(dp3085
g94
g95
ssg83
g3079
sg76
(lp3086
S'PATH_INFO'
p3087
asbag69
(g90
g71
NtRp3088
(dp3089
g74
(dp3090
g101
g102
ssg83
g3079
sg76
(lp3091
S':'
asbag69
(g90
g71
NtRp3092
(dp3093
g74
(dp3094
sg83
g3079
sg76
(lp3095
g69
(g70
g71
NtRp3096
(dp3097
g74
(dp3098
g82
I3
ssg83
g3092
sg76
(lp3099
g1578
asbasbasbag69
(g85
g71
NtRp3100
(dp3101
g74
(dp3102
sg83
g2865
sg76
(lp3103
g69
(g90
g71
NtRp3104
(dp3105
g74
(dp3106
g94
g95
ssg83
g3100
sg76
(lp3107
S'QUERY_STRING'
p3108
asbag69
(g90
g71
NtRp3109
(dp3110
g74
(dp3111
g101
g102
ssg83
g3100
sg76
(lp3112
S':'
asbag69
(g90
g71
NtRp3113
(dp3114
g74
(dp3115
sg83
g3100
sg76
(lp3116
g69
(g70
g71
NtRp3117
(dp3118
g74
(dp3119
g82
I3
ssg83
g3113
sg76
(lp3120
S''
asbasbasbag69
(g85
g71
NtRp3121
(dp3122
g74
(dp3123
sg83
g2865
sg76
(lp3124
g69
(g90
g71
NtRp3125
(dp3126
g74
(dp3127
g94
g95
ssg83
g3121
sg76
(lp3128
S'REMOTE_ADDR'
p3129
asbag69
(g90
g71
NtRp3130
(dp3131
g74
(dp3132
g101
g102
ssg83
g3121
sg76
(lp3133
S':'
asbag69
(g90
g71
NtRp3134
(dp3135
g74
(dp3136
sg83
g3121
sg76
(lp3137
g69
(g70
g71
NtRp3138
(dp3139
g74
(dp3140
g82
I3
ssg83
g3134
sg76
(lp3141
g224
asbasbasbag69
(g85
g71
NtRp3142
(dp3143
g74
(dp3144
sg83
g2865
sg76
(lp3145
g69
(g90
g71
NtRp3146
(dp3147
g74
(dp3148
g94
g95
ssg83
g3142
sg76
(lp3149
S'REMOTE_PORT'
p3150
asbag69
(g90
g71
NtRp3151
(dp3152
g74
(dp3153
g101
g102
ssg83
g3142
sg76
(lp3154
S':'
asbag69
(g90
g71
NtRp3155
(dp3156
g74
(dp3157
sg83
g3142
sg76
(lp3158
g69
(g70
g71
NtRp3159
(dp3160
g74
(dp3161
g82
I3
ssg83
g3155
sg76
(lp3162
g1642
asbasbasbag69
(g85
g71
NtRp3163
(dp3164
g74
(dp3165
sg83
g2865
sg76
(lp3166
g69
(g90
g71
NtRp3167
(dp3168
g74
(dp3169
g94
g95
ssg83
g3163
sg76
(lp3170
S'REQUEST_METHOD'
p3171
asbag69
(g90
g71
NtRp3172
(dp3173
g74
(dp3174
g101
g102
ssg83
g3163
sg76
(lp3175
S':'
asbag69
(g90
g71
NtRp3176
(dp3177
g74
(dp3178
sg83
g3163
sg76
(lp3179
g69
(g70
g71
NtRp3180
(dp3181
g74
(dp3182
g82
I3
ssg83
g3176
sg76
(lp3183
g1664
asbasbasbag69
(g85
g71
NtRp3184
(dp3185
g74
(dp3186
sg83
g2865
sg76
(lp3187
g69
(g90
g71
NtRp3188
(dp3189
g74
(dp3190
g94
g95
ssg83
g3184
sg76
(lp3191
S'REQUEST_URI'
p3192
asbag69
(g90
g71
NtRp3193
(dp3194
g74
(dp3195
g101
g102
ssg83
g3184
sg76
(lp3196
S':'
asbag69
(g90
g71
NtRp3197
(dp3198
g74
(dp3199
sg83
g3184
sg76
(lp3200
g69
(g70
g71
NtRp3201
(dp3202
g74
(dp3203
g82
I3
ssg83
g3197
sg76
(lp3204
g1578
asbasbasbag69
(g85
g71
NtRp3205
(dp3206
g74
(dp3207
sg83
g2865
sg76
(lp3208
g69
(g90
g71
NtRp3209
(dp3210
g74
(dp3211
g94
g95
ssg83
g3205
sg76
(lp3212
S'SCRIPT_NAME'
p3213
asbag69
(g90
g71
NtRp3214
(dp3215
g74
(dp3216
g101
g102
ssg83
g3205
sg76
(lp3217
S':'
asbag69
(g90
g71
NtRp3218
(dp3219
g74
(dp3220
sg83
g3205
sg76
(lp3221
g69
(g70
g71
NtRp3222
(dp3223
g74
(dp3224
g82
I3
ssg83
g3218
sg76
(lp3225
S''
asbasbasbag69
(g85
g71
NtRp3226
(dp3227
g74
(dp3228
sg83
g2865
sg76
(lp3229
g69
(g90
g71
NtRp3230
(dp3231
g74
(dp3232
g94
g95
ssg83
g3226
sg76
(lp3233
S'SERVER_NAME'
p3234
asbag69
(g90
g71
NtRp3235
(dp3236
g74
(dp3237
g101
g102
ssg83
g3226
sg76
(lp3238
S':'
asbag69
(g90
g71
NtRp3239
(dp3240
g74
(dp3241
sg83
g3226
sg76
(lp3242
g69
(g70
g71
NtRp3243
(dp3244
g74
(dp3245
g82
I3
ssg83
g3239
sg76
(lp3246
g1728
asbasbasbag69
(g85
g71
NtRp3247
(dp3248
g74
(dp3249
sg83
g2865
sg76
(lp3250
g69
(g90
g71
NtRp3251
(dp3252
g74
(dp3253
g94
g95
ssg83
g3247
sg76
(lp3254
S'SERVER_PORT'
p3255
asbag69
(g90
g71
NtRp3256
(dp3257
g74
(dp3258
g101
g102
ssg83
g3247
sg76
(lp3259
S':'
asbag69
(g90
g71
NtRp3260
(dp3261
g74
(dp3262
sg83
g3247
sg76
(lp3263
g69
(g70
g71
NtRp3264
(dp3265
g74
(dp3266
g82
I3
ssg83
g3260
sg76
(lp3267
g1750
asbasbasbag69
(g85
g71
NtRp3268
(dp3269
g74
(dp3270
sg83
g2865
sg76
(lp3271
g69
(g90
g71
NtRp3272
(dp3273
g74
(dp3274
g94
g95
ssg83
g3268
sg76
(lp3275
S'SERVER_PROTOCOL'
p3276
asbag69
(g90
g71
NtRp3277
(dp3278
g74
(dp3279
g101
g102
ssg83
g3268
sg76
(lp3280
S':'
asbag69
(g90
g71
NtRp3281
(dp3282
g74
(dp3283
sg83
g3268
sg76
(lp3284
g69
(g70
g71
NtRp3285
(dp3286
g74
(dp3287
g82
I3
ssg83
g3281
sg76
(lp3288
g1772
asbasbasbag69
(g85
g71
NtRp3289
(dp3290
g74
(dp3291
sg83
g2865
sg76
(lp3292
g69
(g90
g71
NtRp3293
(dp3294
g74
(dp3295
g94
g95
ssg83
g3289
sg76
(lp3296
S'SERVER_SOFTWARE'
p3297
asbag69
(g90
g71
NtRp3298
(dp3299
g74
(dp3300
g101
g102
ssg83
g3289
sg76
(lp3301
S':'
asbag69
(g90
g71
NtRp3302
(dp3303
g74
(dp3304
sg83
g3289
sg76
(lp3305
g69
(g70
g71
NtRp3306
(dp3307
g74
(dp3308
g82
I3
ssg83
g3302
sg76
(lp3309
g1794
asbasbasbag69
(g85
g71
NtRp3310
(dp3311
g74
(dp3312
sg83
g2865
sg76
(lp3313
g69
(g90
g71
NtRp3314
(dp3315
g74
(dp3316
g94
g95
ssg83
g3310
sg76
(lp3317
S'wsgi.errors'
p3318
asbag69
(g90
g71
NtRp3319
(dp3320
g74
(dp3321
g101
g102
ssg83
g3310
sg76
(lp3322
S':'
asbag69
(g90
g71
NtRp3323
(dp3324
g74
(dp3325
sg83
g3310
sg76
(lp3326
g69
(g70
g71
NtRp3327
(dp3328
g74
(dp3329
g82
I3
ssg83
g3323
sg76
(lp3330
S"<open file '<stderr>', mode 'w' at 0xb78080d0>"
p3331
asbasbasbag69
(g85
g71
NtRp3332
(dp3333
g74
(dp3334
sg83
g2865
sg76
(lp3335
g69
(g90
g71
NtRp3336
(dp3337
g74
(dp3338
g94
g95
ssg83
g3332
sg76
(lp3339
S'wsgi.file_wrapper'
p3340
asbag69
(g90
g71
NtRp3341
(dp3342
g74
(dp3343
g101
g102
ssg83
g3332
sg76
(lp3344
S':'
asbag69
(g90
g71
NtRp3345
(dp3346
g74
(dp3347
sg83
g3332
sg76
(lp3348
g69
(g70
g71
NtRp3349
(dp3350
g74
(dp3351
g82
I3
ssg83
g3345
sg76
(lp3352
S'<class wsgiref.util.FileWrapper at 0x9a2dcbc>'
p3353
asbasbasbag69
(g85
g71
NtRp3354
(dp3355
g74
(dp3356
sg83
g2865
sg76
(lp3357
g69
(g90
g71
NtRp3358
(dp3359
g74
(dp3360
g94
g95
ssg83
g3354
sg76
(lp3361
S'wsgi.input'
p3362
asbag69
(g90
g71
NtRp3363
(dp3364
g74
(dp3365
g101
g102
ssg83
g3354
sg76
(lp3366
S':'
asbag69
(g90
g71
NtRp3367
(dp3368
g74
(dp3369
sg83
g3354
sg76
(lp3370
g69
(g70
g71
NtRp3371
(dp3372
g74
(dp3373
g82
I3
ssg83
g3367
sg76
(lp3374
S'<cStringIO.StringO object at 0xa674980>'
p3375
asbasbasbag69
(g85
g71
NtRp3376
(dp3377
g74
(dp3378
sg83
g2865
sg76
(lp3379
g69
(g90
g71
NtRp3380
(dp3381
g74
(dp3382
g94
g95
ssg83
g3376
sg76
(lp3383
S'wsgi.multiprocess'
p3384
asbag69
(g90
g71
NtRp3385
(dp3386
g74
(dp3387
g101
g102
ssg83
g3376
sg76
(lp3388
S':'
asbag69
(g90
g71
NtRp3389
(dp3390
g74
(dp3391
sg83
g3376
sg76
(lp3392
g69
(g70
g71
NtRp3393
(dp3394
g74
(dp3395
g82
I3
ssg83
g3389
sg76
(lp3396
g112
asbasbasbag69
(g85
g71
NtRp3397
(dp3398
g74
(dp3399
sg83
g2865
sg76
(lp3400
g69
(g90
g71
NtRp3401
(dp3402
g74
(dp3403
g94
g95
ssg83
g3397
sg76
(lp3404
S'wsgi.multithread'
p3405
asbag69
(g90
g71
NtRp3406
(dp3407
g74
(dp3408
g101
g102
ssg83
g3397
sg76
(lp3409
S':'
asbag69
(g90
g71
NtRp3410
(dp3411
g74
(dp3412
sg83
g3397
sg76
(lp3413
g69
(g70
g71
NtRp3414
(dp3415
g74
(dp3416
g82
I3
ssg83
g3410
sg76
(lp3417
g2011
asbasbasbag69
(g85
g71
NtRp3418
(dp3419
g74
(dp3420
sg83
g2865
sg76
(lp3421
g69
(g90
g71
NtRp3422
(dp3423
g74
(dp3424
g94
g95
ssg83
g3418
sg76
(lp3425
S'wsgi.run_once'
p3426
asbag69
(g90
g71
NtRp3427
(dp3428
g74
(dp3429
g101
g102
ssg83
g3418
sg76
(lp3430
S':'
asbag69
(g90
g71
NtRp3431
(dp3432
g74
(dp3433
sg83
g3418
sg76
(lp3434
g69
(g70
g71
NtRp3435
(dp3436
g74
(dp3437
g82
I3
ssg83
g3431
sg76
(lp3438
g112
asbasbasbag69
(g85
g71
NtRp3439
(dp3440
g74
(dp3441
sg83
g2865
sg76
(lp3442
g69
(g90
g71
NtRp3443
(dp3444
g74
(dp3445
g94
g95
ssg83
g3439
sg76
(lp3446
S'wsgi.url_scheme'
p3447
asbag69
(g90
g71
NtRp3448
(dp3449
g74
(dp3450
g101
g102
ssg83
g3439
sg76
(lp3451
S':'
asbag69
(g90
g71
NtRp3452
(dp3453
g74
(dp3454
sg83
g3439
sg76
(lp3455
g69
(g70
g71
NtRp3456
(dp3457
g74
(dp3458
g82
I3
ssg83
g3452
sg76
(lp3459
g2054
asbasbasbag69
(g85
g71
NtRp3460
(dp3461
g74
(dp3462
sg83
g2865
sg76
(lp3463
g69
(g90
g71
NtRp3464
(dp3465
g74
(dp3466
g94
g95
ssg83
g3460
sg76
(lp3467
S'wsgi.version'
p3468
asbag69
(g90
g71
NtRp3469
(dp3470
g74
(dp3471
g101
g102
ssg83
g3460
sg76
(lp3472
S':'
asbag69
(g90
g71
NtRp3473
(dp3474
g74
(dp3475
sg83
g3460
sg76
(lp3476
g69
(g70
g71
NtRp3477
(dp3478
g74
(dp3479
g82
I3
ssg83
g3473
sg76
(lp3480
S'1'
asbasbasbasbasbasbasbasbasbasbasbasbasbsS'frames'
p3481
(lp3482
(dp3483
S'file'
p3484
S'/home/pratyush/web2py/gluon/restricted.py'
p3485
sS'dump'
p3486
(dp3487
S'code'
p3488
S'\'response.write(\\\'<!DOCTYPE html>\\\\n<!-- paulirish...."></script>\\\\n</body>\\\\n</html>\\\\n\\\\n\\\', escape=False)\''
p3489
sS'layer'
p3490
S"'/home/pratyush/web2py/applications/BuySell/views/default/list_items.html'"
p3491
sS'global compile2'
p3492
S'<function compile2>'
p3493
sS'ccode'
p3494
S'undefined'
p3495
ssS'lnum'
p3496
I211
sS'lines'
p3497
(dp3498
I206
S"    environment['__name__'] = '__restricted__'"
p3499
sI207
S'    try:'
p3500
sI208
S'        if isinstance(code, types.CodeType):'
p3501
sI209
S'            ccode = code'
p3502
sI210
S'        else:'
p3503
sI211
S'            ccode = compile2(code, layer)'
p3504
sI212
S'        exec ccode in environment'
p3505
sI213
S'    except HTTP:'
p3506
sI214
S'        raise'
p3507
sI215
S'    except RestrictedError:'
p3508
ssS'call'
p3509
S'(code=\'response.write(\\\'<!DOCTYPE html>\\\\n<!-- paulirish...."></script>\\\\n</body>\\\\n</html>\\\\n\\\\n\\\', escape=False)\', environment={\'A\': <class \'gluon.html.A\'>, \'Auth\': <class \'gluon.tools.Auth\'>, \'B\': <class \'gluon.html.B\'>, \'BEAUTIFY\': <class \'gluon.html.BEAUTIFY\'>, \'BODY\': <class \'gluon.html.BODY\'>, \'BR\': <class \'gluon.html.BR\'>, \'BUTTON\': <class \'gluon.html.BUTTON\'>, \'CAT\': <class \'gluon.html.CAT\'>, \'CENTER\': <class \'gluon.html.CENTER\'>, \'CLEANUP\': <class \'gluon.validators.CLEANUP\'>, ...}, layer=\'/home/pratyush/web2py/applications/BuySell/views/default/list_items.html\')'
p3510
sS'func'
p3511
S'restricted'
p3512
sa(dp3513
g3484
S'/home/pratyush/web2py/gluon/restricted.py'
p3514
sg3486
(dp3515
S'builtincompile'
p3516
S'<built-in function compile>'
p3517
sS'code'
p3518
S'\'response.write(\\\'<!DOCTYPE html>\\\\n<!-- paulirish...."></script>\\\\n</body>\\\\n</html>\\\\n\\\\n\\\', escape=False)\''
p3519
sS'code.rstrip'
p3520
S'<built-in method rstrip of str object>'
p3521
sS').replace'
p3522
g3495
sS'layer'
p3523
S"'/home/pratyush/web2py/applications/BuySell/views/default/list_items.html'"
p3524
ssg3496
I194
sg3497
(dp3525
I192
S"    The +'\\n' is necessary else compile fails when code ends in a comment."
p3526
sI193
S'    """'
p3527
sI194
S"    return compile(code.rstrip().replace('\\r\\n', '\\n') + '\\n', layer, 'exec')"
p3528
sI195
S''
sI196
S''
sI197
S"def restricted(code, environment=None, layer='Unknown'):"
p3529
sI198
S'    """'
p3530
sI189
S''
sI190
S'def compile2(code, layer):'
p3531
sI191
S'    """'
p3532
ssg3509
S'(code=\'response.write(\\\'<!DOCTYPE html>\\\\n<!-- paulirish...."></script>\\\\n</body>\\\\n</html>\\\\n\\\\n\\\', escape=False)\', layer=\'/home/pratyush/web2py/applications/BuySell/views/default/list_items.html\')'
p3533
sg3511
S'compile2'
p3534
sasS'pyver'
p3535
S'Python 2.7.2+: /usr/bin/python2.7'
p3536
sS'session'
p3537
g69
(g70
g71
NtRp3538
(dp3539
g74
(dp3540
sg76
(lp3541
g69
(g78
g71
NtRp3542
(dp3543
g74
(dp3544
g82
I5
ssg83
Nsg76
(lp3545
g69
(g85
g71
NtRp3546
(dp3547
g74
(dp3548
sg83
g3542
sg76
(lp3549
g69
(g90
g71
NtRp3550
(dp3551
g74
(dp3552
g94
g95
ssg83
g3546
sg76
(lp3553
S'auth'
p3554
asbag69
(g90
g71
NtRp3555
(dp3556
g74
(dp3557
g101
g102
ssg83
g3546
sg76
(lp3558
S':'
asbag69
(g90
g71
NtRp3559
(dp3560
g74
(dp3561
sg83
g3546
sg76
(lp3562
g69
(g70
g71
NtRp3563
(dp3564
g74
(dp3565
g82
I5
ssg83
g3559
sg76
(lp3566
g69
(g78
g71
NtRp3567
(dp3568
g74
(dp3569
g82
I4
ssg83
Nsg76
(lp3570
g69
(g85
g71
NtRp3571
(dp3572
g74
(dp3573
sg83
g3567
sg76
(lp3574
g69
(g90
g71
NtRp3575
(dp3576
g74
(dp3577
g94
g95
ssg83
g3571
sg76
(lp3578
S'expiration'
p3579
asbag69
(g90
g71
NtRp3580
(dp3581
g74
(dp3582
g101
g102
ssg83
g3571
sg76
(lp3583
S':'
asbag69
(g90
g71
NtRp3584
(dp3585
g74
(dp3586
sg83
g3571
sg76
(lp3587
g69
(g70
g71
NtRp3588
(dp3589
g74
(dp3590
g82
I4
ssg83
g3584
sg76
(lp3591
S'3600'
p3592
asbasbasbag69
(g85
g71
NtRp3593
(dp3594
g74
(dp3595
sg83
g3567
sg76
(lp3596
g69
(g90
g71
NtRp3597
(dp3598
g74
(dp3599
g94
g95
ssg83
g3593
sg76
(lp3600
S'hmac_key'
p3601
asbag69
(g90
g71
NtRp3602
(dp3603
g74
(dp3604
g101
g102
ssg83
g3593
sg76
(lp3605
S':'
asbag69
(g90
g71
NtRp3606
(dp3607
g74
(dp3608
sg83
g3593
sg76
(lp3609
g69
(g70
g71
NtRp3610
(dp3611
g74
(dp3612
g82
I4
ssg83
g3606
sg76
(lp3613
S'90ed2782-b33b-4249-8b8c-dcff0b943064'
p3614
asbasbasbag69
(g85
g71
NtRp3615
(dp3616
g74
(dp3617
sg83
g3567
sg76
(lp3618
g69
(g90
g71
NtRp3619
(dp3620
g74
(dp3621
g94
g95
ssg83
g3615
sg76
(lp3622
S'last_visit'
p3623
asbag69
(g90
g71
NtRp3624
(dp3625
g74
(dp3626
g101
g102
ssg83
g3615
sg76
(lp3627
S':'
asbag69
(g90
g71
NtRp3628
(dp3629
g74
(dp3630
sg83
g3615
sg76
(lp3631
g69
(g70
g71
NtRp3632
(dp3633
g74
(dp3634
g82
I4
ssg83
g3628
sg76
(lp3635
S'datetime.datetime(2013, 4, 23, 10, 50, 6, 427171)'
p3636
asbasbasbag69
(g85
g71
NtRp3637
(dp3638
g74
(dp3639
sg83
g3567
sg76
(lp3640
g69
(g90
g71
NtRp3641
(dp3642
g74
(dp3643
g94
g95
ssg83
g3637
sg76
(lp3644
S'remember'
p3645
asbag69
(g90
g71
NtRp3646
(dp3647
g74
(dp3648
g101
g102
ssg83
g3637
sg76
(lp3649
S':'
asbag69
(g90
g71
NtRp3650
(dp3651
g74
(dp3652
sg83
g3637
sg76
(lp3653
g69
(g70
g71
NtRp3654
(dp3655
g74
(dp3656
g82
I4
ssg83
g3650
sg76
(lp3657
g112
asbasbasbag69
(g85
g71
NtRp3658
(dp3659
g74
(dp3660
sg83
g3567
sg76
(lp3661
g69
(g90
g71
NtRp3662
(dp3663
g74
(dp3664
g94
g95
ssg83
g3658
sg76
(lp3665
S'user'
p3666
asbag69
(g90
g71
NtRp3667
(dp3668
g74
(dp3669
g101
g102
ssg83
g3658
sg76
(lp3670
S':'
asbag69
(g90
g71
NtRp3671
(dp3672
g74
(dp3673
sg83
g3658
sg76
(lp3674
g69
(g70
g71
NtRp3675
(dp3676
g74
(dp3677
g82
I4
ssg83
g3671
sg76
(lp3678
g69
(g78
g71
NtRp3679
(dp3680
g74
(dp3681
g82
I3
ssg83
Nsg76
(lp3682
g69
(g85
g71
NtRp3683
(dp3684
g74
(dp3685
sg83
g3679
sg76
(lp3686
g69
(g90
g71
NtRp3687
(dp3688
g74
(dp3689
g94
g95
ssg83
g3683
sg76
(lp3690
S'email'
p3691
asbag69
(g90
g71
NtRp3692
(dp3693
g74
(dp3694
g101
g102
ssg83
g3683
sg76
(lp3695
S':'
asbag69
(g90
g71
NtRp3696
(dp3697
g74
(dp3698
sg83
g3683
sg76
(lp3699
g69
(g70
g71
NtRp3700
(dp3701
g74
(dp3702
g82
I3
ssg83
g3696
sg76
(lp3703
S'pratyush.nigam@gmail.com'
p3704
asbasbasbag69
(g85
g71
NtRp3705
(dp3706
g74
(dp3707
sg83
g3679
sg76
(lp3708
g69
(g90
g71
NtRp3709
(dp3710
g74
(dp3711
g94
g95
ssg83
g3705
sg76
(lp3712
S'first_name'
p3713
asbag69
(g90
g71
NtRp3714
(dp3715
g74
(dp3716
g101
g102
ssg83
g3705
sg76
(lp3717
S':'
asbag69
(g90
g71
NtRp3718
(dp3719
g74
(dp3720
sg83
g3705
sg76
(lp3721
g69
(g70
g71
NtRp3722
(dp3723
g74
(dp3724
g82
I3
ssg83
g3718
sg76
(lp3725
S'Pratyush'
p3726
asbasbasbag69
(g85
g71
NtRp3727
(dp3728
g74
(dp3729
sg83
g3679
sg76
(lp3730
g69
(g90
g71
NtRp3731
(dp3732
g74
(dp3733
g94
g95
ssg83
g3727
sg76
(lp3734
S'id'
p3735
asbag69
(g90
g71
NtRp3736
(dp3737
g74
(dp3738
g101
g102
ssg83
g3727
sg76
(lp3739
S':'
asbag69
(g90
g71
NtRp3740
(dp3741
g74
(dp3742
sg83
g3727
sg76
(lp3743
g69
(g70
g71
NtRp3744
(dp3745
g74
(dp3746
g82
I3
ssg83
g3740
sg76
(lp3747
S'1'
asbasbasbag69
(g85
g71
NtRp3748
(dp3749
g74
(dp3750
sg83
g3679
sg76
(lp3751
g69
(g90
g71
NtRp3752
(dp3753
g74
(dp3754
g94
g95
ssg83
g3748
sg76
(lp3755
S'last_name'
p3756
asbag69
(g90
g71
NtRp3757
(dp3758
g74
(dp3759
g101
g102
ssg83
g3748
sg76
(lp3760
S':'
asbag69
(g90
g71
NtRp3761
(dp3762
g74
(dp3763
sg83
g3748
sg76
(lp3764
g69
(g70
g71
NtRp3765
(dp3766
g74
(dp3767
g82
I3
ssg83
g3761
sg76
(lp3768
S'Nigam'
p3769
asbasbasbag69
(g85
g71
NtRp3770
(dp3771
g74
(dp3772
sg83
g3679
sg76
(lp3773
g69
(g90
g71
NtRp3774
(dp3775
g74
(dp3776
g94
g95
ssg83
g3770
sg76
(lp3777
S'registration_id'
p3778
asbag69
(g90
g71
NtRp3779
(dp3780
g74
(dp3781
g101
g102
ssg83
g3770
sg76
(lp3782
S':'
asbag69
(g90
g71
NtRp3783
(dp3784
g74
(dp3785
sg83
g3770
sg76
(lp3786
g69
(g70
g71
NtRp3787
(dp3788
g74
(dp3789
g82
I3
ssg83
g3783
sg76
(lp3790
S''
asbasbasbag69
(g85
g71
NtRp3791
(dp3792
g74
(dp3793
sg83
g3679
sg76
(lp3794
g69
(g90
g71
NtRp3795
(dp3796
g74
(dp3797
g94
g95
ssg83
g3791
sg76
(lp3798
S'registration_key'
p3799
asbag69
(g90
g71
NtRp3800
(dp3801
g74
(dp3802
g101
g102
ssg83
g3791
sg76
(lp3803
S':'
asbag69
(g90
g71
NtRp3804
(dp3805
g74
(dp3806
sg83
g3791
sg76
(lp3807
g69
(g70
g71
NtRp3808
(dp3809
g74
(dp3810
g82
I3
ssg83
g3804
sg76
(lp3811
S''
asbasbasbag69
(g85
g71
NtRp3812
(dp3813
g74
(dp3814
sg83
g3679
sg76
(lp3815
g69
(g90
g71
NtRp3816
(dp3817
g74
(dp3818
g94
g95
ssg83
g3812
sg76
(lp3819
S'reset_password_key'
p3820
asbag69
(g90
g71
NtRp3821
(dp3822
g74
(dp3823
g101
g102
ssg83
g3812
sg76
(lp3824
S':'
asbag69
(g90
g71
NtRp3825
(dp3826
g74
(dp3827
sg83
g3812
sg76
(lp3828
g69
(g70
g71
NtRp3829
(dp3830
g74
(dp3831
g82
I3
ssg83
g3825
sg76
(lp3832
S''
asbasbasbasbasbasbasbag69
(g85
g71
NtRp3833
(dp3834
g74
(dp3835
sg83
g3567
sg76
(lp3836
g69
(g90
g71
NtRp3837
(dp3838
g74
(dp3839
g94
g95
ssg83
g3833
sg76
(lp3840
S'user_groups'
p3841
asbag69
(g90
g71
NtRp3842
(dp3843
g74
(dp3844
g101
g102
ssg83
g3833
sg76
(lp3845
S':'
asbag69
(g90
g71
NtRp3846
(dp3847
g74
(dp3848
sg83
g3833
sg76
(lp3849
g69
(g70
g71
NtRp3850
(dp3851
g74
(dp3852
g82
I4
ssg83
g3846
sg76
(lp3853
g69
(g78
g71
NtRp3854
(dp3855
g74
(dp3856
g82
I3
ssg83
Nsg76
(lp3857
g69
(g85
g71
NtRp3858
(dp3859
g74
(dp3860
sg83
g3854
sg76
(lp3861
g69
(g90
g71
NtRp3862
(dp3863
g74
(dp3864
g94
g95
ssg83
g3858
sg76
(lp3865
S'1'
asbag69
(g90
g71
NtRp3866
(dp3867
g74
(dp3868
g101
g102
ssg83
g3858
sg76
(lp3869
S':'
asbag69
(g90
g71
NtRp3870
(dp3871
g74
(dp3872
sg83
g3858
sg76
(lp3873
g69
(g70
g71
NtRp3874
(dp3875
g74
(dp3876
g82
I3
ssg83
g3870
sg76
(lp3877
S'user_1'
p3878
asbasbasbasbasbasbasbasbasbasbasbag69
(g85
g71
NtRp3879
(dp3880
g74
(dp3881
sg83
g3542
sg76
(lp3882
g69
(g90
g71
NtRp3883
(dp3884
g74
(dp3885
g94
g95
ssg83
g3879
sg76
(lp3886
S'flash'
p3887
asbag69
(g90
g71
NtRp3888
(dp3889
g74
(dp3890
g101
g102
ssg83
g3879
sg76
(lp3891
S':'
asbag69
(g90
g71
NtRp3892
(dp3893
g74
(dp3894
sg83
g3879
sg76
(lp3895
g69
(g70
g71
NtRp3896
(dp3897
g74
(dp3898
g82
I5
ssg83
g3892
sg76
(lp3899
S'None'
p3900
asbasbasbag69
(g85
g71
NtRp3901
(dp3902
g74
(dp3903
sg83
g3542
sg76
(lp3904
g69
(g90
g71
NtRp3905
(dp3906
g74
(dp3907
g94
g95
ssg83
g3901
sg76
(lp3908
S'last_orderby'
p3909
asbag69
(g90
g71
NtRp3910
(dp3911
g74
(dp3912
g101
g102
ssg83
g3901
sg76
(lp3913
S':'
asbag69
(g90
g71
NtRp3914
(dp3915
g74
(dp3916
sg83
g3901
sg76
(lp3917
g69
(g70
g71
NtRp3918
(dp3919
g74
(dp3920
g82
I5
ssg83
g3914
sg76
(lp3921
S'None'
p3922
asbasbasbag69
(g85
g71
NtRp3923
(dp3924
g74
(dp3925
sg83
g3542
sg76
(lp3926
g69
(g90
g71
NtRp3927
(dp3928
g74
(dp3929
g94
g95
ssg83
g3923
sg76
(lp3930
S'last_query'
p3931
asbag69
(g90
g71
NtRp3932
(dp3933
g74
(dp3934
g101
g102
ssg83
g3923
sg76
(lp3935
S':'
asbag69
(g90
g71
NtRp3936
(dp3937
g74
(dp3938
sg83
g3923
sg76
(lp3939
g69
(g70
g71
NtRp3940
(dp3941
g74
(dp3942
g82
I5
ssg83
g3936
sg76
(lp3943
S'db.sold.id>0'
p3944
asbasbasbasbasbsS'etype'
p3945
S"<type 'exceptions.SyntaxError'>"
p3946
sS'date'
p3947
S'Tue Apr 23 10:50:06 2013'
p3948
sS'response'
p3949
g69
(g70
g71
NtRp3950
(dp3951
g74
(dp3952
sg76
(lp3953
g69
(g78
g71
NtRp3954
(dp3955
g74
(dp3956
g82
I5
ssg83
Nsg76
(lp3957
g69
(g85
g71
NtRp3958
(dp3959
g74
(dp3960
sg83
g3954
sg76
(lp3961
g69
(g90
g71
NtRp3962
(dp3963
g74
(dp3964
g94
g95
ssg83
g3958
sg76
(lp3965
g167
asbag69
(g90
g71
NtRp3966
(dp3967
g74
(dp3968
g101
g102
ssg83
g3958
sg76
(lp3969
S':'
asbag69
(g90
g71
NtRp3970
(dp3971
g74
(dp3972
sg83
g3958
sg76
(lp3973
g69
(g70
g71
NtRp3974
(dp3975
g74
(dp3976
g82
I5
ssg83
g3970
sg76
(lp3977
S'<cStringIO.StringO object at 0xa674480>'
p3978
asbasbasbag69
(g85
g71
NtRp3979
(dp3980
g74
(dp3981
sg83
g3954
sg76
(lp3982
g69
(g90
g71
NtRp3983
(dp3984
g74
(dp3985
g94
g95
ssg83
g3979
sg76
(lp3986
g255
asbag69
(g90
g71
NtRp3987
(dp3988
g74
(dp3989
g101
g102
ssg83
g3979
sg76
(lp3990
S':'
asbag69
(g90
g71
NtRp3991
(dp3992
g74
(dp3993
sg83
g3979
sg76
(lp3994
g69
(g70
g71
NtRp3995
(dp3996
g74
(dp3997
g82
I5
ssg83
g3991
sg76
(lp3998
g69
(g78
g71
NtRp3999
(dp4000
g74
(dp4001
g82
I4
ssg83
Nsg76
(lp4002
g69
(g85
g71
NtRp4003
(dp4004
g74
(dp4005
sg83
g3999
sg76
(lp4006
g69
(g90
g71
NtRp4007
(dp4008
g74
(dp4009
g94
g95
ssg83
g4003
sg76
(lp4010
S'session_id_buysell'
p4011
asbag69
(g90
g71
NtRp4012
(dp4013
g74
(dp4014
g101
g102
ssg83
g4003
sg76
(lp4015
S':'
asbag69
(g90
g71
NtRp4016
(dp4017
g74
(dp4018
sg83
g4003
sg76
(lp4019
g69
(g70
g71
NtRp4020
(dp4021
g74
(dp4022
g82
I4
ssg83
g4016
sg76
(lp4023
g673
ag69
(g78
g71
NtRp4024
(dp4025
g74
(dp4026
g82
I3
ssg83
Nsg76
(lp4027
g69
(g85
g71
NtRp4028
(dp4029
g74
(dp4030
sg83
g4024
sg76
(lp4031
g69
(g90
g71
NtRp4032
(dp4033
g74
(dp4034
g94
g95
ssg83
g4028
sg76
(lp4035
g306
asbag69
(g90
g71
NtRp4036
(dp4037
g74
(dp4038
g101
g102
ssg83
g4028
sg76
(lp4039
S':'
asbag69
(g90
g71
NtRp4040
(dp4041
g74
(dp4042
sg83
g4028
sg76
(lp4043
g69
(g70
g71
NtRp4044
(dp4045
g74
(dp4046
g82
I3
ssg83
g4040
sg76
(lp4047
S''
asbasbasbag69
(g85
g71
NtRp4048
(dp4049
g74
(dp4050
sg83
g4024
sg76
(lp4051
g69
(g90
g71
NtRp4052
(dp4053
g74
(dp4054
g94
g95
ssg83
g4048
sg76
(lp4055
g327
asbag69
(g90
g71
NtRp4056
(dp4057
g74
(dp4058
g101
g102
ssg83
g4048
sg76
(lp4059
S':'
asbag69
(g90
g71
NtRp4060
(dp4061
g74
(dp4062
sg83
g4048
sg76
(lp4063
g69
(g70
g71
NtRp4064
(dp4065
g74
(dp4066
g82
I3
ssg83
g4060
sg76
(lp4067
S''
asbasbasbag69
(g85
g71
NtRp4068
(dp4069
g74
(dp4070
sg83
g4024
sg76
(lp4071
g69
(g90
g71
NtRp4072
(dp4073
g74
(dp4074
g94
g95
ssg83
g4068
sg76
(lp4075
g348
asbag69
(g90
g71
NtRp4076
(dp4077
g74
(dp4078
g101
g102
ssg83
g4068
sg76
(lp4079
S':'
asbag69
(g90
g71
NtRp4080
(dp4081
g74
(dp4082
sg83
g4068
sg76
(lp4083
g69
(g70
g71
NtRp4084
(dp4085
g74
(dp4086
g82
I3
ssg83
g4080
sg76
(lp4087
S''
asbasbasbag69
(g85
g71
NtRp4088
(dp4089
g74
(dp4090
sg83
g4024
sg76
(lp4091
g69
(g90
g71
NtRp4092
(dp4093
g74
(dp4094
g94
g95
ssg83
g4088
sg76
(lp4095
g369
asbag69
(g90
g71
NtRp4096
(dp4097
g74
(dp4098
g101
g102
ssg83
g4088
sg76
(lp4099
S':'
asbag69
(g90
g71
NtRp4100
(dp4101
g74
(dp4102
sg83
g4088
sg76
(lp4103
g69
(g70
g71
NtRp4104
(dp4105
g74
(dp4106
g82
I3
ssg83
g4100
sg76
(lp4107
S''
asbasbasbag69
(g85
g71
NtRp4108
(dp4109
g74
(dp4110
sg83
g4024
sg76
(lp4111
g69
(g90
g71
NtRp4112
(dp4113
g74
(dp4114
g94
g95
ssg83
g4108
sg76
(lp4115
g390
asbag69
(g90
g71
NtRp4116
(dp4117
g74
(dp4118
g101
g102
ssg83
g4108
sg76
(lp4119
S':'
asbag69
(g90
g71
NtRp4120
(dp4121
g74
(dp4122
sg83
g4108
sg76
(lp4123
g69
(g70
g71
NtRp4124
(dp4125
g74
(dp4126
g82
I3
ssg83
g4120
sg76
(lp4127
S''
asbasbasbag69
(g85
g71
NtRp4128
(dp4129
g74
(dp4130
sg83
g4024
sg76
(lp4131
g69
(g90
g71
NtRp4132
(dp4133
g74
(dp4134
g94
g95
ssg83
g4128
sg76
(lp4135
g411
asbag69
(g90
g71
NtRp4136
(dp4137
g74
(dp4138
g101
g102
ssg83
g4128
sg76
(lp4139
S':'
asbag69
(g90
g71
NtRp4140
(dp4141
g74
(dp4142
sg83
g4128
sg76
(lp4143
g69
(g70
g71
NtRp4144
(dp4145
g74
(dp4146
g82
I3
ssg83
g4140
sg76
(lp4147
S'/'
asbasbasbag69
(g85
g71
NtRp4148
(dp4149
g74
(dp4150
sg83
g4024
sg76
(lp4151
g69
(g90
g71
NtRp4152
(dp4153
g74
(dp4154
g94
g95
ssg83
g4148
sg76
(lp4155
g432
asbag69
(g90
g71
NtRp4156
(dp4157
g74
(dp4158
g101
g102
ssg83
g4148
sg76
(lp4159
S':'
asbag69
(g90
g71
NtRp4160
(dp4161
g74
(dp4162
sg83
g4148
sg76
(lp4163
g69
(g70
g71
NtRp4164
(dp4165
g74
(dp4166
g82
I3
ssg83
g4160
sg76
(lp4167
S''
asbasbasbag69
(g85
g71
NtRp4168
(dp4169
g74
(dp4170
sg83
g4024
sg76
(lp4171
g69
(g90
g71
NtRp4172
(dp4173
g74
(dp4174
g94
g95
ssg83
g4168
sg76
(lp4175
g453
asbag69
(g90
g71
NtRp4176
(dp4177
g74
(dp4178
g101
g102
ssg83
g4168
sg76
(lp4179
S':'
asbag69
(g90
g71
NtRp4180
(dp4181
g74
(dp4182
sg83
g4168
sg76
(lp4183
g69
(g70
g71
NtRp4184
(dp4185
g74
(dp4186
g82
I3
ssg83
g4180
sg76
(lp4187
S''
asbasbasbasbasbasbasbasbasbasbasbag69
(g85
g71
NtRp4188
(dp4189
g74
(dp4190
sg83
g3954
sg76
(lp4191
g69
(g90
g71
NtRp4192
(dp4193
g74
(dp4194
g94
g95
ssg83
g4188
sg76
(lp4195
S'delimiters'
p4196
asbag69
(g90
g71
NtRp4197
(dp4198
g74
(dp4199
g101
g102
ssg83
g4188
sg76
(lp4200
S':'
asbag69
(g90
g71
NtRp4201
(dp4202
g74
(dp4203
sg83
g4188
sg76
(lp4204
g69
(g70
g71
NtRp4205
(dp4206
g74
(dp4207
g82
I5
ssg83
g4201
sg76
(lp4208
g69
(g78
g71
NtRp4209
(dp4210
g74
(dp4211
g82
I4
ssg83
Nsg76
(lp4212
g69
(g85
g71
NtRp4213
(dp4214
g74
(dp4215
sg83
g4209
sg76
(lp4216
g69
(g90
g71
NtRp4217
(dp4218
g74
(dp4219
sg83
g4213
sg76
(lp4220
g69
(g70
g71
NtRp4221
(dp4222
g74
(dp4223
g82
I4
ssg83
g4217
sg76
(lp4224
S'{{'
p4225
asbasbasbag69
(g85
g71
NtRp4226
(dp4227
g74
(dp4228
sg83
g4209
sg76
(lp4229
g69
(g90
g71
NtRp4230
(dp4231
g74
(dp4232
sg83
g4226
sg76
(lp4233
g69
(g70
g71
NtRp4234
(dp4235
g74
(dp4236
g82
I4
ssg83
g4230
sg76
(lp4237
S'}}'
p4238
asbasbasbasbasbasbasbag69
(g85
g71
NtRp4239
(dp4240
g74
(dp4241
sg83
g3954
sg76
(lp4242
g69
(g90
g71
NtRp4243
(dp4244
g74
(dp4245
g94
g95
ssg83
g4239
sg76
(lp4246
S'files'
p4247
asbag69
(g90
g71
NtRp4248
(dp4249
g74
(dp4250
g101
g102
ssg83
g4239
sg76
(lp4251
S':'
asbag69
(g90
g71
NtRp4252
(dp4253
g74
(dp4254
sg83
g4239
sg76
(lp4255
g69
(g70
g71
NtRp4256
(dp4257
g74
(dp4258
g82
I5
ssg83
g4252
sg76
(lp4259
g69
(g78
g71
NtRp4260
(dp4261
g74
(dp4262
g82
I4
ssg83
Nsg76
(lp4263
sbasbasbasbag69
(g85
g71
NtRp4264
(dp4265
g74
(dp4266
sg83
g3954
sg76
(lp4267
g69
(g90
g71
NtRp4268
(dp4269
g74
(dp4270
g94
g95
ssg83
g4264
sg76
(lp4271
S'flash'
p4272
asbag69
(g90
g71
NtRp4273
(dp4274
g74
(dp4275
g101
g102
ssg83
g4264
sg76
(lp4276
S':'
asbag69
(g90
g71
NtRp4277
(dp4278
g74
(dp4279
sg83
g4264
sg76
(lp4280
g69
(g70
g71
NtRp4281
(dp4282
g74
(dp4283
g82
I5
ssg83
g4277
sg76
(lp4284
S''
asbasbasbag69
(g85
g71
NtRp4285
(dp4286
g74
(dp4287
sg83
g3954
sg76
(lp4288
g69
(g90
g71
NtRp4289
(dp4290
g74
(dp4291
g94
g95
ssg83
g4285
sg76
(lp4292
S'generic_patterns'
p4293
asbag69
(g90
g71
NtRp4294
(dp4295
g74
(dp4296
g101
g102
ssg83
g4285
sg76
(lp4297
S':'
asbag69
(g90
g71
NtRp4298
(dp4299
g74
(dp4300
sg83
g4285
sg76
(lp4301
g69
(g70
g71
NtRp4302
(dp4303
g74
(dp4304
g82
I5
ssg83
g4298
sg76
(lp4305
g69
(g78
g71
NtRp4306
(dp4307
g74
(dp4308
g82
I4
ssg83
Nsg76
(lp4309
g69
(g85
g71
NtRp4310
(dp4311
g74
(dp4312
sg83
g4306
sg76
(lp4313
g69
(g90
g71
NtRp4314
(dp4315
g74
(dp4316
sg83
g4310
sg76
(lp4317
g69
(g70
g71
NtRp4318
(dp4319
g74
(dp4320
g82
I4
ssg83
g4314
sg76
(lp4321
S'*'
asbasbasbasbasbasbasbag69
(g85
g71
NtRp4322
(dp4323
g74
(dp4324
sg83
g3954
sg76
(lp4325
g69
(g90
g71
NtRp4326
(dp4327
g74
(dp4328
g94
g95
ssg83
g4322
sg76
(lp4329
S'google_analytics_id'
p4330
asbag69
(g90
g71
NtRp4331
(dp4332
g74
(dp4333
g101
g102
ssg83
g4322
sg76
(lp4334
S':'
asbag69
(g90
g71
NtRp4335
(dp4336
g74
(dp4337
sg83
g4322
sg76
(lp4338
g69
(g70
g71
NtRp4339
(dp4340
g74
(dp4341
g82
I5
ssg83
g4335
sg76
(lp4342
S'None'
p4343
asbasbasbag69
(g85
g71
NtRp4344
(dp4345
g74
(dp4346
sg83
g3954
sg76
(lp4347
g69
(g90
g71
NtRp4348
(dp4349
g74
(dp4350
g94
g95
ssg83
g4344
sg76
(lp4351
S'headers'
p4352
asbag69
(g90
g71
NtRp4353
(dp4354
g74
(dp4355
g101
g102
ssg83
g4344
sg76
(lp4356
S':'
asbag69
(g90
g71
NtRp4357
(dp4358
g74
(dp4359
sg83
g4344
sg76
(lp4360
g69
(g70
g71
NtRp4361
(dp4362
g74
(dp4363
g82
I5
ssg83
g4357
sg76
(lp4364
g69
(g78
g71
NtRp4365
(dp4366
g74
(dp4367
g82
I4
ssg83
Nsg76
(lp4368
g69
(g85
g71
NtRp4369
(dp4370
g74
(dp4371
sg83
g4365
sg76
(lp4372
g69
(g90
g71
NtRp4373
(dp4374
g74
(dp4375
g94
g95
ssg83
g4369
sg76
(lp4376
S'X-Powered-By'
p4377
asbag69
(g90
g71
NtRp4378
(dp4379
g74
(dp4380
g101
g102
ssg83
g4369
sg76
(lp4381
S':'
asbag69
(g90
g71
NtRp4382
(dp4383
g74
(dp4384
sg83
g4369
sg76
(lp4385
g69
(g70
g71
NtRp4386
(dp4387
g74
(dp4388
g82
I4
ssg83
g4382
sg76
(lp4389
S'web2py'
p4390
asbasbasbasbasbasbasbag69
(g85
g71
NtRp4391
(dp4392
g74
(dp4393
sg83
g3954
sg76
(lp4394
g69
(g90
g71
NtRp4395
(dp4396
g74
(dp4397
g94
g95
ssg83
g4391
sg76
(lp4398
S'logo'
p4399
asbag69
(g90
g71
NtRp4400
(dp4401
g74
(dp4402
g101
g102
ssg83
g4391
sg76
(lp4403
S':'
asbag69
(g90
g71
NtRp4404
(dp4405
g74
(dp4406
sg83
g4391
sg76
(lp4407
g69
(g70
g71
NtRp4408
(dp4409
g74
(dp4410
g82
I5
ssg83
g4404
sg76
(lp4411
g69
(cgluon.html
A
p4412
g71
NtRp4413
(dp4414
g74
(dp4415
S'_class'
p4416
S'brand'
p4417
sS'_href'
p4418
S''
ssg83
Nsg76
(lp4419
g69
(cgluon.html
B
p4420
g71
NtRp4421
(dp4422
g74
(dp4423
sg83
g4413
sg76
(lp4424
S'Buy/Sell'
p4425
asbacgluon.html
XML_unpickle
p4426
(S's\r\x00\x00\x00&trade;&nbsp;'
tRp4427
asbasbasbasbag69
(g85
g71
NtRp4428
(dp4429
g74
(dp4430
sg83
g3954
sg76
(lp4431
g69
(g90
g71
NtRp4432
(dp4433
g74
(dp4434
g94
g95
ssg83
g4428
sg76
(lp4435
S'menu'
p4436
asbag69
(g90
g71
NtRp4437
(dp4438
g74
(dp4439
g101
g102
ssg83
g4428
sg76
(lp4440
S':'
asbag69
(g90
g71
NtRp4441
(dp4442
g74
(dp4443
sg83
g4428
sg76
(lp4444
g69
(g70
g71
NtRp4445
(dp4446
g74
(dp4447
g82
I5
ssg83
g4441
sg76
(lp4448
g69
(g78
g71
NtRp4449
(dp4450
g74
(dp4451
g82
I4
ssg83
Nsg76
(lp4452
g69
(g85
g71
NtRp4453
(dp4454
g74
(dp4455
sg83
g4449
sg76
(lp4456
g69
(g90
g71
NtRp4457
(dp4458
g74
(dp4459
sg83
g4453
sg76
(lp4460
g69
(g70
g71
NtRp4461
(dp4462
g74
(dp4463
g82
I4
ssg83
g4457
sg76
(lp4464
g69
(g78
g71
NtRp4465
(dp4466
g74
(dp4467
g82
I3
ssg83
Nsg76
(lp4468
g69
(g85
g71
NtRp4469
(dp4470
g74
(dp4471
sg83
g4465
sg76
(lp4472
g69
(g90
g71
NtRp4473
(dp4474
g74
(dp4475
sg83
g4469
sg76
(lp4476
g69
(g70
g71
NtRp4477
(dp4478
g74
(dp4479
g82
I3
ssg83
g4473
sg76
(lp4480
cgluon.languages
lazyT_unpickle
p4481
(S's\x04\x00\x00\x00Home'
tRp4482
asbasbasbag69
(g85
g71
NtRp4483
(dp4484
g74
(dp4485
sg83
g4465
sg76
(lp4486
g69
(g90
g71
NtRp4487
(dp4488
g74
(dp4489
sg83
g4483
sg76
(lp4490
g69
(g70
g71
NtRp4491
(dp4492
g74
(dp4493
g82
I3
ssg83
g4487
sg76
(lp4494
g112
asbasbasbag69
(g85
g71
NtRp4495
(dp4496
g74
(dp4497
sg83
g4465
sg76
(lp4498
g69
(g90
g71
NtRp4499
(dp4500
g74
(dp4501
sg83
g4495
sg76
(lp4502
g69
(g70
g71
NtRp4503
(dp4504
g74
(dp4505
g82
I3
ssg83
g4499
sg76
(lp4506
S'/BuySell/default/index'
p4507
asbasbasbag69
(g85
g71
NtRp4508
(dp4509
g74
(dp4510
sg83
g4465
sg76
(lp4511
g69
(g90
g71
NtRp4512
(dp4513
g74
(dp4514
sg83
g4508
sg76
(lp4515
g69
(g70
g71
NtRp4516
(dp4517
g74
(dp4518
g82
I3
ssg83
g4512
sg76
(lp4519
g69
(g78
g71
NtRp4520
(dp4521
g74
(dp4522
g82
I2
ssg83
Nsg76
(lp4523
sbasbasbasbasbasbasbasbag69
(g85
g71
NtRp4524
(dp4525
g74
(dp4526
sg83
g4449
sg76
(lp4527
g69
(g90
g71
NtRp4528
(dp4529
g74
(dp4530
sg83
g4524
sg76
(lp4531
g69
(g70
g71
NtRp4532
(dp4533
g74
(dp4534
g82
I4
ssg83
g4528
sg76
(lp4535
g69
(g78
g71
NtRp4536
(dp4537
g74
(dp4538
g82
I3
ssg83
Nsg76
(lp4539
g69
(g85
g71
NtRp4540
(dp4541
g74
(dp4542
sg83
g4536
sg76
(lp4543
g69
(g90
g71
NtRp4544
(dp4545
g74
(dp4546
sg83
g4540
sg76
(lp4547
g69
(g70
g71
NtRp4548
(dp4549
g74
(dp4550
g82
I3
ssg83
g4544
sg76
(lp4551
g69
(cgluon.html
SPAN
p4552
g71
NtRp4553
(dp4554
g74
(dp4555
g4416
S'highlighted'
p4556
ssg83
Nsg76
(lp4557
S'Navigate'
p4558
asbasbasbasbag69
(g85
g71
NtRp4559
(dp4560
g74
(dp4561
sg83
g4536
sg76
(lp4562
g69
(g90
g71
NtRp4563
(dp4564
g74
(dp4565
sg83
g4559
sg76
(lp4566
g69
(g70
g71
NtRp4567
(dp4568
g74
(dp4569
g82
I3
ssg83
g4563
sg76
(lp4570
g112
asbasbasbag69
(g85
g71
NtRp4571
(dp4572
g74
(dp4573
sg83
g4536
sg76
(lp4574
g69
(g90
g71
NtRp4575
(dp4576
g74
(dp4577
sg83
g4571
sg76
(lp4578
g69
(g70
g71
NtRp4579
(dp4580
g74
(dp4581
g82
I3
ssg83
g4575
sg76
(lp4582
S''
asbasbasbag69
(g85
g71
NtRp4583
(dp4584
g74
(dp4585
sg83
g4536
sg76
(lp4586
g69
(g90
g71
NtRp4587
(dp4588
g74
(dp4589
sg83
g4583
sg76
(lp4590
g69
(g70
g71
NtRp4591
(dp4592
g74
(dp4593
g82
I3
ssg83
g4587
sg76
(lp4594
g69
(g78
g71
NtRp4595
(dp4596
g74
(dp4597
g82
I2
ssg83
Nsg76
(lp4598
g69
(g85
g71
NtRp4599
(dp4600
g74
(dp4601
sg83
g4595
sg76
(lp4602
g69
(g90
g71
NtRp4603
(dp4604
g74
(dp4605
sg83
g4599
sg76
(lp4606
g69
(g70
g71
NtRp4607
(dp4608
g74
(dp4609
g82
I2
ssg83
g4603
sg76
(lp4610
g69
(g78
g71
NtRp4611
(dp4612
g74
(dp4613
g82
I1
ssg83
Nsg76
(lp4614
g69
(g85
g71
NtRp4615
(dp4616
g74
(dp4617
sg83
g4611
sg76
(lp4618
g69
(g90
g71
NtRp4619
(dp4620
g74
(dp4621
sg83
g4615
sg76
(lp4622
g69
(g70
g71
NtRp4623
(dp4624
g74
(dp4625
g82
I1
ssg83
g4619
sg76
(lp4626
g4481
(S's\r\x00\x00\x00List of items'
tRp4627
asbasbasbag69
(g85
g71
NtRp4628
(dp4629
g74
(dp4630
sg83
g4611
sg76
(lp4631
g69
(g90
g71
NtRp4632
(dp4633
g74
(dp4634
sg83
g4628
sg76
(lp4635
g69
(g70
g71
NtRp4636
(dp4637
g74
(dp4638
g82
I1
ssg83
g4632
sg76
(lp4639
I00
asbasbasbag69
(g85
g71
NtRp4640
(dp4641
g74
(dp4642
sg83
g4611
sg76
(lp4643
g69
(g90
g71
NtRp4644
(dp4645
g74
(dp4646
sg83
g4640
sg76
(lp4647
g69
(g70
g71
NtRp4648
(dp4649
g74
(dp4650
g82
I1
ssg83
g4644
sg76
(lp4651
S'/BuySell/default/list_items'
p4652
asbasbasbasbasbasbasbag69
(g85
g71
NtRp4653
(dp4654
g74
(dp4655
sg83
g4595
sg76
(lp4656
g69
(g90
g71
NtRp4657
(dp4658
g74
(dp4659
sg83
g4653
sg76
(lp4660
g69
(g70
g71
NtRp4661
(dp4662
g74
(dp4663
g82
I2
ssg83
g4657
sg76
(lp4664
g69
(g78
g71
NtRp4665
(dp4666
g74
(dp4667
g82
I1
ssg83
Nsg76
(lp4668
g69
(g85
g71
NtRp4669
(dp4670
g74
(dp4671
sg83
g4665
sg76
(lp4672
g69
(g90
g71
NtRp4673
(dp4674
g74
(dp4675
sg83
g4669
sg76
(lp4676
g69
(g70
g71
NtRp4677
(dp4678
g74
(dp4679
g82
I1
ssg83
g4673
sg76
(lp4680
g4481
(S't\x04\x00\x00\x00Sell'
tRp4681
asbasbasbag69
(g85
g71
NtRp4682
(dp4683
g74
(dp4684
sg83
g4665
sg76
(lp4685
g69
(g90
g71
NtRp4686
(dp4687
g74
(dp4688
sg83
g4682
sg76
(lp4689
g69
(g70
g71
NtRp4690
(dp4691
g74
(dp4692
g82
I1
ssg83
g4686
sg76
(lp4693
I00
asbasbasbag69
(g85
g71
NtRp4694
(dp4695
g74
(dp4696
sg83
g4665
sg76
(lp4697
g69
(g90
g71
NtRp4698
(dp4699
g74
(dp4700
sg83
g4694
sg76
(lp4701
g69
(g70
g71
NtRp4702
(dp4703
g74
(dp4704
g82
I1
ssg83
g4698
sg76
(lp4705
S''
asbasbasbag69
(g85
g71
NtRp4706
(dp4707
g74
(dp4708
sg83
g4665
sg76
(lp4709
g69
(g90
g71
NtRp4710
(dp4711
g74
(dp4712
sg83
g4706
sg76
(lp4713
g69
(g70
g71
NtRp4714
(dp4715
g74
(dp4716
g82
I1
ssg83
g4710
sg76
(lp4717
(lp4718
(g4481
(S's\x08\x00\x00\x00Add Item'
tRp4719
I00
S'/BuySell/default/add_item'
tp4720
a(g4481
(S's\x11\x00\x00\x00Your Listed Items'
tRp4721
I00
S'/BuySell/default/listed_items'
tp4722
a(g4481
(S's\n\x00\x00\x00Items Sold'
tRp4723
I00
S'/BuySell/default/item_sold'
tp4724
a(g4481
(S's\r\x00\x00\x00Fulfil Wishes'
tRp4725
I00
S'/BuySell/default/fulfil_wishes'
tp4726
aasbasbasbasbasbasbasbag69
(g85
g71
NtRp4727
(dp4728
g74
(dp4729
sg83
g4595
sg76
(lp4730
g69
(g90
g71
NtRp4731
(dp4732
g74
(dp4733
sg83
g4727
sg76
(lp4734
g69
(g70
g71
NtRp4735
(dp4736
g74
(dp4737
g82
I2
ssg83
g4731
sg76
(lp4738
g69
(g78
g71
NtRp4739
(dp4740
g74
(dp4741
g82
I1
ssg83
Nsg76
(lp4742
g69
(g85
g71
NtRp4743
(dp4744
g74
(dp4745
sg83
g4739
sg76
(lp4746
g69
(g90
g71
NtRp4747
(dp4748
g74
(dp4749
sg83
g4743
sg76
(lp4750
g69
(g70
g71
NtRp4751
(dp4752
g74
(dp4753
g82
I1
ssg83
g4747
sg76
(lp4754
S'Buy'
p4755
asbasbasbag69
(g85
g71
NtRp4756
(dp4757
g74
(dp4758
sg83
g4739
sg76
(lp4759
g69
(g90
g71
NtRp4760
(dp4761
g74
(dp4762
sg83
g4756
sg76
(lp4763
g69
(g70
g71
NtRp4764
(dp4765
g74
(dp4766
g82
I1
ssg83
g4760
sg76
(lp4767
I00
asbasbasbag69
(g85
g71
NtRp4768
(dp4769
g74
(dp4770
sg83
g4739
sg76
(lp4771
g69
(g90
g71
NtRp4772
(dp4773
g74
(dp4774
sg83
g4768
sg76
(lp4775
g69
(g70
g71
NtRp4776
(dp4777
g74
(dp4778
g82
I1
ssg83
g4772
sg76
(lp4779
S''
asbasbasbag69
(g85
g71
NtRp4780
(dp4781
g74
(dp4782
sg83
g4739
sg76
(lp4783
g69
(g90
g71
NtRp4784
(dp4785
g74
(dp4786
sg83
g4780
sg76
(lp4787
g69
(g70
g71
NtRp4788
(dp4789
g74
(dp4790
g82
I1
ssg83
g4784
sg76
(lp4791
(lp4792
(g4481
(S's\x0b\x00\x00\x00Make a wish'
tRp4793
I00
S'/BuySell/default/add_wish'
tp4794
a(g4481
(S's\x0e\x00\x00\x00Your Wish List'
tRp4795
I00
S'/BuySell/default/wish_list'
tp4796
a(g4481
(S's\x10\x00\x00\x00Fulfilled Wishes'
tRp4797
I00
S'/BuySell/default/fulfilled'
tp4798
a(g4481
(S's\x15\x00\x00\x00Items Bought/Bids Won'
tRp4799
I00
S'/BuySell/default/item_bought'
tp4800
aasbasbasbasbasbasbasbag69
(g85
g71
NtRp4801
(dp4802
g74
(dp4803
sg83
g4595
sg76
(lp4804
g69
(g90
g71
NtRp4805
(dp4806
g74
(dp4807
sg83
g4801
sg76
(lp4808
g69
(g70
g71
NtRp4809
(dp4810
g74
(dp4811
g82
I2
ssg83
g4805
sg76
(lp4812
g69
(g78
g71
NtRp4813
(dp4814
g74
(dp4815
g82
I1
ssg83
Nsg76
(lp4816
g69
(g85
g71
NtRp4817
(dp4818
g74
(dp4819
sg83
g4813
sg76
(lp4820
g69
(g90
g71
NtRp4821
(dp4822
g74
(dp4823
sg83
g4817
sg76
(lp4824
g69
(g70
g71
NtRp4825
(dp4826
g74
(dp4827
g82
I1
ssg83
g4821
sg76
(lp4828
g4481
(S's\x0e\x00\x00\x00All Categories'
tRp4829
asbasbasbag69
(g85
g71
NtRp4830
(dp4831
g74
(dp4832
sg83
g4813
sg76
(lp4833
g69
(g90
g71
NtRp4834
(dp4835
g74
(dp4836
sg83
g4830
sg76
(lp4837
g69
(g70
g71
NtRp4838
(dp4839
g74
(dp4840
g82
I1
ssg83
g4834
sg76
(lp4841
I00
asbasbasbag69
(g85
g71
NtRp4842
(dp4843
g74
(dp4844
sg83
g4813
sg76
(lp4845
g69
(g90
g71
NtRp4846
(dp4847
g74
(dp4848
sg83
g4842
sg76
(lp4849
g69
(g70
g71
NtRp4850
(dp4851
g74
(dp4852
g82
I1
ssg83
g4846
sg76
(lp4853
S'http://www.web2py.com/book'
p4854
asbasbasbag69
(g85
g71
NtRp4855
(dp4856
g74
(dp4857
sg83
g4813
sg76
(lp4858
g69
(g90
g71
NtRp4859
(dp4860
g74
(dp4861
sg83
g4855
sg76
(lp4862
g69
(g70
g71
NtRp4863
(dp4864
g74
(dp4865
g82
I1
ssg83
g4859
sg76
(lp4866
(lp4867
(g4481
(S's\x0f\x00\x00\x00Arts and Crafts'
tRp4868
I00
S'/BuySell/default/categories/1'
tp4869
a(g4481
(S't\x08\x00\x00\x00Clothing'
tRp4870
I00
S'/BuySell/default/categories/2'
tp4871
a(g4481
(S't\x08\x00\x00\x00Footwear'
tRp4872
I00
S'/BuySell/default/categories/3'
tp4873
a(g4481
(S't\x05\x00\x00\x00Gifts'
tRp4874
I00
S'/BuySell/default/categories/4'
tp4875
aasbasbasbasbasbasbasbag69
(g85
g71
NtRp4876
(dp4877
g74
(dp4878
sg83
g4595
sg76
(lp4879
g69
(g90
g71
NtRp4880
(dp4881
g74
(dp4882
sg83
g4876
sg76
(lp4883
g69
(g70
g71
NtRp4884
(dp4885
g74
(dp4886
g82
I2
ssg83
g4880
sg76
(lp4887
g69
(g78
g71
NtRp4888
(dp4889
g74
(dp4890
g82
I1
ssg83
Nsg76
(lp4891
g69
(g85
g71
NtRp4892
(dp4893
g74
(dp4894
sg83
g4888
sg76
(lp4895
g69
(g90
g71
NtRp4896
(dp4897
g74
(dp4898
sg83
g4892
sg76
(lp4899
g69
(g70
g71
NtRp4900
(dp4901
g74
(dp4902
g82
I1
ssg83
g4896
sg76
(lp4903
g4481
(S's\t\x00\x00\x00Community'
tRp4904
asbasbasbag69
(g85
g71
NtRp4905
(dp4906
g74
(dp4907
sg83
g4888
sg76
(lp4908
g69
(g90
g71
NtRp4909
(dp4910
g74
(dp4911
sg83
g4905
sg76
(lp4912
g69
(g70
g71
NtRp4913
(dp4914
g74
(dp4915
g82
I1
ssg83
g4909
sg76
(lp4916
I00
asbasbasbag69
(g85
g71
NtRp4917
(dp4918
g74
(dp4919
sg83
g4888
sg76
(lp4920
g69
(g90
g71
NtRp4921
(dp4922
g74
(dp4923
sg83
g4917
sg76
(lp4924
g69
(g70
g71
NtRp4925
(dp4926
g74
(dp4927
g82
I1
ssg83
g4921
sg76
(lp4928
Nasbasbasbag69
(g85
g71
NtRp4929
(dp4930
g74
(dp4931
sg83
g4888
sg76
(lp4932
g69
(g90
g71
NtRp4933
(dp4934
g74
(dp4935
sg83
g4929
sg76
(lp4936
g69
(g70
g71
NtRp4937
(dp4938
g74
(dp4939
g82
I1
ssg83
g4933
sg76
(lp4940
(lp4941
(g4481
(S's\x07\x00\x00\x00Twitter'
tRp4942
I00
S'http://twitter.com/buy_sell'
p4943
tp4944
a(g4481
(S's\t\x00\x00\x00Live Chat'
tRp4945
I00
S'http://webchat.freenode.net/?channels=buysell'
p4946
tp4947
aasbasbasbasbasbasbasbag69
(g85
g71
NtRp4948
(dp4949
g74
(dp4950
sg83
g4595
sg76
(lp4951
g69
(g90
g71
NtRp4952
(dp4953
g74
(dp4954
sg83
g4948
sg76
(lp4955
g69
(g70
g71
NtRp4956
(dp4957
g74
(dp4958
g82
I2
ssg83
g4952
sg76
(lp4959
g69
(g78
g71
NtRp4960
(dp4961
g74
(dp4962
g82
I1
ssg83
Nsg76
(lp4963
g69
(g85
g71
NtRp4964
(dp4965
g74
(dp4966
sg83
g4960
sg76
(lp4967
g69
(g90
g71
NtRp4968
(dp4969
g74
(dp4970
sg83
g4964
sg76
(lp4971
g69
(g70
g71
NtRp4972
(dp4973
g74
(dp4974
g82
I1
ssg83
g4968
sg76
(lp4975
g4481
(S't\x04\x00\x00\x00Help'
tRp4976
asbasbasbag69
(g85
g71
NtRp4977
(dp4978
g74
(dp4979
sg83
g4960
sg76
(lp4980
g69
(g90
g71
NtRp4981
(dp4982
g74
(dp4983
sg83
g4977
sg76
(lp4984
g69
(g70
g71
NtRp4985
(dp4986
g74
(dp4987
g82
I1
ssg83
g4981
sg76
(lp4988
I00
asbasbasbag69
(g85
g71
NtRp4989
(dp4990
g74
(dp4991
sg83
g4960
sg76
(lp4992
g69
(g90
g71
NtRp4993
(dp4994
g74
(dp4995
sg83
g4989
sg76
(lp4996
g69
(g70
g71
NtRp4997
(dp4998
g74
(dp4999
g82
I1
ssg83
g4993
sg76
(lp5000
Nasbasbasbag69
(g85
g71
NtRp5001
(dp5002
g74
(dp5003
sg83
g4960
sg76
(lp5004
g69
(g90
g71
NtRp5005
(dp5006
g74
(dp5007
sg83
g5001
sg76
(lp5008
g69
(g70
g71
NtRp5009
(dp5010
g74
(dp5011
g82
I1
ssg83
g5005
sg76
(lp5012
(lp5013
(S'FAQ'
p5014
I00
S'/BuySell/default/index'
tp5015
a(S'Report a Problem'
p5016
I00
S'/BuySell/default/report'
tp5017
aasbasbasbasbasbasbasbasbasbasbasbasbasbasbasbasbasbasbasbag69
(g85
g71
NtRp5018
(dp5019
g74
(dp5020
sg83
g3954
sg76
(lp5021
g69
(g90
g71
NtRp5022
(dp5023
g74
(dp5024
g94
g95
ssg83
g5018
sg76
(lp5025
S'meta'
p5026
asbag69
(g90
g71
NtRp5027
(dp5028
g74
(dp5029
g101
g102
ssg83
g5018
sg76
(lp5030
S':'
asbag69
(g90
g71
NtRp5031
(dp5032
g74
(dp5033
sg83
g5018
sg76
(lp5034
g69
(g70
g71
NtRp5035
(dp5036
g74
(dp5037
g82
I5
ssg83
g5031
sg76
(lp5038
g69
(g78
g71
NtRp5039
(dp5040
g74
(dp5041
g82
I4
ssg83
Nsg76
(lp5042
g69
(g85
g71
NtRp5043
(dp5044
g74
(dp5045
sg83
g5039
sg76
(lp5046
g69
(g90
g71
NtRp5047
(dp5048
g74
(dp5049
g94
g95
ssg83
g5043
sg76
(lp5050
S'author'
p5051
asbag69
(g90
g71
NtRp5052
(dp5053
g74
(dp5054
g101
g102
ssg83
g5043
sg76
(lp5055
S':'
asbag69
(g90
g71
NtRp5056
(dp5057
g74
(dp5058
sg83
g5043
sg76
(lp5059
g69
(g70
g71
NtRp5060
(dp5061
g74
(dp5062
g82
I4
ssg83
g5056
sg76
(lp5063
S'Your Name <you@example.com>'
p5064
asbasbasbag69
(g85
g71
NtRp5065
(dp5066
g74
(dp5067
sg83
g5039
sg76
(lp5068
g69
(g90
g71
NtRp5069
(dp5070
g74
(dp5071
g94
g95
ssg83
g5065
sg76
(lp5072
S'description'
p5073
asbag69
(g90
g71
NtRp5074
(dp5075
g74
(dp5076
g101
g102
ssg83
g5065
sg76
(lp5077
S':'
asbag69
(g90
g71
NtRp5078
(dp5079
g74
(dp5080
sg83
g5065
sg76
(lp5081
g69
(g70
g71
NtRp5082
(dp5083
g74
(dp5084
g82
I4
ssg83
g5078
sg76
(lp5085
S'a cool new app'
p5086
asbasbasbag69
(g85
g71
NtRp5087
(dp5088
g74
(dp5089
sg83
g5039
sg76
(lp5090
g69
(g90
g71
NtRp5091
(dp5092
g74
(dp5093
g94
g95
ssg83
g5087
sg76
(lp5094
S'generator'
p5095
asbag69
(g90
g71
NtRp5096
(dp5097
g74
(dp5098
g101
g102
ssg83
g5087
sg76
(lp5099
S':'
asbag69
(g90
g71
NtRp5100
(dp5101
g74
(dp5102
sg83
g5087
sg76
(lp5103
g69
(g70
g71
NtRp5104
(dp5105
g74
(dp5106
g82
I4
ssg83
g5100
sg76
(lp5107
S'Web2py Web Framework'
p5108
asbasbasbag69
(g85
g71
NtRp5109
(dp5110
g74
(dp5111
sg83
g5039
sg76
(lp5112
g69
(g90
g71
NtRp5113
(dp5114
g74
(dp5115
g94
g95
ssg83
g5109
sg76
(lp5116
S'keywords'
p5117
asbag69
(g90
g71
NtRp5118
(dp5119
g74
(dp5120
g101
g102
ssg83
g5109
sg76
(lp5121
S':'
asbag69
(g90
g71
NtRp5122
(dp5123
g74
(dp5124
sg83
g5109
sg76
(lp5125
g69
(g70
g71
NtRp5126
(dp5127
g74
(dp5128
g82
I4
ssg83
g5122
sg76
(lp5129
S'web2py, python, framework'
p5130
asbasbasbasbasbasbasbag69
(g85
g71
NtRp5131
(dp5132
g74
(dp5133
sg83
g3954
sg76
(lp5134
g69
(g90
g71
NtRp5135
(dp5136
g74
(dp5137
g94
g95
ssg83
g5131
sg76
(lp5138
S'models_to_run'
p5139
asbag69
(g90
g71
NtRp5140
(dp5141
g74
(dp5142
g101
g102
ssg83
g5131
sg76
(lp5143
S':'
asbag69
(g90
g71
NtRp5144
(dp5145
g74
(dp5146
sg83
g5131
sg76
(lp5147
g69
(g70
g71
NtRp5148
(dp5149
g74
(dp5150
g82
I5
ssg83
g5144
sg76
(lp5151
g69
(g78
g71
NtRp5152
(dp5153
g74
(dp5154
g82
I4
ssg83
Nsg76
(lp5155
g69
(g85
g71
NtRp5156
(dp5157
g74
(dp5158
sg83
g5152
sg76
(lp5159
g69
(g90
g71
NtRp5160
(dp5161
g74
(dp5162
sg83
g5156
sg76
(lp5163
g69
(g70
g71
NtRp5164
(dp5165
g74
(dp5166
g82
I4
ssg83
g5160
sg76
(lp5167
S'^\\w+\\.py$'
p5168
asbasbasbag69
(g85
g71
NtRp5169
(dp5170
g74
(dp5171
sg83
g5152
sg76
(lp5172
g69
(g90
g71
NtRp5173
(dp5174
g74
(dp5175
sg83
g5169
sg76
(lp5176
g69
(g70
g71
NtRp5177
(dp5178
g74
(dp5179
g82
I4
ssg83
g5173
sg76
(lp5180
S'^default/\\w+\\.py$'
p5181
asbasbasbag69
(g85
g71
NtRp5182
(dp5183
g74
(dp5184
sg83
g5152
sg76
(lp5185
g69
(g90
g71
NtRp5186
(dp5187
g74
(dp5188
sg83
g5182
sg76
(lp5189
g69
(g70
g71
NtRp5190
(dp5191
g74
(dp5192
g82
I4
ssg83
g5186
sg76
(lp5193
S'^default/list_items/\\w+\\.py$'
p5194
asbasbasbasbasbasbasbag69
(g85
g71
NtRp5195
(dp5196
g74
(dp5197
sg83
g3954
sg76
(lp5198
g69
(g90
g71
NtRp5199
(dp5200
g74
(dp5201
g94
g95
ssg83
g5195
sg76
(lp5202
S'postprocessing'
p5203
asbag69
(g90
g71
NtRp5204
(dp5205
g74
(dp5206
g101
g102
ssg83
g5195
sg76
(lp5207
S':'
asbag69
(g90
g71
NtRp5208
(dp5209
g74
(dp5210
sg83
g5195
sg76
(lp5211
g69
(g70
g71
NtRp5212
(dp5213
g74
(dp5214
g82
I5
ssg83
g5208
sg76
(lp5215
g69
(g78
g71
NtRp5216
(dp5217
g74
(dp5218
g82
I4
ssg83
Nsg76
(lp5219
sbasbasbasbag69
(g85
g71
NtRp5220
(dp5221
g74
(dp5222
sg83
g3954
sg76
(lp5223
g69
(g90
g71
NtRp5224
(dp5225
g74
(dp5226
g94
g95
ssg83
g5220
sg76
(lp5227
S'session_cookie_expires'
p5228
asbag69
(g90
g71
NtRp5229
(dp5230
g74
(dp5231
g101
g102
ssg83
g5220
sg76
(lp5232
S':'
asbag69
(g90
g71
NtRp5233
(dp5234
g74
(dp5235
sg83
g5220
sg76
(lp5236
g69
(g70
g71
NtRp5237
(dp5238
g74
(dp5239
g82
I5
ssg83
g5233
sg76
(lp5240
S'None'
p5241
asbasbasbag69
(g85
g71
NtRp5242
(dp5243
g74
(dp5244
sg83
g3954
sg76
(lp5245
g69
(g90
g71
NtRp5246
(dp5247
g74
(dp5248
g94
g95
ssg83
g5242
sg76
(lp5249
S'session_data_name'
p5250
asbag69
(g90
g71
NtRp5251
(dp5252
g74
(dp5253
g101
g102
ssg83
g5242
sg76
(lp5254
S':'
asbag69
(g90
g71
NtRp5255
(dp5256
g74
(dp5257
sg83
g5242
sg76
(lp5258
g69
(g70
g71
NtRp5259
(dp5260
g74
(dp5261
g82
I5
ssg83
g5255
sg76
(lp5262
S'session_data_buysell'
p5263
asbasbasbag69
(g85
g71
NtRp5264
(dp5265
g74
(dp5266
sg83
g3954
sg76
(lp5267
g69
(g90
g71
NtRp5268
(dp5269
g74
(dp5270
g94
g95
ssg83
g5264
sg76
(lp5271
S'session_file'
p5272
asbag69
(g90
g71
NtRp5273
(dp5274
g74
(dp5275
g101
g102
ssg83
g5264
sg76
(lp5276
S':'
asbag69
(g90
g71
NtRp5277
(dp5278
g74
(dp5279
sg83
g5264
sg76
(lp5280
g69
(g70
g71
NtRp5281
(dp5282
g74
(dp5283
g82
I5
ssg83
g5277
sg76
(lp5284
S"<open file '/home/pratyush/web2py/applications/BuySell/sessions/127.0.0.1-f42b8fb6-bce7-404a-b975-99002423340f', mode 'rb+' at 0x9f3c180>"
p5285
asbasbasbag69
(g85
g71
NtRp5286
(dp5287
g74
(dp5288
sg83
g3954
sg76
(lp5289
g69
(g90
g71
NtRp5290
(dp5291
g74
(dp5292
g94
g95
ssg83
g5286
sg76
(lp5293
S'session_filename'
p5294
asbag69
(g90
g71
NtRp5295
(dp5296
g74
(dp5297
g101
g102
ssg83
g5286
sg76
(lp5298
S':'
asbag69
(g90
g71
NtRp5299
(dp5300
g74
(dp5301
sg83
g5286
sg76
(lp5302
g69
(g70
g71
NtRp5303
(dp5304
g74
(dp5305
g82
I5
ssg83
g5299
sg76
(lp5306
S'/home/pratyush/web2py/applications/BuySell/sessions/127.0.0.1-f42b8fb6-bce7-404a-b975-99002423340f'
p5307
asbasbasbag69
(g85
g71
NtRp5308
(dp5309
g74
(dp5310
sg83
g3954
sg76
(lp5311
g69
(g90
g71
NtRp5312
(dp5313
g74
(dp5314
g94
g95
ssg83
g5308
sg76
(lp5315
S'session_id'
p5316
asbag69
(g90
g71
NtRp5317
(dp5318
g74
(dp5319
g101
g102
ssg83
g5308
sg76
(lp5320
S':'
asbag69
(g90
g71
NtRp5321
(dp5322
g74
(dp5323
sg83
g5308
sg76
(lp5324
g69
(g70
g71
NtRp5325
(dp5326
g74
(dp5327
g82
I5
ssg83
g5321
sg76
(lp5328
g673
asbasbasbag69
(g85
g71
NtRp5329
(dp5330
g74
(dp5331
sg83
g3954
sg76
(lp5332
g69
(g90
g71
NtRp5333
(dp5334
g74
(dp5335
g94
g95
ssg83
g5329
sg76
(lp5336
S'session_id_name'
p5337
asbag69
(g90
g71
NtRp5338
(dp5339
g74
(dp5340
g101
g102
ssg83
g5329
sg76
(lp5341
S':'
asbag69
(g90
g71
NtRp5342
(dp5343
g74
(dp5344
sg83
g5329
sg76
(lp5345
g69
(g70
g71
NtRp5346
(dp5347
g74
(dp5348
g82
I5
ssg83
g5342
sg76
(lp5349
g4011
asbasbasbag69
(g85
g71
NtRp5350
(dp5351
g74
(dp5352
sg83
g3954
sg76
(lp5353
g69
(g90
g71
NtRp5354
(dp5355
g74
(dp5356
g94
g95
ssg83
g5350
sg76
(lp5357
S'session_locked'
p5358
asbag69
(g90
g71
NtRp5359
(dp5360
g74
(dp5361
g101
g102
ssg83
g5350
sg76
(lp5362
S':'
asbag69
(g90
g71
NtRp5363
(dp5364
g74
(dp5365
sg83
g5350
sg76
(lp5366
g69
(g70
g71
NtRp5367
(dp5368
g74
(dp5369
g82
I5
ssg83
g5363
sg76
(lp5370
g2011
asbasbasbag69
(g85
g71
NtRp5371
(dp5372
g74
(dp5373
sg83
g3954
sg76
(lp5374
g69
(g90
g71
NtRp5375
(dp5376
g74
(dp5377
g94
g95
ssg83
g5371
sg76
(lp5378
S'session_new'
p5379
asbag69
(g90
g71
NtRp5380
(dp5381
g74
(dp5382
g101
g102
ssg83
g5371
sg76
(lp5383
S':'
asbag69
(g90
g71
NtRp5384
(dp5385
g74
(dp5386
sg83
g5371
sg76
(lp5387
g69
(g70
g71
NtRp5388
(dp5389
g74
(dp5390
g82
I5
ssg83
g5384
sg76
(lp5391
g112
asbasbasbag69
(g85
g71
NtRp5392
(dp5393
g74
(dp5394
sg83
g3954
sg76
(lp5395
g69
(g90
g71
NtRp5396
(dp5397
g74
(dp5398
g94
g95
ssg83
g5392
sg76
(lp5399
S'session_storage_type'
p5400
asbag69
(g90
g71
NtRp5401
(dp5402
g74
(dp5403
g101
g102
ssg83
g5392
sg76
(lp5404
S':'
asbag69
(g90
g71
NtRp5405
(dp5406
g74
(dp5407
sg83
g5392
sg76
(lp5408
g69
(g70
g71
NtRp5409
(dp5410
g74
(dp5411
g82
I5
ssg83
g5405
sg76
(lp5412
g3484
asbasbasbag69
(g85
g71
NtRp5413
(dp5414
g74
(dp5415
sg83
g3954
sg76
(lp5416
g69
(g90
g71
NtRp5417
(dp5418
g74
(dp5419
g94
g95
ssg83
g5413
sg76
(lp5420
S'status'
p5421
asbag69
(g90
g71
NtRp5422
(dp5423
g74
(dp5424
g101
g102
ssg83
g5413
sg76
(lp5425
S':'
asbag69
(g90
g71
NtRp5426
(dp5427
g74
(dp5428
sg83
g5413
sg76
(lp5429
g69
(g70
g71
NtRp5430
(dp5431
g74
(dp5432
g82
I5
ssg83
g5426
sg76
(lp5433
S'200'
p5434
asbasbasbag69
(g85
g71
NtRp5435
(dp5436
g74
(dp5437
sg83
g3954
sg76
(lp5438
g69
(g90
g71
NtRp5439
(dp5440
g74
(dp5441
g94
g95
ssg83
g5435
sg76
(lp5442
S'subtitle'
p5443
asbag69
(g90
g71
NtRp5444
(dp5445
g74
(dp5446
g101
g102
ssg83
g5435
sg76
(lp5447
S':'
asbag69
(g90
g71
NtRp5448
(dp5449
g74
(dp5450
sg83
g5435
sg76
(lp5451
g69
(g70
g71
NtRp5452
(dp5453
g74
(dp5454
g82
I5
ssg83
g5448
sg76
(lp5455
g4481
(S's\r\x00\x00\x00customize me!'
tRp5456
asbasbasbag69
(g85
g71
NtRp5457
(dp5458
g74
(dp5459
sg83
g3954
sg76
(lp5460
g69
(g90
g71
NtRp5461
(dp5462
g74
(dp5463
g94
g95
ssg83
g5457
sg76
(lp5464
S'title'
p5465
asbag69
(g90
g71
NtRp5466
(dp5467
g74
(dp5468
g101
g102
ssg83
g5457
sg76
(lp5469
S':'
asbag69
(g90
g71
NtRp5470
(dp5471
g74
(dp5472
sg83
g5457
sg76
(lp5473
g69
(g70
g71
NtRp5474
(dp5475
g74
(dp5476
g82
I5
ssg83
g5470
sg76
(lp5477
S'Buysell'
p5478
asbasbasbag69
(g85
g71
NtRp5479
(dp5480
g74
(dp5481
sg83
g3954
sg76
(lp5482
g69
(g90
g71
NtRp5483
(dp5484
g74
(dp5485
g94
g95
ssg83
g5479
sg76
(lp5486
S'view'
p5487
asbag69
(g90
g71
NtRp5488
(dp5489
g74
(dp5490
g101
g102
ssg83
g5479
sg76
(lp5491
S':'
asbag69
(g90
g71
NtRp5492
(dp5493
g74
(dp5494
sg83
g5479
sg76
(lp5495
g69
(g70
g71
NtRp5496
(dp5497
g74
(dp5498
g82
I5
ssg83
g5492
sg76
(lp5499
S'default/list_items.html'
p5500
asbasbasbasbasbsS'locals'
p5501
(dp5502
g4
S"'/home/pratyush/web2py/applications/BuySell/views/default/list_items.html'"
p5503
sg6
S'\'response.write(\\\'<!DOCTYPE html>\\\\n<!-- paulirish...."></script>\\\\n</body>\\\\n</html>\\\\n\\\\n\\\', escape=False)\''
p5504
sssS'traceback'
p5505
S'Traceback (most recent call last):\n  File "/home/pratyush/web2py/gluon/restricted.py", line 211, in restricted\n    ccode = compile2(code, layer)\n  File "/home/pratyush/web2py/gluon/restricted.py", line 194, in compile2\n    return compile(code.rstrip().replace(\'\\r\\n\', \'\\n\') + \'\\n\', layer, \'exec\')\n  File "/home/pratyush/web2py/applications/BuySell/views/default/list_items.html", line 95\n    if no_bids.has_key(i.id)\n                           ^\nSyntaxError: invalid syntax\n'
p5506
s.