(dp1
S'output'
p2
S"<type 'exceptions.UnboundLocalError'> local variable 'form' referenced before assignment"
p3
sS'layer'
p4
S'/home/pratyush/web2py/applications/BuySell/controllers/default.py'
p5
sS'code'
p6
S'# -*- coding: utf-8 -*-\n# this file is released under public domain and you can use without limitations\n\n#########################################################################\n## This is a samples controller\n## - index is the default action of any application\n## - user is required for authentication and authorization\n## - download is for downloading files uploaded in the db (does streaming)\n## - call exposes all registered services (none by default)\n#########################################################################\n\n\ndef index():\n    """\n    example action using the internationalization operator T and flash\n    rendered by views/default/index.html or views/generic.html\n\n    if you need a simple wiki simple replace the two lines below with:\n    return auth.wiki()\n    """\n    response.flash = T("Welcome to web2py!")\n    return dict(message=T(\'Hello World\'))\n\n\ndef user():\n    """\n    exposes:\n    http://..../[app]/default/user/login\n    http://..../[app]/default/user/logout\n    http://..../[app]/default/user/register\n    http://..../[app]/default/user/profile\n    http://..../[app]/default/user/retrieve_password\n    http://..../[app]/default/user/change_password\n    use @auth.requires_login()\n        @auth.requires_membership(\'group name\')\n        @auth.requires_permission(\'read\',\'table name\',record_id)\n    to decorate functions that need access control\n    """\n    return dict(form=auth())\n\n\ndef download():\n    """\n    allows downloading of uploaded files\n    http://..../[app]/default/download/[filename]\n    """\n    return response.download(request, db)\n\n\ndef call():\n    """\n    exposes services. for example:\n    http://..../[app]/default/call/jsonrpc\n    decorate with @services.jsonrpc the functions to expose\n    supports xml, json, xmlrpc, jsonrpc, amfrpc, rss, csv\n    """\n    return service()\n\n\n@auth.requires_signature()\ndef data():\n    """\n    http://..../[app]/default/data/tables\n    http://..../[app]/default/data/create/[table]\n    http://..../[app]/default/data/read/[table]/[id]\n    http://..../[app]/default/data/update/[table]/[id]\n    http://..../[app]/default/data/delete/[table]/[id]\n    http://..../[app]/default/data/select/[table]\n    http://..../[app]/default/data/search/[table]\n    but URLs must be signed, i.e. linked with\n      A(\'table\',_href=URL(\'data/tables\',user_signature=True))\n    or with the signed load operator\n      LOAD(\'default\',\'data.load\',args=\'tables\',ajax=True,user_signature=True)\n    """\n    return dict(form=crud())\n\n@auth.requires_login()\ndef list_items():\n    #items = db().select(db.item.ALL)\n    \n    name=TD(\'Search item:\')\n    namebox=TD(INPUT(_id=\'item_title\',_name=\'item[name]\',_size=\'50\',_type=\'text\',requires=IS_NOT_EMPTY()),DIV_class=\'auto_complete\',_id=\'item_name_auto_complete\')   \n    submit=TD(INPUT(_type=\'submit\',_name=\'submit\',_value=\'Submit\'))\n    #descr=TD(\'Search Publication(s) by Author:\')\n    #descrbox=TD(INPUT(_id=\'_des\',_name=\'music[descr]\',_size=\'30\',_type=\'text\'),DIV(_class=\'auto_complete\',_id=\'movie_descr_auto_complete\'))\n    \n    form1=FORM(TABLE(TR(name,namebox,submit)))\n    \n    items=db().select(db.item.ALL,orderby=db.item.name)\n    \n    if form1.accepts(request.vars,session):\n        search=request.vars[\'item[name]\']\n        items=db(db.item.name.upper().like(\'%\'+search.upper()+\'%\')).select(db.item.ALL,orderby=db.item.name)\n\n    return dict(form1=form1,items=items)\n\n@auth.requires_login()\ndef item_d():\n    item=db(request.args(0)==db.item.id).select(db.item.ALL).first()\n    seller = db(item.seller==db.auth_user).select(db.auth_user.ALL).first()\n    return dict(item=item,seller=seller)\n\n@auth.requires_login()\ndef seller():\n    seller = db(request.args(0)==db.auth_user.id).select(db.auth_user.ALL).first()\n    \n    avg = 0\n    count = 0\n    sellr = db(request.args(0)==db.rating.seller).select(db.rating.ALL)\n    for i in sellr:\n        avg = avg + int(i.rate)\n        count = count + 1\n    av = (float(avg)/float(count))\n    \n    form.vars.seller.default = request.args(0)\n    form.vars.seller.writable = false\n    form.vars.seller.readable = false\n    form = SQLFORM(db.rating)\n    \n    if form.accepts(request.vars):\n        response.flash = \'Success\\n\'\n    return dict(av=av,seller=seller,form=form)\n\ndef add_item():\n    form = SQLFORM(db.item)\n    if form.accepts(request.vars):\n        response.flash = \'Success\\n\'\n    return dict(form=form)\n\ndef listed_items():\n    seller = db(db.auth_user.id==db.item.seller).select(db.item.ALL)\n    return dict(seller=seller)\nresponse._vars=response._caller(seller)\n'
p7
sS'snapshot'
p8
(dp9
S'exception'
p10
(dp11
S'__hash__'
p12
S"<method-wrapper '__hash__' of exceptions.UnboundLocalError object>"
p13
sS'__setattr__'
p14
S"<method-wrapper '__setattr__' of exceptions.UnboundLocalError object>"
p15
sS'__reduce_ex__'
p16
S'<built-in method __reduce_ex__ of exceptions.UnboundLocalError object>'
p17
sS'__getslice__'
p18
S"<method-wrapper '__getslice__' of exceptions.UnboundLocalError object>"
p19
sS'__getitem__'
p20
S"<method-wrapper '__getitem__' of exceptions.UnboundLocalError object>"
p21
sS'__setstate__'
p22
S'<built-in method __setstate__ of exceptions.UnboundLocalError object>'
p23
sS'__reduce__'
p24
S'<built-in method __reduce__ of exceptions.UnboundLocalError object>'
p25
sS'__str__'
p26
S"<method-wrapper '__str__' of exceptions.UnboundLocalError object>"
p27
sS'__format__'
p28
S'<built-in method __format__ of exceptions.UnboundLocalError object>'
p29
sS'__getattribute__'
p30
S"<method-wrapper '__getattribute__' of exceptions.UnboundLocalError object>"
p31
sS'__class__'
p32
S"<type 'exceptions.UnboundLocalError'>"
p33
sS'__unicode__'
p34
S'<built-in method __unicode__ of exceptions.UnboundLocalError object>'
p35
sS'__delattr__'
p36
S"<method-wrapper '__delattr__' of exceptions.UnboundLocalError object>"
p37
sS'__subclasshook__'
p38
S'<built-in method __subclasshook__ of type object>'
p39
sS'__repr__'
p40
S"<method-wrapper '__repr__' of exceptions.UnboundLocalError object>"
p41
sS'args'
p42
S'("local variable \'form\' referenced before assignment",)'
p43
sS'__dict__'
p44
S'{}'
p45
sS'__sizeof__'
p46
S'<built-in method __sizeof__ of exceptions.UnboundLocalError object>'
p47
sS'__doc__'
p48
S"'Local name referenced but not bound to a value.'"
p49
sS'__init__'
p50
S"<method-wrapper '__init__' of exceptions.UnboundLocalError object>"
p51
sS'__new__'
p52
S'<built-in method __new__ of type object>'
p53
ssS'evalue'
p54
S"local variable 'form' referenced before assignment"
p55
sS'request'
p56
ccopy_reg
_reconstructor
p57
(cgluon.html
BEAUTIFY
p58
c__builtin__
object
p59
NtRp60
(dp61
S'attributes'
p62
(dp63
sS'components'
p64
(lp65
g57
(cgluon.html
TABLE
p66
g59
NtRp67
(dp68
g62
(dp69
S'level'
p70
I5
ssS'parent'
p71
Nsg64
(lp72
g57
(cgluon.html
TR
p73
g59
NtRp74
(dp75
g62
(dp76
sg71
g67
sg64
(lp77
g57
(cgluon.html
TD
p78
g59
NtRp79
(dp80
g62
(dp81
S'_style'
p82
S'font-weight:bold;vertical-align:top'
p83
ssg71
g74
sg64
(lp84
S'ajax'
p85
asbag57
(g78
g59
NtRp86
(dp87
g62
(dp88
S'_valign'
p89
S'top'
p90
ssg71
g74
sg64
(lp91
S':'
asbag57
(g78
g59
NtRp92
(dp93
g62
(dp94
sg71
g74
sg64
(lp95
g57
(g58
g59
NtRp96
(dp97
g62
(dp98
g70
I5
ssg71
g92
sg64
(lp99
S'False'
p100
asbasbasbag57
(g73
g59
NtRp101
(dp102
g62
(dp103
sg71
g67
sg64
(lp104
g57
(g78
g59
NtRp105
(dp106
g62
(dp107
g82
g83
ssg71
g101
sg64
(lp108
S'application'
p109
asbag57
(g78
g59
NtRp110
(dp111
g62
(dp112
g89
g90
ssg71
g101
sg64
(lp113
S':'
asbag57
(g78
g59
NtRp114
(dp115
g62
(dp116
sg71
g101
sg64
(lp117
g57
(g58
g59
NtRp118
(dp119
g62
(dp120
g70
I5
ssg71
g114
sg64
(lp121
S'BuySell'
p122
asbasbasbag57
(g73
g59
NtRp123
(dp124
g62
(dp125
sg71
g67
sg64
(lp126
g57
(g78
g59
NtRp127
(dp128
g62
(dp129
g82
g83
ssg71
g123
sg64
(lp130
g42
asbag57
(g78
g59
NtRp131
(dp132
g62
(dp133
g89
g90
ssg71
g123
sg64
(lp134
S':'
asbag57
(g78
g59
NtRp135
(dp136
g62
(dp137
sg71
g123
sg64
(lp138
g57
(g58
g59
NtRp139
(dp140
g62
(dp141
g70
I5
ssg71
g135
sg64
(lp142
g57
(g66
g59
NtRp143
(dp144
g62
(dp145
g70
I4
ssg71
Nsg64
(lp146
g57
(g73
g59
NtRp147
(dp148
g62
(dp149
sg71
g143
sg64
(lp150
g57
(g78
g59
NtRp151
(dp152
g62
(dp153
sg71
g147
sg64
(lp154
g57
(g58
g59
NtRp155
(dp156
g62
(dp157
g70
I4
ssg71
g151
sg64
(lp158
S'2'
asbasbasbasbasbasbasbag57
(g73
g59
NtRp159
(dp160
g62
(dp161
sg71
g67
sg64
(lp162
g57
(g78
g59
NtRp163
(dp164
g62
(dp165
g82
g83
ssg71
g159
sg64
(lp166
S'body'
p167
asbag57
(g78
g59
NtRp168
(dp169
g62
(dp170
g89
g90
ssg71
g159
sg64
(lp171
S':'
asbag57
(g78
g59
NtRp172
(dp173
g62
(dp174
sg71
g159
sg64
(lp175
g57
(g58
g59
NtRp176
(dp177
g62
(dp178
g70
I5
ssg71
g172
sg64
(lp179
S'<cStringIO.StringO object at 0xb263a60>'
p180
asbasbasbag57
(g73
g59
NtRp181
(dp182
g62
(dp183
sg71
g67
sg64
(lp184
g57
(g78
g59
NtRp185
(dp186
g62
(dp187
g82
g83
ssg71
g181
sg64
(lp188
S'cid'
p189
asbag57
(g78
g59
NtRp190
(dp191
g62
(dp192
g89
g90
ssg71
g181
sg64
(lp193
S':'
asbag57
(g78
g59
NtRp194
(dp195
g62
(dp196
sg71
g181
sg64
(lp197
g57
(g58
g59
NtRp198
(dp199
g62
(dp200
g70
I5
ssg71
g194
sg64
(lp201
S'None'
p202
asbasbasbag57
(g73
g59
NtRp203
(dp204
g62
(dp205
sg71
g67
sg64
(lp206
g57
(g78
g59
NtRp207
(dp208
g62
(dp209
g82
g83
ssg71
g203
sg64
(lp210
S'client'
p211
asbag57
(g78
g59
NtRp212
(dp213
g62
(dp214
g89
g90
ssg71
g203
sg64
(lp215
S':'
asbag57
(g78
g59
NtRp216
(dp217
g62
(dp218
sg71
g203
sg64
(lp219
g57
(g58
g59
NtRp220
(dp221
g62
(dp222
g70
I5
ssg71
g216
sg64
(lp223
S'127.0.0.1'
p224
asbasbasbag57
(g73
g59
NtRp225
(dp226
g62
(dp227
sg71
g67
sg64
(lp228
g57
(g78
g59
NtRp229
(dp230
g62
(dp231
g82
g83
ssg71
g225
sg64
(lp232
S'controller'
p233
asbag57
(g78
g59
NtRp234
(dp235
g62
(dp236
g89
g90
ssg71
g225
sg64
(lp237
S':'
asbag57
(g78
g59
NtRp238
(dp239
g62
(dp240
sg71
g225
sg64
(lp241
g57
(g58
g59
NtRp242
(dp243
g62
(dp244
g70
I5
ssg71
g238
sg64
(lp245
S'default'
p246
asbasbasbag57
(g73
g59
NtRp247
(dp248
g62
(dp249
sg71
g67
sg64
(lp250
g57
(g78
g59
NtRp251
(dp252
g62
(dp253
g82
g83
ssg71
g247
sg64
(lp254
S'cookies'
p255
asbag57
(g78
g59
NtRp256
(dp257
g62
(dp258
g89
g90
ssg71
g247
sg64
(lp259
S':'
asbag57
(g78
g59
NtRp260
(dp261
g62
(dp262
sg71
g247
sg64
(lp263
g57
(g58
g59
NtRp264
(dp265
g62
(dp266
g70
I5
ssg71
g260
sg64
(lp267
g57
(g66
g59
NtRp268
(dp269
g62
(dp270
g70
I4
ssg71
Nsg64
(lp271
g57
(g73
g59
NtRp272
(dp273
g62
(dp274
sg71
g268
sg64
(lp275
g57
(g78
g59
NtRp276
(dp277
g62
(dp278
g82
g83
ssg71
g272
sg64
(lp279
S'registered'
p280
asbag57
(g78
g59
NtRp281
(dp282
g62
(dp283
g89
g90
ssg71
g272
sg64
(lp284
S':'
asbag57
(g78
g59
NtRp285
(dp286
g62
(dp287
sg71
g272
sg64
(lp288
g57
(g58
g59
NtRp289
(dp290
g62
(dp291
g70
I4
ssg71
g285
sg64
(lp292
S'yes'
p293
ag57
(g66
g59
NtRp294
(dp295
g62
(dp296
g70
I3
ssg71
Nsg64
(lp297
g57
(g73
g59
NtRp298
(dp299
g62
(dp300
sg71
g294
sg64
(lp301
g57
(g78
g59
NtRp302
(dp303
g62
(dp304
g82
g83
ssg71
g298
sg64
(lp305
S'comment'
p306
asbag57
(g78
g59
NtRp307
(dp308
g62
(dp309
g89
g90
ssg71
g298
sg64
(lp310
S':'
asbag57
(g78
g59
NtRp311
(dp312
g62
(dp313
sg71
g298
sg64
(lp314
g57
(g58
g59
NtRp315
(dp316
g62
(dp317
g70
I3
ssg71
g311
sg64
(lp318
S''
asbasbasbag57
(g73
g59
NtRp319
(dp320
g62
(dp321
sg71
g294
sg64
(lp322
g57
(g78
g59
NtRp323
(dp324
g62
(dp325
g82
g83
ssg71
g319
sg64
(lp326
S'domain'
p327
asbag57
(g78
g59
NtRp328
(dp329
g62
(dp330
g89
g90
ssg71
g319
sg64
(lp331
S':'
asbag57
(g78
g59
NtRp332
(dp333
g62
(dp334
sg71
g319
sg64
(lp335
g57
(g58
g59
NtRp336
(dp337
g62
(dp338
g70
I3
ssg71
g332
sg64
(lp339
S''
asbasbasbag57
(g73
g59
NtRp340
(dp341
g62
(dp342
sg71
g294
sg64
(lp343
g57
(g78
g59
NtRp344
(dp345
g62
(dp346
g82
g83
ssg71
g340
sg64
(lp347
S'expires'
p348
asbag57
(g78
g59
NtRp349
(dp350
g62
(dp351
g89
g90
ssg71
g340
sg64
(lp352
S':'
asbag57
(g78
g59
NtRp353
(dp354
g62
(dp355
sg71
g340
sg64
(lp356
g57
(g58
g59
NtRp357
(dp358
g62
(dp359
g70
I3
ssg71
g353
sg64
(lp360
S''
asbasbasbag57
(g73
g59
NtRp361
(dp362
g62
(dp363
sg71
g294
sg64
(lp364
g57
(g78
g59
NtRp365
(dp366
g62
(dp367
g82
g83
ssg71
g361
sg64
(lp368
S'httponly'
p369
asbag57
(g78
g59
NtRp370
(dp371
g62
(dp372
g89
g90
ssg71
g361
sg64
(lp373
S':'
asbag57
(g78
g59
NtRp374
(dp375
g62
(dp376
sg71
g361
sg64
(lp377
g57
(g58
g59
NtRp378
(dp379
g62
(dp380
g70
I3
ssg71
g374
sg64
(lp381
S''
asbasbasbag57
(g73
g59
NtRp382
(dp383
g62
(dp384
sg71
g294
sg64
(lp385
g57
(g78
g59
NtRp386
(dp387
g62
(dp388
g82
g83
ssg71
g382
sg64
(lp389
S'max-age'
p390
asbag57
(g78
g59
NtRp391
(dp392
g62
(dp393
g89
g90
ssg71
g382
sg64
(lp394
S':'
asbag57
(g78
g59
NtRp395
(dp396
g62
(dp397
sg71
g382
sg64
(lp398
g57
(g58
g59
NtRp399
(dp400
g62
(dp401
g70
I3
ssg71
g395
sg64
(lp402
S''
asbasbasbag57
(g73
g59
NtRp403
(dp404
g62
(dp405
sg71
g294
sg64
(lp406
g57
(g78
g59
NtRp407
(dp408
g62
(dp409
g82
g83
ssg71
g403
sg64
(lp410
S'path'
p411
asbag57
(g78
g59
NtRp412
(dp413
g62
(dp414
g89
g90
ssg71
g403
sg64
(lp415
S':'
asbag57
(g78
g59
NtRp416
(dp417
g62
(dp418
sg71
g403
sg64
(lp419
g57
(g58
g59
NtRp420
(dp421
g62
(dp422
g70
I3
ssg71
g416
sg64
(lp423
S''
asbasbasbag57
(g73
g59
NtRp424
(dp425
g62
(dp426
sg71
g294
sg64
(lp427
g57
(g78
g59
NtRp428
(dp429
g62
(dp430
g82
g83
ssg71
g424
sg64
(lp431
S'secure'
p432
asbag57
(g78
g59
NtRp433
(dp434
g62
(dp435
g89
g90
ssg71
g424
sg64
(lp436
S':'
asbag57
(g78
g59
NtRp437
(dp438
g62
(dp439
sg71
g424
sg64
(lp440
g57
(g58
g59
NtRp441
(dp442
g62
(dp443
g70
I3
ssg71
g437
sg64
(lp444
S''
asbasbasbag57
(g73
g59
NtRp445
(dp446
g62
(dp447
sg71
g294
sg64
(lp448
g57
(g78
g59
NtRp449
(dp450
g62
(dp451
g82
g83
ssg71
g445
sg64
(lp452
S'version'
p453
asbag57
(g78
g59
NtRp454
(dp455
g62
(dp456
g89
g90
ssg71
g445
sg64
(lp457
S':'
asbag57
(g78
g59
NtRp458
(dp459
g62
(dp460
sg71
g445
sg64
(lp461
g57
(g58
g59
NtRp462
(dp463
g62
(dp464
g70
I3
ssg71
g458
sg64
(lp465
S''
asbasbasbasbasbasbasbag57
(g73
g59
NtRp466
(dp467
g62
(dp468
sg71
g268
sg64
(lp469
g57
(g78
g59
NtRp470
(dp471
g62
(dp472
g82
g83
ssg71
g466
sg64
(lp473
S'session_id_admin'
p474
asbag57
(g78
g59
NtRp475
(dp476
g62
(dp477
g89
g90
ssg71
g466
sg64
(lp478
S':'
asbag57
(g78
g59
NtRp479
(dp480
g62
(dp481
sg71
g466
sg64
(lp482
g57
(g58
g59
NtRp483
(dp484
g62
(dp485
g70
I4
ssg71
g479
sg64
(lp486
S'127.0.0.1-5c3e6318-3a14-4ff1-97a6-1063e44c4cd9'
p487
ag57
(g66
g59
NtRp488
(dp489
g62
(dp490
g70
I3
ssg71
Nsg64
(lp491
g57
(g73
g59
NtRp492
(dp493
g62
(dp494
sg71
g488
sg64
(lp495
g57
(g78
g59
NtRp496
(dp497
g62
(dp498
g82
g83
ssg71
g492
sg64
(lp499
g306
asbag57
(g78
g59
NtRp500
(dp501
g62
(dp502
g89
g90
ssg71
g492
sg64
(lp503
S':'
asbag57
(g78
g59
NtRp504
(dp505
g62
(dp506
sg71
g492
sg64
(lp507
g57
(g58
g59
NtRp508
(dp509
g62
(dp510
g70
I3
ssg71
g504
sg64
(lp511
S''
asbasbasbag57
(g73
g59
NtRp512
(dp513
g62
(dp514
sg71
g488
sg64
(lp515
g57
(g78
g59
NtRp516
(dp517
g62
(dp518
g82
g83
ssg71
g512
sg64
(lp519
g327
asbag57
(g78
g59
NtRp520
(dp521
g62
(dp522
g89
g90
ssg71
g512
sg64
(lp523
S':'
asbag57
(g78
g59
NtRp524
(dp525
g62
(dp526
sg71
g512
sg64
(lp527
g57
(g58
g59
NtRp528
(dp529
g62
(dp530
g70
I3
ssg71
g524
sg64
(lp531
S''
asbasbasbag57
(g73
g59
NtRp532
(dp533
g62
(dp534
sg71
g488
sg64
(lp535
g57
(g78
g59
NtRp536
(dp537
g62
(dp538
g82
g83
ssg71
g532
sg64
(lp539
g348
asbag57
(g78
g59
NtRp540
(dp541
g62
(dp542
g89
g90
ssg71
g532
sg64
(lp543
S':'
asbag57
(g78
g59
NtRp544
(dp545
g62
(dp546
sg71
g532
sg64
(lp547
g57
(g58
g59
NtRp548
(dp549
g62
(dp550
g70
I3
ssg71
g544
sg64
(lp551
S''
asbasbasbag57
(g73
g59
NtRp552
(dp553
g62
(dp554
sg71
g488
sg64
(lp555
g57
(g78
g59
NtRp556
(dp557
g62
(dp558
g82
g83
ssg71
g552
sg64
(lp559
g369
asbag57
(g78
g59
NtRp560
(dp561
g62
(dp562
g89
g90
ssg71
g552
sg64
(lp563
S':'
asbag57
(g78
g59
NtRp564
(dp565
g62
(dp566
sg71
g552
sg64
(lp567
g57
(g58
g59
NtRp568
(dp569
g62
(dp570
g70
I3
ssg71
g564
sg64
(lp571
S''
asbasbasbag57
(g73
g59
NtRp572
(dp573
g62
(dp574
sg71
g488
sg64
(lp575
g57
(g78
g59
NtRp576
(dp577
g62
(dp578
g82
g83
ssg71
g572
sg64
(lp579
g390
asbag57
(g78
g59
NtRp580
(dp581
g62
(dp582
g89
g90
ssg71
g572
sg64
(lp583
S':'
asbag57
(g78
g59
NtRp584
(dp585
g62
(dp586
sg71
g572
sg64
(lp587
g57
(g58
g59
NtRp588
(dp589
g62
(dp590
g70
I3
ssg71
g584
sg64
(lp591
S''
asbasbasbag57
(g73
g59
NtRp592
(dp593
g62
(dp594
sg71
g488
sg64
(lp595
g57
(g78
g59
NtRp596
(dp597
g62
(dp598
g82
g83
ssg71
g592
sg64
(lp599
g411
asbag57
(g78
g59
NtRp600
(dp601
g62
(dp602
g89
g90
ssg71
g592
sg64
(lp603
S':'
asbag57
(g78
g59
NtRp604
(dp605
g62
(dp606
sg71
g592
sg64
(lp607
g57
(g58
g59
NtRp608
(dp609
g62
(dp610
g70
I3
ssg71
g604
sg64
(lp611
S''
asbasbasbag57
(g73
g59
NtRp612
(dp613
g62
(dp614
sg71
g488
sg64
(lp615
g57
(g78
g59
NtRp616
(dp617
g62
(dp618
g82
g83
ssg71
g612
sg64
(lp619
g432
asbag57
(g78
g59
NtRp620
(dp621
g62
(dp622
g89
g90
ssg71
g612
sg64
(lp623
S':'
asbag57
(g78
g59
NtRp624
(dp625
g62
(dp626
sg71
g612
sg64
(lp627
g57
(g58
g59
NtRp628
(dp629
g62
(dp630
g70
I3
ssg71
g624
sg64
(lp631
S''
asbasbasbag57
(g73
g59
NtRp632
(dp633
g62
(dp634
sg71
g488
sg64
(lp635
g57
(g78
g59
NtRp636
(dp637
g62
(dp638
g82
g83
ssg71
g632
sg64
(lp639
g453
asbag57
(g78
g59
NtRp640
(dp641
g62
(dp642
g89
g90
ssg71
g632
sg64
(lp643
S':'
asbag57
(g78
g59
NtRp644
(dp645
g62
(dp646
sg71
g632
sg64
(lp647
g57
(g58
g59
NtRp648
(dp649
g62
(dp650
g70
I3
ssg71
g644
sg64
(lp651
S''
asbasbasbasbasbasbasbag57
(g73
g59
NtRp652
(dp653
g62
(dp654
sg71
g268
sg64
(lp655
g57
(g78
g59
NtRp656
(dp657
g62
(dp658
g82
g83
ssg71
g652
sg64
(lp659
S'session_id_buysell'
p660
asbag57
(g78
g59
NtRp661
(dp662
g62
(dp663
g89
g90
ssg71
g652
sg64
(lp664
S':'
asbag57
(g78
g59
NtRp665
(dp666
g62
(dp667
sg71
g652
sg64
(lp668
g57
(g58
g59
NtRp669
(dp670
g62
(dp671
g70
I4
ssg71
g665
sg64
(lp672
S'127.0.0.1-d5a07803-4f5c-44c8-b05d-2876d30ca822'
p673
ag57
(g66
g59
NtRp674
(dp675
g62
(dp676
g70
I3
ssg71
Nsg64
(lp677
g57
(g73
g59
NtRp678
(dp679
g62
(dp680
sg71
g674
sg64
(lp681
g57
(g78
g59
NtRp682
(dp683
g62
(dp684
g82
g83
ssg71
g678
sg64
(lp685
g306
asbag57
(g78
g59
NtRp686
(dp687
g62
(dp688
g89
g90
ssg71
g678
sg64
(lp689
S':'
asbag57
(g78
g59
NtRp690
(dp691
g62
(dp692
sg71
g678
sg64
(lp693
g57
(g58
g59
NtRp694
(dp695
g62
(dp696
g70
I3
ssg71
g690
sg64
(lp697
S''
asbasbasbag57
(g73
g59
NtRp698
(dp699
g62
(dp700
sg71
g674
sg64
(lp701
g57
(g78
g59
NtRp702
(dp703
g62
(dp704
g82
g83
ssg71
g698
sg64
(lp705
g327
asbag57
(g78
g59
NtRp706
(dp707
g62
(dp708
g89
g90
ssg71
g698
sg64
(lp709
S':'
asbag57
(g78
g59
NtRp710
(dp711
g62
(dp712
sg71
g698
sg64
(lp713
g57
(g58
g59
NtRp714
(dp715
g62
(dp716
g70
I3
ssg71
g710
sg64
(lp717
S''
asbasbasbag57
(g73
g59
NtRp718
(dp719
g62
(dp720
sg71
g674
sg64
(lp721
g57
(g78
g59
NtRp722
(dp723
g62
(dp724
g82
g83
ssg71
g718
sg64
(lp725
g348
asbag57
(g78
g59
NtRp726
(dp727
g62
(dp728
g89
g90
ssg71
g718
sg64
(lp729
S':'
asbag57
(g78
g59
NtRp730
(dp731
g62
(dp732
sg71
g718
sg64
(lp733
g57
(g58
g59
NtRp734
(dp735
g62
(dp736
g70
I3
ssg71
g730
sg64
(lp737
S''
asbasbasbag57
(g73
g59
NtRp738
(dp739
g62
(dp740
sg71
g674
sg64
(lp741
g57
(g78
g59
NtRp742
(dp743
g62
(dp744
g82
g83
ssg71
g738
sg64
(lp745
g369
asbag57
(g78
g59
NtRp746
(dp747
g62
(dp748
g89
g90
ssg71
g738
sg64
(lp749
S':'
asbag57
(g78
g59
NtRp750
(dp751
g62
(dp752
sg71
g738
sg64
(lp753
g57
(g58
g59
NtRp754
(dp755
g62
(dp756
g70
I3
ssg71
g750
sg64
(lp757
S''
asbasbasbag57
(g73
g59
NtRp758
(dp759
g62
(dp760
sg71
g674
sg64
(lp761
g57
(g78
g59
NtRp762
(dp763
g62
(dp764
g82
g83
ssg71
g758
sg64
(lp765
g390
asbag57
(g78
g59
NtRp766
(dp767
g62
(dp768
g89
g90
ssg71
g758
sg64
(lp769
S':'
asbag57
(g78
g59
NtRp770
(dp771
g62
(dp772
sg71
g758
sg64
(lp773
g57
(g58
g59
NtRp774
(dp775
g62
(dp776
g70
I3
ssg71
g770
sg64
(lp777
S''
asbasbasbag57
(g73
g59
NtRp778
(dp779
g62
(dp780
sg71
g674
sg64
(lp781
g57
(g78
g59
NtRp782
(dp783
g62
(dp784
g82
g83
ssg71
g778
sg64
(lp785
g411
asbag57
(g78
g59
NtRp786
(dp787
g62
(dp788
g89
g90
ssg71
g778
sg64
(lp789
S':'
asbag57
(g78
g59
NtRp790
(dp791
g62
(dp792
sg71
g778
sg64
(lp793
g57
(g58
g59
NtRp794
(dp795
g62
(dp796
g70
I3
ssg71
g790
sg64
(lp797
S''
asbasbasbag57
(g73
g59
NtRp798
(dp799
g62
(dp800
sg71
g674
sg64
(lp801
g57
(g78
g59
NtRp802
(dp803
g62
(dp804
g82
g83
ssg71
g798
sg64
(lp805
g432
asbag57
(g78
g59
NtRp806
(dp807
g62
(dp808
g89
g90
ssg71
g798
sg64
(lp809
S':'
asbag57
(g78
g59
NtRp810
(dp811
g62
(dp812
sg71
g798
sg64
(lp813
g57
(g58
g59
NtRp814
(dp815
g62
(dp816
g70
I3
ssg71
g810
sg64
(lp817
S''
asbasbasbag57
(g73
g59
NtRp818
(dp819
g62
(dp820
sg71
g674
sg64
(lp821
g57
(g78
g59
NtRp822
(dp823
g62
(dp824
g82
g83
ssg71
g818
sg64
(lp825
g453
asbag57
(g78
g59
NtRp826
(dp827
g62
(dp828
g89
g90
ssg71
g818
sg64
(lp829
S':'
asbag57
(g78
g59
NtRp830
(dp831
g62
(dp832
sg71
g818
sg64
(lp833
g57
(g58
g59
NtRp834
(dp835
g62
(dp836
g70
I3
ssg71
g830
sg64
(lp837
S''
asbasbasbasbasbasbasbag57
(g73
g59
NtRp838
(dp839
g62
(dp840
sg71
g268
sg64
(lp841
g57
(g78
g59
NtRp842
(dp843
g62
(dp844
g82
g83
ssg71
g838
sg64
(lp845
S'session_id_music_library'
p846
asbag57
(g78
g59
NtRp847
(dp848
g62
(dp849
g89
g90
ssg71
g838
sg64
(lp850
S':'
asbag57
(g78
g59
NtRp851
(dp852
g62
(dp853
sg71
g838
sg64
(lp854
g57
(g58
g59
NtRp855
(dp856
g62
(dp857
g70
I4
ssg71
g851
sg64
(lp858
S'127.0.0.1-dd9b4880-33cf-4894-a8a9-2640c5c78a01'
p859
ag57
(g66
g59
NtRp860
(dp861
g62
(dp862
g70
I3
ssg71
Nsg64
(lp863
g57
(g73
g59
NtRp864
(dp865
g62
(dp866
sg71
g860
sg64
(lp867
g57
(g78
g59
NtRp868
(dp869
g62
(dp870
g82
g83
ssg71
g864
sg64
(lp871
g306
asbag57
(g78
g59
NtRp872
(dp873
g62
(dp874
g89
g90
ssg71
g864
sg64
(lp875
S':'
asbag57
(g78
g59
NtRp876
(dp877
g62
(dp878
sg71
g864
sg64
(lp879
g57
(g58
g59
NtRp880
(dp881
g62
(dp882
g70
I3
ssg71
g876
sg64
(lp883
S''
asbasbasbag57
(g73
g59
NtRp884
(dp885
g62
(dp886
sg71
g860
sg64
(lp887
g57
(g78
g59
NtRp888
(dp889
g62
(dp890
g82
g83
ssg71
g884
sg64
(lp891
g327
asbag57
(g78
g59
NtRp892
(dp893
g62
(dp894
g89
g90
ssg71
g884
sg64
(lp895
S':'
asbag57
(g78
g59
NtRp896
(dp897
g62
(dp898
sg71
g884
sg64
(lp899
g57
(g58
g59
NtRp900
(dp901
g62
(dp902
g70
I3
ssg71
g896
sg64
(lp903
S''
asbasbasbag57
(g73
g59
NtRp904
(dp905
g62
(dp906
sg71
g860
sg64
(lp907
g57
(g78
g59
NtRp908
(dp909
g62
(dp910
g82
g83
ssg71
g904
sg64
(lp911
g348
asbag57
(g78
g59
NtRp912
(dp913
g62
(dp914
g89
g90
ssg71
g904
sg64
(lp915
S':'
asbag57
(g78
g59
NtRp916
(dp917
g62
(dp918
sg71
g904
sg64
(lp919
g57
(g58
g59
NtRp920
(dp921
g62
(dp922
g70
I3
ssg71
g916
sg64
(lp923
S''
asbasbasbag57
(g73
g59
NtRp924
(dp925
g62
(dp926
sg71
g860
sg64
(lp927
g57
(g78
g59
NtRp928
(dp929
g62
(dp930
g82
g83
ssg71
g924
sg64
(lp931
g369
asbag57
(g78
g59
NtRp932
(dp933
g62
(dp934
g89
g90
ssg71
g924
sg64
(lp935
S':'
asbag57
(g78
g59
NtRp936
(dp937
g62
(dp938
sg71
g924
sg64
(lp939
g57
(g58
g59
NtRp940
(dp941
g62
(dp942
g70
I3
ssg71
g936
sg64
(lp943
S''
asbasbasbag57
(g73
g59
NtRp944
(dp945
g62
(dp946
sg71
g860
sg64
(lp947
g57
(g78
g59
NtRp948
(dp949
g62
(dp950
g82
g83
ssg71
g944
sg64
(lp951
g390
asbag57
(g78
g59
NtRp952
(dp953
g62
(dp954
g89
g90
ssg71
g944
sg64
(lp955
S':'
asbag57
(g78
g59
NtRp956
(dp957
g62
(dp958
sg71
g944
sg64
(lp959
g57
(g58
g59
NtRp960
(dp961
g62
(dp962
g70
I3
ssg71
g956
sg64
(lp963
S''
asbasbasbag57
(g73
g59
NtRp964
(dp965
g62
(dp966
sg71
g860
sg64
(lp967
g57
(g78
g59
NtRp968
(dp969
g62
(dp970
g82
g83
ssg71
g964
sg64
(lp971
g411
asbag57
(g78
g59
NtRp972
(dp973
g62
(dp974
g89
g90
ssg71
g964
sg64
(lp975
S':'
asbag57
(g78
g59
NtRp976
(dp977
g62
(dp978
sg71
g964
sg64
(lp979
g57
(g58
g59
NtRp980
(dp981
g62
(dp982
g70
I3
ssg71
g976
sg64
(lp983
S''
asbasbasbag57
(g73
g59
NtRp984
(dp985
g62
(dp986
sg71
g860
sg64
(lp987
g57
(g78
g59
NtRp988
(dp989
g62
(dp990
g82
g83
ssg71
g984
sg64
(lp991
g432
asbag57
(g78
g59
NtRp992
(dp993
g62
(dp994
g89
g90
ssg71
g984
sg64
(lp995
S':'
asbag57
(g78
g59
NtRp996
(dp997
g62
(dp998
sg71
g984
sg64
(lp999
g57
(g58
g59
NtRp1000
(dp1001
g62
(dp1002
g70
I3
ssg71
g996
sg64
(lp1003
S''
asbasbasbag57
(g73
g59
NtRp1004
(dp1005
g62
(dp1006
sg71
g860
sg64
(lp1007
g57
(g78
g59
NtRp1008
(dp1009
g62
(dp1010
g82
g83
ssg71
g1004
sg64
(lp1011
g453
asbag57
(g78
g59
NtRp1012
(dp1013
g62
(dp1014
g89
g90
ssg71
g1004
sg64
(lp1015
S':'
asbag57
(g78
g59
NtRp1016
(dp1017
g62
(dp1018
sg71
g1004
sg64
(lp1019
g57
(g58
g59
NtRp1020
(dp1021
g62
(dp1022
g70
I3
ssg71
g1016
sg64
(lp1023
S''
asbasbasbasbasbasbasbag57
(g73
g59
NtRp1024
(dp1025
g62
(dp1026
sg71
g268
sg64
(lp1027
g57
(g78
g59
NtRp1028
(dp1029
g62
(dp1030
g82
g83
ssg71
g1024
sg64
(lp1031
S'session_id_outreach'
p1032
asbag57
(g78
g59
NtRp1033
(dp1034
g62
(dp1035
g89
g90
ssg71
g1024
sg64
(lp1036
S':'
asbag57
(g78
g59
NtRp1037
(dp1038
g62
(dp1039
sg71
g1024
sg64
(lp1040
g57
(g58
g59
NtRp1041
(dp1042
g62
(dp1043
g70
I4
ssg71
g1037
sg64
(lp1044
S'127.0.0.1-00c3bb02-539e-4bc1-ab10-e3c500bd1248'
p1045
ag57
(g66
g59
NtRp1046
(dp1047
g62
(dp1048
g70
I3
ssg71
Nsg64
(lp1049
g57
(g73
g59
NtRp1050
(dp1051
g62
(dp1052
sg71
g1046
sg64
(lp1053
g57
(g78
g59
NtRp1054
(dp1055
g62
(dp1056
g82
g83
ssg71
g1050
sg64
(lp1057
g306
asbag57
(g78
g59
NtRp1058
(dp1059
g62
(dp1060
g89
g90
ssg71
g1050
sg64
(lp1061
S':'
asbag57
(g78
g59
NtRp1062
(dp1063
g62
(dp1064
sg71
g1050
sg64
(lp1065
g57
(g58
g59
NtRp1066
(dp1067
g62
(dp1068
g70
I3
ssg71
g1062
sg64
(lp1069
S''
asbasbasbag57
(g73
g59
NtRp1070
(dp1071
g62
(dp1072
sg71
g1046
sg64
(lp1073
g57
(g78
g59
NtRp1074
(dp1075
g62
(dp1076
g82
g83
ssg71
g1070
sg64
(lp1077
g327
asbag57
(g78
g59
NtRp1078
(dp1079
g62
(dp1080
g89
g90
ssg71
g1070
sg64
(lp1081
S':'
asbag57
(g78
g59
NtRp1082
(dp1083
g62
(dp1084
sg71
g1070
sg64
(lp1085
g57
(g58
g59
NtRp1086
(dp1087
g62
(dp1088
g70
I3
ssg71
g1082
sg64
(lp1089
S''
asbasbasbag57
(g73
g59
NtRp1090
(dp1091
g62
(dp1092
sg71
g1046
sg64
(lp1093
g57
(g78
g59
NtRp1094
(dp1095
g62
(dp1096
g82
g83
ssg71
g1090
sg64
(lp1097
g348
asbag57
(g78
g59
NtRp1098
(dp1099
g62
(dp1100
g89
g90
ssg71
g1090
sg64
(lp1101
S':'
asbag57
(g78
g59
NtRp1102
(dp1103
g62
(dp1104
sg71
g1090
sg64
(lp1105
g57
(g58
g59
NtRp1106
(dp1107
g62
(dp1108
g70
I3
ssg71
g1102
sg64
(lp1109
S''
asbasbasbag57
(g73
g59
NtRp1110
(dp1111
g62
(dp1112
sg71
g1046
sg64
(lp1113
g57
(g78
g59
NtRp1114
(dp1115
g62
(dp1116
g82
g83
ssg71
g1110
sg64
(lp1117
g369
asbag57
(g78
g59
NtRp1118
(dp1119
g62
(dp1120
g89
g90
ssg71
g1110
sg64
(lp1121
S':'
asbag57
(g78
g59
NtRp1122
(dp1123
g62
(dp1124
sg71
g1110
sg64
(lp1125
g57
(g58
g59
NtRp1126
(dp1127
g62
(dp1128
g70
I3
ssg71
g1122
sg64
(lp1129
S''
asbasbasbag57
(g73
g59
NtRp1130
(dp1131
g62
(dp1132
sg71
g1046
sg64
(lp1133
g57
(g78
g59
NtRp1134
(dp1135
g62
(dp1136
g82
g83
ssg71
g1130
sg64
(lp1137
g390
asbag57
(g78
g59
NtRp1138
(dp1139
g62
(dp1140
g89
g90
ssg71
g1130
sg64
(lp1141
S':'
asbag57
(g78
g59
NtRp1142
(dp1143
g62
(dp1144
sg71
g1130
sg64
(lp1145
g57
(g58
g59
NtRp1146
(dp1147
g62
(dp1148
g70
I3
ssg71
g1142
sg64
(lp1149
S''
asbasbasbag57
(g73
g59
NtRp1150
(dp1151
g62
(dp1152
sg71
g1046
sg64
(lp1153
g57
(g78
g59
NtRp1154
(dp1155
g62
(dp1156
g82
g83
ssg71
g1150
sg64
(lp1157
g411
asbag57
(g78
g59
NtRp1158
(dp1159
g62
(dp1160
g89
g90
ssg71
g1150
sg64
(lp1161
S':'
asbag57
(g78
g59
NtRp1162
(dp1163
g62
(dp1164
sg71
g1150
sg64
(lp1165
g57
(g58
g59
NtRp1166
(dp1167
g62
(dp1168
g70
I3
ssg71
g1162
sg64
(lp1169
S''
asbasbasbag57
(g73
g59
NtRp1170
(dp1171
g62
(dp1172
sg71
g1046
sg64
(lp1173
g57
(g78
g59
NtRp1174
(dp1175
g62
(dp1176
g82
g83
ssg71
g1170
sg64
(lp1177
g432
asbag57
(g78
g59
NtRp1178
(dp1179
g62
(dp1180
g89
g90
ssg71
g1170
sg64
(lp1181
S':'
asbag57
(g78
g59
NtRp1182
(dp1183
g62
(dp1184
sg71
g1170
sg64
(lp1185
g57
(g58
g59
NtRp1186
(dp1187
g62
(dp1188
g70
I3
ssg71
g1182
sg64
(lp1189
S''
asbasbasbag57
(g73
g59
NtRp1190
(dp1191
g62
(dp1192
sg71
g1046
sg64
(lp1193
g57
(g78
g59
NtRp1194
(dp1195
g62
(dp1196
g82
g83
ssg71
g1190
sg64
(lp1197
g453
asbag57
(g78
g59
NtRp1198
(dp1199
g62
(dp1200
g89
g90
ssg71
g1190
sg64
(lp1201
S':'
asbag57
(g78
g59
NtRp1202
(dp1203
g62
(dp1204
sg71
g1190
sg64
(lp1205
g57
(g58
g59
NtRp1206
(dp1207
g62
(dp1208
g70
I3
ssg71
g1202
sg64
(lp1209
S''
asbasbasbasbasbasbasbag57
(g73
g59
NtRp1210
(dp1211
g62
(dp1212
sg71
g268
sg64
(lp1213
g57
(g78
g59
NtRp1214
(dp1215
g62
(dp1216
g82
g83
ssg71
g1210
sg64
(lp1217
S'session_id_welcome'
p1218
asbag57
(g78
g59
NtRp1219
(dp1220
g62
(dp1221
g89
g90
ssg71
g1210
sg64
(lp1222
S':'
asbag57
(g78
g59
NtRp1223
(dp1224
g62
(dp1225
sg71
g1210
sg64
(lp1226
g57
(g58
g59
NtRp1227
(dp1228
g62
(dp1229
g70
I4
ssg71
g1223
sg64
(lp1230
S'127.0.0.1-9c7bb553-b7cb-4343-8d32-a78739900983'
p1231
ag57
(g66
g59
NtRp1232
(dp1233
g62
(dp1234
g70
I3
ssg71
Nsg64
(lp1235
g57
(g73
g59
NtRp1236
(dp1237
g62
(dp1238
sg71
g1232
sg64
(lp1239
g57
(g78
g59
NtRp1240
(dp1241
g62
(dp1242
g82
g83
ssg71
g1236
sg64
(lp1243
g306
asbag57
(g78
g59
NtRp1244
(dp1245
g62
(dp1246
g89
g90
ssg71
g1236
sg64
(lp1247
S':'
asbag57
(g78
g59
NtRp1248
(dp1249
g62
(dp1250
sg71
g1236
sg64
(lp1251
g57
(g58
g59
NtRp1252
(dp1253
g62
(dp1254
g70
I3
ssg71
g1248
sg64
(lp1255
S''
asbasbasbag57
(g73
g59
NtRp1256
(dp1257
g62
(dp1258
sg71
g1232
sg64
(lp1259
g57
(g78
g59
NtRp1260
(dp1261
g62
(dp1262
g82
g83
ssg71
g1256
sg64
(lp1263
g327
asbag57
(g78
g59
NtRp1264
(dp1265
g62
(dp1266
g89
g90
ssg71
g1256
sg64
(lp1267
S':'
asbag57
(g78
g59
NtRp1268
(dp1269
g62
(dp1270
sg71
g1256
sg64
(lp1271
g57
(g58
g59
NtRp1272
(dp1273
g62
(dp1274
g70
I3
ssg71
g1268
sg64
(lp1275
S''
asbasbasbag57
(g73
g59
NtRp1276
(dp1277
g62
(dp1278
sg71
g1232
sg64
(lp1279
g57
(g78
g59
NtRp1280
(dp1281
g62
(dp1282
g82
g83
ssg71
g1276
sg64
(lp1283
g348
asbag57
(g78
g59
NtRp1284
(dp1285
g62
(dp1286
g89
g90
ssg71
g1276
sg64
(lp1287
S':'
asbag57
(g78
g59
NtRp1288
(dp1289
g62
(dp1290
sg71
g1276
sg64
(lp1291
g57
(g58
g59
NtRp1292
(dp1293
g62
(dp1294
g70
I3
ssg71
g1288
sg64
(lp1295
S''
asbasbasbag57
(g73
g59
NtRp1296
(dp1297
g62
(dp1298
sg71
g1232
sg64
(lp1299
g57
(g78
g59
NtRp1300
(dp1301
g62
(dp1302
g82
g83
ssg71
g1296
sg64
(lp1303
g369
asbag57
(g78
g59
NtRp1304
(dp1305
g62
(dp1306
g89
g90
ssg71
g1296
sg64
(lp1307
S':'
asbag57
(g78
g59
NtRp1308
(dp1309
g62
(dp1310
sg71
g1296
sg64
(lp1311
g57
(g58
g59
NtRp1312
(dp1313
g62
(dp1314
g70
I3
ssg71
g1308
sg64
(lp1315
S''
asbasbasbag57
(g73
g59
NtRp1316
(dp1317
g62
(dp1318
sg71
g1232
sg64
(lp1319
g57
(g78
g59
NtRp1320
(dp1321
g62
(dp1322
g82
g83
ssg71
g1316
sg64
(lp1323
g390
asbag57
(g78
g59
NtRp1324
(dp1325
g62
(dp1326
g89
g90
ssg71
g1316
sg64
(lp1327
S':'
asbag57
(g78
g59
NtRp1328
(dp1329
g62
(dp1330
sg71
g1316
sg64
(lp1331
g57
(g58
g59
NtRp1332
(dp1333
g62
(dp1334
g70
I3
ssg71
g1328
sg64
(lp1335
S''
asbasbasbag57
(g73
g59
NtRp1336
(dp1337
g62
(dp1338
sg71
g1232
sg64
(lp1339
g57
(g78
g59
NtRp1340
(dp1341
g62
(dp1342
g82
g83
ssg71
g1336
sg64
(lp1343
g411
asbag57
(g78
g59
NtRp1344
(dp1345
g62
(dp1346
g89
g90
ssg71
g1336
sg64
(lp1347
S':'
asbag57
(g78
g59
NtRp1348
(dp1349
g62
(dp1350
sg71
g1336
sg64
(lp1351
g57
(g58
g59
NtRp1352
(dp1353
g62
(dp1354
g70
I3
ssg71
g1348
sg64
(lp1355
S''
asbasbasbag57
(g73
g59
NtRp1356
(dp1357
g62
(dp1358
sg71
g1232
sg64
(lp1359
g57
(g78
g59
NtRp1360
(dp1361
g62
(dp1362
g82
g83
ssg71
g1356
sg64
(lp1363
g432
asbag57
(g78
g59
NtRp1364
(dp1365
g62
(dp1366
g89
g90
ssg71
g1356
sg64
(lp1367
S':'
asbag57
(g78
g59
NtRp1368
(dp1369
g62
(dp1370
sg71
g1356
sg64
(lp1371
g57
(g58
g59
NtRp1372
(dp1373
g62
(dp1374
g70
I3
ssg71
g1368
sg64
(lp1375
S''
asbasbasbag57
(g73
g59
NtRp1376
(dp1377
g62
(dp1378
sg71
g1232
sg64
(lp1379
g57
(g78
g59
NtRp1380
(dp1381
g62
(dp1382
g82
g83
ssg71
g1376
sg64
(lp1383
g453
asbag57
(g78
g59
NtRp1384
(dp1385
g62
(dp1386
g89
g90
ssg71
g1376
sg64
(lp1387
S':'
asbag57
(g78
g59
NtRp1388
(dp1389
g62
(dp1390
sg71
g1376
sg64
(lp1391
g57
(g58
g59
NtRp1392
(dp1393
g62
(dp1394
g70
I3
ssg71
g1388
sg64
(lp1395
S''
asbasbasbasbasbasbasbasbasbasbasbag57
(g73
g59
NtRp1396
(dp1397
g62
(dp1398
sg71
g67
sg64
(lp1399
g57
(g78
g59
NtRp1400
(dp1401
g62
(dp1402
g82
g83
ssg71
g1396
sg64
(lp1403
S'env'
p1404
asbag57
(g78
g59
NtRp1405
(dp1406
g62
(dp1407
g89
g90
ssg71
g1396
sg64
(lp1408
S':'
asbag57
(g78
g59
NtRp1409
(dp1410
g62
(dp1411
sg71
g1396
sg64
(lp1412
g57
(g58
g59
NtRp1413
(dp1414
g62
(dp1415
g70
I5
ssg71
g1409
sg64
(lp1416
g57
(g66
g59
NtRp1417
(dp1418
g62
(dp1419
g70
I4
ssg71
Nsg64
(lp1420
g57
(g73
g59
NtRp1421
(dp1422
g62
(dp1423
sg71
g1417
sg64
(lp1424
g57
(g78
g59
NtRp1425
(dp1426
g62
(dp1427
g82
g83
ssg71
g1421
sg64
(lp1428
S'app_folders'
p1429
asbag57
(g78
g59
NtRp1430
(dp1431
g62
(dp1432
g89
g90
ssg71
g1421
sg64
(lp1433
S':'
asbag57
(g78
g59
NtRp1434
(dp1435
g62
(dp1436
sg71
g1421
sg64
(lp1437
g57
(g58
g59
NtRp1438
(dp1439
g62
(dp1440
g70
I4
ssg71
g1434
sg64
(lp1441
S"set(['/home/pratyush/web2py/applications/db_project/', '/home/pratyush/web2py/applications/outreach/', '/home/pratyush/web2py/applications/welcome/', '/home/pratyush/web2py/applications/music_library/', '/home/pratyush/web2py/applications/examples/', '/home/pratyush/web2py/applications/BuySell/', '/home/pratyush/web2py/applications/admin/'])"
p1442
asbasbasbag57
(g73
g59
NtRp1443
(dp1444
g62
(dp1445
sg71
g1417
sg64
(lp1446
g57
(g78
g59
NtRp1447
(dp1448
g62
(dp1449
g82
g83
ssg71
g1443
sg64
(lp1450
S'applications_parent'
p1451
asbag57
(g78
g59
NtRp1452
(dp1453
g62
(dp1454
g89
g90
ssg71
g1443
sg64
(lp1455
S':'
asbag57
(g78
g59
NtRp1456
(dp1457
g62
(dp1458
sg71
g1443
sg64
(lp1459
g57
(g58
g59
NtRp1460
(dp1461
g62
(dp1462
g70
I4
ssg71
g1456
sg64
(lp1463
S'/home/pratyush/web2py'
p1464
asbasbasbag57
(g73
g59
NtRp1465
(dp1466
g62
(dp1467
sg71
g1417
sg64
(lp1468
g57
(g78
g59
NtRp1469
(dp1470
g62
(dp1471
g82
g83
ssg71
g1465
sg64
(lp1472
S'cmd_args'
p1473
asbag57
(g78
g59
NtRp1474
(dp1475
g62
(dp1476
g89
g90
ssg71
g1465
sg64
(lp1477
S':'
asbag57
(g78
g59
NtRp1478
(dp1479
g62
(dp1480
sg71
g1465
sg64
(lp1481
g57
(g58
g59
NtRp1482
(dp1483
g62
(dp1484
g70
I4
ssg71
g1478
sg64
(lp1485
g57
(g66
g59
NtRp1486
(dp1487
g62
(dp1488
g70
I3
ssg71
Nsg64
(lp1489
sbasbasbasbag57
(g73
g59
NtRp1490
(dp1491
g62
(dp1492
sg71
g1417
sg64
(lp1493
g57
(g78
g59
NtRp1494
(dp1495
g62
(dp1496
g82
g83
ssg71
g1490
sg64
(lp1497
S'cmd_options'
p1498
asbag57
(g78
g59
NtRp1499
(dp1500
g62
(dp1501
g89
g90
ssg71
g1490
sg64
(lp1502
S':'
asbag57
(g78
g59
NtRp1503
(dp1504
g62
(dp1505
sg71
g1490
sg64
(lp1506
g57
(g58
g59
NtRp1507
(dp1508
g62
(dp1509
g70
I4
ssg71
g1503
sg64
(lp1510
S"<Values at 0xa526b0c: {'verbose': False, 'ip': '127.0.0.1', 'with_scheduler': False, 'ips': [], 'shutdown_timeout': 5, 'taskbar': False, 'port': 8001, 'maxthreads': None, 'softcron': False, 'server_name': 'alanzak', 'bpython': False, 'nogui': False, 'pid_filename': 'httpserver.pid', 'extcron': False, 'runcron': False, 'run_system_tests': False, 'test': None, 'folder': '/home/pratyush/web2py', 'config': '', 'import_models': False, 'winservice': '', 'shell': None, 'run': '', 'log_filename': 'httpserver.log', 'debuglevel': 30, 'args': [''], 'socket_timeout': 5, 'ssl_ca_certificate': None, 'scheduler': None, 'profiler_filename': None, 'ssl_private_key': '', 'scheduler_groups': None, 'password': '1', 'request_queue_size': 5, 'ssl_certificate': '', 'cronjob': False, 'numthreads': None, 'quiet': False, 'interfaces': None, 'minthreads': None, 'timeout': 10, 'plain': False, 'nobanner': False}>"
p1511
asbasbasbag57
(g73
g59
NtRp1512
(dp1513
g62
(dp1514
sg71
g1417
sg64
(lp1515
g57
(g78
g59
NtRp1516
(dp1517
g62
(dp1518
g82
g83
ssg71
g1512
sg64
(lp1519
S'db_sessions'
p1520
asbag57
(g78
g59
NtRp1521
(dp1522
g62
(dp1523
g89
g90
ssg71
g1512
sg64
(lp1524
S':'
asbag57
(g78
g59
NtRp1525
(dp1526
g62
(dp1527
sg71
g1512
sg64
(lp1528
g57
(g58
g59
NtRp1529
(dp1530
g62
(dp1531
g70
I4
ssg71
g1525
sg64
(lp1532
S'set([])'
p1533
asbasbasbag57
(g73
g59
NtRp1534
(dp1535
g62
(dp1536
sg71
g1417
sg64
(lp1537
g57
(g78
g59
NtRp1538
(dp1539
g62
(dp1540
g82
g83
ssg71
g1534
sg64
(lp1541
S'debugging'
p1542
asbag57
(g78
g59
NtRp1543
(dp1544
g62
(dp1545
g89
g90
ssg71
g1534
sg64
(lp1546
S':'
asbag57
(g78
g59
NtRp1547
(dp1548
g62
(dp1549
sg71
g1534
sg64
(lp1550
g57
(g58
g59
NtRp1551
(dp1552
g62
(dp1553
g70
I4
ssg71
g1547
sg64
(lp1554
g100
asbasbasbag57
(g73
g59
NtRp1555
(dp1556
g62
(dp1557
sg71
g1417
sg64
(lp1558
g57
(g78
g59
NtRp1559
(dp1560
g62
(dp1561
g82
g83
ssg71
g1555
sg64
(lp1562
S'gluon_parent'
p1563
asbag57
(g78
g59
NtRp1564
(dp1565
g62
(dp1566
g89
g90
ssg71
g1555
sg64
(lp1567
S':'
asbag57
(g78
g59
NtRp1568
(dp1569
g62
(dp1570
sg71
g1555
sg64
(lp1571
g57
(g58
g59
NtRp1572
(dp1573
g62
(dp1574
g70
I4
ssg71
g1568
sg64
(lp1575
S'/home/pratyush/web2py'
p1576
asbasbasbag57
(g73
g59
NtRp1577
(dp1578
g62
(dp1579
sg71
g1417
sg64
(lp1580
g57
(g78
g59
NtRp1581
(dp1582
g62
(dp1583
g82
g83
ssg71
g1577
sg64
(lp1584
S'http_accept'
p1585
asbag57
(g78
g59
NtRp1586
(dp1587
g62
(dp1588
g89
g90
ssg71
g1577
sg64
(lp1589
S':'
asbag57
(g78
g59
NtRp1590
(dp1591
g62
(dp1592
sg71
g1577
sg64
(lp1593
g57
(g58
g59
NtRp1594
(dp1595
g62
(dp1596
g70
I4
ssg71
g1590
sg64
(lp1597
S'text/html,application/xhtml+xml,application/xml;q=0.9,*/*;q=0.8'
p1598
asbasbasbag57
(g73
g59
NtRp1599
(dp1600
g62
(dp1601
sg71
g1417
sg64
(lp1602
g57
(g78
g59
NtRp1603
(dp1604
g62
(dp1605
g82
g83
ssg71
g1599
sg64
(lp1606
S'http_accept_charset'
p1607
asbag57
(g78
g59
NtRp1608
(dp1609
g62
(dp1610
g89
g90
ssg71
g1599
sg64
(lp1611
S':'
asbag57
(g78
g59
NtRp1612
(dp1613
g62
(dp1614
sg71
g1599
sg64
(lp1615
g57
(g58
g59
NtRp1616
(dp1617
g62
(dp1618
g70
I4
ssg71
g1612
sg64
(lp1619
S'ISO-8859-1,utf-8;q=0.7,*;q=0.3'
p1620
asbasbasbag57
(g73
g59
NtRp1621
(dp1622
g62
(dp1623
sg71
g1417
sg64
(lp1624
g57
(g78
g59
NtRp1625
(dp1626
g62
(dp1627
g82
g83
ssg71
g1621
sg64
(lp1628
S'http_accept_encoding'
p1629
asbag57
(g78
g59
NtRp1630
(dp1631
g62
(dp1632
g89
g90
ssg71
g1621
sg64
(lp1633
S':'
asbag57
(g78
g59
NtRp1634
(dp1635
g62
(dp1636
sg71
g1621
sg64
(lp1637
g57
(g58
g59
NtRp1638
(dp1639
g62
(dp1640
g70
I4
ssg71
g1634
sg64
(lp1641
S'gzip,deflate,sdch'
p1642
asbasbasbag57
(g73
g59
NtRp1643
(dp1644
g62
(dp1645
sg71
g1417
sg64
(lp1646
g57
(g78
g59
NtRp1647
(dp1648
g62
(dp1649
g82
g83
ssg71
g1643
sg64
(lp1650
S'http_accept_language'
p1651
asbag57
(g78
g59
NtRp1652
(dp1653
g62
(dp1654
g89
g90
ssg71
g1643
sg64
(lp1655
S':'
asbag57
(g78
g59
NtRp1656
(dp1657
g62
(dp1658
sg71
g1643
sg64
(lp1659
g57
(g58
g59
NtRp1660
(dp1661
g62
(dp1662
g70
I4
ssg71
g1656
sg64
(lp1663
S'en-US,en;q=0.8'
p1664
asbasbasbag57
(g73
g59
NtRp1665
(dp1666
g62
(dp1667
sg71
g1417
sg64
(lp1668
g57
(g78
g59
NtRp1669
(dp1670
g62
(dp1671
g82
g83
ssg71
g1665
sg64
(lp1672
S'http_cache_control'
p1673
asbag57
(g78
g59
NtRp1674
(dp1675
g62
(dp1676
g89
g90
ssg71
g1665
sg64
(lp1677
S':'
asbag57
(g78
g59
NtRp1678
(dp1679
g62
(dp1680
sg71
g1665
sg64
(lp1681
g57
(g58
g59
NtRp1682
(dp1683
g62
(dp1684
g70
I4
ssg71
g1678
sg64
(lp1685
S'max-age=0'
p1686
asbasbasbag57
(g73
g59
NtRp1687
(dp1688
g62
(dp1689
sg71
g1417
sg64
(lp1690
g57
(g78
g59
NtRp1691
(dp1692
g62
(dp1693
g82
g83
ssg71
g1687
sg64
(lp1694
S'http_connection'
p1695
asbag57
(g78
g59
NtRp1696
(dp1697
g62
(dp1698
g89
g90
ssg71
g1687
sg64
(lp1699
S':'
asbag57
(g78
g59
NtRp1700
(dp1701
g62
(dp1702
sg71
g1687
sg64
(lp1703
g57
(g58
g59
NtRp1704
(dp1705
g62
(dp1706
g70
I4
ssg71
g1700
sg64
(lp1707
S'keep-alive'
p1708
asbasbasbag57
(g73
g59
NtRp1709
(dp1710
g62
(dp1711
sg71
g1417
sg64
(lp1712
g57
(g78
g59
NtRp1713
(dp1714
g62
(dp1715
g82
g83
ssg71
g1709
sg64
(lp1716
S'http_cookie'
p1717
asbag57
(g78
g59
NtRp1718
(dp1719
g62
(dp1720
g89
g90
ssg71
g1709
sg64
(lp1721
S':'
asbag57
(g78
g59
NtRp1722
(dp1723
g62
(dp1724
sg71
g1709
sg64
(lp1725
g57
(g58
g59
NtRp1726
(dp1727
g62
(dp1728
g70
I4
ssg71
g1722
sg64
(lp1729
S'registered=yes; session_id_outreach=127.0.0.1-00c3bb02-539e-4bc1-ab10-e3c500bd1248; session_id_welcome=127.0.0.1-9c7bb553-b7cb-4343-8d32-a78739900983; session_id_music_library=127.0.0.1-dd9b4880-33cf-4894-a8a9-2640c5c78a01; session_id_buysell=127.0.0.1-d5a07803-4f5c-44c8-b05d-2876d30ca822; session_id_admin=127.0.0.1-5c3e6318-3a14-4ff1-97a6-1063e44c4cd9'
p1730
asbasbasbag57
(g73
g59
NtRp1731
(dp1732
g62
(dp1733
sg71
g1417
sg64
(lp1734
g57
(g78
g59
NtRp1735
(dp1736
g62
(dp1737
g82
g83
ssg71
g1731
sg64
(lp1738
S'http_host'
p1739
asbag57
(g78
g59
NtRp1740
(dp1741
g62
(dp1742
g89
g90
ssg71
g1731
sg64
(lp1743
S':'
asbag57
(g78
g59
NtRp1744
(dp1745
g62
(dp1746
sg71
g1731
sg64
(lp1747
g57
(g58
g59
NtRp1748
(dp1749
g62
(dp1750
g70
I4
ssg71
g1744
sg64
(lp1751
S'127.0.0.1:8001'
p1752
asbasbasbag57
(g73
g59
NtRp1753
(dp1754
g62
(dp1755
sg71
g1417
sg64
(lp1756
g57
(g78
g59
NtRp1757
(dp1758
g62
(dp1759
g82
g83
ssg71
g1753
sg64
(lp1760
S'http_user_agent'
p1761
asbag57
(g78
g59
NtRp1762
(dp1763
g62
(dp1764
g89
g90
ssg71
g1753
sg64
(lp1765
S':'
asbag57
(g78
g59
NtRp1766
(dp1767
g62
(dp1768
sg71
g1753
sg64
(lp1769
g57
(g58
g59
NtRp1770
(dp1771
g62
(dp1772
g70
I4
ssg71
g1766
sg64
(lp1773
S'Mozilla/5.0 (X11; Linux i686) AppleWebKit/537.4 (KHTML, like Gecko) Chrome/22.0.1229.79 Safari/537.4'
p1774
asbasbasbag57
(g73
g59
NtRp1775
(dp1776
g62
(dp1777
sg71
g1417
sg64
(lp1778
g57
(g78
g59
NtRp1779
(dp1780
g62
(dp1781
g82
g83
ssg71
g1775
sg64
(lp1782
S'is_jython'
p1783
asbag57
(g78
g59
NtRp1784
(dp1785
g62
(dp1786
g89
g90
ssg71
g1775
sg64
(lp1787
S':'
asbag57
(g78
g59
NtRp1788
(dp1789
g62
(dp1790
sg71
g1775
sg64
(lp1791
g57
(g58
g59
NtRp1792
(dp1793
g62
(dp1794
g70
I4
ssg71
g1788
sg64
(lp1795
g100
asbasbasbag57
(g73
g59
NtRp1796
(dp1797
g62
(dp1798
sg71
g1417
sg64
(lp1799
g57
(g78
g59
NtRp1800
(dp1801
g62
(dp1802
g82
g83
ssg71
g1796
sg64
(lp1803
S'is_pypy'
p1804
asbag57
(g78
g59
NtRp1805
(dp1806
g62
(dp1807
g89
g90
ssg71
g1796
sg64
(lp1808
S':'
asbag57
(g78
g59
NtRp1809
(dp1810
g62
(dp1811
sg71
g1796
sg64
(lp1812
g57
(g58
g59
NtRp1813
(dp1814
g62
(dp1815
g70
I4
ssg71
g1809
sg64
(lp1816
g100
asbasbasbag57
(g73
g59
NtRp1817
(dp1818
g62
(dp1819
sg71
g1417
sg64
(lp1820
g57
(g78
g59
NtRp1821
(dp1822
g62
(dp1823
g82
g83
ssg71
g1817
sg64
(lp1824
S'local_hosts'
p1825
asbag57
(g78
g59
NtRp1826
(dp1827
g62
(dp1828
g89
g90
ssg71
g1817
sg64
(lp1829
S':'
asbag57
(g78
g59
NtRp1830
(dp1831
g62
(dp1832
sg71
g1817
sg64
(lp1833
g57
(g58
g59
NtRp1834
(dp1835
g62
(dp1836
g70
I4
ssg71
g1830
sg64
(lp1837
g57
(g66
g59
NtRp1838
(dp1839
g62
(dp1840
g70
I3
ssg71
Nsg64
(lp1841
g57
(g73
g59
NtRp1842
(dp1843
g62
(dp1844
sg71
g1838
sg64
(lp1845
g57
(g78
g59
NtRp1846
(dp1847
g62
(dp1848
sg71
g1842
sg64
(lp1849
g57
(g58
g59
NtRp1850
(dp1851
g62
(dp1852
g70
I3
ssg71
g1846
sg64
(lp1853
S'127.0.1.1'
p1854
asbasbasbag57
(g73
g59
NtRp1855
(dp1856
g62
(dp1857
sg71
g1838
sg64
(lp1858
g57
(g78
g59
NtRp1859
(dp1860
g62
(dp1861
sg71
g1855
sg64
(lp1862
g57
(g58
g59
NtRp1863
(dp1864
g62
(dp1865
g70
I3
ssg71
g1859
sg64
(lp1866
S'::1'
p1867
asbasbasbag57
(g73
g59
NtRp1868
(dp1869
g62
(dp1870
sg71
g1838
sg64
(lp1871
g57
(g78
g59
NtRp1872
(dp1873
g62
(dp1874
sg71
g1868
sg64
(lp1875
g57
(g58
g59
NtRp1876
(dp1877
g62
(dp1878
g70
I3
ssg71
g1872
sg64
(lp1879
S'alanzak'
p1880
asbasbasbag57
(g73
g59
NtRp1881
(dp1882
g62
(dp1883
sg71
g1838
sg64
(lp1884
g57
(g78
g59
NtRp1885
(dp1886
g62
(dp1887
sg71
g1881
sg64
(lp1888
g57
(g58
g59
NtRp1889
(dp1890
g62
(dp1891
g70
I3
ssg71
g1885
sg64
(lp1892
S'::ffff:127.0.0.1'
p1893
asbasbasbag57
(g73
g59
NtRp1894
(dp1895
g62
(dp1896
sg71
g1838
sg64
(lp1897
g57
(g78
g59
NtRp1898
(dp1899
g62
(dp1900
sg71
g1894
sg64
(lp1901
g57
(g58
g59
NtRp1902
(dp1903
g62
(dp1904
g70
I3
ssg71
g1898
sg64
(lp1905
S'127.0.0.1'
p1906
asbasbasbasbasbasbasbag57
(g73
g59
NtRp1907
(dp1908
g62
(dp1909
sg71
g1417
sg64
(lp1910
g57
(g78
g59
NtRp1911
(dp1912
g62
(dp1913
g82
g83
ssg71
g1907
sg64
(lp1914
S'path_info'
p1915
asbag57
(g78
g59
NtRp1916
(dp1917
g62
(dp1918
g89
g90
ssg71
g1907
sg64
(lp1919
S':'
asbag57
(g78
g59
NtRp1920
(dp1921
g62
(dp1922
sg71
g1907
sg64
(lp1923
g57
(g58
g59
NtRp1924
(dp1925
g62
(dp1926
g70
I4
ssg71
g1920
sg64
(lp1927
S'/BuySell/default/seller/2'
p1928
asbasbasbag57
(g73
g59
NtRp1929
(dp1930
g62
(dp1931
sg71
g1417
sg64
(lp1932
g57
(g78
g59
NtRp1933
(dp1934
g62
(dp1935
g82
g83
ssg71
g1929
sg64
(lp1936
S'query_string'
p1937
asbag57
(g78
g59
NtRp1938
(dp1939
g62
(dp1940
g89
g90
ssg71
g1929
sg64
(lp1941
S':'
asbag57
(g78
g59
NtRp1942
(dp1943
g62
(dp1944
sg71
g1929
sg64
(lp1945
g57
(g58
g59
NtRp1946
(dp1947
g62
(dp1948
g70
I4
ssg71
g1942
sg64
(lp1949
S''
asbasbasbag57
(g73
g59
NtRp1950
(dp1951
g62
(dp1952
sg71
g1417
sg64
(lp1953
g57
(g78
g59
NtRp1954
(dp1955
g62
(dp1956
g82
g83
ssg71
g1950
sg64
(lp1957
S'remote_addr'
p1958
asbag57
(g78
g59
NtRp1959
(dp1960
g62
(dp1961
g89
g90
ssg71
g1950
sg64
(lp1962
S':'
asbag57
(g78
g59
NtRp1963
(dp1964
g62
(dp1965
sg71
g1950
sg64
(lp1966
g57
(g58
g59
NtRp1967
(dp1968
g62
(dp1969
g70
I4
ssg71
g1963
sg64
(lp1970
g224
asbasbasbag57
(g73
g59
NtRp1971
(dp1972
g62
(dp1973
sg71
g1417
sg64
(lp1974
g57
(g78
g59
NtRp1975
(dp1976
g62
(dp1977
g82
g83
ssg71
g1971
sg64
(lp1978
S'remote_port'
p1979
asbag57
(g78
g59
NtRp1980
(dp1981
g62
(dp1982
g89
g90
ssg71
g1971
sg64
(lp1983
S':'
asbag57
(g78
g59
NtRp1984
(dp1985
g62
(dp1986
sg71
g1971
sg64
(lp1987
g57
(g58
g59
NtRp1988
(dp1989
g62
(dp1990
g70
I4
ssg71
g1984
sg64
(lp1991
S'37095'
p1992
asbasbasbag57
(g73
g59
NtRp1993
(dp1994
g62
(dp1995
sg71
g1417
sg64
(lp1996
g57
(g78
g59
NtRp1997
(dp1998
g62
(dp1999
g82
g83
ssg71
g1993
sg64
(lp2000
S'request_method'
p2001
asbag57
(g78
g59
NtRp2002
(dp2003
g62
(dp2004
g89
g90
ssg71
g1993
sg64
(lp2005
S':'
asbag57
(g78
g59
NtRp2006
(dp2007
g62
(dp2008
sg71
g1993
sg64
(lp2009
g57
(g58
g59
NtRp2010
(dp2011
g62
(dp2012
g70
I4
ssg71
g2006
sg64
(lp2013
S'GET'
p2014
asbasbasbag57
(g73
g59
NtRp2015
(dp2016
g62
(dp2017
sg71
g1417
sg64
(lp2018
g57
(g78
g59
NtRp2019
(dp2020
g62
(dp2021
g82
g83
ssg71
g2015
sg64
(lp2022
S'request_uri'
p2023
asbag57
(g78
g59
NtRp2024
(dp2025
g62
(dp2026
g89
g90
ssg71
g2015
sg64
(lp2027
S':'
asbag57
(g78
g59
NtRp2028
(dp2029
g62
(dp2030
sg71
g2015
sg64
(lp2031
g57
(g58
g59
NtRp2032
(dp2033
g62
(dp2034
g70
I4
ssg71
g2028
sg64
(lp2035
g1928
asbasbasbag57
(g73
g59
NtRp2036
(dp2037
g62
(dp2038
sg71
g1417
sg64
(lp2039
g57
(g78
g59
NtRp2040
(dp2041
g62
(dp2042
g82
g83
ssg71
g2036
sg64
(lp2043
S'script_name'
p2044
asbag57
(g78
g59
NtRp2045
(dp2046
g62
(dp2047
g89
g90
ssg71
g2036
sg64
(lp2048
S':'
asbag57
(g78
g59
NtRp2049
(dp2050
g62
(dp2051
sg71
g2036
sg64
(lp2052
g57
(g58
g59
NtRp2053
(dp2054
g62
(dp2055
g70
I4
ssg71
g2049
sg64
(lp2056
S''
asbasbasbag57
(g73
g59
NtRp2057
(dp2058
g62
(dp2059
sg71
g1417
sg64
(lp2060
g57
(g78
g59
NtRp2061
(dp2062
g62
(dp2063
g82
g83
ssg71
g2057
sg64
(lp2064
S'server_name'
p2065
asbag57
(g78
g59
NtRp2066
(dp2067
g62
(dp2068
g89
g90
ssg71
g2057
sg64
(lp2069
S':'
asbag57
(g78
g59
NtRp2070
(dp2071
g62
(dp2072
sg71
g2057
sg64
(lp2073
g57
(g58
g59
NtRp2074
(dp2075
g62
(dp2076
g70
I4
ssg71
g2070
sg64
(lp2077
S'alanzak'
p2078
asbasbasbag57
(g73
g59
NtRp2079
(dp2080
g62
(dp2081
sg71
g1417
sg64
(lp2082
g57
(g78
g59
NtRp2083
(dp2084
g62
(dp2085
g82
g83
ssg71
g2079
sg64
(lp2086
S'server_port'
p2087
asbag57
(g78
g59
NtRp2088
(dp2089
g62
(dp2090
g89
g90
ssg71
g2079
sg64
(lp2091
S':'
asbag57
(g78
g59
NtRp2092
(dp2093
g62
(dp2094
sg71
g2079
sg64
(lp2095
g57
(g58
g59
NtRp2096
(dp2097
g62
(dp2098
g70
I4
ssg71
g2092
sg64
(lp2099
S'8001'
p2100
asbasbasbag57
(g73
g59
NtRp2101
(dp2102
g62
(dp2103
sg71
g1417
sg64
(lp2104
g57
(g78
g59
NtRp2105
(dp2106
g62
(dp2107
g82
g83
ssg71
g2101
sg64
(lp2108
S'server_protocol'
p2109
asbag57
(g78
g59
NtRp2110
(dp2111
g62
(dp2112
g89
g90
ssg71
g2101
sg64
(lp2113
S':'
asbag57
(g78
g59
NtRp2114
(dp2115
g62
(dp2116
sg71
g2101
sg64
(lp2117
g57
(g58
g59
NtRp2118
(dp2119
g62
(dp2120
g70
I4
ssg71
g2114
sg64
(lp2121
S'HTTP/1.1'
p2122
asbasbasbag57
(g73
g59
NtRp2123
(dp2124
g62
(dp2125
sg71
g1417
sg64
(lp2126
g57
(g78
g59
NtRp2127
(dp2128
g62
(dp2129
g82
g83
ssg71
g2123
sg64
(lp2130
S'server_software'
p2131
asbag57
(g78
g59
NtRp2132
(dp2133
g62
(dp2134
g89
g90
ssg71
g2123
sg64
(lp2135
S':'
asbag57
(g78
g59
NtRp2136
(dp2137
g62
(dp2138
sg71
g2123
sg64
(lp2139
g57
(g58
g59
NtRp2140
(dp2141
g62
(dp2142
g70
I4
ssg71
g2136
sg64
(lp2143
S'Rocket 1.2.6'
p2144
asbasbasbag57
(g73
g59
NtRp2145
(dp2146
g62
(dp2147
sg71
g1417
sg64
(lp2148
g57
(g78
g59
NtRp2149
(dp2150
g62
(dp2151
g82
g83
ssg71
g2145
sg64
(lp2152
S'web2py_path'
p2153
asbag57
(g78
g59
NtRp2154
(dp2155
g62
(dp2156
g89
g90
ssg71
g2145
sg64
(lp2157
S':'
asbag57
(g78
g59
NtRp2158
(dp2159
g62
(dp2160
sg71
g2145
sg64
(lp2161
g57
(g58
g59
NtRp2162
(dp2163
g62
(dp2164
g70
I4
ssg71
g2158
sg64
(lp2165
g1464
asbasbasbag57
(g73
g59
NtRp2166
(dp2167
g62
(dp2168
sg71
g1417
sg64
(lp2169
g57
(g78
g59
NtRp2170
(dp2171
g62
(dp2172
g82
g83
ssg71
g2166
sg64
(lp2173
S'web2py_version'
p2174
asbag57
(g78
g59
NtRp2175
(dp2176
g62
(dp2177
g89
g90
ssg71
g2166
sg64
(lp2178
S':'
asbag57
(g78
g59
NtRp2179
(dp2180
g62
(dp2181
sg71
g2166
sg64
(lp2182
g57
(g58
g59
NtRp2183
(dp2184
g62
(dp2185
g70
I4
ssg71
g2179
sg64
(lp2186
g57
(g66
g59
NtRp2187
(dp2188
g62
(dp2189
g70
I3
ssg71
Nsg64
(lp2190
g57
(g73
g59
NtRp2191
(dp2192
g62
(dp2193
sg71
g2187
sg64
(lp2194
g57
(g78
g59
NtRp2195
(dp2196
g62
(dp2197
sg71
g2191
sg64
(lp2198
g57
(g58
g59
NtRp2199
(dp2200
g62
(dp2201
g70
I3
ssg71
g2195
sg64
(lp2202
S'2'
asbasbasbag57
(g73
g59
NtRp2203
(dp2204
g62
(dp2205
sg71
g2187
sg64
(lp2206
g57
(g78
g59
NtRp2207
(dp2208
g62
(dp2209
sg71
g2203
sg64
(lp2210
g57
(g58
g59
NtRp2211
(dp2212
g62
(dp2213
g70
I3
ssg71
g2207
sg64
(lp2214
S'3'
asbasbasbag57
(g73
g59
NtRp2215
(dp2216
g62
(dp2217
sg71
g2187
sg64
(lp2218
g57
(g78
g59
NtRp2219
(dp2220
g62
(dp2221
sg71
g2215
sg64
(lp2222
g57
(g58
g59
NtRp2223
(dp2224
g62
(dp2225
g70
I3
ssg71
g2219
sg64
(lp2226
S'2'
asbasbasbag57
(g73
g59
NtRp2227
(dp2228
g62
(dp2229
sg71
g2187
sg64
(lp2230
g57
(g78
g59
NtRp2231
(dp2232
g62
(dp2233
sg71
g2227
sg64
(lp2234
g57
(g58
g59
NtRp2235
(dp2236
g62
(dp2237
g70
I3
ssg71
g2231
sg64
(lp2238
S'datetime.datetime(2012, 12, 17, 15, 3, 30)'
p2239
asbasbasbag57
(g73
g59
NtRp2240
(dp2241
g62
(dp2242
sg71
g2187
sg64
(lp2243
g57
(g78
g59
NtRp2244
(dp2245
g62
(dp2246
sg71
g2240
sg64
(lp2247
g57
(g58
g59
NtRp2248
(dp2249
g62
(dp2250
g70
I3
ssg71
g2244
sg64
(lp2251
S'stable'
p2252
asbasbasbasbasbasbasbag57
(g73
g59
NtRp2253
(dp2254
g62
(dp2255
sg71
g1417
sg64
(lp2256
g57
(g78
g59
NtRp2257
(dp2258
g62
(dp2259
g82
g83
ssg71
g2253
sg64
(lp2260
S'wsgi_errors'
p2261
asbag57
(g78
g59
NtRp2262
(dp2263
g62
(dp2264
g89
g90
ssg71
g2253
sg64
(lp2265
S':'
asbag57
(g78
g59
NtRp2266
(dp2267
g62
(dp2268
sg71
g2253
sg64
(lp2269
g57
(g58
g59
NtRp2270
(dp2271
g62
(dp2272
g70
I4
ssg71
g2266
sg64
(lp2273
S"<open file '<stderr>', mode 'w' at 0xb789e0d0>"
p2274
asbasbasbag57
(g73
g59
NtRp2275
(dp2276
g62
(dp2277
sg71
g1417
sg64
(lp2278
g57
(g78
g59
NtRp2279
(dp2280
g62
(dp2281
g82
g83
ssg71
g2275
sg64
(lp2282
S'wsgi_file_wrapper'
p2283
asbag57
(g78
g59
NtRp2284
(dp2285
g62
(dp2286
g89
g90
ssg71
g2275
sg64
(lp2287
S':'
asbag57
(g78
g59
NtRp2288
(dp2289
g62
(dp2290
sg71
g2275
sg64
(lp2291
g57
(g58
g59
NtRp2292
(dp2293
g62
(dp2294
g70
I4
ssg71
g2288
sg64
(lp2295
S'<class wsgiref.util.FileWrapper at 0xa4afddc>'
p2296
asbasbasbag57
(g73
g59
NtRp2297
(dp2298
g62
(dp2299
sg71
g1417
sg64
(lp2300
g57
(g78
g59
NtRp2301
(dp2302
g62
(dp2303
g82
g83
ssg71
g2297
sg64
(lp2304
S'wsgi_input'
p2305
asbag57
(g78
g59
NtRp2306
(dp2307
g62
(dp2308
g89
g90
ssg71
g2297
sg64
(lp2309
S':'
asbag57
(g78
g59
NtRp2310
(dp2311
g62
(dp2312
sg71
g2297
sg64
(lp2313
g57
(g58
g59
NtRp2314
(dp2315
g62
(dp2316
g70
I4
ssg71
g2310
sg64
(lp2317
S'<socket._fileobject object at 0xb57dcac>'
p2318
asbasbasbag57
(g73
g59
NtRp2319
(dp2320
g62
(dp2321
sg71
g1417
sg64
(lp2322
g57
(g78
g59
NtRp2323
(dp2324
g62
(dp2325
g82
g83
ssg71
g2319
sg64
(lp2326
S'wsgi_multiprocess'
p2327
asbag57
(g78
g59
NtRp2328
(dp2329
g62
(dp2330
g89
g90
ssg71
g2319
sg64
(lp2331
S':'
asbag57
(g78
g59
NtRp2332
(dp2333
g62
(dp2334
sg71
g2319
sg64
(lp2335
g57
(g58
g59
NtRp2336
(dp2337
g62
(dp2338
g70
I4
ssg71
g2332
sg64
(lp2339
g100
asbasbasbag57
(g73
g59
NtRp2340
(dp2341
g62
(dp2342
sg71
g1417
sg64
(lp2343
g57
(g78
g59
NtRp2344
(dp2345
g62
(dp2346
g82
g83
ssg71
g2340
sg64
(lp2347
S'wsgi_multithread'
p2348
asbag57
(g78
g59
NtRp2349
(dp2350
g62
(dp2351
g89
g90
ssg71
g2340
sg64
(lp2352
S':'
asbag57
(g78
g59
NtRp2353
(dp2354
g62
(dp2355
sg71
g2340
sg64
(lp2356
g57
(g58
g59
NtRp2357
(dp2358
g62
(dp2359
g70
I4
ssg71
g2353
sg64
(lp2360
S'True'
p2361
asbasbasbag57
(g73
g59
NtRp2362
(dp2363
g62
(dp2364
sg71
g1417
sg64
(lp2365
g57
(g78
g59
NtRp2366
(dp2367
g62
(dp2368
g82
g83
ssg71
g2362
sg64
(lp2369
S'wsgi_run_once'
p2370
asbag57
(g78
g59
NtRp2371
(dp2372
g62
(dp2373
g89
g90
ssg71
g2362
sg64
(lp2374
S':'
asbag57
(g78
g59
NtRp2375
(dp2376
g62
(dp2377
sg71
g2362
sg64
(lp2378
g57
(g58
g59
NtRp2379
(dp2380
g62
(dp2381
g70
I4
ssg71
g2375
sg64
(lp2382
g100
asbasbasbag57
(g73
g59
NtRp2383
(dp2384
g62
(dp2385
sg71
g1417
sg64
(lp2386
g57
(g78
g59
NtRp2387
(dp2388
g62
(dp2389
g82
g83
ssg71
g2383
sg64
(lp2390
S'wsgi_url_scheme'
p2391
asbag57
(g78
g59
NtRp2392
(dp2393
g62
(dp2394
g89
g90
ssg71
g2383
sg64
(lp2395
S':'
asbag57
(g78
g59
NtRp2396
(dp2397
g62
(dp2398
sg71
g2383
sg64
(lp2399
g57
(g58
g59
NtRp2400
(dp2401
g62
(dp2402
g70
I4
ssg71
g2396
sg64
(lp2403
S'http'
p2404
asbasbasbag57
(g73
g59
NtRp2405
(dp2406
g62
(dp2407
sg71
g1417
sg64
(lp2408
g57
(g78
g59
NtRp2409
(dp2410
g62
(dp2411
g82
g83
ssg71
g2405
sg64
(lp2412
S'wsgi_version'
p2413
asbag57
(g78
g59
NtRp2414
(dp2415
g62
(dp2416
g89
g90
ssg71
g2405
sg64
(lp2417
S':'
asbag57
(g78
g59
NtRp2418
(dp2419
g62
(dp2420
sg71
g2405
sg64
(lp2421
g57
(g58
g59
NtRp2422
(dp2423
g62
(dp2424
g70
I4
ssg71
g2418
sg64
(lp2425
g57
(g66
g59
NtRp2426
(dp2427
g62
(dp2428
g70
I3
ssg71
Nsg64
(lp2429
g57
(g73
g59
NtRp2430
(dp2431
g62
(dp2432
sg71
g2426
sg64
(lp2433
g57
(g78
g59
NtRp2434
(dp2435
g62
(dp2436
sg71
g2430
sg64
(lp2437
g57
(g58
g59
NtRp2438
(dp2439
g62
(dp2440
g70
I3
ssg71
g2434
sg64
(lp2441
S'1'
asbasbasbag57
(g73
g59
NtRp2442
(dp2443
g62
(dp2444
sg71
g2426
sg64
(lp2445
g57
(g78
g59
NtRp2446
(dp2447
g62
(dp2448
sg71
g2442
sg64
(lp2449
g57
(g58
g59
NtRp2450
(dp2451
g62
(dp2452
g70
I3
ssg71
g2446
sg64
(lp2453
S'0'
asbasbasbasbasbasbasbasbasbasbasbag57
(g73
g59
NtRp2454
(dp2455
g62
(dp2456
sg71
g67
sg64
(lp2457
g57
(g78
g59
NtRp2458
(dp2459
g62
(dp2460
g82
g83
ssg71
g2454
sg64
(lp2461
S'extension'
p2462
asbag57
(g78
g59
NtRp2463
(dp2464
g62
(dp2465
g89
g90
ssg71
g2454
sg64
(lp2466
S':'
asbag57
(g78
g59
NtRp2467
(dp2468
g62
(dp2469
sg71
g2454
sg64
(lp2470
g57
(g58
g59
NtRp2471
(dp2472
g62
(dp2473
g70
I5
ssg71
g2467
sg64
(lp2474
S'html'
p2475
asbasbasbag57
(g73
g59
NtRp2476
(dp2477
g62
(dp2478
sg71
g67
sg64
(lp2479
g57
(g78
g59
NtRp2480
(dp2481
g62
(dp2482
g82
g83
ssg71
g2476
sg64
(lp2483
S'folder'
p2484
asbag57
(g78
g59
NtRp2485
(dp2486
g62
(dp2487
g89
g90
ssg71
g2476
sg64
(lp2488
S':'
asbag57
(g78
g59
NtRp2489
(dp2490
g62
(dp2491
sg71
g2476
sg64
(lp2492
g57
(g58
g59
NtRp2493
(dp2494
g62
(dp2495
g70
I5
ssg71
g2489
sg64
(lp2496
S'/home/pratyush/web2py/applications/BuySell/'
p2497
asbasbasbag57
(g73
g59
NtRp2498
(dp2499
g62
(dp2500
sg71
g67
sg64
(lp2501
g57
(g78
g59
NtRp2502
(dp2503
g62
(dp2504
g82
g83
ssg71
g2498
sg64
(lp2505
S'function'
p2506
asbag57
(g78
g59
NtRp2507
(dp2508
g62
(dp2509
g89
g90
ssg71
g2498
sg64
(lp2510
S':'
asbag57
(g78
g59
NtRp2511
(dp2512
g62
(dp2513
sg71
g2498
sg64
(lp2514
g57
(g58
g59
NtRp2515
(dp2516
g62
(dp2517
g70
I5
ssg71
g2511
sg64
(lp2518
S'seller'
p2519
asbasbasbag57
(g73
g59
NtRp2520
(dp2521
g62
(dp2522
sg71
g67
sg64
(lp2523
g57
(g78
g59
NtRp2524
(dp2525
g62
(dp2526
g82
g83
ssg71
g2520
sg64
(lp2527
S'get_vars'
p2528
asbag57
(g78
g59
NtRp2529
(dp2530
g62
(dp2531
g89
g90
ssg71
g2520
sg64
(lp2532
S':'
asbag57
(g78
g59
NtRp2533
(dp2534
g62
(dp2535
sg71
g2520
sg64
(lp2536
g57
(g58
g59
NtRp2537
(dp2538
g62
(dp2539
g70
I5
ssg71
g2533
sg64
(lp2540
g57
(g66
g59
NtRp2541
(dp2542
g62
(dp2543
g70
I4
ssg71
Nsg64
(lp2544
sbasbasbasbag57
(g73
g59
NtRp2545
(dp2546
g62
(dp2547
sg71
g67
sg64
(lp2548
g57
(g78
g59
NtRp2549
(dp2550
g62
(dp2551
g82
g83
ssg71
g2545
sg64
(lp2552
S'global_settings'
p2553
asbag57
(g78
g59
NtRp2554
(dp2555
g62
(dp2556
g89
g90
ssg71
g2545
sg64
(lp2557
S':'
asbag57
(g78
g59
NtRp2558
(dp2559
g62
(dp2560
sg71
g2545
sg64
(lp2561
g57
(g58
g59
NtRp2562
(dp2563
g62
(dp2564
g70
I5
ssg71
g2558
sg64
(lp2565
g57
(g66
g59
NtRp2566
(dp2567
g62
(dp2568
g70
I4
ssg71
Nsg64
(lp2569
g57
(g73
g59
NtRp2570
(dp2571
g62
(dp2572
sg71
g2566
sg64
(lp2573
g57
(g78
g59
NtRp2574
(dp2575
g62
(dp2576
g82
g83
ssg71
g2570
sg64
(lp2577
g1429
asbag57
(g78
g59
NtRp2578
(dp2579
g62
(dp2580
g89
g90
ssg71
g2570
sg64
(lp2581
S':'
asbag57
(g78
g59
NtRp2582
(dp2583
g62
(dp2584
sg71
g2570
sg64
(lp2585
g57
(g58
g59
NtRp2586
(dp2587
g62
(dp2588
g70
I4
ssg71
g2582
sg64
(lp2589
S"set(['/home/pratyush/web2py/applications/db_project/', '/home/pratyush/web2py/applications/outreach/', '/home/pratyush/web2py/applications/welcome/', '/home/pratyush/web2py/applications/music_library/', '/home/pratyush/web2py/applications/examples/', '/home/pratyush/web2py/applications/BuySell/', '/home/pratyush/web2py/applications/admin/'])"
p2590
asbasbasbag57
(g73
g59
NtRp2591
(dp2592
g62
(dp2593
sg71
g2566
sg64
(lp2594
g57
(g78
g59
NtRp2595
(dp2596
g62
(dp2597
g82
g83
ssg71
g2591
sg64
(lp2598
g1451
asbag57
(g78
g59
NtRp2599
(dp2600
g62
(dp2601
g89
g90
ssg71
g2591
sg64
(lp2602
S':'
asbag57
(g78
g59
NtRp2603
(dp2604
g62
(dp2605
sg71
g2591
sg64
(lp2606
g57
(g58
g59
NtRp2607
(dp2608
g62
(dp2609
g70
I4
ssg71
g2603
sg64
(lp2610
g1464
asbasbasbag57
(g73
g59
NtRp2611
(dp2612
g62
(dp2613
sg71
g2566
sg64
(lp2614
g57
(g78
g59
NtRp2615
(dp2616
g62
(dp2617
g82
g83
ssg71
g2611
sg64
(lp2618
g1473
asbag57
(g78
g59
NtRp2619
(dp2620
g62
(dp2621
g89
g90
ssg71
g2611
sg64
(lp2622
S':'
asbag57
(g78
g59
NtRp2623
(dp2624
g62
(dp2625
sg71
g2611
sg64
(lp2626
g57
(g58
g59
NtRp2627
(dp2628
g62
(dp2629
g70
I4
ssg71
g2623
sg64
(lp2630
g57
(g66
g59
NtRp2631
(dp2632
g62
(dp2633
g70
I3
ssg71
Nsg64
(lp2634
sbasbasbasbag57
(g73
g59
NtRp2635
(dp2636
g62
(dp2637
sg71
g2566
sg64
(lp2638
g57
(g78
g59
NtRp2639
(dp2640
g62
(dp2641
g82
g83
ssg71
g2635
sg64
(lp2642
g1498
asbag57
(g78
g59
NtRp2643
(dp2644
g62
(dp2645
g89
g90
ssg71
g2635
sg64
(lp2646
S':'
asbag57
(g78
g59
NtRp2647
(dp2648
g62
(dp2649
sg71
g2635
sg64
(lp2650
g57
(g58
g59
NtRp2651
(dp2652
g62
(dp2653
g70
I4
ssg71
g2647
sg64
(lp2654
S"<Values at 0xa526b0c: {'verbose': False, 'ip': '127.0.0.1', 'with_scheduler': False, 'ips': [], 'shutdown_timeout': 5, 'taskbar': False, 'port': 8001, 'maxthreads': None, 'softcron': False, 'server_name': 'alanzak', 'bpython': False, 'nogui': False, 'pid_filename': 'httpserver.pid', 'extcron': False, 'runcron': False, 'run_system_tests': False, 'test': None, 'folder': '/home/pratyush/web2py', 'config': '', 'import_models': False, 'winservice': '', 'shell': None, 'run': '', 'log_filename': 'httpserver.log', 'debuglevel': 30, 'args': [''], 'socket_timeout': 5, 'ssl_ca_certificate': None, 'scheduler': None, 'profiler_filename': None, 'ssl_private_key': '', 'scheduler_groups': None, 'password': '1', 'request_queue_size': 5, 'ssl_certificate': '', 'cronjob': False, 'numthreads': None, 'quiet': False, 'interfaces': None, 'minthreads': None, 'timeout': 10, 'plain': False, 'nobanner': False}>"
p2655
asbasbasbag57
(g73
g59
NtRp2656
(dp2657
g62
(dp2658
sg71
g2566
sg64
(lp2659
g57
(g78
g59
NtRp2660
(dp2661
g62
(dp2662
g82
g83
ssg71
g2656
sg64
(lp2663
g1520
asbag57
(g78
g59
NtRp2664
(dp2665
g62
(dp2666
g89
g90
ssg71
g2656
sg64
(lp2667
S':'
asbag57
(g78
g59
NtRp2668
(dp2669
g62
(dp2670
sg71
g2656
sg64
(lp2671
g57
(g58
g59
NtRp2672
(dp2673
g62
(dp2674
g70
I4
ssg71
g2668
sg64
(lp2675
S'set([])'
p2676
asbasbasbag57
(g73
g59
NtRp2677
(dp2678
g62
(dp2679
sg71
g2566
sg64
(lp2680
g57
(g78
g59
NtRp2681
(dp2682
g62
(dp2683
g82
g83
ssg71
g2677
sg64
(lp2684
g1542
asbag57
(g78
g59
NtRp2685
(dp2686
g62
(dp2687
g89
g90
ssg71
g2677
sg64
(lp2688
S':'
asbag57
(g78
g59
NtRp2689
(dp2690
g62
(dp2691
sg71
g2677
sg64
(lp2692
g57
(g58
g59
NtRp2693
(dp2694
g62
(dp2695
g70
I4
ssg71
g2689
sg64
(lp2696
g100
asbasbasbag57
(g73
g59
NtRp2697
(dp2698
g62
(dp2699
sg71
g2566
sg64
(lp2700
g57
(g78
g59
NtRp2701
(dp2702
g62
(dp2703
g82
g83
ssg71
g2697
sg64
(lp2704
g1563
asbag57
(g78
g59
NtRp2705
(dp2706
g62
(dp2707
g89
g90
ssg71
g2697
sg64
(lp2708
S':'
asbag57
(g78
g59
NtRp2709
(dp2710
g62
(dp2711
sg71
g2697
sg64
(lp2712
g57
(g58
g59
NtRp2713
(dp2714
g62
(dp2715
g70
I4
ssg71
g2709
sg64
(lp2716
g1576
asbasbasbag57
(g73
g59
NtRp2717
(dp2718
g62
(dp2719
sg71
g2566
sg64
(lp2720
g57
(g78
g59
NtRp2721
(dp2722
g62
(dp2723
g82
g83
ssg71
g2717
sg64
(lp2724
g1783
asbag57
(g78
g59
NtRp2725
(dp2726
g62
(dp2727
g89
g90
ssg71
g2717
sg64
(lp2728
S':'
asbag57
(g78
g59
NtRp2729
(dp2730
g62
(dp2731
sg71
g2717
sg64
(lp2732
g57
(g58
g59
NtRp2733
(dp2734
g62
(dp2735
g70
I4
ssg71
g2729
sg64
(lp2736
g100
asbasbasbag57
(g73
g59
NtRp2737
(dp2738
g62
(dp2739
sg71
g2566
sg64
(lp2740
g57
(g78
g59
NtRp2741
(dp2742
g62
(dp2743
g82
g83
ssg71
g2737
sg64
(lp2744
g1804
asbag57
(g78
g59
NtRp2745
(dp2746
g62
(dp2747
g89
g90
ssg71
g2737
sg64
(lp2748
S':'
asbag57
(g78
g59
NtRp2749
(dp2750
g62
(dp2751
sg71
g2737
sg64
(lp2752
g57
(g58
g59
NtRp2753
(dp2754
g62
(dp2755
g70
I4
ssg71
g2749
sg64
(lp2756
g100
asbasbasbag57
(g73
g59
NtRp2757
(dp2758
g62
(dp2759
sg71
g2566
sg64
(lp2760
g57
(g78
g59
NtRp2761
(dp2762
g62
(dp2763
g82
g83
ssg71
g2757
sg64
(lp2764
g1825
asbag57
(g78
g59
NtRp2765
(dp2766
g62
(dp2767
g89
g90
ssg71
g2757
sg64
(lp2768
S':'
asbag57
(g78
g59
NtRp2769
(dp2770
g62
(dp2771
sg71
g2757
sg64
(lp2772
g57
(g58
g59
NtRp2773
(dp2774
g62
(dp2775
g70
I4
ssg71
g2769
sg64
(lp2776
g57
(g66
g59
NtRp2777
(dp2778
g62
(dp2779
g70
I3
ssg71
Nsg64
(lp2780
g57
(g73
g59
NtRp2781
(dp2782
g62
(dp2783
sg71
g2777
sg64
(lp2784
g57
(g78
g59
NtRp2785
(dp2786
g62
(dp2787
sg71
g2781
sg64
(lp2788
g57
(g58
g59
NtRp2789
(dp2790
g62
(dp2791
g70
I3
ssg71
g2785
sg64
(lp2792
g1854
asbasbasbag57
(g73
g59
NtRp2793
(dp2794
g62
(dp2795
sg71
g2777
sg64
(lp2796
g57
(g78
g59
NtRp2797
(dp2798
g62
(dp2799
sg71
g2793
sg64
(lp2800
g57
(g58
g59
NtRp2801
(dp2802
g62
(dp2803
g70
I3
ssg71
g2797
sg64
(lp2804
g1867
asbasbasbag57
(g73
g59
NtRp2805
(dp2806
g62
(dp2807
sg71
g2777
sg64
(lp2808
g57
(g78
g59
NtRp2809
(dp2810
g62
(dp2811
sg71
g2805
sg64
(lp2812
g57
(g58
g59
NtRp2813
(dp2814
g62
(dp2815
g70
I3
ssg71
g2809
sg64
(lp2816
g1880
asbasbasbag57
(g73
g59
NtRp2817
(dp2818
g62
(dp2819
sg71
g2777
sg64
(lp2820
g57
(g78
g59
NtRp2821
(dp2822
g62
(dp2823
sg71
g2817
sg64
(lp2824
g57
(g58
g59
NtRp2825
(dp2826
g62
(dp2827
g70
I3
ssg71
g2821
sg64
(lp2828
g1893
asbasbasbag57
(g73
g59
NtRp2829
(dp2830
g62
(dp2831
sg71
g2777
sg64
(lp2832
g57
(g78
g59
NtRp2833
(dp2834
g62
(dp2835
sg71
g2829
sg64
(lp2836
g57
(g58
g59
NtRp2837
(dp2838
g62
(dp2839
g70
I3
ssg71
g2833
sg64
(lp2840
g1906
asbasbasbasbasbasbasbag57
(g73
g59
NtRp2841
(dp2842
g62
(dp2843
sg71
g2566
sg64
(lp2844
g57
(g78
g59
NtRp2845
(dp2846
g62
(dp2847
g82
g83
ssg71
g2841
sg64
(lp2848
g2174
asbag57
(g78
g59
NtRp2849
(dp2850
g62
(dp2851
g89
g90
ssg71
g2841
sg64
(lp2852
S':'
asbag57
(g78
g59
NtRp2853
(dp2854
g62
(dp2855
sg71
g2841
sg64
(lp2856
g57
(g58
g59
NtRp2857
(dp2858
g62
(dp2859
g70
I4
ssg71
g2853
sg64
(lp2860
g57
(g66
g59
NtRp2861
(dp2862
g62
(dp2863
g70
I3
ssg71
Nsg64
(lp2864
g57
(g73
g59
NtRp2865
(dp2866
g62
(dp2867
sg71
g2861
sg64
(lp2868
g57
(g78
g59
NtRp2869
(dp2870
g62
(dp2871
sg71
g2865
sg64
(lp2872
g57
(g58
g59
NtRp2873
(dp2874
g62
(dp2875
g70
I3
ssg71
g2869
sg64
(lp2876
S'2'
asbasbasbag57
(g73
g59
NtRp2877
(dp2878
g62
(dp2879
sg71
g2861
sg64
(lp2880
g57
(g78
g59
NtRp2881
(dp2882
g62
(dp2883
sg71
g2877
sg64
(lp2884
g57
(g58
g59
NtRp2885
(dp2886
g62
(dp2887
g70
I3
ssg71
g2881
sg64
(lp2888
S'3'
asbasbasbag57
(g73
g59
NtRp2889
(dp2890
g62
(dp2891
sg71
g2861
sg64
(lp2892
g57
(g78
g59
NtRp2893
(dp2894
g62
(dp2895
sg71
g2889
sg64
(lp2896
g57
(g58
g59
NtRp2897
(dp2898
g62
(dp2899
g70
I3
ssg71
g2893
sg64
(lp2900
S'2'
asbasbasbag57
(g73
g59
NtRp2901
(dp2902
g62
(dp2903
sg71
g2861
sg64
(lp2904
g57
(g78
g59
NtRp2905
(dp2906
g62
(dp2907
sg71
g2901
sg64
(lp2908
g57
(g58
g59
NtRp2909
(dp2910
g62
(dp2911
g70
I3
ssg71
g2905
sg64
(lp2912
S'datetime.datetime(2012, 12, 17, 15, 3, 30)'
p2913
asbasbasbag57
(g73
g59
NtRp2914
(dp2915
g62
(dp2916
sg71
g2861
sg64
(lp2917
g57
(g78
g59
NtRp2918
(dp2919
g62
(dp2920
sg71
g2914
sg64
(lp2921
g57
(g58
g59
NtRp2922
(dp2923
g62
(dp2924
g70
I3
ssg71
g2918
sg64
(lp2925
g2252
asbasbasbasbasbasbasbasbasbasbasbag57
(g73
g59
NtRp2926
(dp2927
g62
(dp2928
sg71
g67
sg64
(lp2929
g57
(g78
g59
NtRp2930
(dp2931
g62
(dp2932
g82
g83
ssg71
g2926
sg64
(lp2933
S'is_https'
p2934
asbag57
(g78
g59
NtRp2935
(dp2936
g62
(dp2937
g89
g90
ssg71
g2926
sg64
(lp2938
S':'
asbag57
(g78
g59
NtRp2939
(dp2940
g62
(dp2941
sg71
g2926
sg64
(lp2942
g57
(g58
g59
NtRp2943
(dp2944
g62
(dp2945
g70
I5
ssg71
g2939
sg64
(lp2946
g100
asbasbasbag57
(g73
g59
NtRp2947
(dp2948
g62
(dp2949
sg71
g67
sg64
(lp2950
g57
(g78
g59
NtRp2951
(dp2952
g62
(dp2953
g82
g83
ssg71
g2947
sg64
(lp2954
S'is_local'
p2955
asbag57
(g78
g59
NtRp2956
(dp2957
g62
(dp2958
g89
g90
ssg71
g2947
sg64
(lp2959
S':'
asbag57
(g78
g59
NtRp2960
(dp2961
g62
(dp2962
sg71
g2947
sg64
(lp2963
g57
(g58
g59
NtRp2964
(dp2965
g62
(dp2966
g70
I5
ssg71
g2960
sg64
(lp2967
g2361
asbasbasbag57
(g73
g59
NtRp2968
(dp2969
g62
(dp2970
sg71
g67
sg64
(lp2971
g57
(g78
g59
NtRp2972
(dp2973
g62
(dp2974
g82
g83
ssg71
g2968
sg64
(lp2975
S'is_restful'
p2976
asbag57
(g78
g59
NtRp2977
(dp2978
g62
(dp2979
g89
g90
ssg71
g2968
sg64
(lp2980
S':'
asbag57
(g78
g59
NtRp2981
(dp2982
g62
(dp2983
sg71
g2968
sg64
(lp2984
g57
(g58
g59
NtRp2985
(dp2986
g62
(dp2987
g70
I5
ssg71
g2981
sg64
(lp2988
g100
asbasbasbag57
(g73
g59
NtRp2989
(dp2990
g62
(dp2991
sg71
g67
sg64
(lp2992
g57
(g78
g59
NtRp2993
(dp2994
g62
(dp2995
g82
g83
ssg71
g2989
sg64
(lp2996
S'now'
p2997
asbag57
(g78
g59
NtRp2998
(dp2999
g62
(dp3000
g89
g90
ssg71
g2989
sg64
(lp3001
S':'
asbag57
(g78
g59
NtRp3002
(dp3003
g62
(dp3004
sg71
g2989
sg64
(lp3005
g57
(g58
g59
NtRp3006
(dp3007
g62
(dp3008
g70
I5
ssg71
g3002
sg64
(lp3009
S'datetime.datetime(2013, 4, 22, 15, 34, 0, 137191)'
p3010
asbasbasbag57
(g73
g59
NtRp3011
(dp3012
g62
(dp3013
sg71
g67
sg64
(lp3014
g57
(g78
g59
NtRp3015
(dp3016
g62
(dp3017
g82
g83
ssg71
g3011
sg64
(lp3018
S'post_vars'
p3019
asbag57
(g78
g59
NtRp3020
(dp3021
g62
(dp3022
g89
g90
ssg71
g3011
sg64
(lp3023
S':'
asbag57
(g78
g59
NtRp3024
(dp3025
g62
(dp3026
sg71
g3011
sg64
(lp3027
g57
(g58
g59
NtRp3028
(dp3029
g62
(dp3030
g70
I5
ssg71
g3024
sg64
(lp3031
g57
(g66
g59
NtRp3032
(dp3033
g62
(dp3034
g70
I4
ssg71
Nsg64
(lp3035
sbasbasbasbag57
(g73
g59
NtRp3036
(dp3037
g62
(dp3038
sg71
g67
sg64
(lp3039
g57
(g78
g59
NtRp3040
(dp3041
g62
(dp3042
g82
g83
ssg71
g3036
sg64
(lp3043
S'raw_args'
p3044
asbag57
(g78
g59
NtRp3045
(dp3046
g62
(dp3047
g89
g90
ssg71
g3036
sg64
(lp3048
S':'
asbag57
(g78
g59
NtRp3049
(dp3050
g62
(dp3051
sg71
g3036
sg64
(lp3052
g57
(g58
g59
NtRp3053
(dp3054
g62
(dp3055
g70
I5
ssg71
g3049
sg64
(lp3056
S'2'
asbasbasbag57
(g73
g59
NtRp3057
(dp3058
g62
(dp3059
sg71
g67
sg64
(lp3060
g57
(g78
g59
NtRp3061
(dp3062
g62
(dp3063
g82
g83
ssg71
g3057
sg64
(lp3064
S'raw_extension'
p3065
asbag57
(g78
g59
NtRp3066
(dp3067
g62
(dp3068
g89
g90
ssg71
g3057
sg64
(lp3069
S':'
asbag57
(g78
g59
NtRp3070
(dp3071
g62
(dp3072
sg71
g3057
sg64
(lp3073
g57
(g58
g59
NtRp3074
(dp3075
g62
(dp3076
g70
I5
ssg71
g3070
sg64
(lp3077
S'None'
p3078
asbasbasbag57
(g73
g59
NtRp3079
(dp3080
g62
(dp3081
sg71
g67
sg64
(lp3082
g57
(g78
g59
NtRp3083
(dp3084
g62
(dp3085
g82
g83
ssg71
g3079
sg64
(lp3086
S'url'
p3087
asbag57
(g78
g59
NtRp3088
(dp3089
g62
(dp3090
g89
g90
ssg71
g3079
sg64
(lp3091
S':'
asbag57
(g78
g59
NtRp3092
(dp3093
g62
(dp3094
sg71
g3079
sg64
(lp3095
g57
(g58
g59
NtRp3096
(dp3097
g62
(dp3098
g70
I5
ssg71
g3092
sg64
(lp3099
g1928
asbasbasbag57
(g73
g59
NtRp3100
(dp3101
g62
(dp3102
sg71
g67
sg64
(lp3103
g57
(g78
g59
NtRp3104
(dp3105
g62
(dp3106
g82
g83
ssg71
g3100
sg64
(lp3107
S'utcnow'
p3108
asbag57
(g78
g59
NtRp3109
(dp3110
g62
(dp3111
g89
g90
ssg71
g3100
sg64
(lp3112
S':'
asbag57
(g78
g59
NtRp3113
(dp3114
g62
(dp3115
sg71
g3100
sg64
(lp3116
g57
(g58
g59
NtRp3117
(dp3118
g62
(dp3119
g70
I5
ssg71
g3113
sg64
(lp3120
S'datetime.datetime(2013, 4, 22, 10, 4, 0, 137218)'
p3121
asbasbasbag57
(g73
g59
NtRp3122
(dp3123
g62
(dp3124
sg71
g67
sg64
(lp3125
g57
(g78
g59
NtRp3126
(dp3127
g62
(dp3128
g82
g83
ssg71
g3122
sg64
(lp3129
S'uuid'
p3130
asbag57
(g78
g59
NtRp3131
(dp3132
g62
(dp3133
g89
g90
ssg71
g3122
sg64
(lp3134
S':'
asbag57
(g78
g59
NtRp3135
(dp3136
g62
(dp3137
sg71
g3122
sg64
(lp3138
g57
(g58
g59
NtRp3139
(dp3140
g62
(dp3141
g70
I5
ssg71
g3135
sg64
(lp3142
S'BuySell/127.0.0.1.2013-04-22.15-34-00.c5e0b5d4-55ec-469b-89bf-4626a57b3b89'
p3143
asbasbasbag57
(g73
g59
NtRp3144
(dp3145
g62
(dp3146
sg71
g67
sg64
(lp3147
g57
(g78
g59
NtRp3148
(dp3149
g62
(dp3150
g82
g83
ssg71
g3144
sg64
(lp3151
S'vars'
p3152
asbag57
(g78
g59
NtRp3153
(dp3154
g62
(dp3155
g89
g90
ssg71
g3144
sg64
(lp3156
S':'
asbag57
(g78
g59
NtRp3157
(dp3158
g62
(dp3159
sg71
g3144
sg64
(lp3160
g57
(g58
g59
NtRp3161
(dp3162
g62
(dp3163
g70
I5
ssg71
g3157
sg64
(lp3164
g57
(g66
g59
NtRp3165
(dp3166
g62
(dp3167
g70
I4
ssg71
Nsg64
(lp3168
sbasbasbasbag57
(g73
g59
NtRp3169
(dp3170
g62
(dp3171
sg71
g67
sg64
(lp3172
g57
(g78
g59
NtRp3173
(dp3174
g62
(dp3175
g82
g83
ssg71
g3169
sg64
(lp3176
S'wsgi'
p3177
asbag57
(g78
g59
NtRp3178
(dp3179
g62
(dp3180
g89
g90
ssg71
g3169
sg64
(lp3181
S':'
asbag57
(g78
g59
NtRp3182
(dp3183
g62
(dp3184
sg71
g3169
sg64
(lp3185
g57
(g58
g59
NtRp3186
(dp3187
g62
(dp3188
g70
I5
ssg71
g3182
sg64
(lp3189
g57
(g66
g59
NtRp3190
(dp3191
g62
(dp3192
g70
I4
ssg71
Nsg64
(lp3193
g57
(g73
g59
NtRp3194
(dp3195
g62
(dp3196
sg71
g3190
sg64
(lp3197
g57
(g78
g59
NtRp3198
(dp3199
g62
(dp3200
g82
g83
ssg71
g3194
sg64
(lp3201
S'environ'
p3202
asbag57
(g78
g59
NtRp3203
(dp3204
g62
(dp3205
g89
g90
ssg71
g3194
sg64
(lp3206
S':'
asbag57
(g78
g59
NtRp3207
(dp3208
g62
(dp3209
sg71
g3194
sg64
(lp3210
g57
(g58
g59
NtRp3211
(dp3212
g62
(dp3213
g70
I4
ssg71
g3207
sg64
(lp3214
g57
(g66
g59
NtRp3215
(dp3216
g62
(dp3217
g70
I3
ssg71
Nsg64
(lp3218
g57
(g73
g59
NtRp3219
(dp3220
g62
(dp3221
sg71
g3215
sg64
(lp3222
g57
(g78
g59
NtRp3223
(dp3224
g62
(dp3225
g82
g83
ssg71
g3219
sg64
(lp3226
S'HTTP_ACCEPT'
p3227
asbag57
(g78
g59
NtRp3228
(dp3229
g62
(dp3230
g89
g90
ssg71
g3219
sg64
(lp3231
S':'
asbag57
(g78
g59
NtRp3232
(dp3233
g62
(dp3234
sg71
g3219
sg64
(lp3235
g57
(g58
g59
NtRp3236
(dp3237
g62
(dp3238
g70
I3
ssg71
g3232
sg64
(lp3239
g1598
asbasbasbag57
(g73
g59
NtRp3240
(dp3241
g62
(dp3242
sg71
g3215
sg64
(lp3243
g57
(g78
g59
NtRp3244
(dp3245
g62
(dp3246
g82
g83
ssg71
g3240
sg64
(lp3247
S'HTTP_ACCEPT_CHARSET'
p3248
asbag57
(g78
g59
NtRp3249
(dp3250
g62
(dp3251
g89
g90
ssg71
g3240
sg64
(lp3252
S':'
asbag57
(g78
g59
NtRp3253
(dp3254
g62
(dp3255
sg71
g3240
sg64
(lp3256
g57
(g58
g59
NtRp3257
(dp3258
g62
(dp3259
g70
I3
ssg71
g3253
sg64
(lp3260
g1620
asbasbasbag57
(g73
g59
NtRp3261
(dp3262
g62
(dp3263
sg71
g3215
sg64
(lp3264
g57
(g78
g59
NtRp3265
(dp3266
g62
(dp3267
g82
g83
ssg71
g3261
sg64
(lp3268
S'HTTP_ACCEPT_ENCODING'
p3269
asbag57
(g78
g59
NtRp3270
(dp3271
g62
(dp3272
g89
g90
ssg71
g3261
sg64
(lp3273
S':'
asbag57
(g78
g59
NtRp3274
(dp3275
g62
(dp3276
sg71
g3261
sg64
(lp3277
g57
(g58
g59
NtRp3278
(dp3279
g62
(dp3280
g70
I3
ssg71
g3274
sg64
(lp3281
g1642
asbasbasbag57
(g73
g59
NtRp3282
(dp3283
g62
(dp3284
sg71
g3215
sg64
(lp3285
g57
(g78
g59
NtRp3286
(dp3287
g62
(dp3288
g82
g83
ssg71
g3282
sg64
(lp3289
S'HTTP_ACCEPT_LANGUAGE'
p3290
asbag57
(g78
g59
NtRp3291
(dp3292
g62
(dp3293
g89
g90
ssg71
g3282
sg64
(lp3294
S':'
asbag57
(g78
g59
NtRp3295
(dp3296
g62
(dp3297
sg71
g3282
sg64
(lp3298
g57
(g58
g59
NtRp3299
(dp3300
g62
(dp3301
g70
I3
ssg71
g3295
sg64
(lp3302
g1664
asbasbasbag57
(g73
g59
NtRp3303
(dp3304
g62
(dp3305
sg71
g3215
sg64
(lp3306
g57
(g78
g59
NtRp3307
(dp3308
g62
(dp3309
g82
g83
ssg71
g3303
sg64
(lp3310
S'HTTP_CACHE_CONTROL'
p3311
asbag57
(g78
g59
NtRp3312
(dp3313
g62
(dp3314
g89
g90
ssg71
g3303
sg64
(lp3315
S':'
asbag57
(g78
g59
NtRp3316
(dp3317
g62
(dp3318
sg71
g3303
sg64
(lp3319
g57
(g58
g59
NtRp3320
(dp3321
g62
(dp3322
g70
I3
ssg71
g3316
sg64
(lp3323
g1686
asbasbasbag57
(g73
g59
NtRp3324
(dp3325
g62
(dp3326
sg71
g3215
sg64
(lp3327
g57
(g78
g59
NtRp3328
(dp3329
g62
(dp3330
g82
g83
ssg71
g3324
sg64
(lp3331
S'HTTP_CONNECTION'
p3332
asbag57
(g78
g59
NtRp3333
(dp3334
g62
(dp3335
g89
g90
ssg71
g3324
sg64
(lp3336
S':'
asbag57
(g78
g59
NtRp3337
(dp3338
g62
(dp3339
sg71
g3324
sg64
(lp3340
g57
(g58
g59
NtRp3341
(dp3342
g62
(dp3343
g70
I3
ssg71
g3337
sg64
(lp3344
g1708
asbasbasbag57
(g73
g59
NtRp3345
(dp3346
g62
(dp3347
sg71
g3215
sg64
(lp3348
g57
(g78
g59
NtRp3349
(dp3350
g62
(dp3351
g82
g83
ssg71
g3345
sg64
(lp3352
S'HTTP_COOKIE'
p3353
asbag57
(g78
g59
NtRp3354
(dp3355
g62
(dp3356
g89
g90
ssg71
g3345
sg64
(lp3357
S':'
asbag57
(g78
g59
NtRp3358
(dp3359
g62
(dp3360
sg71
g3345
sg64
(lp3361
g57
(g58
g59
NtRp3362
(dp3363
g62
(dp3364
g70
I3
ssg71
g3358
sg64
(lp3365
g1730
asbasbasbag57
(g73
g59
NtRp3366
(dp3367
g62
(dp3368
sg71
g3215
sg64
(lp3369
g57
(g78
g59
NtRp3370
(dp3371
g62
(dp3372
g82
g83
ssg71
g3366
sg64
(lp3373
S'HTTP_HOST'
p3374
asbag57
(g78
g59
NtRp3375
(dp3376
g62
(dp3377
g89
g90
ssg71
g3366
sg64
(lp3378
S':'
asbag57
(g78
g59
NtRp3379
(dp3380
g62
(dp3381
sg71
g3366
sg64
(lp3382
g57
(g58
g59
NtRp3383
(dp3384
g62
(dp3385
g70
I3
ssg71
g3379
sg64
(lp3386
g1752
asbasbasbag57
(g73
g59
NtRp3387
(dp3388
g62
(dp3389
sg71
g3215
sg64
(lp3390
g57
(g78
g59
NtRp3391
(dp3392
g62
(dp3393
g82
g83
ssg71
g3387
sg64
(lp3394
S'HTTP_USER_AGENT'
p3395
asbag57
(g78
g59
NtRp3396
(dp3397
g62
(dp3398
g89
g90
ssg71
g3387
sg64
(lp3399
S':'
asbag57
(g78
g59
NtRp3400
(dp3401
g62
(dp3402
sg71
g3387
sg64
(lp3403
g57
(g58
g59
NtRp3404
(dp3405
g62
(dp3406
g70
I3
ssg71
g3400
sg64
(lp3407
g1774
asbasbasbag57
(g73
g59
NtRp3408
(dp3409
g62
(dp3410
sg71
g3215
sg64
(lp3411
g57
(g78
g59
NtRp3412
(dp3413
g62
(dp3414
g82
g83
ssg71
g3408
sg64
(lp3415
S'PATH_INFO'
p3416
asbag57
(g78
g59
NtRp3417
(dp3418
g62
(dp3419
g89
g90
ssg71
g3408
sg64
(lp3420
S':'
asbag57
(g78
g59
NtRp3421
(dp3422
g62
(dp3423
sg71
g3408
sg64
(lp3424
g57
(g58
g59
NtRp3425
(dp3426
g62
(dp3427
g70
I3
ssg71
g3421
sg64
(lp3428
g1928
asbasbasbag57
(g73
g59
NtRp3429
(dp3430
g62
(dp3431
sg71
g3215
sg64
(lp3432
g57
(g78
g59
NtRp3433
(dp3434
g62
(dp3435
g82
g83
ssg71
g3429
sg64
(lp3436
S'QUERY_STRING'
p3437
asbag57
(g78
g59
NtRp3438
(dp3439
g62
(dp3440
g89
g90
ssg71
g3429
sg64
(lp3441
S':'
asbag57
(g78
g59
NtRp3442
(dp3443
g62
(dp3444
sg71
g3429
sg64
(lp3445
g57
(g58
g59
NtRp3446
(dp3447
g62
(dp3448
g70
I3
ssg71
g3442
sg64
(lp3449
S''
asbasbasbag57
(g73
g59
NtRp3450
(dp3451
g62
(dp3452
sg71
g3215
sg64
(lp3453
g57
(g78
g59
NtRp3454
(dp3455
g62
(dp3456
g82
g83
ssg71
g3450
sg64
(lp3457
S'REMOTE_ADDR'
p3458
asbag57
(g78
g59
NtRp3459
(dp3460
g62
(dp3461
g89
g90
ssg71
g3450
sg64
(lp3462
S':'
asbag57
(g78
g59
NtRp3463
(dp3464
g62
(dp3465
sg71
g3450
sg64
(lp3466
g57
(g58
g59
NtRp3467
(dp3468
g62
(dp3469
g70
I3
ssg71
g3463
sg64
(lp3470
g224
asbasbasbag57
(g73
g59
NtRp3471
(dp3472
g62
(dp3473
sg71
g3215
sg64
(lp3474
g57
(g78
g59
NtRp3475
(dp3476
g62
(dp3477
g82
g83
ssg71
g3471
sg64
(lp3478
S'REMOTE_PORT'
p3479
asbag57
(g78
g59
NtRp3480
(dp3481
g62
(dp3482
g89
g90
ssg71
g3471
sg64
(lp3483
S':'
asbag57
(g78
g59
NtRp3484
(dp3485
g62
(dp3486
sg71
g3471
sg64
(lp3487
g57
(g58
g59
NtRp3488
(dp3489
g62
(dp3490
g70
I3
ssg71
g3484
sg64
(lp3491
g1992
asbasbasbag57
(g73
g59
NtRp3492
(dp3493
g62
(dp3494
sg71
g3215
sg64
(lp3495
g57
(g78
g59
NtRp3496
(dp3497
g62
(dp3498
g82
g83
ssg71
g3492
sg64
(lp3499
S'REQUEST_METHOD'
p3500
asbag57
(g78
g59
NtRp3501
(dp3502
g62
(dp3503
g89
g90
ssg71
g3492
sg64
(lp3504
S':'
asbag57
(g78
g59
NtRp3505
(dp3506
g62
(dp3507
sg71
g3492
sg64
(lp3508
g57
(g58
g59
NtRp3509
(dp3510
g62
(dp3511
g70
I3
ssg71
g3505
sg64
(lp3512
g2014
asbasbasbag57
(g73
g59
NtRp3513
(dp3514
g62
(dp3515
sg71
g3215
sg64
(lp3516
g57
(g78
g59
NtRp3517
(dp3518
g62
(dp3519
g82
g83
ssg71
g3513
sg64
(lp3520
S'REQUEST_URI'
p3521
asbag57
(g78
g59
NtRp3522
(dp3523
g62
(dp3524
g89
g90
ssg71
g3513
sg64
(lp3525
S':'
asbag57
(g78
g59
NtRp3526
(dp3527
g62
(dp3528
sg71
g3513
sg64
(lp3529
g57
(g58
g59
NtRp3530
(dp3531
g62
(dp3532
g70
I3
ssg71
g3526
sg64
(lp3533
g1928
asbasbasbag57
(g73
g59
NtRp3534
(dp3535
g62
(dp3536
sg71
g3215
sg64
(lp3537
g57
(g78
g59
NtRp3538
(dp3539
g62
(dp3540
g82
g83
ssg71
g3534
sg64
(lp3541
S'SCRIPT_NAME'
p3542
asbag57
(g78
g59
NtRp3543
(dp3544
g62
(dp3545
g89
g90
ssg71
g3534
sg64
(lp3546
S':'
asbag57
(g78
g59
NtRp3547
(dp3548
g62
(dp3549
sg71
g3534
sg64
(lp3550
g57
(g58
g59
NtRp3551
(dp3552
g62
(dp3553
g70
I3
ssg71
g3547
sg64
(lp3554
S''
asbasbasbag57
(g73
g59
NtRp3555
(dp3556
g62
(dp3557
sg71
g3215
sg64
(lp3558
g57
(g78
g59
NtRp3559
(dp3560
g62
(dp3561
g82
g83
ssg71
g3555
sg64
(lp3562
S'SERVER_NAME'
p3563
asbag57
(g78
g59
NtRp3564
(dp3565
g62
(dp3566
g89
g90
ssg71
g3555
sg64
(lp3567
S':'
asbag57
(g78
g59
NtRp3568
(dp3569
g62
(dp3570
sg71
g3555
sg64
(lp3571
g57
(g58
g59
NtRp3572
(dp3573
g62
(dp3574
g70
I3
ssg71
g3568
sg64
(lp3575
g2078
asbasbasbag57
(g73
g59
NtRp3576
(dp3577
g62
(dp3578
sg71
g3215
sg64
(lp3579
g57
(g78
g59
NtRp3580
(dp3581
g62
(dp3582
g82
g83
ssg71
g3576
sg64
(lp3583
S'SERVER_PORT'
p3584
asbag57
(g78
g59
NtRp3585
(dp3586
g62
(dp3587
g89
g90
ssg71
g3576
sg64
(lp3588
S':'
asbag57
(g78
g59
NtRp3589
(dp3590
g62
(dp3591
sg71
g3576
sg64
(lp3592
g57
(g58
g59
NtRp3593
(dp3594
g62
(dp3595
g70
I3
ssg71
g3589
sg64
(lp3596
g2100
asbasbasbag57
(g73
g59
NtRp3597
(dp3598
g62
(dp3599
sg71
g3215
sg64
(lp3600
g57
(g78
g59
NtRp3601
(dp3602
g62
(dp3603
g82
g83
ssg71
g3597
sg64
(lp3604
S'SERVER_PROTOCOL'
p3605
asbag57
(g78
g59
NtRp3606
(dp3607
g62
(dp3608
g89
g90
ssg71
g3597
sg64
(lp3609
S':'
asbag57
(g78
g59
NtRp3610
(dp3611
g62
(dp3612
sg71
g3597
sg64
(lp3613
g57
(g58
g59
NtRp3614
(dp3615
g62
(dp3616
g70
I3
ssg71
g3610
sg64
(lp3617
g2122
asbasbasbag57
(g73
g59
NtRp3618
(dp3619
g62
(dp3620
sg71
g3215
sg64
(lp3621
g57
(g78
g59
NtRp3622
(dp3623
g62
(dp3624
g82
g83
ssg71
g3618
sg64
(lp3625
S'SERVER_SOFTWARE'
p3626
asbag57
(g78
g59
NtRp3627
(dp3628
g62
(dp3629
g89
g90
ssg71
g3618
sg64
(lp3630
S':'
asbag57
(g78
g59
NtRp3631
(dp3632
g62
(dp3633
sg71
g3618
sg64
(lp3634
g57
(g58
g59
NtRp3635
(dp3636
g62
(dp3637
g70
I3
ssg71
g3631
sg64
(lp3638
g2144
asbasbasbag57
(g73
g59
NtRp3639
(dp3640
g62
(dp3641
sg71
g3215
sg64
(lp3642
g57
(g78
g59
NtRp3643
(dp3644
g62
(dp3645
g82
g83
ssg71
g3639
sg64
(lp3646
S'wsgi.errors'
p3647
asbag57
(g78
g59
NtRp3648
(dp3649
g62
(dp3650
g89
g90
ssg71
g3639
sg64
(lp3651
S':'
asbag57
(g78
g59
NtRp3652
(dp3653
g62
(dp3654
sg71
g3639
sg64
(lp3655
g57
(g58
g59
NtRp3656
(dp3657
g62
(dp3658
g70
I3
ssg71
g3652
sg64
(lp3659
S"<open file '<stderr>', mode 'w' at 0xb789e0d0>"
p3660
asbasbasbag57
(g73
g59
NtRp3661
(dp3662
g62
(dp3663
sg71
g3215
sg64
(lp3664
g57
(g78
g59
NtRp3665
(dp3666
g62
(dp3667
g82
g83
ssg71
g3661
sg64
(lp3668
S'wsgi.file_wrapper'
p3669
asbag57
(g78
g59
NtRp3670
(dp3671
g62
(dp3672
g89
g90
ssg71
g3661
sg64
(lp3673
S':'
asbag57
(g78
g59
NtRp3674
(dp3675
g62
(dp3676
sg71
g3661
sg64
(lp3677
g57
(g58
g59
NtRp3678
(dp3679
g62
(dp3680
g70
I3
ssg71
g3674
sg64
(lp3681
S'<class wsgiref.util.FileWrapper at 0xa4afddc>'
p3682
asbasbasbag57
(g73
g59
NtRp3683
(dp3684
g62
(dp3685
sg71
g3215
sg64
(lp3686
g57
(g78
g59
NtRp3687
(dp3688
g62
(dp3689
g82
g83
ssg71
g3683
sg64
(lp3690
S'wsgi.input'
p3691
asbag57
(g78
g59
NtRp3692
(dp3693
g62
(dp3694
g89
g90
ssg71
g3683
sg64
(lp3695
S':'
asbag57
(g78
g59
NtRp3696
(dp3697
g62
(dp3698
sg71
g3683
sg64
(lp3699
g57
(g58
g59
NtRp3700
(dp3701
g62
(dp3702
g70
I3
ssg71
g3696
sg64
(lp3703
S'<cStringIO.StringO object at 0xb263a60>'
p3704
asbasbasbag57
(g73
g59
NtRp3705
(dp3706
g62
(dp3707
sg71
g3215
sg64
(lp3708
g57
(g78
g59
NtRp3709
(dp3710
g62
(dp3711
g82
g83
ssg71
g3705
sg64
(lp3712
S'wsgi.multiprocess'
p3713
asbag57
(g78
g59
NtRp3714
(dp3715
g62
(dp3716
g89
g90
ssg71
g3705
sg64
(lp3717
S':'
asbag57
(g78
g59
NtRp3718
(dp3719
g62
(dp3720
sg71
g3705
sg64
(lp3721
g57
(g58
g59
NtRp3722
(dp3723
g62
(dp3724
g70
I3
ssg71
g3718
sg64
(lp3725
g100
asbasbasbag57
(g73
g59
NtRp3726
(dp3727
g62
(dp3728
sg71
g3215
sg64
(lp3729
g57
(g78
g59
NtRp3730
(dp3731
g62
(dp3732
g82
g83
ssg71
g3726
sg64
(lp3733
S'wsgi.multithread'
p3734
asbag57
(g78
g59
NtRp3735
(dp3736
g62
(dp3737
g89
g90
ssg71
g3726
sg64
(lp3738
S':'
asbag57
(g78
g59
NtRp3739
(dp3740
g62
(dp3741
sg71
g3726
sg64
(lp3742
g57
(g58
g59
NtRp3743
(dp3744
g62
(dp3745
g70
I3
ssg71
g3739
sg64
(lp3746
g2361
asbasbasbag57
(g73
g59
NtRp3747
(dp3748
g62
(dp3749
sg71
g3215
sg64
(lp3750
g57
(g78
g59
NtRp3751
(dp3752
g62
(dp3753
g82
g83
ssg71
g3747
sg64
(lp3754
S'wsgi.run_once'
p3755
asbag57
(g78
g59
NtRp3756
(dp3757
g62
(dp3758
g89
g90
ssg71
g3747
sg64
(lp3759
S':'
asbag57
(g78
g59
NtRp3760
(dp3761
g62
(dp3762
sg71
g3747
sg64
(lp3763
g57
(g58
g59
NtRp3764
(dp3765
g62
(dp3766
g70
I3
ssg71
g3760
sg64
(lp3767
g100
asbasbasbag57
(g73
g59
NtRp3768
(dp3769
g62
(dp3770
sg71
g3215
sg64
(lp3771
g57
(g78
g59
NtRp3772
(dp3773
g62
(dp3774
g82
g83
ssg71
g3768
sg64
(lp3775
S'wsgi.url_scheme'
p3776
asbag57
(g78
g59
NtRp3777
(dp3778
g62
(dp3779
g89
g90
ssg71
g3768
sg64
(lp3780
S':'
asbag57
(g78
g59
NtRp3781
(dp3782
g62
(dp3783
sg71
g3768
sg64
(lp3784
g57
(g58
g59
NtRp3785
(dp3786
g62
(dp3787
g70
I3
ssg71
g3781
sg64
(lp3788
g2404
asbasbasbag57
(g73
g59
NtRp3789
(dp3790
g62
(dp3791
sg71
g3215
sg64
(lp3792
g57
(g78
g59
NtRp3793
(dp3794
g62
(dp3795
g82
g83
ssg71
g3789
sg64
(lp3796
S'wsgi.version'
p3797
asbag57
(g78
g59
NtRp3798
(dp3799
g62
(dp3800
g89
g90
ssg71
g3789
sg64
(lp3801
S':'
asbag57
(g78
g59
NtRp3802
(dp3803
g62
(dp3804
sg71
g3789
sg64
(lp3805
g57
(g58
g59
NtRp3806
(dp3807
g62
(dp3808
g70
I3
ssg71
g3802
sg64
(lp3809
S'1'
asbasbasbasbasbasbasbasbasbasbasbasbasbsS'frames'
p3810
(lp3811
(dp3812
S'file'
p3813
S'/home/pratyush/web2py/gluon/restricted.py'
p3814
sS'dump'
p3815
(dp3816
S'environment'
p3817
S"{'A': <class 'gluon.html.A'>, 'Auth': <class 'gluon.tools.Auth'>, 'B': <class 'gluon.html.B'>, 'BEAUTIFY': <class 'gluon.html.BEAUTIFY'>, 'BODY': <class 'gluon.html.BODY'>, 'BR': <class 'gluon.html.BR'>, 'BUTTON': <class 'gluon.html.BUTTON'>, 'CAT': <class 'gluon.html.CAT'>, 'CENTER': <class 'gluon.html.CENTER'>, 'CLEANUP': <class 'gluon.validators.CLEANUP'>, ...}"
p3818
sS'ccode'
p3819
S'<code object <module> at 0xb725140, file "/home/...cations/BuySell/controllers/default.py", line 13>'
p3820
ssS'lnum'
p3821
I212
sS'lines'
p3822
(dp3823
I207
S'    try:'
p3824
sI208
S'        if isinstance(code, types.CodeType):'
p3825
sI209
S'            ccode = code'
p3826
sI210
S'        else:'
p3827
sI211
S'            ccode = compile2(code, layer)'
p3828
sI212
S'        exec ccode in environment'
p3829
sI213
S'    except HTTP:'
p3830
sI214
S'        raise'
p3831
sI215
S'    except RestrictedError:'
p3832
sI216
S'        # do not encapsulate (obfuscate) the original RestrictedError'
p3833
ssS'call'
p3834
S"(code='# -*- coding: utf-8 -*-\\n# this file is released ...=seller)\\nresponse._vars=response._caller(seller)\\n', environment={'A': <class 'gluon.html.A'>, 'Auth': <class 'gluon.tools.Auth'>, 'B': <class 'gluon.html.B'>, 'BEAUTIFY': <class 'gluon.html.BEAUTIFY'>, 'BODY': <class 'gluon.html.BODY'>, 'BR': <class 'gluon.html.BR'>, 'BUTTON': <class 'gluon.html.BUTTON'>, 'CAT': <class 'gluon.html.CAT'>, 'CENTER': <class 'gluon.html.CENTER'>, 'CLEANUP': <class 'gluon.validators.CLEANUP'>, ...}, layer='/home/pratyush/web2py/applications/BuySell/controllers/default.py')"
p3835
sS'func'
p3836
S'restricted'
p3837
sa(dp3838
g3813
S'/home/pratyush/web2py/applications/BuySell/controllers/default.py'
p3839
sg3815
(dp3840
sg3821
I133
sg3822
(dp3841
I128
S'    return dict(form=form)'
p3842
sI129
S''
sI130
S'def listed_items():'
p3843
sI131
S'    seller = db(db.auth_user.id==db.item.seller).select(db.item.ALL)'
p3844
sI132
S'    return dict(seller=seller)'
p3845
sI123
S''
sI124
S'def add_item():'
p3846
sI125
S'    form = SQLFORM(db.item)'
p3847
sI126
S'    if form.accepts(request.vars):'
p3848
sI127
S"        response.flash = 'Success\\n'"
p3849
ssg3834
S'()'
p3850
sg3836
S'<module>'
p3851
sa(dp3852
g3813
S'/home/pratyush/web2py/gluon/globals.py'
p3853
sg3815
(dp3854
S'self'
p3855
S'undefined'
p3856
sS'f'
S'<function seller>'
p3857
ssg3821
I193
sg3822
(dp3858
I192
S'        self._vars = None'
p3859
sI193
S'        self._caller = lambda f: f()'
p3860
sI194
S'        self._view_environment = None'
p3861
sI195
S'        self._custom_commit = None'
p3862
sI196
S'        self._custom_rollback = None'
p3863
sI197
S''
sI188
S'        self.menu = []             # used by the default view layout'
p3864
sI189
S'        self.files = []            # used by web2py_ajax.html'
p3865
sI190
S'        self.generic_patterns = []  # patterns to allow generic views'
p3866
sI191
S"        self.delimiters = ('{{', '}}')"
p3867
ssg3834
S'(f=<function seller>)'
p3868
sg3836
S'<lambda>'
p3869
sa(dp3870
g3813
S'/home/pratyush/web2py/gluon/tools.py'
p3871
sg3815
(dp3872
S'action'
p3873
S'<function seller>'
p3874
sS'a'
S'()'
p3875
sS'b'
g45
ssg3821
I2929
sg3822
(dp3876
I2924
S'                    flag = condition'
p3877
sI2925
S'                if not flag:'
p3878
sI2926
S'                    current.session.flash = self.messages.access_denied'
p3879
sI2927
S'                    return call_or_redirect('
p3880
sI2928
S'                        self.settings.on_failed_authorization)'
p3881
sI2929
S'                return action(*a, **b)'
p3882
sI2930
S'            f.__doc__ = action.__doc__'
p3883
sI2931
S'            f.__name__ = action.__name__'
p3884
sI2932
S'            f.__dict__.update(action.__dict__)'
p3885
sI2933
S'            return f'
p3886
ssg3834
S'(*a=(), **b={})'
p3887
sg3836
S'f'
sa(dp3888
g3813
S'/home/pratyush/web2py/applications/BuySell/controllers/default.py'
p3889
sg3815
(dp3890
S'global request'
p3891
S"<Storage {'function': 'seller', 'body': <cString...plications/BuySell/', 'post_vars': <Storage {}>}>"
p3892
sS'request.args'
p3893
S"['2']"
p3894
sS'form'
p3895
g3856
ssg3821
I115
sg3822
(dp3896
I110
S'    for i in sellr:'
p3897
sI111
S'        avg = avg + int(i.rate)'
p3898
sI112
S'        count = count + 1'
p3899
sI113
S'    av = (float(avg)/float(count))'
p3900
sI114
S''
sI115
S'    form.vars.seller.default = request.args(0)'
p3901
sI116
S'    form.vars.seller.writable = false'
p3902
sI117
S'    form.vars.seller.readable = false'
p3903
sI118
S'    form = SQLFORM(db.rating)'
p3904
sI119
S''
ssg3834
S'()'
p3905
sg3836
S'seller'
p3906
sasS'pyver'
p3907
S'Python 2.7.2+: /usr/bin/python2.7'
p3908
sS'session'
p3909
g57
(g58
g59
NtRp3910
(dp3911
g62
(dp3912
sg64
(lp3913
g57
(g66
g59
NtRp3914
(dp3915
g62
(dp3916
g70
I5
ssg71
Nsg64
(lp3917
g57
(g73
g59
NtRp3918
(dp3919
g62
(dp3920
sg71
g3914
sg64
(lp3921
g57
(g78
g59
NtRp3922
(dp3923
g62
(dp3924
g82
g83
ssg71
g3918
sg64
(lp3925
S'auth'
p3926
asbag57
(g78
g59
NtRp3927
(dp3928
g62
(dp3929
g89
g90
ssg71
g3918
sg64
(lp3930
S':'
asbag57
(g78
g59
NtRp3931
(dp3932
g62
(dp3933
sg71
g3918
sg64
(lp3934
g57
(g58
g59
NtRp3935
(dp3936
g62
(dp3937
g70
I5
ssg71
g3931
sg64
(lp3938
g57
(g66
g59
NtRp3939
(dp3940
g62
(dp3941
g70
I4
ssg71
Nsg64
(lp3942
g57
(g73
g59
NtRp3943
(dp3944
g62
(dp3945
sg71
g3939
sg64
(lp3946
g57
(g78
g59
NtRp3947
(dp3948
g62
(dp3949
g82
g83
ssg71
g3943
sg64
(lp3950
S'expiration'
p3951
asbag57
(g78
g59
NtRp3952
(dp3953
g62
(dp3954
g89
g90
ssg71
g3943
sg64
(lp3955
S':'
asbag57
(g78
g59
NtRp3956
(dp3957
g62
(dp3958
sg71
g3943
sg64
(lp3959
g57
(g58
g59
NtRp3960
(dp3961
g62
(dp3962
g70
I4
ssg71
g3956
sg64
(lp3963
S'3600'
p3964
asbasbasbag57
(g73
g59
NtRp3965
(dp3966
g62
(dp3967
sg71
g3939
sg64
(lp3968
g57
(g78
g59
NtRp3969
(dp3970
g62
(dp3971
g82
g83
ssg71
g3965
sg64
(lp3972
S'hmac_key'
p3973
asbag57
(g78
g59
NtRp3974
(dp3975
g62
(dp3976
g89
g90
ssg71
g3965
sg64
(lp3977
S':'
asbag57
(g78
g59
NtRp3978
(dp3979
g62
(dp3980
sg71
g3965
sg64
(lp3981
g57
(g58
g59
NtRp3982
(dp3983
g62
(dp3984
g70
I4
ssg71
g3978
sg64
(lp3985
S'143b6fc1-7d39-4b81-9961-9e7f32b94083'
p3986
asbasbasbag57
(g73
g59
NtRp3987
(dp3988
g62
(dp3989
sg71
g3939
sg64
(lp3990
g57
(g78
g59
NtRp3991
(dp3992
g62
(dp3993
g82
g83
ssg71
g3987
sg64
(lp3994
S'last_visit'
p3995
asbag57
(g78
g59
NtRp3996
(dp3997
g62
(dp3998
g89
g90
ssg71
g3987
sg64
(lp3999
S':'
asbag57
(g78
g59
NtRp4000
(dp4001
g62
(dp4002
sg71
g3987
sg64
(lp4003
g57
(g58
g59
NtRp4004
(dp4005
g62
(dp4006
g70
I4
ssg71
g4000
sg64
(lp4007
S'datetime.datetime(2013, 4, 22, 15, 34, 0, 137191)'
p4008
asbasbasbag57
(g73
g59
NtRp4009
(dp4010
g62
(dp4011
sg71
g3939
sg64
(lp4012
g57
(g78
g59
NtRp4013
(dp4014
g62
(dp4015
g82
g83
ssg71
g4009
sg64
(lp4016
S'remember'
p4017
asbag57
(g78
g59
NtRp4018
(dp4019
g62
(dp4020
g89
g90
ssg71
g4009
sg64
(lp4021
S':'
asbag57
(g78
g59
NtRp4022
(dp4023
g62
(dp4024
sg71
g4009
sg64
(lp4025
g57
(g58
g59
NtRp4026
(dp4027
g62
(dp4028
g70
I4
ssg71
g4022
sg64
(lp4029
g100
asbasbasbag57
(g73
g59
NtRp4030
(dp4031
g62
(dp4032
sg71
g3939
sg64
(lp4033
g57
(g78
g59
NtRp4034
(dp4035
g62
(dp4036
g82
g83
ssg71
g4030
sg64
(lp4037
S'user'
p4038
asbag57
(g78
g59
NtRp4039
(dp4040
g62
(dp4041
g89
g90
ssg71
g4030
sg64
(lp4042
S':'
asbag57
(g78
g59
NtRp4043
(dp4044
g62
(dp4045
sg71
g4030
sg64
(lp4046
g57
(g58
g59
NtRp4047
(dp4048
g62
(dp4049
g70
I4
ssg71
g4043
sg64
(lp4050
g57
(g66
g59
NtRp4051
(dp4052
g62
(dp4053
g70
I3
ssg71
Nsg64
(lp4054
g57
(g73
g59
NtRp4055
(dp4056
g62
(dp4057
sg71
g4051
sg64
(lp4058
g57
(g78
g59
NtRp4059
(dp4060
g62
(dp4061
g82
g83
ssg71
g4055
sg64
(lp4062
S'email'
p4063
asbag57
(g78
g59
NtRp4064
(dp4065
g62
(dp4066
g89
g90
ssg71
g4055
sg64
(lp4067
S':'
asbag57
(g78
g59
NtRp4068
(dp4069
g62
(dp4070
sg71
g4055
sg64
(lp4071
g57
(g58
g59
NtRp4072
(dp4073
g62
(dp4074
g70
I3
ssg71
g4068
sg64
(lp4075
S'pratyush.nigam@gmail.com'
p4076
asbasbasbag57
(g73
g59
NtRp4077
(dp4078
g62
(dp4079
sg71
g4051
sg64
(lp4080
g57
(g78
g59
NtRp4081
(dp4082
g62
(dp4083
g82
g83
ssg71
g4077
sg64
(lp4084
S'first_name'
p4085
asbag57
(g78
g59
NtRp4086
(dp4087
g62
(dp4088
g89
g90
ssg71
g4077
sg64
(lp4089
S':'
asbag57
(g78
g59
NtRp4090
(dp4091
g62
(dp4092
sg71
g4077
sg64
(lp4093
g57
(g58
g59
NtRp4094
(dp4095
g62
(dp4096
g70
I3
ssg71
g4090
sg64
(lp4097
S'Pratyush'
p4098
asbasbasbag57
(g73
g59
NtRp4099
(dp4100
g62
(dp4101
sg71
g4051
sg64
(lp4102
g57
(g78
g59
NtRp4103
(dp4104
g62
(dp4105
g82
g83
ssg71
g4099
sg64
(lp4106
S'id'
p4107
asbag57
(g78
g59
NtRp4108
(dp4109
g62
(dp4110
g89
g90
ssg71
g4099
sg64
(lp4111
S':'
asbag57
(g78
g59
NtRp4112
(dp4113
g62
(dp4114
sg71
g4099
sg64
(lp4115
g57
(g58
g59
NtRp4116
(dp4117
g62
(dp4118
g70
I3
ssg71
g4112
sg64
(lp4119
S'1'
asbasbasbag57
(g73
g59
NtRp4120
(dp4121
g62
(dp4122
sg71
g4051
sg64
(lp4123
g57
(g78
g59
NtRp4124
(dp4125
g62
(dp4126
g82
g83
ssg71
g4120
sg64
(lp4127
S'last_name'
p4128
asbag57
(g78
g59
NtRp4129
(dp4130
g62
(dp4131
g89
g90
ssg71
g4120
sg64
(lp4132
S':'
asbag57
(g78
g59
NtRp4133
(dp4134
g62
(dp4135
sg71
g4120
sg64
(lp4136
g57
(g58
g59
NtRp4137
(dp4138
g62
(dp4139
g70
I3
ssg71
g4133
sg64
(lp4140
S'Nigam'
p4141
asbasbasbag57
(g73
g59
NtRp4142
(dp4143
g62
(dp4144
sg71
g4051
sg64
(lp4145
g57
(g78
g59
NtRp4146
(dp4147
g62
(dp4148
g82
g83
ssg71
g4142
sg64
(lp4149
S'registration_id'
p4150
asbag57
(g78
g59
NtRp4151
(dp4152
g62
(dp4153
g89
g90
ssg71
g4142
sg64
(lp4154
S':'
asbag57
(g78
g59
NtRp4155
(dp4156
g62
(dp4157
sg71
g4142
sg64
(lp4158
g57
(g58
g59
NtRp4159
(dp4160
g62
(dp4161
g70
I3
ssg71
g4155
sg64
(lp4162
S''
asbasbasbag57
(g73
g59
NtRp4163
(dp4164
g62
(dp4165
sg71
g4051
sg64
(lp4166
g57
(g78
g59
NtRp4167
(dp4168
g62
(dp4169
g82
g83
ssg71
g4163
sg64
(lp4170
S'registration_key'
p4171
asbag57
(g78
g59
NtRp4172
(dp4173
g62
(dp4174
g89
g90
ssg71
g4163
sg64
(lp4175
S':'
asbag57
(g78
g59
NtRp4176
(dp4177
g62
(dp4178
sg71
g4163
sg64
(lp4179
g57
(g58
g59
NtRp4180
(dp4181
g62
(dp4182
g70
I3
ssg71
g4176
sg64
(lp4183
S''
asbasbasbag57
(g73
g59
NtRp4184
(dp4185
g62
(dp4186
sg71
g4051
sg64
(lp4187
g57
(g78
g59
NtRp4188
(dp4189
g62
(dp4190
g82
g83
ssg71
g4184
sg64
(lp4191
S'reset_password_key'
p4192
asbag57
(g78
g59
NtRp4193
(dp4194
g62
(dp4195
g89
g90
ssg71
g4184
sg64
(lp4196
S':'
asbag57
(g78
g59
NtRp4197
(dp4198
g62
(dp4199
sg71
g4184
sg64
(lp4200
g57
(g58
g59
NtRp4201
(dp4202
g62
(dp4203
g70
I3
ssg71
g4197
sg64
(lp4204
S''
asbasbasbasbasbasbasbag57
(g73
g59
NtRp4205
(dp4206
g62
(dp4207
sg71
g3939
sg64
(lp4208
g57
(g78
g59
NtRp4209
(dp4210
g62
(dp4211
g82
g83
ssg71
g4205
sg64
(lp4212
S'user_groups'
p4213
asbag57
(g78
g59
NtRp4214
(dp4215
g62
(dp4216
g89
g90
ssg71
g4205
sg64
(lp4217
S':'
asbag57
(g78
g59
NtRp4218
(dp4219
g62
(dp4220
sg71
g4205
sg64
(lp4221
g57
(g58
g59
NtRp4222
(dp4223
g62
(dp4224
g70
I4
ssg71
g4218
sg64
(lp4225
g57
(g66
g59
NtRp4226
(dp4227
g62
(dp4228
g70
I3
ssg71
Nsg64
(lp4229
g57
(g73
g59
NtRp4230
(dp4231
g62
(dp4232
sg71
g4226
sg64
(lp4233
g57
(g78
g59
NtRp4234
(dp4235
g62
(dp4236
g82
g83
ssg71
g4230
sg64
(lp4237
S'1'
asbag57
(g78
g59
NtRp4238
(dp4239
g62
(dp4240
g89
g90
ssg71
g4230
sg64
(lp4241
S':'
asbag57
(g78
g59
NtRp4242
(dp4243
g62
(dp4244
sg71
g4230
sg64
(lp4245
g57
(g58
g59
NtRp4246
(dp4247
g62
(dp4248
g70
I3
ssg71
g4242
sg64
(lp4249
S'user_1'
p4250
asbasbasbasbasbasbasbasbasbasbasbag57
(g73
g59
NtRp4251
(dp4252
g62
(dp4253
sg71
g3914
sg64
(lp4254
g57
(g78
g59
NtRp4255
(dp4256
g62
(dp4257
g82
g83
ssg71
g4251
sg64
(lp4258
S'flash'
p4259
asbag57
(g78
g59
NtRp4260
(dp4261
g62
(dp4262
g89
g90
ssg71
g4251
sg64
(lp4263
S':'
asbag57
(g78
g59
NtRp4264
(dp4265
g62
(dp4266
sg71
g4251
sg64
(lp4267
g57
(g58
g59
NtRp4268
(dp4269
g62
(dp4270
g70
I5
ssg71
g4264
sg64
(lp4271
S'None'
p4272
asbasbasbag57
(g73
g59
NtRp4273
(dp4274
g62
(dp4275
sg71
g3914
sg64
(lp4276
g57
(g78
g59
NtRp4277
(dp4278
g62
(dp4279
g82
g83
ssg71
g4273
sg64
(lp4280
S'last_orderby'
p4281
asbag57
(g78
g59
NtRp4282
(dp4283
g62
(dp4284
g89
g90
ssg71
g4273
sg64
(lp4285
S':'
asbag57
(g78
g59
NtRp4286
(dp4287
g62
(dp4288
sg71
g4273
sg64
(lp4289
g57
(g58
g59
NtRp4290
(dp4291
g62
(dp4292
g70
I5
ssg71
g4286
sg64
(lp4293
S'None'
p4294
asbasbasbag57
(g73
g59
NtRp4295
(dp4296
g62
(dp4297
sg71
g3914
sg64
(lp4298
g57
(g78
g59
NtRp4299
(dp4300
g62
(dp4301
g82
g83
ssg71
g4295
sg64
(lp4302
S'last_query'
p4303
asbag57
(g78
g59
NtRp4304
(dp4305
g62
(dp4306
g89
g90
ssg71
g4295
sg64
(lp4307
S':'
asbag57
(g78
g59
NtRp4308
(dp4309
g62
(dp4310
sg71
g4295
sg64
(lp4311
g57
(g58
g59
NtRp4312
(dp4313
g62
(dp4314
g70
I5
ssg71
g4308
sg64
(lp4315
S'db.rating.id>0'
p4316
asbasbasbasbasbsS'etype'
p4317
S"<type 'exceptions.UnboundLocalError'>"
p4318
sS'date'
p4319
S'Mon Apr 22 15:34:00 2013'
p4320
sS'response'
p4321
g57
(g58
g59
NtRp4322
(dp4323
g62
(dp4324
sg64
(lp4325
g57
(g66
g59
NtRp4326
(dp4327
g62
(dp4328
g70
I5
ssg71
Nsg64
(lp4329
g57
(g73
g59
NtRp4330
(dp4331
g62
(dp4332
sg71
g4326
sg64
(lp4333
g57
(g78
g59
NtRp4334
(dp4335
g62
(dp4336
g82
g83
ssg71
g4330
sg64
(lp4337
g167
asbag57
(g78
g59
NtRp4338
(dp4339
g62
(dp4340
g89
g90
ssg71
g4330
sg64
(lp4341
S':'
asbag57
(g78
g59
NtRp4342
(dp4343
g62
(dp4344
sg71
g4330
sg64
(lp4345
g57
(g58
g59
NtRp4346
(dp4347
g62
(dp4348
g70
I5
ssg71
g4342
sg64
(lp4349
S'<cStringIO.StringO object at 0xb33ac80>'
p4350
asbasbasbag57
(g73
g59
NtRp4351
(dp4352
g62
(dp4353
sg71
g4326
sg64
(lp4354
g57
(g78
g59
NtRp4355
(dp4356
g62
(dp4357
g82
g83
ssg71
g4351
sg64
(lp4358
g255
asbag57
(g78
g59
NtRp4359
(dp4360
g62
(dp4361
g89
g90
ssg71
g4351
sg64
(lp4362
S':'
asbag57
(g78
g59
NtRp4363
(dp4364
g62
(dp4365
sg71
g4351
sg64
(lp4366
g57
(g58
g59
NtRp4367
(dp4368
g62
(dp4369
g70
I5
ssg71
g4363
sg64
(lp4370
g57
(g66
g59
NtRp4371
(dp4372
g62
(dp4373
g70
I4
ssg71
Nsg64
(lp4374
g57
(g73
g59
NtRp4375
(dp4376
g62
(dp4377
sg71
g4371
sg64
(lp4378
g57
(g78
g59
NtRp4379
(dp4380
g62
(dp4381
g82
g83
ssg71
g4375
sg64
(lp4382
S'session_id_buysell'
p4383
asbag57
(g78
g59
NtRp4384
(dp4385
g62
(dp4386
g89
g90
ssg71
g4375
sg64
(lp4387
S':'
asbag57
(g78
g59
NtRp4388
(dp4389
g62
(dp4390
sg71
g4375
sg64
(lp4391
g57
(g58
g59
NtRp4392
(dp4393
g62
(dp4394
g70
I4
ssg71
g4388
sg64
(lp4395
g673
ag57
(g66
g59
NtRp4396
(dp4397
g62
(dp4398
g70
I3
ssg71
Nsg64
(lp4399
g57
(g73
g59
NtRp4400
(dp4401
g62
(dp4402
sg71
g4396
sg64
(lp4403
g57
(g78
g59
NtRp4404
(dp4405
g62
(dp4406
g82
g83
ssg71
g4400
sg64
(lp4407
g306
asbag57
(g78
g59
NtRp4408
(dp4409
g62
(dp4410
g89
g90
ssg71
g4400
sg64
(lp4411
S':'
asbag57
(g78
g59
NtRp4412
(dp4413
g62
(dp4414
sg71
g4400
sg64
(lp4415
g57
(g58
g59
NtRp4416
(dp4417
g62
(dp4418
g70
I3
ssg71
g4412
sg64
(lp4419
S''
asbasbasbag57
(g73
g59
NtRp4420
(dp4421
g62
(dp4422
sg71
g4396
sg64
(lp4423
g57
(g78
g59
NtRp4424
(dp4425
g62
(dp4426
g82
g83
ssg71
g4420
sg64
(lp4427
g327
asbag57
(g78
g59
NtRp4428
(dp4429
g62
(dp4430
g89
g90
ssg71
g4420
sg64
(lp4431
S':'
asbag57
(g78
g59
NtRp4432
(dp4433
g62
(dp4434
sg71
g4420
sg64
(lp4435
g57
(g58
g59
NtRp4436
(dp4437
g62
(dp4438
g70
I3
ssg71
g4432
sg64
(lp4439
S''
asbasbasbag57
(g73
g59
NtRp4440
(dp4441
g62
(dp4442
sg71
g4396
sg64
(lp4443
g57
(g78
g59
NtRp4444
(dp4445
g62
(dp4446
g82
g83
ssg71
g4440
sg64
(lp4447
g348
asbag57
(g78
g59
NtRp4448
(dp4449
g62
(dp4450
g89
g90
ssg71
g4440
sg64
(lp4451
S':'
asbag57
(g78
g59
NtRp4452
(dp4453
g62
(dp4454
sg71
g4440
sg64
(lp4455
g57
(g58
g59
NtRp4456
(dp4457
g62
(dp4458
g70
I3
ssg71
g4452
sg64
(lp4459
S''
asbasbasbag57
(g73
g59
NtRp4460
(dp4461
g62
(dp4462
sg71
g4396
sg64
(lp4463
g57
(g78
g59
NtRp4464
(dp4465
g62
(dp4466
g82
g83
ssg71
g4460
sg64
(lp4467
g369
asbag57
(g78
g59
NtRp4468
(dp4469
g62
(dp4470
g89
g90
ssg71
g4460
sg64
(lp4471
S':'
asbag57
(g78
g59
NtRp4472
(dp4473
g62
(dp4474
sg71
g4460
sg64
(lp4475
g57
(g58
g59
NtRp4476
(dp4477
g62
(dp4478
g70
I3
ssg71
g4472
sg64
(lp4479
S''
asbasbasbag57
(g73
g59
NtRp4480
(dp4481
g62
(dp4482
sg71
g4396
sg64
(lp4483
g57
(g78
g59
NtRp4484
(dp4485
g62
(dp4486
g82
g83
ssg71
g4480
sg64
(lp4487
g390
asbag57
(g78
g59
NtRp4488
(dp4489
g62
(dp4490
g89
g90
ssg71
g4480
sg64
(lp4491
S':'
asbag57
(g78
g59
NtRp4492
(dp4493
g62
(dp4494
sg71
g4480
sg64
(lp4495
g57
(g58
g59
NtRp4496
(dp4497
g62
(dp4498
g70
I3
ssg71
g4492
sg64
(lp4499
S''
asbasbasbag57
(g73
g59
NtRp4500
(dp4501
g62
(dp4502
sg71
g4396
sg64
(lp4503
g57
(g78
g59
NtRp4504
(dp4505
g62
(dp4506
g82
g83
ssg71
g4500
sg64
(lp4507
g411
asbag57
(g78
g59
NtRp4508
(dp4509
g62
(dp4510
g89
g90
ssg71
g4500
sg64
(lp4511
S':'
asbag57
(g78
g59
NtRp4512
(dp4513
g62
(dp4514
sg71
g4500
sg64
(lp4515
g57
(g58
g59
NtRp4516
(dp4517
g62
(dp4518
g70
I3
ssg71
g4512
sg64
(lp4519
S'/'
asbasbasbag57
(g73
g59
NtRp4520
(dp4521
g62
(dp4522
sg71
g4396
sg64
(lp4523
g57
(g78
g59
NtRp4524
(dp4525
g62
(dp4526
g82
g83
ssg71
g4520
sg64
(lp4527
g432
asbag57
(g78
g59
NtRp4528
(dp4529
g62
(dp4530
g89
g90
ssg71
g4520
sg64
(lp4531
S':'
asbag57
(g78
g59
NtRp4532
(dp4533
g62
(dp4534
sg71
g4520
sg64
(lp4535
g57
(g58
g59
NtRp4536
(dp4537
g62
(dp4538
g70
I3
ssg71
g4532
sg64
(lp4539
S''
asbasbasbag57
(g73
g59
NtRp4540
(dp4541
g62
(dp4542
sg71
g4396
sg64
(lp4543
g57
(g78
g59
NtRp4544
(dp4545
g62
(dp4546
g82
g83
ssg71
g4540
sg64
(lp4547
g453
asbag57
(g78
g59
NtRp4548
(dp4549
g62
(dp4550
g89
g90
ssg71
g4540
sg64
(lp4551
S':'
asbag57
(g78
g59
NtRp4552
(dp4553
g62
(dp4554
sg71
g4540
sg64
(lp4555
g57
(g58
g59
NtRp4556
(dp4557
g62
(dp4558
g70
I3
ssg71
g4552
sg64
(lp4559
S''
asbasbasbasbasbasbasbasbasbasbasbag57
(g73
g59
NtRp4560
(dp4561
g62
(dp4562
sg71
g4326
sg64
(lp4563
g57
(g78
g59
NtRp4564
(dp4565
g62
(dp4566
g82
g83
ssg71
g4560
sg64
(lp4567
S'delimiters'
p4568
asbag57
(g78
g59
NtRp4569
(dp4570
g62
(dp4571
g89
g90
ssg71
g4560
sg64
(lp4572
S':'
asbag57
(g78
g59
NtRp4573
(dp4574
g62
(dp4575
sg71
g4560
sg64
(lp4576
g57
(g58
g59
NtRp4577
(dp4578
g62
(dp4579
g70
I5
ssg71
g4573
sg64
(lp4580
g57
(g66
g59
NtRp4581
(dp4582
g62
(dp4583
g70
I4
ssg71
Nsg64
(lp4584
g57
(g73
g59
NtRp4585
(dp4586
g62
(dp4587
sg71
g4581
sg64
(lp4588
g57
(g78
g59
NtRp4589
(dp4590
g62
(dp4591
sg71
g4585
sg64
(lp4592
g57
(g58
g59
NtRp4593
(dp4594
g62
(dp4595
g70
I4
ssg71
g4589
sg64
(lp4596
S'{{'
p4597
asbasbasbag57
(g73
g59
NtRp4598
(dp4599
g62
(dp4600
sg71
g4581
sg64
(lp4601
g57
(g78
g59
NtRp4602
(dp4603
g62
(dp4604
sg71
g4598
sg64
(lp4605
g57
(g58
g59
NtRp4606
(dp4607
g62
(dp4608
g70
I4
ssg71
g4602
sg64
(lp4609
S'}}'
p4610
asbasbasbasbasbasbasbag57
(g73
g59
NtRp4611
(dp4612
g62
(dp4613
sg71
g4326
sg64
(lp4614
g57
(g78
g59
NtRp4615
(dp4616
g62
(dp4617
g82
g83
ssg71
g4611
sg64
(lp4618
S'files'
p4619
asbag57
(g78
g59
NtRp4620
(dp4621
g62
(dp4622
g89
g90
ssg71
g4611
sg64
(lp4623
S':'
asbag57
(g78
g59
NtRp4624
(dp4625
g62
(dp4626
sg71
g4611
sg64
(lp4627
g57
(g58
g59
NtRp4628
(dp4629
g62
(dp4630
g70
I5
ssg71
g4624
sg64
(lp4631
g57
(g66
g59
NtRp4632
(dp4633
g62
(dp4634
g70
I4
ssg71
Nsg64
(lp4635
sbasbasbasbag57
(g73
g59
NtRp4636
(dp4637
g62
(dp4638
sg71
g4326
sg64
(lp4639
g57
(g78
g59
NtRp4640
(dp4641
g62
(dp4642
g82
g83
ssg71
g4636
sg64
(lp4643
S'flash'
p4644
asbag57
(g78
g59
NtRp4645
(dp4646
g62
(dp4647
g89
g90
ssg71
g4636
sg64
(lp4648
S':'
asbag57
(g78
g59
NtRp4649
(dp4650
g62
(dp4651
sg71
g4636
sg64
(lp4652
g57
(g58
g59
NtRp4653
(dp4654
g62
(dp4655
g70
I5
ssg71
g4649
sg64
(lp4656
S''
asbasbasbag57
(g73
g59
NtRp4657
(dp4658
g62
(dp4659
sg71
g4326
sg64
(lp4660
g57
(g78
g59
NtRp4661
(dp4662
g62
(dp4663
g82
g83
ssg71
g4657
sg64
(lp4664
S'generic_patterns'
p4665
asbag57
(g78
g59
NtRp4666
(dp4667
g62
(dp4668
g89
g90
ssg71
g4657
sg64
(lp4669
S':'
asbag57
(g78
g59
NtRp4670
(dp4671
g62
(dp4672
sg71
g4657
sg64
(lp4673
g57
(g58
g59
NtRp4674
(dp4675
g62
(dp4676
g70
I5
ssg71
g4670
sg64
(lp4677
g57
(g66
g59
NtRp4678
(dp4679
g62
(dp4680
g70
I4
ssg71
Nsg64
(lp4681
g57
(g73
g59
NtRp4682
(dp4683
g62
(dp4684
sg71
g4678
sg64
(lp4685
g57
(g78
g59
NtRp4686
(dp4687
g62
(dp4688
sg71
g4682
sg64
(lp4689
g57
(g58
g59
NtRp4690
(dp4691
g62
(dp4692
g70
I4
ssg71
g4686
sg64
(lp4693
S'*'
asbasbasbasbasbasbasbag57
(g73
g59
NtRp4694
(dp4695
g62
(dp4696
sg71
g4326
sg64
(lp4697
g57
(g78
g59
NtRp4698
(dp4699
g62
(dp4700
g82
g83
ssg71
g4694
sg64
(lp4701
S'google_analytics_id'
p4702
asbag57
(g78
g59
NtRp4703
(dp4704
g62
(dp4705
g89
g90
ssg71
g4694
sg64
(lp4706
S':'
asbag57
(g78
g59
NtRp4707
(dp4708
g62
(dp4709
sg71
g4694
sg64
(lp4710
g57
(g58
g59
NtRp4711
(dp4712
g62
(dp4713
g70
I5
ssg71
g4707
sg64
(lp4714
S'None'
p4715
asbasbasbag57
(g73
g59
NtRp4716
(dp4717
g62
(dp4718
sg71
g4326
sg64
(lp4719
g57
(g78
g59
NtRp4720
(dp4721
g62
(dp4722
g82
g83
ssg71
g4716
sg64
(lp4723
S'headers'
p4724
asbag57
(g78
g59
NtRp4725
(dp4726
g62
(dp4727
g89
g90
ssg71
g4716
sg64
(lp4728
S':'
asbag57
(g78
g59
NtRp4729
(dp4730
g62
(dp4731
sg71
g4716
sg64
(lp4732
g57
(g58
g59
NtRp4733
(dp4734
g62
(dp4735
g70
I5
ssg71
g4729
sg64
(lp4736
g57
(g66
g59
NtRp4737
(dp4738
g62
(dp4739
g70
I4
ssg71
Nsg64
(lp4740
g57
(g73
g59
NtRp4741
(dp4742
g62
(dp4743
sg71
g4737
sg64
(lp4744
g57
(g78
g59
NtRp4745
(dp4746
g62
(dp4747
g82
g83
ssg71
g4741
sg64
(lp4748
S'X-Powered-By'
p4749
asbag57
(g78
g59
NtRp4750
(dp4751
g62
(dp4752
g89
g90
ssg71
g4741
sg64
(lp4753
S':'
asbag57
(g78
g59
NtRp4754
(dp4755
g62
(dp4756
sg71
g4741
sg64
(lp4757
g57
(g58
g59
NtRp4758
(dp4759
g62
(dp4760
g70
I4
ssg71
g4754
sg64
(lp4761
S'web2py'
p4762
asbasbasbasbasbasbasbag57
(g73
g59
NtRp4763
(dp4764
g62
(dp4765
sg71
g4326
sg64
(lp4766
g57
(g78
g59
NtRp4767
(dp4768
g62
(dp4769
g82
g83
ssg71
g4763
sg64
(lp4770
S'logo'
p4771
asbag57
(g78
g59
NtRp4772
(dp4773
g62
(dp4774
g89
g90
ssg71
g4763
sg64
(lp4775
S':'
asbag57
(g78
g59
NtRp4776
(dp4777
g62
(dp4778
sg71
g4763
sg64
(lp4779
g57
(g58
g59
NtRp4780
(dp4781
g62
(dp4782
g70
I5
ssg71
g4776
sg64
(lp4783
g57
(cgluon.html
A
p4784
g59
NtRp4785
(dp4786
g62
(dp4787
S'_class'
p4788
S'brand'
p4789
sS'_href'
p4790
S''
ssg71
Nsg64
(lp4791
g57
(cgluon.html
B
p4792
g59
NtRp4793
(dp4794
g62
(dp4795
sg71
g4785
sg64
(lp4796
S'Buy/Sell'
p4797
asbacgluon.html
XML_unpickle
p4798
(S's\r\x00\x00\x00&trade;&nbsp;'
tRp4799
asbasbasbasbag57
(g73
g59
NtRp4800
(dp4801
g62
(dp4802
sg71
g4326
sg64
(lp4803
g57
(g78
g59
NtRp4804
(dp4805
g62
(dp4806
g82
g83
ssg71
g4800
sg64
(lp4807
S'menu'
p4808
asbag57
(g78
g59
NtRp4809
(dp4810
g62
(dp4811
g89
g90
ssg71
g4800
sg64
(lp4812
S':'
asbag57
(g78
g59
NtRp4813
(dp4814
g62
(dp4815
sg71
g4800
sg64
(lp4816
g57
(g58
g59
NtRp4817
(dp4818
g62
(dp4819
g70
I5
ssg71
g4813
sg64
(lp4820
g57
(g66
g59
NtRp4821
(dp4822
g62
(dp4823
g70
I4
ssg71
Nsg64
(lp4824
g57
(g73
g59
NtRp4825
(dp4826
g62
(dp4827
sg71
g4821
sg64
(lp4828
g57
(g78
g59
NtRp4829
(dp4830
g62
(dp4831
sg71
g4825
sg64
(lp4832
g57
(g58
g59
NtRp4833
(dp4834
g62
(dp4835
g70
I4
ssg71
g4829
sg64
(lp4836
g57
(g66
g59
NtRp4837
(dp4838
g62
(dp4839
g70
I3
ssg71
Nsg64
(lp4840
g57
(g73
g59
NtRp4841
(dp4842
g62
(dp4843
sg71
g4837
sg64
(lp4844
g57
(g78
g59
NtRp4845
(dp4846
g62
(dp4847
sg71
g4841
sg64
(lp4848
g57
(g58
g59
NtRp4849
(dp4850
g62
(dp4851
g70
I3
ssg71
g4845
sg64
(lp4852
cgluon.languages
lazyT_unpickle
p4853
(S's\x04\x00\x00\x00Home'
tRp4854
asbasbasbag57
(g73
g59
NtRp4855
(dp4856
g62
(dp4857
sg71
g4837
sg64
(lp4858
g57
(g78
g59
NtRp4859
(dp4860
g62
(dp4861
sg71
g4855
sg64
(lp4862
g57
(g58
g59
NtRp4863
(dp4864
g62
(dp4865
g70
I3
ssg71
g4859
sg64
(lp4866
g100
asbasbasbag57
(g73
g59
NtRp4867
(dp4868
g62
(dp4869
sg71
g4837
sg64
(lp4870
g57
(g78
g59
NtRp4871
(dp4872
g62
(dp4873
sg71
g4867
sg64
(lp4874
g57
(g58
g59
NtRp4875
(dp4876
g62
(dp4877
g70
I3
ssg71
g4871
sg64
(lp4878
S'/BuySell/default/index'
p4879
asbasbasbag57
(g73
g59
NtRp4880
(dp4881
g62
(dp4882
sg71
g4837
sg64
(lp4883
g57
(g78
g59
NtRp4884
(dp4885
g62
(dp4886
sg71
g4880
sg64
(lp4887
g57
(g58
g59
NtRp4888
(dp4889
g62
(dp4890
g70
I3
ssg71
g4884
sg64
(lp4891
g57
(g66
g59
NtRp4892
(dp4893
g62
(dp4894
g70
I2
ssg71
Nsg64
(lp4895
sbasbasbasbasbasbasbasbag57
(g73
g59
NtRp4896
(dp4897
g62
(dp4898
sg71
g4821
sg64
(lp4899
g57
(g78
g59
NtRp4900
(dp4901
g62
(dp4902
sg71
g4896
sg64
(lp4903
g57
(g58
g59
NtRp4904
(dp4905
g62
(dp4906
g70
I4
ssg71
g4900
sg64
(lp4907
g57
(g66
g59
NtRp4908
(dp4909
g62
(dp4910
g70
I3
ssg71
Nsg64
(lp4911
g57
(g73
g59
NtRp4912
(dp4913
g62
(dp4914
sg71
g4908
sg64
(lp4915
g57
(g78
g59
NtRp4916
(dp4917
g62
(dp4918
sg71
g4912
sg64
(lp4919
g57
(g58
g59
NtRp4920
(dp4921
g62
(dp4922
g70
I3
ssg71
g4916
sg64
(lp4923
g57
(cgluon.html
SPAN
p4924
g59
NtRp4925
(dp4926
g62
(dp4927
g4788
S'highlighted'
p4928
ssg71
Nsg64
(lp4929
S'Navigate'
p4930
asbasbasbasbag57
(g73
g59
NtRp4931
(dp4932
g62
(dp4933
sg71
g4908
sg64
(lp4934
g57
(g78
g59
NtRp4935
(dp4936
g62
(dp4937
sg71
g4931
sg64
(lp4938
g57
(g58
g59
NtRp4939
(dp4940
g62
(dp4941
g70
I3
ssg71
g4935
sg64
(lp4942
g100
asbasbasbag57
(g73
g59
NtRp4943
(dp4944
g62
(dp4945
sg71
g4908
sg64
(lp4946
g57
(g78
g59
NtRp4947
(dp4948
g62
(dp4949
sg71
g4943
sg64
(lp4950
g57
(g58
g59
NtRp4951
(dp4952
g62
(dp4953
g70
I3
ssg71
g4947
sg64
(lp4954
S''
asbasbasbag57
(g73
g59
NtRp4955
(dp4956
g62
(dp4957
sg71
g4908
sg64
(lp4958
g57
(g78
g59
NtRp4959
(dp4960
g62
(dp4961
sg71
g4955
sg64
(lp4962
g57
(g58
g59
NtRp4963
(dp4964
g62
(dp4965
g70
I3
ssg71
g4959
sg64
(lp4966
g57
(g66
g59
NtRp4967
(dp4968
g62
(dp4969
g70
I2
ssg71
Nsg64
(lp4970
g57
(g73
g59
NtRp4971
(dp4972
g62
(dp4973
sg71
g4967
sg64
(lp4974
g57
(g78
g59
NtRp4975
(dp4976
g62
(dp4977
sg71
g4971
sg64
(lp4978
g57
(g58
g59
NtRp4979
(dp4980
g62
(dp4981
g70
I2
ssg71
g4975
sg64
(lp4982
g57
(g66
g59
NtRp4983
(dp4984
g62
(dp4985
g70
I1
ssg71
Nsg64
(lp4986
g57
(g73
g59
NtRp4987
(dp4988
g62
(dp4989
sg71
g4983
sg64
(lp4990
g57
(g78
g59
NtRp4991
(dp4992
g62
(dp4993
sg71
g4987
sg64
(lp4994
g57
(g58
g59
NtRp4995
(dp4996
g62
(dp4997
g70
I1
ssg71
g4991
sg64
(lp4998
g4853
(S's\r\x00\x00\x00List of items'
tRp4999
asbasbasbag57
(g73
g59
NtRp5000
(dp5001
g62
(dp5002
sg71
g4983
sg64
(lp5003
g57
(g78
g59
NtRp5004
(dp5005
g62
(dp5006
sg71
g5000
sg64
(lp5007
g57
(g58
g59
NtRp5008
(dp5009
g62
(dp5010
g70
I1
ssg71
g5004
sg64
(lp5011
I00
asbasbasbag57
(g73
g59
NtRp5012
(dp5013
g62
(dp5014
sg71
g4983
sg64
(lp5015
g57
(g78
g59
NtRp5016
(dp5017
g62
(dp5018
sg71
g5012
sg64
(lp5019
g57
(g58
g59
NtRp5020
(dp5021
g62
(dp5022
g70
I1
ssg71
g5016
sg64
(lp5023
S'/BuySell/default/list_items'
p5024
asbasbasbasbasbasbasbag57
(g73
g59
NtRp5025
(dp5026
g62
(dp5027
sg71
g4967
sg64
(lp5028
g57
(g78
g59
NtRp5029
(dp5030
g62
(dp5031
sg71
g5025
sg64
(lp5032
g57
(g58
g59
NtRp5033
(dp5034
g62
(dp5035
g70
I2
ssg71
g5029
sg64
(lp5036
g57
(g66
g59
NtRp5037
(dp5038
g62
(dp5039
g70
I1
ssg71
Nsg64
(lp5040
g57
(g73
g59
NtRp5041
(dp5042
g62
(dp5043
sg71
g5037
sg64
(lp5044
g57
(g78
g59
NtRp5045
(dp5046
g62
(dp5047
sg71
g5041
sg64
(lp5048
g57
(g58
g59
NtRp5049
(dp5050
g62
(dp5051
g70
I1
ssg71
g5045
sg64
(lp5052
g4853
(S't\x04\x00\x00\x00Sell'
tRp5053
asbasbasbag57
(g73
g59
NtRp5054
(dp5055
g62
(dp5056
sg71
g5037
sg64
(lp5057
g57
(g78
g59
NtRp5058
(dp5059
g62
(dp5060
sg71
g5054
sg64
(lp5061
g57
(g58
g59
NtRp5062
(dp5063
g62
(dp5064
g70
I1
ssg71
g5058
sg64
(lp5065
I00
asbasbasbag57
(g73
g59
NtRp5066
(dp5067
g62
(dp5068
sg71
g5037
sg64
(lp5069
g57
(g78
g59
NtRp5070
(dp5071
g62
(dp5072
sg71
g5066
sg64
(lp5073
g57
(g58
g59
NtRp5074
(dp5075
g62
(dp5076
g70
I1
ssg71
g5070
sg64
(lp5077
S'/admin/default/design/BuySell'
p5078
asbasbasbag57
(g73
g59
NtRp5079
(dp5080
g62
(dp5081
sg71
g5037
sg64
(lp5082
g57
(g78
g59
NtRp5083
(dp5084
g62
(dp5085
sg71
g5079
sg64
(lp5086
g57
(g58
g59
NtRp5087
(dp5088
g62
(dp5089
g70
I1
ssg71
g5083
sg64
(lp5090
(lp5091
(g4853
(S's\x08\x00\x00\x00Add Item'
tRp5092
I00
S'/BuySell/default/add_item'
tp5093
a(g4853
(S's\x0c\x00\x00\x00Listed Items'
tRp5094
I00
S'/BuySell/default/listed_items'
tp5095
a(g4853
(S's\x06\x00\x00\x00Layout'
tRp5096
I00
S'/admin/default/edit/BuySell/views/layout.html'
tp5097
a(g4853
(S's\n\x00\x00\x00Stylesheet'
tRp5098
I00
S'/admin/default/edit/BuySell/static/css/web2py.css'
tp5099
a(g4853
(S's\x08\x00\x00\x00DB Model'
tRp5100
I00
S'/admin/default/edit/BuySell/models/db.py'
tp5101
a(g4853
(S's\n\x00\x00\x00Menu Model'
tRp5102
I00
S'/admin/default/edit/BuySell/models/menu.py'
tp5103
a(g4853
(S's\x08\x00\x00\x00Database'
tRp5104
I00
S'/BuySell/appadmin/index'
tp5105
a(g4853
(S's\x06\x00\x00\x00Errors'
tRp5106
I00
S'/admin/default/errors/BuySell'
tp5107
a(g4853
(S's\x05\x00\x00\x00About'
tRp5108
I00
S'/admin/default/about/BuySell'
tp5109
aasbasbasbasbasbasbasbag57
(g73
g59
NtRp5110
(dp5111
g62
(dp5112
sg71
g4967
sg64
(lp5113
g57
(g78
g59
NtRp5114
(dp5115
g62
(dp5116
sg71
g5110
sg64
(lp5117
g57
(g58
g59
NtRp5118
(dp5119
g62
(dp5120
g70
I2
ssg71
g5114
sg64
(lp5121
g57
(g66
g59
NtRp5122
(dp5123
g62
(dp5124
g70
I1
ssg71
Nsg64
(lp5125
g57
(g73
g59
NtRp5126
(dp5127
g62
(dp5128
sg71
g5122
sg64
(lp5129
g57
(g78
g59
NtRp5130
(dp5131
g62
(dp5132
sg71
g5126
sg64
(lp5133
g57
(g58
g59
NtRp5134
(dp5135
g62
(dp5136
g70
I1
ssg71
g5130
sg64
(lp5137
S'Buy'
p5138
asbasbasbag57
(g73
g59
NtRp5139
(dp5140
g62
(dp5141
sg71
g5122
sg64
(lp5142
g57
(g78
g59
NtRp5143
(dp5144
g62
(dp5145
sg71
g5139
sg64
(lp5146
g57
(g58
g59
NtRp5147
(dp5148
g62
(dp5149
g70
I1
ssg71
g5143
sg64
(lp5150
I00
asbasbasbag57
(g73
g59
NtRp5151
(dp5152
g62
(dp5153
sg71
g5122
sg64
(lp5154
g57
(g78
g59
NtRp5155
(dp5156
g62
(dp5157
sg71
g5151
sg64
(lp5158
g57
(g58
g59
NtRp5159
(dp5160
g62
(dp5161
g70
I1
ssg71
g5155
sg64
(lp5162
S'http://www.web2py.com'
p5163
asbasbasbag57
(g73
g59
NtRp5164
(dp5165
g62
(dp5166
sg71
g5122
sg64
(lp5167
g57
(g78
g59
NtRp5168
(dp5169
g62
(dp5170
sg71
g5164
sg64
(lp5171
g57
(g58
g59
NtRp5172
(dp5173
g62
(dp5174
g70
I1
ssg71
g5168
sg64
(lp5175
(lp5176
(g4853
(S's\x08\x00\x00\x00Download'
tRp5177
I00
S'http://www.web2py.com/examples/default/download'
p5178
tp5179
a(g4853
(S's\x07\x00\x00\x00Support'
tRp5180
I00
S'http://www.web2py.com/examples/default/support'
p5181
tp5182
a(g4853
(S's\x04\x00\x00\x00Demo'
tRp5183
I00
S'http://web2py.com/demo_admin'
p5184
tp5185
a(g4853
(S's\x0e\x00\x00\x00Quick Examples'
tRp5186
I00
S'http://web2py.com/examples/default/examples'
p5187
tp5188
a(g4853
(S's\x03\x00\x00\x00FAQ'
tRp5189
I00
S'http://web2py.com/AlterEgo'
p5190
tp5191
a(g4853
(S's\x06\x00\x00\x00Videos'
tRp5192
I00
S'http://www.web2py.com/examples/default/videos/'
p5193
tp5194
a(g4853
(S's\x11\x00\x00\x00Free Applications'
tRp5195
I00
S'http://web2py.com/appliances'
p5196
tp5197
a(g4853
(S's\x07\x00\x00\x00Plugins'
tRp5198
I00
S'http://web2py.com/plugins'
p5199
tp5200
a(g4853
(S's\x07\x00\x00\x00Layouts'
tRp5201
I00
S'http://web2py.com/layouts'
p5202
tp5203
a(g4853
(S's\x07\x00\x00\x00Recipes'
tRp5204
I00
S'http://web2pyslices.com/'
p5205
tp5206
a(g4853
(S's\x08\x00\x00\x00Semantic'
tRp5207
I00
S'http://web2py.com/semantic'
p5208
tp5209
aasbasbasbasbasbasbasbag57
(g73
g59
NtRp5210
(dp5211
g62
(dp5212
sg71
g4967
sg64
(lp5213
g57
(g78
g59
NtRp5214
(dp5215
g62
(dp5216
sg71
g5210
sg64
(lp5217
g57
(g58
g59
NtRp5218
(dp5219
g62
(dp5220
g70
I2
ssg71
g5214
sg64
(lp5221
g57
(g66
g59
NtRp5222
(dp5223
g62
(dp5224
g70
I1
ssg71
Nsg64
(lp5225
g57
(g73
g59
NtRp5226
(dp5227
g62
(dp5228
sg71
g5222
sg64
(lp5229
g57
(g78
g59
NtRp5230
(dp5231
g62
(dp5232
sg71
g5226
sg64
(lp5233
g57
(g58
g59
NtRp5234
(dp5235
g62
(dp5236
g70
I1
ssg71
g5230
sg64
(lp5237
g4853
(S's\x0e\x00\x00\x00All Categories'
tRp5238
asbasbasbag57
(g73
g59
NtRp5239
(dp5240
g62
(dp5241
sg71
g5222
sg64
(lp5242
g57
(g78
g59
NtRp5243
(dp5244
g62
(dp5245
sg71
g5239
sg64
(lp5246
g57
(g58
g59
NtRp5247
(dp5248
g62
(dp5249
g70
I1
ssg71
g5243
sg64
(lp5250
I00
asbasbasbag57
(g73
g59
NtRp5251
(dp5252
g62
(dp5253
sg71
g5222
sg64
(lp5254
g57
(g78
g59
NtRp5255
(dp5256
g62
(dp5257
sg71
g5251
sg64
(lp5258
g57
(g58
g59
NtRp5259
(dp5260
g62
(dp5261
g70
I1
ssg71
g5255
sg64
(lp5262
S'http://www.web2py.com/book'
p5263
asbasbasbag57
(g73
g59
NtRp5264
(dp5265
g62
(dp5266
sg71
g5222
sg64
(lp5267
g57
(g78
g59
NtRp5268
(dp5269
g62
(dp5270
sg71
g5264
sg64
(lp5271
g57
(g58
g59
NtRp5272
(dp5273
g62
(dp5274
g70
I1
ssg71
g5268
sg64
(lp5275
(lp5276
(g4853
(S's\x07\x00\x00\x00Preface'
tRp5277
I00
S'http://www.web2py.com/book/default/chapter/00'
p5278
tp5279
a(g4853
(S's\x0c\x00\x00\x00Introduction'
tRp5280
I00
S'http://www.web2py.com/book/default/chapter/01'
p5281
tp5282
a(g4853
(S's\x06\x00\x00\x00Python'
tRp5283
I00
S'http://www.web2py.com/book/default/chapter/02'
p5284
tp5285
a(g4853
(S's\x08\x00\x00\x00Overview'
tRp5286
I00
S'http://www.web2py.com/book/default/chapter/03'
p5287
tp5288
a(g4853
(S's\x08\x00\x00\x00The Core'
tRp5289
I00
S'http://www.web2py.com/book/default/chapter/04'
p5290
tp5291
a(g4853
(S's\t\x00\x00\x00The Views'
tRp5292
I00
S'http://www.web2py.com/book/default/chapter/05'
p5293
tp5294
a(g4853
(S's\x08\x00\x00\x00Database'
tRp5295
I00
S'http://www.web2py.com/book/default/chapter/06'
p5296
tp5297
a(g4853
(S's\x14\x00\x00\x00Forms and Validators'
tRp5298
I00
S'http://www.web2py.com/book/default/chapter/07'
p5299
tp5300
a(g4853
(S's\r\x00\x00\x00Email and SMS'
tRp5301
I00
S'http://www.web2py.com/book/default/chapter/08'
p5302
tp5303
a(g4853
(S's\x0e\x00\x00\x00Access Control'
tRp5304
I00
S'http://www.web2py.com/book/default/chapter/09'
p5305
tp5306
a(g4853
(S's\x08\x00\x00\x00Services'
tRp5307
I00
S'http://www.web2py.com/book/default/chapter/10'
p5308
tp5309
a(g4853
(S's\x0c\x00\x00\x00Ajax Recipes'
tRp5310
I00
S'http://www.web2py.com/book/default/chapter/11'
p5311
tp5312
a(g4853
(S's\x16\x00\x00\x00Components and Plugins'
tRp5313
I00
S'http://www.web2py.com/book/default/chapter/12'
p5314
tp5315
a(g4853
(S's\x12\x00\x00\x00Deployment Recipes'
tRp5316
I00
S'http://www.web2py.com/book/default/chapter/13'
p5317
tp5318
a(g4853
(S's\r\x00\x00\x00Other Recipes'
tRp5319
I00
S'http://www.web2py.com/book/default/chapter/14'
p5320
tp5321
a(g4853
(S's\r\x00\x00\x00Buy this book'
tRp5322
I00
S'http://stores.lulu.com/web2py'
p5323
tp5324
aasbasbasbasbasbasbasbag57
(g73
g59
NtRp5325
(dp5326
g62
(dp5327
sg71
g4967
sg64
(lp5328
g57
(g78
g59
NtRp5329
(dp5330
g62
(dp5331
sg71
g5325
sg64
(lp5332
g57
(g58
g59
NtRp5333
(dp5334
g62
(dp5335
g70
I2
ssg71
g5329
sg64
(lp5336
g57
(g66
g59
NtRp5337
(dp5338
g62
(dp5339
g70
I1
ssg71
Nsg64
(lp5340
g57
(g73
g59
NtRp5341
(dp5342
g62
(dp5343
sg71
g5337
sg64
(lp5344
g57
(g78
g59
NtRp5345
(dp5346
g62
(dp5347
sg71
g5341
sg64
(lp5348
g57
(g58
g59
NtRp5349
(dp5350
g62
(dp5351
g70
I1
ssg71
g5345
sg64
(lp5352
g4853
(S's\t\x00\x00\x00Community'
tRp5353
asbasbasbag57
(g73
g59
NtRp5354
(dp5355
g62
(dp5356
sg71
g5337
sg64
(lp5357
g57
(g78
g59
NtRp5358
(dp5359
g62
(dp5360
sg71
g5354
sg64
(lp5361
g57
(g58
g59
NtRp5362
(dp5363
g62
(dp5364
g70
I1
ssg71
g5358
sg64
(lp5365
I00
asbasbasbag57
(g73
g59
NtRp5366
(dp5367
g62
(dp5368
sg71
g5337
sg64
(lp5369
g57
(g78
g59
NtRp5370
(dp5371
g62
(dp5372
sg71
g5366
sg64
(lp5373
g57
(g58
g59
NtRp5374
(dp5375
g62
(dp5376
g70
I1
ssg71
g5370
sg64
(lp5377
Nasbasbasbag57
(g73
g59
NtRp5378
(dp5379
g62
(dp5380
sg71
g5337
sg64
(lp5381
g57
(g78
g59
NtRp5382
(dp5383
g62
(dp5384
sg71
g5378
sg64
(lp5385
g57
(g58
g59
NtRp5386
(dp5387
g62
(dp5388
g70
I1
ssg71
g5382
sg64
(lp5389
(lp5390
(g4853
(S's\t\x00\x00\x00Community'
tRp5391
I00
S'http://www.web2py.com/examples/default/usergroups'
p5392
tp5393
a(g4853
(S's\x07\x00\x00\x00Twitter'
tRp5394
I00
S'http://twitter.com/web2py'
p5395
tp5396
a(g4853
(S's\t\x00\x00\x00Live Chat'
tRp5397
I00
S'http://webchat.freenode.net/?channels=web2py'
p5398
tp5399
aasbasbasbasbasbasbasbag57
(g73
g59
NtRp5400
(dp5401
g62
(dp5402
sg71
g4967
sg64
(lp5403
g57
(g78
g59
NtRp5404
(dp5405
g62
(dp5406
sg71
g5400
sg64
(lp5407
g57
(g58
g59
NtRp5408
(dp5409
g62
(dp5410
g70
I2
ssg71
g5404
sg64
(lp5411
g57
(g66
g59
NtRp5412
(dp5413
g62
(dp5414
g70
I1
ssg71
Nsg64
(lp5415
g57
(g73
g59
NtRp5416
(dp5417
g62
(dp5418
sg71
g5412
sg64
(lp5419
g57
(g78
g59
NtRp5420
(dp5421
g62
(dp5422
sg71
g5416
sg64
(lp5423
g57
(g58
g59
NtRp5424
(dp5425
g62
(dp5426
g70
I1
ssg71
g5420
sg64
(lp5427
g4853
(S't\x04\x00\x00\x00Help'
tRp5428
asbasbasbag57
(g73
g59
NtRp5429
(dp5430
g62
(dp5431
sg71
g5412
sg64
(lp5432
g57
(g78
g59
NtRp5433
(dp5434
g62
(dp5435
sg71
g5429
sg64
(lp5436
g57
(g58
g59
NtRp5437
(dp5438
g62
(dp5439
g70
I1
ssg71
g5433
sg64
(lp5440
I00
asbasbasbag57
(g73
g59
NtRp5441
(dp5442
g62
(dp5443
sg71
g5412
sg64
(lp5444
g57
(g78
g59
NtRp5445
(dp5446
g62
(dp5447
sg71
g5441
sg64
(lp5448
g57
(g58
g59
NtRp5449
(dp5450
g62
(dp5451
g70
I1
ssg71
g5445
sg64
(lp5452
Nasbasbasbag57
(g73
g59
NtRp5453
(dp5454
g62
(dp5455
sg71
g5412
sg64
(lp5456
g57
(g78
g59
NtRp5457
(dp5458
g62
(dp5459
sg71
g5453
sg64
(lp5460
g57
(g58
g59
NtRp5461
(dp5462
g62
(dp5463
g70
I1
ssg71
g5457
sg64
(lp5464
(lp5465
(S'plugin_wiki'
p5466
I00
S'http://web2py.com/examples/default/download'
p5467
tp5468
a(g4853
(S's\r\x00\x00\x00Other Plugins'
tRp5469
I00
g5199
tp5470
a(g4853
(S's\x0e\x00\x00\x00Layout Plugins'
tRp5471
I00
g5202
tp5472
aasbasbasbasbasbasbasbasbasbasbasbasbasbasbasbasbasbasbasbag57
(g73
g59
NtRp5473
(dp5474
g62
(dp5475
sg71
g4326
sg64
(lp5476
g57
(g78
g59
NtRp5477
(dp5478
g62
(dp5479
g82
g83
ssg71
g5473
sg64
(lp5480
S'meta'
p5481
asbag57
(g78
g59
NtRp5482
(dp5483
g62
(dp5484
g89
g90
ssg71
g5473
sg64
(lp5485
S':'
asbag57
(g78
g59
NtRp5486
(dp5487
g62
(dp5488
sg71
g5473
sg64
(lp5489
g57
(g58
g59
NtRp5490
(dp5491
g62
(dp5492
g70
I5
ssg71
g5486
sg64
(lp5493
g57
(g66
g59
NtRp5494
(dp5495
g62
(dp5496
g70
I4
ssg71
Nsg64
(lp5497
g57
(g73
g59
NtRp5498
(dp5499
g62
(dp5500
sg71
g5494
sg64
(lp5501
g57
(g78
g59
NtRp5502
(dp5503
g62
(dp5504
g82
g83
ssg71
g5498
sg64
(lp5505
S'author'
p5506
asbag57
(g78
g59
NtRp5507
(dp5508
g62
(dp5509
g89
g90
ssg71
g5498
sg64
(lp5510
S':'
asbag57
(g78
g59
NtRp5511
(dp5512
g62
(dp5513
sg71
g5498
sg64
(lp5514
g57
(g58
g59
NtRp5515
(dp5516
g62
(dp5517
g70
I4
ssg71
g5511
sg64
(lp5518
S'Your Name <you@example.com>'
p5519
asbasbasbag57
(g73
g59
NtRp5520
(dp5521
g62
(dp5522
sg71
g5494
sg64
(lp5523
g57
(g78
g59
NtRp5524
(dp5525
g62
(dp5526
g82
g83
ssg71
g5520
sg64
(lp5527
S'description'
p5528
asbag57
(g78
g59
NtRp5529
(dp5530
g62
(dp5531
g89
g90
ssg71
g5520
sg64
(lp5532
S':'
asbag57
(g78
g59
NtRp5533
(dp5534
g62
(dp5535
sg71
g5520
sg64
(lp5536
g57
(g58
g59
NtRp5537
(dp5538
g62
(dp5539
g70
I4
ssg71
g5533
sg64
(lp5540
S'a cool new app'
p5541
asbasbasbag57
(g73
g59
NtRp5542
(dp5543
g62
(dp5544
sg71
g5494
sg64
(lp5545
g57
(g78
g59
NtRp5546
(dp5547
g62
(dp5548
g82
g83
ssg71
g5542
sg64
(lp5549
S'generator'
p5550
asbag57
(g78
g59
NtRp5551
(dp5552
g62
(dp5553
g89
g90
ssg71
g5542
sg64
(lp5554
S':'
asbag57
(g78
g59
NtRp5555
(dp5556
g62
(dp5557
sg71
g5542
sg64
(lp5558
g57
(g58
g59
NtRp5559
(dp5560
g62
(dp5561
g70
I4
ssg71
g5555
sg64
(lp5562
S'Web2py Web Framework'
p5563
asbasbasbag57
(g73
g59
NtRp5564
(dp5565
g62
(dp5566
sg71
g5494
sg64
(lp5567
g57
(g78
g59
NtRp5568
(dp5569
g62
(dp5570
g82
g83
ssg71
g5564
sg64
(lp5571
S'keywords'
p5572
asbag57
(g78
g59
NtRp5573
(dp5574
g62
(dp5575
g89
g90
ssg71
g5564
sg64
(lp5576
S':'
asbag57
(g78
g59
NtRp5577
(dp5578
g62
(dp5579
sg71
g5564
sg64
(lp5580
g57
(g58
g59
NtRp5581
(dp5582
g62
(dp5583
g70
I4
ssg71
g5577
sg64
(lp5584
S'web2py, python, framework'
p5585
asbasbasbasbasbasbasbag57
(g73
g59
NtRp5586
(dp5587
g62
(dp5588
sg71
g4326
sg64
(lp5589
g57
(g78
g59
NtRp5590
(dp5591
g62
(dp5592
g82
g83
ssg71
g5586
sg64
(lp5593
S'models_to_run'
p5594
asbag57
(g78
g59
NtRp5595
(dp5596
g62
(dp5597
g89
g90
ssg71
g5586
sg64
(lp5598
S':'
asbag57
(g78
g59
NtRp5599
(dp5600
g62
(dp5601
sg71
g5586
sg64
(lp5602
g57
(g58
g59
NtRp5603
(dp5604
g62
(dp5605
g70
I5
ssg71
g5599
sg64
(lp5606
g57
(g66
g59
NtRp5607
(dp5608
g62
(dp5609
g70
I4
ssg71
Nsg64
(lp5610
g57
(g73
g59
NtRp5611
(dp5612
g62
(dp5613
sg71
g5607
sg64
(lp5614
g57
(g78
g59
NtRp5615
(dp5616
g62
(dp5617
sg71
g5611
sg64
(lp5618
g57
(g58
g59
NtRp5619
(dp5620
g62
(dp5621
g70
I4
ssg71
g5615
sg64
(lp5622
S'^\\w+\\.py$'
p5623
asbasbasbag57
(g73
g59
NtRp5624
(dp5625
g62
(dp5626
sg71
g5607
sg64
(lp5627
g57
(g78
g59
NtRp5628
(dp5629
g62
(dp5630
sg71
g5624
sg64
(lp5631
g57
(g58
g59
NtRp5632
(dp5633
g62
(dp5634
g70
I4
ssg71
g5628
sg64
(lp5635
S'^default/\\w+\\.py$'
p5636
asbasbasbag57
(g73
g59
NtRp5637
(dp5638
g62
(dp5639
sg71
g5607
sg64
(lp5640
g57
(g78
g59
NtRp5641
(dp5642
g62
(dp5643
sg71
g5637
sg64
(lp5644
g57
(g58
g59
NtRp5645
(dp5646
g62
(dp5647
g70
I4
ssg71
g5641
sg64
(lp5648
S'^default/seller/\\w+\\.py$'
p5649
asbasbasbasbasbasbasbag57
(g73
g59
NtRp5650
(dp5651
g62
(dp5652
sg71
g4326
sg64
(lp5653
g57
(g78
g59
NtRp5654
(dp5655
g62
(dp5656
g82
g83
ssg71
g5650
sg64
(lp5657
S'postprocessing'
p5658
asbag57
(g78
g59
NtRp5659
(dp5660
g62
(dp5661
g89
g90
ssg71
g5650
sg64
(lp5662
S':'
asbag57
(g78
g59
NtRp5663
(dp5664
g62
(dp5665
sg71
g5650
sg64
(lp5666
g57
(g58
g59
NtRp5667
(dp5668
g62
(dp5669
g70
I5
ssg71
g5663
sg64
(lp5670
g57
(g66
g59
NtRp5671
(dp5672
g62
(dp5673
g70
I4
ssg71
Nsg64
(lp5674
sbasbasbasbag57
(g73
g59
NtRp5675
(dp5676
g62
(dp5677
sg71
g4326
sg64
(lp5678
g57
(g78
g59
NtRp5679
(dp5680
g62
(dp5681
g82
g83
ssg71
g5675
sg64
(lp5682
S'session_cookie_expires'
p5683
asbag57
(g78
g59
NtRp5684
(dp5685
g62
(dp5686
g89
g90
ssg71
g5675
sg64
(lp5687
S':'
asbag57
(g78
g59
NtRp5688
(dp5689
g62
(dp5690
sg71
g5675
sg64
(lp5691
g57
(g58
g59
NtRp5692
(dp5693
g62
(dp5694
g70
I5
ssg71
g5688
sg64
(lp5695
S'None'
p5696
asbasbasbag57
(g73
g59
NtRp5697
(dp5698
g62
(dp5699
sg71
g4326
sg64
(lp5700
g57
(g78
g59
NtRp5701
(dp5702
g62
(dp5703
g82
g83
ssg71
g5697
sg64
(lp5704
S'session_data_name'
p5705
asbag57
(g78
g59
NtRp5706
(dp5707
g62
(dp5708
g89
g90
ssg71
g5697
sg64
(lp5709
S':'
asbag57
(g78
g59
NtRp5710
(dp5711
g62
(dp5712
sg71
g5697
sg64
(lp5713
g57
(g58
g59
NtRp5714
(dp5715
g62
(dp5716
g70
I5
ssg71
g5710
sg64
(lp5717
S'session_data_buysell'
p5718
asbasbasbag57
(g73
g59
NtRp5719
(dp5720
g62
(dp5721
sg71
g4326
sg64
(lp5722
g57
(g78
g59
NtRp5723
(dp5724
g62
(dp5725
g82
g83
ssg71
g5719
sg64
(lp5726
S'session_file'
p5727
asbag57
(g78
g59
NtRp5728
(dp5729
g62
(dp5730
g89
g90
ssg71
g5719
sg64
(lp5731
S':'
asbag57
(g78
g59
NtRp5732
(dp5733
g62
(dp5734
sg71
g5719
sg64
(lp5735
g57
(g58
g59
NtRp5736
(dp5737
g62
(dp5738
g70
I5
ssg71
g5732
sg64
(lp5739
S"<open file '/home/pratyush/web2py/applications/BuySell/sessions/127.0.0.1-d5a07803-4f5c-44c8-b05d-2876d30ca822', mode 'rb+' at 0xaf92ee8>"
p5740
asbasbasbag57
(g73
g59
NtRp5741
(dp5742
g62
(dp5743
sg71
g4326
sg64
(lp5744
g57
(g78
g59
NtRp5745
(dp5746
g62
(dp5747
g82
g83
ssg71
g5741
sg64
(lp5748
S'session_filename'
p5749
asbag57
(g78
g59
NtRp5750
(dp5751
g62
(dp5752
g89
g90
ssg71
g5741
sg64
(lp5753
S':'
asbag57
(g78
g59
NtRp5754
(dp5755
g62
(dp5756
sg71
g5741
sg64
(lp5757
g57
(g58
g59
NtRp5758
(dp5759
g62
(dp5760
g70
I5
ssg71
g5754
sg64
(lp5761
S'/home/pratyush/web2py/applications/BuySell/sessions/127.0.0.1-d5a07803-4f5c-44c8-b05d-2876d30ca822'
p5762
asbasbasbag57
(g73
g59
NtRp5763
(dp5764
g62
(dp5765
sg71
g4326
sg64
(lp5766
g57
(g78
g59
NtRp5767
(dp5768
g62
(dp5769
g82
g83
ssg71
g5763
sg64
(lp5770
S'session_id'
p5771
asbag57
(g78
g59
NtRp5772
(dp5773
g62
(dp5774
g89
g90
ssg71
g5763
sg64
(lp5775
S':'
asbag57
(g78
g59
NtRp5776
(dp5777
g62
(dp5778
sg71
g5763
sg64
(lp5779
g57
(g58
g59
NtRp5780
(dp5781
g62
(dp5782
g70
I5
ssg71
g5776
sg64
(lp5783
g673
asbasbasbag57
(g73
g59
NtRp5784
(dp5785
g62
(dp5786
sg71
g4326
sg64
(lp5787
g57
(g78
g59
NtRp5788
(dp5789
g62
(dp5790
g82
g83
ssg71
g5784
sg64
(lp5791
S'session_id_name'
p5792
asbag57
(g78
g59
NtRp5793
(dp5794
g62
(dp5795
g89
g90
ssg71
g5784
sg64
(lp5796
S':'
asbag57
(g78
g59
NtRp5797
(dp5798
g62
(dp5799
sg71
g5784
sg64
(lp5800
g57
(g58
g59
NtRp5801
(dp5802
g62
(dp5803
g70
I5
ssg71
g5797
sg64
(lp5804
g4383
asbasbasbag57
(g73
g59
NtRp5805
(dp5806
g62
(dp5807
sg71
g4326
sg64
(lp5808
g57
(g78
g59
NtRp5809
(dp5810
g62
(dp5811
g82
g83
ssg71
g5805
sg64
(lp5812
S'session_locked'
p5813
asbag57
(g78
g59
NtRp5814
(dp5815
g62
(dp5816
g89
g90
ssg71
g5805
sg64
(lp5817
S':'
asbag57
(g78
g59
NtRp5818
(dp5819
g62
(dp5820
sg71
g5805
sg64
(lp5821
g57
(g58
g59
NtRp5822
(dp5823
g62
(dp5824
g70
I5
ssg71
g5818
sg64
(lp5825
g2361
asbasbasbag57
(g73
g59
NtRp5826
(dp5827
g62
(dp5828
sg71
g4326
sg64
(lp5829
g57
(g78
g59
NtRp5830
(dp5831
g62
(dp5832
g82
g83
ssg71
g5826
sg64
(lp5833
S'session_new'
p5834
asbag57
(g78
g59
NtRp5835
(dp5836
g62
(dp5837
g89
g90
ssg71
g5826
sg64
(lp5838
S':'
asbag57
(g78
g59
NtRp5839
(dp5840
g62
(dp5841
sg71
g5826
sg64
(lp5842
g57
(g58
g59
NtRp5843
(dp5844
g62
(dp5845
g70
I5
ssg71
g5839
sg64
(lp5846
g100
asbasbasbag57
(g73
g59
NtRp5847
(dp5848
g62
(dp5849
sg71
g4326
sg64
(lp5850
g57
(g78
g59
NtRp5851
(dp5852
g62
(dp5853
g82
g83
ssg71
g5847
sg64
(lp5854
S'session_storage_type'
p5855
asbag57
(g78
g59
NtRp5856
(dp5857
g62
(dp5858
g89
g90
ssg71
g5847
sg64
(lp5859
S':'
asbag57
(g78
g59
NtRp5860
(dp5861
g62
(dp5862
sg71
g5847
sg64
(lp5863
g57
(g58
g59
NtRp5864
(dp5865
g62
(dp5866
g70
I5
ssg71
g5860
sg64
(lp5867
g3813
asbasbasbag57
(g73
g59
NtRp5868
(dp5869
g62
(dp5870
sg71
g4326
sg64
(lp5871
g57
(g78
g59
NtRp5872
(dp5873
g62
(dp5874
g82
g83
ssg71
g5868
sg64
(lp5875
S'status'
p5876
asbag57
(g78
g59
NtRp5877
(dp5878
g62
(dp5879
g89
g90
ssg71
g5868
sg64
(lp5880
S':'
asbag57
(g78
g59
NtRp5881
(dp5882
g62
(dp5883
sg71
g5868
sg64
(lp5884
g57
(g58
g59
NtRp5885
(dp5886
g62
(dp5887
g70
I5
ssg71
g5881
sg64
(lp5888
S'200'
p5889
asbasbasbag57
(g73
g59
NtRp5890
(dp5891
g62
(dp5892
sg71
g4326
sg64
(lp5893
g57
(g78
g59
NtRp5894
(dp5895
g62
(dp5896
g82
g83
ssg71
g5890
sg64
(lp5897
S'subtitle'
p5898
asbag57
(g78
g59
NtRp5899
(dp5900
g62
(dp5901
g89
g90
ssg71
g5890
sg64
(lp5902
S':'
asbag57
(g78
g59
NtRp5903
(dp5904
g62
(dp5905
sg71
g5890
sg64
(lp5906
g57
(g58
g59
NtRp5907
(dp5908
g62
(dp5909
g70
I5
ssg71
g5903
sg64
(lp5910
g4853
(S's\r\x00\x00\x00customize me!'
tRp5911
asbasbasbag57
(g73
g59
NtRp5912
(dp5913
g62
(dp5914
sg71
g4326
sg64
(lp5915
g57
(g78
g59
NtRp5916
(dp5917
g62
(dp5918
g82
g83
ssg71
g5912
sg64
(lp5919
S'title'
p5920
asbag57
(g78
g59
NtRp5921
(dp5922
g62
(dp5923
g89
g90
ssg71
g5912
sg64
(lp5924
S':'
asbag57
(g78
g59
NtRp5925
(dp5926
g62
(dp5927
sg71
g5912
sg64
(lp5928
g57
(g58
g59
NtRp5929
(dp5930
g62
(dp5931
g70
I5
ssg71
g5925
sg64
(lp5932
S'Buysell'
p5933
asbasbasbag57
(g73
g59
NtRp5934
(dp5935
g62
(dp5936
sg71
g4326
sg64
(lp5937
g57
(g78
g59
NtRp5938
(dp5939
g62
(dp5940
g82
g83
ssg71
g5934
sg64
(lp5941
S'view'
p5942
asbag57
(g78
g59
NtRp5943
(dp5944
g62
(dp5945
g89
g90
ssg71
g5934
sg64
(lp5946
S':'
asbag57
(g78
g59
NtRp5947
(dp5948
g62
(dp5949
sg71
g5934
sg64
(lp5950
g57
(g58
g59
NtRp5951
(dp5952
g62
(dp5953
g70
I5
ssg71
g5947
sg64
(lp5954
S'default/seller.html'
p5955
asbasbasbasbasbsS'locals'
p5956
(dp5957
S'count'
p5958
S'2'
sS'avg'
p5959
S'7'
sS'i'
S"<Row {'rate': '3', 'id': 2, 'seller': 2}>"
p5960
sg3906
S"<Row {'last_name': 'Arb', 'reset_password_key': ...1d4469fa7e987caf146f64', 'email': 'anne@ab.com'}>"
p5961
sS'av'
p5962
S'3.5'
p5963
sS'sellr'
p5964
S'<Rows (2)>'
p5965
sssS'traceback'
p5966
S'Traceback (most recent call last):\n  File "/home/pratyush/web2py/gluon/restricted.py", line 212, in restricted\n    exec ccode in environment\n  File "/home/pratyush/web2py/applications/BuySell/controllers/default.py", line 133, in <module>\n  File "/home/pratyush/web2py/gluon/globals.py", line 193, in <lambda>\n    self._caller = lambda f: f()\n  File "/home/pratyush/web2py/gluon/tools.py", line 2929, in f\n    return action(*a, **b)\n  File "/home/pratyush/web2py/applications/BuySell/controllers/default.py", line 115, in seller\n    form.vars.seller.default = request.args(0)\nUnboundLocalError: local variable \'form\' referenced before assignment\n'
p5967
s.