(dp1
S'output'
p2
S"<type 'exceptions.SyntaxError'> invalid syntax (default.py, line 77)"
p3
sS'layer'
p4
S'/home/pratyush/web2py/applications/BuySell/controllers/default.py'
p5
sS'code'
p6
S'# -*- coding: utf-8 -*-\n# this file is released under public domain and you can use without limitations\n\n#########################################################################\n## This is a samples controller\n## - index is the default action of any application\n## - user is required for authentication and authorization\n## - download is for downloading files uploaded in the db (does streaming)\n## - call exposes all registered services (none by default)\n#########################################################################\n\n\ndef index():\n    """\n    example action using the internationalization operator T and flash\n    rendered by views/default/index.html or views/generic.html\n\n    if you need a simple wiki simple replace the two lines below with:\n    return auth.wiki()\n    """\n    response.flash = T("Welcome to web2py!")\n    return dict(message=T(\'Hello World\'))\n\n\ndef user():\n    """\n    exposes:\n    http://..../[app]/default/user/login\n    http://..../[app]/default/user/logout\n    http://..../[app]/default/user/register\n    http://..../[app]/default/user/profile\n    http://..../[app]/default/user/retrieve_password\n    http://..../[app]/default/user/change_password\n    use @auth.requires_login()\n        @auth.requires_membership(\'group name\')\n        @auth.requires_permission(\'read\',\'table name\',record_id)\n    to decorate functions that need access control\n    """\n    return dict(form=auth())\n\n\ndef download():\n    """\n    allows downloading of uploaded files\n    http://..../[app]/default/download/[filename]\n    """\n    return response.download(request, db)\n\n\ndef call():\n    """\n    exposes services. for example:\n    http://..../[app]/default/call/jsonrpc\n    decorate with @services.jsonrpc the functions to expose\n    supports xml, json, xmlrpc, jsonrpc, amfrpc, rss, csv\n    """\n    return service()\n\n\n@auth.requires_signature()\ndef data():\n    """\n    http://..../[app]/default/data/tables\n    http://..../[app]/default/data/create/[table]\n    http://..../[app]/default/data/read/[table]/[id]\n    http://..../[app]/default/data/update/[table]/[id]\n    http://..../[app]/default/data/delete/[table]/[id]\n    http://..../[app]/default/data/select/[table]\n    http://..../[app]/default/data/search/[table]\n    but URLs must be signed, i.e. linked with\n      A(\'table\',_href=URL(\'data/tables\',user_signature=True))\n    or with the signed load operator\n      LOAD(\'default\',\'data.load\',args=\'tables\',ajax=True,user_signature=True)\n    """\n    return dict(form=crud())\n\n@auth.is_logged_in():\ndef list_items():\n    return\nresponse._vars=response._caller(index)\n'
p7
sS'snapshot'
p8
(dp9
S'exception'
p10
(dp11
S'__getslice__'
p12
S"<method-wrapper '__getslice__' of exceptions.SyntaxError object>"
p13
sS'text'
p14
S"'@auth.is_logged_in():\\n'"
p15
sS'__str__'
p16
S"<method-wrapper '__str__' of exceptions.SyntaxError object>"
p17
sS'__reduce__'
p18
S'<built-in method __reduce__ of exceptions.SyntaxError object>'
p19
sS'__dict__'
p20
S'{}'
p21
sS'__sizeof__'
p22
S'<built-in method __sizeof__ of exceptions.SyntaxError object>'
p23
sS'__init__'
p24
S"<method-wrapper '__init__' of exceptions.SyntaxError object>"
p25
sS'__setattr__'
p26
S"<method-wrapper '__setattr__' of exceptions.SyntaxError object>"
p27
sS'__reduce_ex__'
p28
S'<built-in method __reduce_ex__ of exceptions.SyntaxError object>'
p29
sS'__new__'
p30
S'<built-in method __new__ of type object>'
p31
sS'__format__'
p32
S'<built-in method __format__ of exceptions.SyntaxError object>'
p33
sS'__class__'
p34
S"<type 'exceptions.SyntaxError'>"
p35
sS'filename'
p36
S"'/home/pratyush/web2py/applications/BuySell/controllers/default.py'"
p37
sS'lineno'
p38
S'77'
p39
sS'msg'
p40
S"'invalid syntax'"
p41
sS'__doc__'
p42
S"'Invalid syntax.'"
p43
sS'__getitem__'
p44
S"<method-wrapper '__getitem__' of exceptions.SyntaxError object>"
p45
sS'__setstate__'
p46
S'<built-in method __setstate__ of exceptions.SyntaxError object>'
p47
sS'__getattribute__'
p48
S"<method-wrapper '__getattribute__' of exceptions.SyntaxError object>"
p49
sS'print_file_and_line'
p50
S'None'
p51
sS'args'
p52
S"('invalid syntax', ('/home/pratyush/web2py/applications/BuySell/controllers/default.py', 77, 21, '@auth.is_logged_in():\\n'))"
p53
sS'__subclasshook__'
p54
S'<built-in method __subclasshook__ of type object>'
p55
sS'offset'
p56
S'21'
p57
sS'__unicode__'
p58
S'<built-in method __unicode__ of exceptions.SyntaxError object>'
p59
sS'__delattr__'
p60
S"<method-wrapper '__delattr__' of exceptions.SyntaxError object>"
p61
sS'__repr__'
p62
S"<method-wrapper '__repr__' of exceptions.SyntaxError object>"
p63
sS'__hash__'
p64
S"<method-wrapper '__hash__' of exceptions.SyntaxError object>"
p65
ssS'evalue'
p66
S'invalid syntax (default.py, line 77)'
p67
sS'request'
p68
ccopy_reg
_reconstructor
p69
(cgluon.html
BEAUTIFY
p70
c__builtin__
object
p71
NtRp72
(dp73
S'attributes'
p74
(dp75
sS'components'
p76
(lp77
g69
(cgluon.html
TABLE
p78
g71
NtRp79
(dp80
g74
(dp81
S'level'
p82
I5
ssS'parent'
p83
Nsg76
(lp84
g69
(cgluon.html
TR
p85
g71
NtRp86
(dp87
g74
(dp88
sg83
g79
sg76
(lp89
g69
(cgluon.html
TD
p90
g71
NtRp91
(dp92
g74
(dp93
S'_style'
p94
S'font-weight:bold;vertical-align:top'
p95
ssg83
g86
sg76
(lp96
S'ajax'
p97
asbag69
(g90
g71
NtRp98
(dp99
g74
(dp100
S'_valign'
p101
S'top'
p102
ssg83
g86
sg76
(lp103
S':'
asbag69
(g90
g71
NtRp104
(dp105
g74
(dp106
sg83
g86
sg76
(lp107
g69
(g70
g71
NtRp108
(dp109
g74
(dp110
g82
I5
ssg83
g104
sg76
(lp111
S'False'
p112
asbasbasbag69
(g85
g71
NtRp113
(dp114
g74
(dp115
sg83
g79
sg76
(lp116
g69
(g90
g71
NtRp117
(dp118
g74
(dp119
g94
g95
ssg83
g113
sg76
(lp120
S'application'
p121
asbag69
(g90
g71
NtRp122
(dp123
g74
(dp124
g101
g102
ssg83
g113
sg76
(lp125
S':'
asbag69
(g90
g71
NtRp126
(dp127
g74
(dp128
sg83
g113
sg76
(lp129
g69
(g70
g71
NtRp130
(dp131
g74
(dp132
g82
I5
ssg83
g126
sg76
(lp133
S'BuySell'
p134
asbasbasbag69
(g85
g71
NtRp135
(dp136
g74
(dp137
sg83
g79
sg76
(lp138
g69
(g90
g71
NtRp139
(dp140
g74
(dp141
g94
g95
ssg83
g135
sg76
(lp142
g52
asbag69
(g90
g71
NtRp143
(dp144
g74
(dp145
g101
g102
ssg83
g135
sg76
(lp146
S':'
asbag69
(g90
g71
NtRp147
(dp148
g74
(dp149
sg83
g135
sg76
(lp150
g69
(g70
g71
NtRp151
(dp152
g74
(dp153
g82
I5
ssg83
g147
sg76
(lp154
g69
(g78
g71
NtRp155
(dp156
g74
(dp157
g82
I4
ssg83
Nsg76
(lp158
sbasbasbasbag69
(g85
g71
NtRp159
(dp160
g74
(dp161
sg83
g79
sg76
(lp162
g69
(g90
g71
NtRp163
(dp164
g74
(dp165
g94
g95
ssg83
g159
sg76
(lp166
S'body'
p167
asbag69
(g90
g71
NtRp168
(dp169
g74
(dp170
g101
g102
ssg83
g159
sg76
(lp171
S':'
asbag69
(g90
g71
NtRp172
(dp173
g74
(dp174
sg83
g159
sg76
(lp175
g69
(g70
g71
NtRp176
(dp177
g74
(dp178
g82
I5
ssg83
g172
sg76
(lp179
S'<cStringIO.StringO object at 0xb3afe60>'
p180
asbasbasbag69
(g85
g71
NtRp181
(dp182
g74
(dp183
sg83
g79
sg76
(lp184
g69
(g90
g71
NtRp185
(dp186
g74
(dp187
g94
g95
ssg83
g181
sg76
(lp188
S'cid'
p189
asbag69
(g90
g71
NtRp190
(dp191
g74
(dp192
g101
g102
ssg83
g181
sg76
(lp193
S':'
asbag69
(g90
g71
NtRp194
(dp195
g74
(dp196
sg83
g181
sg76
(lp197
g69
(g70
g71
NtRp198
(dp199
g74
(dp200
g82
I5
ssg83
g194
sg76
(lp201
S'None'
p202
asbasbasbag69
(g85
g71
NtRp203
(dp204
g74
(dp205
sg83
g79
sg76
(lp206
g69
(g90
g71
NtRp207
(dp208
g74
(dp209
g94
g95
ssg83
g203
sg76
(lp210
S'client'
p211
asbag69
(g90
g71
NtRp212
(dp213
g74
(dp214
g101
g102
ssg83
g203
sg76
(lp215
S':'
asbag69
(g90
g71
NtRp216
(dp217
g74
(dp218
sg83
g203
sg76
(lp219
g69
(g70
g71
NtRp220
(dp221
g74
(dp222
g82
I5
ssg83
g216
sg76
(lp223
S'127.0.0.1'
p224
asbasbasbag69
(g85
g71
NtRp225
(dp226
g74
(dp227
sg83
g79
sg76
(lp228
g69
(g90
g71
NtRp229
(dp230
g74
(dp231
g94
g95
ssg83
g225
sg76
(lp232
S'controller'
p233
asbag69
(g90
g71
NtRp234
(dp235
g74
(dp236
g101
g102
ssg83
g225
sg76
(lp237
S':'
asbag69
(g90
g71
NtRp238
(dp239
g74
(dp240
sg83
g225
sg76
(lp241
g69
(g70
g71
NtRp242
(dp243
g74
(dp244
g82
I5
ssg83
g238
sg76
(lp245
S'default'
p246
asbasbasbag69
(g85
g71
NtRp247
(dp248
g74
(dp249
sg83
g79
sg76
(lp250
g69
(g90
g71
NtRp251
(dp252
g74
(dp253
g94
g95
ssg83
g247
sg76
(lp254
S'cookies'
p255
asbag69
(g90
g71
NtRp256
(dp257
g74
(dp258
g101
g102
ssg83
g247
sg76
(lp259
S':'
asbag69
(g90
g71
NtRp260
(dp261
g74
(dp262
sg83
g247
sg76
(lp263
g69
(g70
g71
NtRp264
(dp265
g74
(dp266
g82
I5
ssg83
g260
sg76
(lp267
g69
(g78
g71
NtRp268
(dp269
g74
(dp270
g82
I4
ssg83
Nsg76
(lp271
g69
(g85
g71
NtRp272
(dp273
g74
(dp274
sg83
g268
sg76
(lp275
g69
(g90
g71
NtRp276
(dp277
g74
(dp278
g94
g95
ssg83
g272
sg76
(lp279
S'registered'
p280
asbag69
(g90
g71
NtRp281
(dp282
g74
(dp283
g101
g102
ssg83
g272
sg76
(lp284
S':'
asbag69
(g90
g71
NtRp285
(dp286
g74
(dp287
sg83
g272
sg76
(lp288
g69
(g70
g71
NtRp289
(dp290
g74
(dp291
g82
I4
ssg83
g285
sg76
(lp292
S'yes'
p293
ag69
(g78
g71
NtRp294
(dp295
g74
(dp296
g82
I3
ssg83
Nsg76
(lp297
g69
(g85
g71
NtRp298
(dp299
g74
(dp300
sg83
g294
sg76
(lp301
g69
(g90
g71
NtRp302
(dp303
g74
(dp304
g94
g95
ssg83
g298
sg76
(lp305
S'comment'
p306
asbag69
(g90
g71
NtRp307
(dp308
g74
(dp309
g101
g102
ssg83
g298
sg76
(lp310
S':'
asbag69
(g90
g71
NtRp311
(dp312
g74
(dp313
sg83
g298
sg76
(lp314
g69
(g70
g71
NtRp315
(dp316
g74
(dp317
g82
I3
ssg83
g311
sg76
(lp318
S''
asbasbasbag69
(g85
g71
NtRp319
(dp320
g74
(dp321
sg83
g294
sg76
(lp322
g69
(g90
g71
NtRp323
(dp324
g74
(dp325
g94
g95
ssg83
g319
sg76
(lp326
S'domain'
p327
asbag69
(g90
g71
NtRp328
(dp329
g74
(dp330
g101
g102
ssg83
g319
sg76
(lp331
S':'
asbag69
(g90
g71
NtRp332
(dp333
g74
(dp334
sg83
g319
sg76
(lp335
g69
(g70
g71
NtRp336
(dp337
g74
(dp338
g82
I3
ssg83
g332
sg76
(lp339
S''
asbasbasbag69
(g85
g71
NtRp340
(dp341
g74
(dp342
sg83
g294
sg76
(lp343
g69
(g90
g71
NtRp344
(dp345
g74
(dp346
g94
g95
ssg83
g340
sg76
(lp347
S'expires'
p348
asbag69
(g90
g71
NtRp349
(dp350
g74
(dp351
g101
g102
ssg83
g340
sg76
(lp352
S':'
asbag69
(g90
g71
NtRp353
(dp354
g74
(dp355
sg83
g340
sg76
(lp356
g69
(g70
g71
NtRp357
(dp358
g74
(dp359
g82
I3
ssg83
g353
sg76
(lp360
S''
asbasbasbag69
(g85
g71
NtRp361
(dp362
g74
(dp363
sg83
g294
sg76
(lp364
g69
(g90
g71
NtRp365
(dp366
g74
(dp367
g94
g95
ssg83
g361
sg76
(lp368
S'httponly'
p369
asbag69
(g90
g71
NtRp370
(dp371
g74
(dp372
g101
g102
ssg83
g361
sg76
(lp373
S':'
asbag69
(g90
g71
NtRp374
(dp375
g74
(dp376
sg83
g361
sg76
(lp377
g69
(g70
g71
NtRp378
(dp379
g74
(dp380
g82
I3
ssg83
g374
sg76
(lp381
S''
asbasbasbag69
(g85
g71
NtRp382
(dp383
g74
(dp384
sg83
g294
sg76
(lp385
g69
(g90
g71
NtRp386
(dp387
g74
(dp388
g94
g95
ssg83
g382
sg76
(lp389
S'max-age'
p390
asbag69
(g90
g71
NtRp391
(dp392
g74
(dp393
g101
g102
ssg83
g382
sg76
(lp394
S':'
asbag69
(g90
g71
NtRp395
(dp396
g74
(dp397
sg83
g382
sg76
(lp398
g69
(g70
g71
NtRp399
(dp400
g74
(dp401
g82
I3
ssg83
g395
sg76
(lp402
S''
asbasbasbag69
(g85
g71
NtRp403
(dp404
g74
(dp405
sg83
g294
sg76
(lp406
g69
(g90
g71
NtRp407
(dp408
g74
(dp409
g94
g95
ssg83
g403
sg76
(lp410
S'path'
p411
asbag69
(g90
g71
NtRp412
(dp413
g74
(dp414
g101
g102
ssg83
g403
sg76
(lp415
S':'
asbag69
(g90
g71
NtRp416
(dp417
g74
(dp418
sg83
g403
sg76
(lp419
g69
(g70
g71
NtRp420
(dp421
g74
(dp422
g82
I3
ssg83
g416
sg76
(lp423
S''
asbasbasbag69
(g85
g71
NtRp424
(dp425
g74
(dp426
sg83
g294
sg76
(lp427
g69
(g90
g71
NtRp428
(dp429
g74
(dp430
g94
g95
ssg83
g424
sg76
(lp431
S'secure'
p432
asbag69
(g90
g71
NtRp433
(dp434
g74
(dp435
g101
g102
ssg83
g424
sg76
(lp436
S':'
asbag69
(g90
g71
NtRp437
(dp438
g74
(dp439
sg83
g424
sg76
(lp440
g69
(g70
g71
NtRp441
(dp442
g74
(dp443
g82
I3
ssg83
g437
sg76
(lp444
S''
asbasbasbag69
(g85
g71
NtRp445
(dp446
g74
(dp447
sg83
g294
sg76
(lp448
g69
(g90
g71
NtRp449
(dp450
g74
(dp451
g94
g95
ssg83
g445
sg76
(lp452
S'version'
p453
asbag69
(g90
g71
NtRp454
(dp455
g74
(dp456
g101
g102
ssg83
g445
sg76
(lp457
S':'
asbag69
(g90
g71
NtRp458
(dp459
g74
(dp460
sg83
g445
sg76
(lp461
g69
(g70
g71
NtRp462
(dp463
g74
(dp464
g82
I3
ssg83
g458
sg76
(lp465
S''
asbasbasbasbasbasbasbag69
(g85
g71
NtRp466
(dp467
g74
(dp468
sg83
g268
sg76
(lp469
g69
(g90
g71
NtRp470
(dp471
g74
(dp472
g94
g95
ssg83
g466
sg76
(lp473
S'session_id_admin'
p474
asbag69
(g90
g71
NtRp475
(dp476
g74
(dp477
g101
g102
ssg83
g466
sg76
(lp478
S':'
asbag69
(g90
g71
NtRp479
(dp480
g74
(dp481
sg83
g466
sg76
(lp482
g69
(g70
g71
NtRp483
(dp484
g74
(dp485
g82
I4
ssg83
g479
sg76
(lp486
S'127.0.0.1-5c3e6318-3a14-4ff1-97a6-1063e44c4cd9'
p487
ag69
(g78
g71
NtRp488
(dp489
g74
(dp490
g82
I3
ssg83
Nsg76
(lp491
g69
(g85
g71
NtRp492
(dp493
g74
(dp494
sg83
g488
sg76
(lp495
g69
(g90
g71
NtRp496
(dp497
g74
(dp498
g94
g95
ssg83
g492
sg76
(lp499
g306
asbag69
(g90
g71
NtRp500
(dp501
g74
(dp502
g101
g102
ssg83
g492
sg76
(lp503
S':'
asbag69
(g90
g71
NtRp504
(dp505
g74
(dp506
sg83
g492
sg76
(lp507
g69
(g70
g71
NtRp508
(dp509
g74
(dp510
g82
I3
ssg83
g504
sg76
(lp511
S''
asbasbasbag69
(g85
g71
NtRp512
(dp513
g74
(dp514
sg83
g488
sg76
(lp515
g69
(g90
g71
NtRp516
(dp517
g74
(dp518
g94
g95
ssg83
g512
sg76
(lp519
g327
asbag69
(g90
g71
NtRp520
(dp521
g74
(dp522
g101
g102
ssg83
g512
sg76
(lp523
S':'
asbag69
(g90
g71
NtRp524
(dp525
g74
(dp526
sg83
g512
sg76
(lp527
g69
(g70
g71
NtRp528
(dp529
g74
(dp530
g82
I3
ssg83
g524
sg76
(lp531
S''
asbasbasbag69
(g85
g71
NtRp532
(dp533
g74
(dp534
sg83
g488
sg76
(lp535
g69
(g90
g71
NtRp536
(dp537
g74
(dp538
g94
g95
ssg83
g532
sg76
(lp539
g348
asbag69
(g90
g71
NtRp540
(dp541
g74
(dp542
g101
g102
ssg83
g532
sg76
(lp543
S':'
asbag69
(g90
g71
NtRp544
(dp545
g74
(dp546
sg83
g532
sg76
(lp547
g69
(g70
g71
NtRp548
(dp549
g74
(dp550
g82
I3
ssg83
g544
sg76
(lp551
S''
asbasbasbag69
(g85
g71
NtRp552
(dp553
g74
(dp554
sg83
g488
sg76
(lp555
g69
(g90
g71
NtRp556
(dp557
g74
(dp558
g94
g95
ssg83
g552
sg76
(lp559
g369
asbag69
(g90
g71
NtRp560
(dp561
g74
(dp562
g101
g102
ssg83
g552
sg76
(lp563
S':'
asbag69
(g90
g71
NtRp564
(dp565
g74
(dp566
sg83
g552
sg76
(lp567
g69
(g70
g71
NtRp568
(dp569
g74
(dp570
g82
I3
ssg83
g564
sg76
(lp571
S''
asbasbasbag69
(g85
g71
NtRp572
(dp573
g74
(dp574
sg83
g488
sg76
(lp575
g69
(g90
g71
NtRp576
(dp577
g74
(dp578
g94
g95
ssg83
g572
sg76
(lp579
g390
asbag69
(g90
g71
NtRp580
(dp581
g74
(dp582
g101
g102
ssg83
g572
sg76
(lp583
S':'
asbag69
(g90
g71
NtRp584
(dp585
g74
(dp586
sg83
g572
sg76
(lp587
g69
(g70
g71
NtRp588
(dp589
g74
(dp590
g82
I3
ssg83
g584
sg76
(lp591
S''
asbasbasbag69
(g85
g71
NtRp592
(dp593
g74
(dp594
sg83
g488
sg76
(lp595
g69
(g90
g71
NtRp596
(dp597
g74
(dp598
g94
g95
ssg83
g592
sg76
(lp599
g411
asbag69
(g90
g71
NtRp600
(dp601
g74
(dp602
g101
g102
ssg83
g592
sg76
(lp603
S':'
asbag69
(g90
g71
NtRp604
(dp605
g74
(dp606
sg83
g592
sg76
(lp607
g69
(g70
g71
NtRp608
(dp609
g74
(dp610
g82
I3
ssg83
g604
sg76
(lp611
S''
asbasbasbag69
(g85
g71
NtRp612
(dp613
g74
(dp614
sg83
g488
sg76
(lp615
g69
(g90
g71
NtRp616
(dp617
g74
(dp618
g94
g95
ssg83
g612
sg76
(lp619
g432
asbag69
(g90
g71
NtRp620
(dp621
g74
(dp622
g101
g102
ssg83
g612
sg76
(lp623
S':'
asbag69
(g90
g71
NtRp624
(dp625
g74
(dp626
sg83
g612
sg76
(lp627
g69
(g70
g71
NtRp628
(dp629
g74
(dp630
g82
I3
ssg83
g624
sg76
(lp631
S''
asbasbasbag69
(g85
g71
NtRp632
(dp633
g74
(dp634
sg83
g488
sg76
(lp635
g69
(g90
g71
NtRp636
(dp637
g74
(dp638
g94
g95
ssg83
g632
sg76
(lp639
g453
asbag69
(g90
g71
NtRp640
(dp641
g74
(dp642
g101
g102
ssg83
g632
sg76
(lp643
S':'
asbag69
(g90
g71
NtRp644
(dp645
g74
(dp646
sg83
g632
sg76
(lp647
g69
(g70
g71
NtRp648
(dp649
g74
(dp650
g82
I3
ssg83
g644
sg76
(lp651
S''
asbasbasbasbasbasbasbag69
(g85
g71
NtRp652
(dp653
g74
(dp654
sg83
g268
sg76
(lp655
g69
(g90
g71
NtRp656
(dp657
g74
(dp658
g94
g95
ssg83
g652
sg76
(lp659
S'session_id_buysell'
p660
asbag69
(g90
g71
NtRp661
(dp662
g74
(dp663
g101
g102
ssg83
g652
sg76
(lp664
S':'
asbag69
(g90
g71
NtRp665
(dp666
g74
(dp667
sg83
g652
sg76
(lp668
g69
(g70
g71
NtRp669
(dp670
g74
(dp671
g82
I4
ssg83
g665
sg76
(lp672
S'127.0.0.1-d5a07803-4f5c-44c8-b05d-2876d30ca822'
p673
ag69
(g78
g71
NtRp674
(dp675
g74
(dp676
g82
I3
ssg83
Nsg76
(lp677
g69
(g85
g71
NtRp678
(dp679
g74
(dp680
sg83
g674
sg76
(lp681
g69
(g90
g71
NtRp682
(dp683
g74
(dp684
g94
g95
ssg83
g678
sg76
(lp685
g306
asbag69
(g90
g71
NtRp686
(dp687
g74
(dp688
g101
g102
ssg83
g678
sg76
(lp689
S':'
asbag69
(g90
g71
NtRp690
(dp691
g74
(dp692
sg83
g678
sg76
(lp693
g69
(g70
g71
NtRp694
(dp695
g74
(dp696
g82
I3
ssg83
g690
sg76
(lp697
S''
asbasbasbag69
(g85
g71
NtRp698
(dp699
g74
(dp700
sg83
g674
sg76
(lp701
g69
(g90
g71
NtRp702
(dp703
g74
(dp704
g94
g95
ssg83
g698
sg76
(lp705
g327
asbag69
(g90
g71
NtRp706
(dp707
g74
(dp708
g101
g102
ssg83
g698
sg76
(lp709
S':'
asbag69
(g90
g71
NtRp710
(dp711
g74
(dp712
sg83
g698
sg76
(lp713
g69
(g70
g71
NtRp714
(dp715
g74
(dp716
g82
I3
ssg83
g710
sg76
(lp717
S''
asbasbasbag69
(g85
g71
NtRp718
(dp719
g74
(dp720
sg83
g674
sg76
(lp721
g69
(g90
g71
NtRp722
(dp723
g74
(dp724
g94
g95
ssg83
g718
sg76
(lp725
g348
asbag69
(g90
g71
NtRp726
(dp727
g74
(dp728
g101
g102
ssg83
g718
sg76
(lp729
S':'
asbag69
(g90
g71
NtRp730
(dp731
g74
(dp732
sg83
g718
sg76
(lp733
g69
(g70
g71
NtRp734
(dp735
g74
(dp736
g82
I3
ssg83
g730
sg76
(lp737
S''
asbasbasbag69
(g85
g71
NtRp738
(dp739
g74
(dp740
sg83
g674
sg76
(lp741
g69
(g90
g71
NtRp742
(dp743
g74
(dp744
g94
g95
ssg83
g738
sg76
(lp745
g369
asbag69
(g90
g71
NtRp746
(dp747
g74
(dp748
g101
g102
ssg83
g738
sg76
(lp749
S':'
asbag69
(g90
g71
NtRp750
(dp751
g74
(dp752
sg83
g738
sg76
(lp753
g69
(g70
g71
NtRp754
(dp755
g74
(dp756
g82
I3
ssg83
g750
sg76
(lp757
S''
asbasbasbag69
(g85
g71
NtRp758
(dp759
g74
(dp760
sg83
g674
sg76
(lp761
g69
(g90
g71
NtRp762
(dp763
g74
(dp764
g94
g95
ssg83
g758
sg76
(lp765
g390
asbag69
(g90
g71
NtRp766
(dp767
g74
(dp768
g101
g102
ssg83
g758
sg76
(lp769
S':'
asbag69
(g90
g71
NtRp770
(dp771
g74
(dp772
sg83
g758
sg76
(lp773
g69
(g70
g71
NtRp774
(dp775
g74
(dp776
g82
I3
ssg83
g770
sg76
(lp777
S''
asbasbasbag69
(g85
g71
NtRp778
(dp779
g74
(dp780
sg83
g674
sg76
(lp781
g69
(g90
g71
NtRp782
(dp783
g74
(dp784
g94
g95
ssg83
g778
sg76
(lp785
g411
asbag69
(g90
g71
NtRp786
(dp787
g74
(dp788
g101
g102
ssg83
g778
sg76
(lp789
S':'
asbag69
(g90
g71
NtRp790
(dp791
g74
(dp792
sg83
g778
sg76
(lp793
g69
(g70
g71
NtRp794
(dp795
g74
(dp796
g82
I3
ssg83
g790
sg76
(lp797
S''
asbasbasbag69
(g85
g71
NtRp798
(dp799
g74
(dp800
sg83
g674
sg76
(lp801
g69
(g90
g71
NtRp802
(dp803
g74
(dp804
g94
g95
ssg83
g798
sg76
(lp805
g432
asbag69
(g90
g71
NtRp806
(dp807
g74
(dp808
g101
g102
ssg83
g798
sg76
(lp809
S':'
asbag69
(g90
g71
NtRp810
(dp811
g74
(dp812
sg83
g798
sg76
(lp813
g69
(g70
g71
NtRp814
(dp815
g74
(dp816
g82
I3
ssg83
g810
sg76
(lp817
S''
asbasbasbag69
(g85
g71
NtRp818
(dp819
g74
(dp820
sg83
g674
sg76
(lp821
g69
(g90
g71
NtRp822
(dp823
g74
(dp824
g94
g95
ssg83
g818
sg76
(lp825
g453
asbag69
(g90
g71
NtRp826
(dp827
g74
(dp828
g101
g102
ssg83
g818
sg76
(lp829
S':'
asbag69
(g90
g71
NtRp830
(dp831
g74
(dp832
sg83
g818
sg76
(lp833
g69
(g70
g71
NtRp834
(dp835
g74
(dp836
g82
I3
ssg83
g830
sg76
(lp837
S''
asbasbasbasbasbasbasbag69
(g85
g71
NtRp838
(dp839
g74
(dp840
sg83
g268
sg76
(lp841
g69
(g90
g71
NtRp842
(dp843
g74
(dp844
g94
g95
ssg83
g838
sg76
(lp845
S'session_id_music_library'
p846
asbag69
(g90
g71
NtRp847
(dp848
g74
(dp849
g101
g102
ssg83
g838
sg76
(lp850
S':'
asbag69
(g90
g71
NtRp851
(dp852
g74
(dp853
sg83
g838
sg76
(lp854
g69
(g70
g71
NtRp855
(dp856
g74
(dp857
g82
I4
ssg83
g851
sg76
(lp858
S'127.0.0.1-dd9b4880-33cf-4894-a8a9-2640c5c78a01'
p859
ag69
(g78
g71
NtRp860
(dp861
g74
(dp862
g82
I3
ssg83
Nsg76
(lp863
g69
(g85
g71
NtRp864
(dp865
g74
(dp866
sg83
g860
sg76
(lp867
g69
(g90
g71
NtRp868
(dp869
g74
(dp870
g94
g95
ssg83
g864
sg76
(lp871
g306
asbag69
(g90
g71
NtRp872
(dp873
g74
(dp874
g101
g102
ssg83
g864
sg76
(lp875
S':'
asbag69
(g90
g71
NtRp876
(dp877
g74
(dp878
sg83
g864
sg76
(lp879
g69
(g70
g71
NtRp880
(dp881
g74
(dp882
g82
I3
ssg83
g876
sg76
(lp883
S''
asbasbasbag69
(g85
g71
NtRp884
(dp885
g74
(dp886
sg83
g860
sg76
(lp887
g69
(g90
g71
NtRp888
(dp889
g74
(dp890
g94
g95
ssg83
g884
sg76
(lp891
g327
asbag69
(g90
g71
NtRp892
(dp893
g74
(dp894
g101
g102
ssg83
g884
sg76
(lp895
S':'
asbag69
(g90
g71
NtRp896
(dp897
g74
(dp898
sg83
g884
sg76
(lp899
g69
(g70
g71
NtRp900
(dp901
g74
(dp902
g82
I3
ssg83
g896
sg76
(lp903
S''
asbasbasbag69
(g85
g71
NtRp904
(dp905
g74
(dp906
sg83
g860
sg76
(lp907
g69
(g90
g71
NtRp908
(dp909
g74
(dp910
g94
g95
ssg83
g904
sg76
(lp911
g348
asbag69
(g90
g71
NtRp912
(dp913
g74
(dp914
g101
g102
ssg83
g904
sg76
(lp915
S':'
asbag69
(g90
g71
NtRp916
(dp917
g74
(dp918
sg83
g904
sg76
(lp919
g69
(g70
g71
NtRp920
(dp921
g74
(dp922
g82
I3
ssg83
g916
sg76
(lp923
S''
asbasbasbag69
(g85
g71
NtRp924
(dp925
g74
(dp926
sg83
g860
sg76
(lp927
g69
(g90
g71
NtRp928
(dp929
g74
(dp930
g94
g95
ssg83
g924
sg76
(lp931
g369
asbag69
(g90
g71
NtRp932
(dp933
g74
(dp934
g101
g102
ssg83
g924
sg76
(lp935
S':'
asbag69
(g90
g71
NtRp936
(dp937
g74
(dp938
sg83
g924
sg76
(lp939
g69
(g70
g71
NtRp940
(dp941
g74
(dp942
g82
I3
ssg83
g936
sg76
(lp943
S''
asbasbasbag69
(g85
g71
NtRp944
(dp945
g74
(dp946
sg83
g860
sg76
(lp947
g69
(g90
g71
NtRp948
(dp949
g74
(dp950
g94
g95
ssg83
g944
sg76
(lp951
g390
asbag69
(g90
g71
NtRp952
(dp953
g74
(dp954
g101
g102
ssg83
g944
sg76
(lp955
S':'
asbag69
(g90
g71
NtRp956
(dp957
g74
(dp958
sg83
g944
sg76
(lp959
g69
(g70
g71
NtRp960
(dp961
g74
(dp962
g82
I3
ssg83
g956
sg76
(lp963
S''
asbasbasbag69
(g85
g71
NtRp964
(dp965
g74
(dp966
sg83
g860
sg76
(lp967
g69
(g90
g71
NtRp968
(dp969
g74
(dp970
g94
g95
ssg83
g964
sg76
(lp971
g411
asbag69
(g90
g71
NtRp972
(dp973
g74
(dp974
g101
g102
ssg83
g964
sg76
(lp975
S':'
asbag69
(g90
g71
NtRp976
(dp977
g74
(dp978
sg83
g964
sg76
(lp979
g69
(g70
g71
NtRp980
(dp981
g74
(dp982
g82
I3
ssg83
g976
sg76
(lp983
S''
asbasbasbag69
(g85
g71
NtRp984
(dp985
g74
(dp986
sg83
g860
sg76
(lp987
g69
(g90
g71
NtRp988
(dp989
g74
(dp990
g94
g95
ssg83
g984
sg76
(lp991
g432
asbag69
(g90
g71
NtRp992
(dp993
g74
(dp994
g101
g102
ssg83
g984
sg76
(lp995
S':'
asbag69
(g90
g71
NtRp996
(dp997
g74
(dp998
sg83
g984
sg76
(lp999
g69
(g70
g71
NtRp1000
(dp1001
g74
(dp1002
g82
I3
ssg83
g996
sg76
(lp1003
S''
asbasbasbag69
(g85
g71
NtRp1004
(dp1005
g74
(dp1006
sg83
g860
sg76
(lp1007
g69
(g90
g71
NtRp1008
(dp1009
g74
(dp1010
g94
g95
ssg83
g1004
sg76
(lp1011
g453
asbag69
(g90
g71
NtRp1012
(dp1013
g74
(dp1014
g101
g102
ssg83
g1004
sg76
(lp1015
S':'
asbag69
(g90
g71
NtRp1016
(dp1017
g74
(dp1018
sg83
g1004
sg76
(lp1019
g69
(g70
g71
NtRp1020
(dp1021
g74
(dp1022
g82
I3
ssg83
g1016
sg76
(lp1023
S''
asbasbasbasbasbasbasbag69
(g85
g71
NtRp1024
(dp1025
g74
(dp1026
sg83
g268
sg76
(lp1027
g69
(g90
g71
NtRp1028
(dp1029
g74
(dp1030
g94
g95
ssg83
g1024
sg76
(lp1031
S'session_id_outreach'
p1032
asbag69
(g90
g71
NtRp1033
(dp1034
g74
(dp1035
g101
g102
ssg83
g1024
sg76
(lp1036
S':'
asbag69
(g90
g71
NtRp1037
(dp1038
g74
(dp1039
sg83
g1024
sg76
(lp1040
g69
(g70
g71
NtRp1041
(dp1042
g74
(dp1043
g82
I4
ssg83
g1037
sg76
(lp1044
S'127.0.0.1-00c3bb02-539e-4bc1-ab10-e3c500bd1248'
p1045
ag69
(g78
g71
NtRp1046
(dp1047
g74
(dp1048
g82
I3
ssg83
Nsg76
(lp1049
g69
(g85
g71
NtRp1050
(dp1051
g74
(dp1052
sg83
g1046
sg76
(lp1053
g69
(g90
g71
NtRp1054
(dp1055
g74
(dp1056
g94
g95
ssg83
g1050
sg76
(lp1057
g306
asbag69
(g90
g71
NtRp1058
(dp1059
g74
(dp1060
g101
g102
ssg83
g1050
sg76
(lp1061
S':'
asbag69
(g90
g71
NtRp1062
(dp1063
g74
(dp1064
sg83
g1050
sg76
(lp1065
g69
(g70
g71
NtRp1066
(dp1067
g74
(dp1068
g82
I3
ssg83
g1062
sg76
(lp1069
S''
asbasbasbag69
(g85
g71
NtRp1070
(dp1071
g74
(dp1072
sg83
g1046
sg76
(lp1073
g69
(g90
g71
NtRp1074
(dp1075
g74
(dp1076
g94
g95
ssg83
g1070
sg76
(lp1077
g327
asbag69
(g90
g71
NtRp1078
(dp1079
g74
(dp1080
g101
g102
ssg83
g1070
sg76
(lp1081
S':'
asbag69
(g90
g71
NtRp1082
(dp1083
g74
(dp1084
sg83
g1070
sg76
(lp1085
g69
(g70
g71
NtRp1086
(dp1087
g74
(dp1088
g82
I3
ssg83
g1082
sg76
(lp1089
S''
asbasbasbag69
(g85
g71
NtRp1090
(dp1091
g74
(dp1092
sg83
g1046
sg76
(lp1093
g69
(g90
g71
NtRp1094
(dp1095
g74
(dp1096
g94
g95
ssg83
g1090
sg76
(lp1097
g348
asbag69
(g90
g71
NtRp1098
(dp1099
g74
(dp1100
g101
g102
ssg83
g1090
sg76
(lp1101
S':'
asbag69
(g90
g71
NtRp1102
(dp1103
g74
(dp1104
sg83
g1090
sg76
(lp1105
g69
(g70
g71
NtRp1106
(dp1107
g74
(dp1108
g82
I3
ssg83
g1102
sg76
(lp1109
S''
asbasbasbag69
(g85
g71
NtRp1110
(dp1111
g74
(dp1112
sg83
g1046
sg76
(lp1113
g69
(g90
g71
NtRp1114
(dp1115
g74
(dp1116
g94
g95
ssg83
g1110
sg76
(lp1117
g369
asbag69
(g90
g71
NtRp1118
(dp1119
g74
(dp1120
g101
g102
ssg83
g1110
sg76
(lp1121
S':'
asbag69
(g90
g71
NtRp1122
(dp1123
g74
(dp1124
sg83
g1110
sg76
(lp1125
g69
(g70
g71
NtRp1126
(dp1127
g74
(dp1128
g82
I3
ssg83
g1122
sg76
(lp1129
S''
asbasbasbag69
(g85
g71
NtRp1130
(dp1131
g74
(dp1132
sg83
g1046
sg76
(lp1133
g69
(g90
g71
NtRp1134
(dp1135
g74
(dp1136
g94
g95
ssg83
g1130
sg76
(lp1137
g390
asbag69
(g90
g71
NtRp1138
(dp1139
g74
(dp1140
g101
g102
ssg83
g1130
sg76
(lp1141
S':'
asbag69
(g90
g71
NtRp1142
(dp1143
g74
(dp1144
sg83
g1130
sg76
(lp1145
g69
(g70
g71
NtRp1146
(dp1147
g74
(dp1148
g82
I3
ssg83
g1142
sg76
(lp1149
S''
asbasbasbag69
(g85
g71
NtRp1150
(dp1151
g74
(dp1152
sg83
g1046
sg76
(lp1153
g69
(g90
g71
NtRp1154
(dp1155
g74
(dp1156
g94
g95
ssg83
g1150
sg76
(lp1157
g411
asbag69
(g90
g71
NtRp1158
(dp1159
g74
(dp1160
g101
g102
ssg83
g1150
sg76
(lp1161
S':'
asbag69
(g90
g71
NtRp1162
(dp1163
g74
(dp1164
sg83
g1150
sg76
(lp1165
g69
(g70
g71
NtRp1166
(dp1167
g74
(dp1168
g82
I3
ssg83
g1162
sg76
(lp1169
S''
asbasbasbag69
(g85
g71
NtRp1170
(dp1171
g74
(dp1172
sg83
g1046
sg76
(lp1173
g69
(g90
g71
NtRp1174
(dp1175
g74
(dp1176
g94
g95
ssg83
g1170
sg76
(lp1177
g432
asbag69
(g90
g71
NtRp1178
(dp1179
g74
(dp1180
g101
g102
ssg83
g1170
sg76
(lp1181
S':'
asbag69
(g90
g71
NtRp1182
(dp1183
g74
(dp1184
sg83
g1170
sg76
(lp1185
g69
(g70
g71
NtRp1186
(dp1187
g74
(dp1188
g82
I3
ssg83
g1182
sg76
(lp1189
S''
asbasbasbag69
(g85
g71
NtRp1190
(dp1191
g74
(dp1192
sg83
g1046
sg76
(lp1193
g69
(g90
g71
NtRp1194
(dp1195
g74
(dp1196
g94
g95
ssg83
g1190
sg76
(lp1197
g453
asbag69
(g90
g71
NtRp1198
(dp1199
g74
(dp1200
g101
g102
ssg83
g1190
sg76
(lp1201
S':'
asbag69
(g90
g71
NtRp1202
(dp1203
g74
(dp1204
sg83
g1190
sg76
(lp1205
g69
(g70
g71
NtRp1206
(dp1207
g74
(dp1208
g82
I3
ssg83
g1202
sg76
(lp1209
S''
asbasbasbasbasbasbasbag69
(g85
g71
NtRp1210
(dp1211
g74
(dp1212
sg83
g268
sg76
(lp1213
g69
(g90
g71
NtRp1214
(dp1215
g74
(dp1216
g94
g95
ssg83
g1210
sg76
(lp1217
S'session_id_welcome'
p1218
asbag69
(g90
g71
NtRp1219
(dp1220
g74
(dp1221
g101
g102
ssg83
g1210
sg76
(lp1222
S':'
asbag69
(g90
g71
NtRp1223
(dp1224
g74
(dp1225
sg83
g1210
sg76
(lp1226
g69
(g70
g71
NtRp1227
(dp1228
g74
(dp1229
g82
I4
ssg83
g1223
sg76
(lp1230
S'127.0.0.1-9c7bb553-b7cb-4343-8d32-a78739900983'
p1231
ag69
(g78
g71
NtRp1232
(dp1233
g74
(dp1234
g82
I3
ssg83
Nsg76
(lp1235
g69
(g85
g71
NtRp1236
(dp1237
g74
(dp1238
sg83
g1232
sg76
(lp1239
g69
(g90
g71
NtRp1240
(dp1241
g74
(dp1242
g94
g95
ssg83
g1236
sg76
(lp1243
g306
asbag69
(g90
g71
NtRp1244
(dp1245
g74
(dp1246
g101
g102
ssg83
g1236
sg76
(lp1247
S':'
asbag69
(g90
g71
NtRp1248
(dp1249
g74
(dp1250
sg83
g1236
sg76
(lp1251
g69
(g70
g71
NtRp1252
(dp1253
g74
(dp1254
g82
I3
ssg83
g1248
sg76
(lp1255
S''
asbasbasbag69
(g85
g71
NtRp1256
(dp1257
g74
(dp1258
sg83
g1232
sg76
(lp1259
g69
(g90
g71
NtRp1260
(dp1261
g74
(dp1262
g94
g95
ssg83
g1256
sg76
(lp1263
g327
asbag69
(g90
g71
NtRp1264
(dp1265
g74
(dp1266
g101
g102
ssg83
g1256
sg76
(lp1267
S':'
asbag69
(g90
g71
NtRp1268
(dp1269
g74
(dp1270
sg83
g1256
sg76
(lp1271
g69
(g70
g71
NtRp1272
(dp1273
g74
(dp1274
g82
I3
ssg83
g1268
sg76
(lp1275
S''
asbasbasbag69
(g85
g71
NtRp1276
(dp1277
g74
(dp1278
sg83
g1232
sg76
(lp1279
g69
(g90
g71
NtRp1280
(dp1281
g74
(dp1282
g94
g95
ssg83
g1276
sg76
(lp1283
g348
asbag69
(g90
g71
NtRp1284
(dp1285
g74
(dp1286
g101
g102
ssg83
g1276
sg76
(lp1287
S':'
asbag69
(g90
g71
NtRp1288
(dp1289
g74
(dp1290
sg83
g1276
sg76
(lp1291
g69
(g70
g71
NtRp1292
(dp1293
g74
(dp1294
g82
I3
ssg83
g1288
sg76
(lp1295
S''
asbasbasbag69
(g85
g71
NtRp1296
(dp1297
g74
(dp1298
sg83
g1232
sg76
(lp1299
g69
(g90
g71
NtRp1300
(dp1301
g74
(dp1302
g94
g95
ssg83
g1296
sg76
(lp1303
g369
asbag69
(g90
g71
NtRp1304
(dp1305
g74
(dp1306
g101
g102
ssg83
g1296
sg76
(lp1307
S':'
asbag69
(g90
g71
NtRp1308
(dp1309
g74
(dp1310
sg83
g1296
sg76
(lp1311
g69
(g70
g71
NtRp1312
(dp1313
g74
(dp1314
g82
I3
ssg83
g1308
sg76
(lp1315
S''
asbasbasbag69
(g85
g71
NtRp1316
(dp1317
g74
(dp1318
sg83
g1232
sg76
(lp1319
g69
(g90
g71
NtRp1320
(dp1321
g74
(dp1322
g94
g95
ssg83
g1316
sg76
(lp1323
g390
asbag69
(g90
g71
NtRp1324
(dp1325
g74
(dp1326
g101
g102
ssg83
g1316
sg76
(lp1327
S':'
asbag69
(g90
g71
NtRp1328
(dp1329
g74
(dp1330
sg83
g1316
sg76
(lp1331
g69
(g70
g71
NtRp1332
(dp1333
g74
(dp1334
g82
I3
ssg83
g1328
sg76
(lp1335
S''
asbasbasbag69
(g85
g71
NtRp1336
(dp1337
g74
(dp1338
sg83
g1232
sg76
(lp1339
g69
(g90
g71
NtRp1340
(dp1341
g74
(dp1342
g94
g95
ssg83
g1336
sg76
(lp1343
g411
asbag69
(g90
g71
NtRp1344
(dp1345
g74
(dp1346
g101
g102
ssg83
g1336
sg76
(lp1347
S':'
asbag69
(g90
g71
NtRp1348
(dp1349
g74
(dp1350
sg83
g1336
sg76
(lp1351
g69
(g70
g71
NtRp1352
(dp1353
g74
(dp1354
g82
I3
ssg83
g1348
sg76
(lp1355
S''
asbasbasbag69
(g85
g71
NtRp1356
(dp1357
g74
(dp1358
sg83
g1232
sg76
(lp1359
g69
(g90
g71
NtRp1360
(dp1361
g74
(dp1362
g94
g95
ssg83
g1356
sg76
(lp1363
g432
asbag69
(g90
g71
NtRp1364
(dp1365
g74
(dp1366
g101
g102
ssg83
g1356
sg76
(lp1367
S':'
asbag69
(g90
g71
NtRp1368
(dp1369
g74
(dp1370
sg83
g1356
sg76
(lp1371
g69
(g70
g71
NtRp1372
(dp1373
g74
(dp1374
g82
I3
ssg83
g1368
sg76
(lp1375
S''
asbasbasbag69
(g85
g71
NtRp1376
(dp1377
g74
(dp1378
sg83
g1232
sg76
(lp1379
g69
(g90
g71
NtRp1380
(dp1381
g74
(dp1382
g94
g95
ssg83
g1376
sg76
(lp1383
g453
asbag69
(g90
g71
NtRp1384
(dp1385
g74
(dp1386
g101
g102
ssg83
g1376
sg76
(lp1387
S':'
asbag69
(g90
g71
NtRp1388
(dp1389
g74
(dp1390
sg83
g1376
sg76
(lp1391
g69
(g70
g71
NtRp1392
(dp1393
g74
(dp1394
g82
I3
ssg83
g1388
sg76
(lp1395
S''
asbasbasbasbasbasbasbasbasbasbasbag69
(g85
g71
NtRp1396
(dp1397
g74
(dp1398
sg83
g79
sg76
(lp1399
g69
(g90
g71
NtRp1400
(dp1401
g74
(dp1402
g94
g95
ssg83
g1396
sg76
(lp1403
S'env'
p1404
asbag69
(g90
g71
NtRp1405
(dp1406
g74
(dp1407
g101
g102
ssg83
g1396
sg76
(lp1408
S':'
asbag69
(g90
g71
NtRp1409
(dp1410
g74
(dp1411
sg83
g1396
sg76
(lp1412
g69
(g70
g71
NtRp1413
(dp1414
g74
(dp1415
g82
I5
ssg83
g1409
sg76
(lp1416
g69
(g78
g71
NtRp1417
(dp1418
g74
(dp1419
g82
I4
ssg83
Nsg76
(lp1420
g69
(g85
g71
NtRp1421
(dp1422
g74
(dp1423
sg83
g1417
sg76
(lp1424
g69
(g90
g71
NtRp1425
(dp1426
g74
(dp1427
g94
g95
ssg83
g1421
sg76
(lp1428
S'app_folders'
p1429
asbag69
(g90
g71
NtRp1430
(dp1431
g74
(dp1432
g101
g102
ssg83
g1421
sg76
(lp1433
S':'
asbag69
(g90
g71
NtRp1434
(dp1435
g74
(dp1436
sg83
g1421
sg76
(lp1437
g69
(g70
g71
NtRp1438
(dp1439
g74
(dp1440
g82
I4
ssg83
g1434
sg76
(lp1441
S"set(['/home/pratyush/web2py/applications/db_project/', '/home/pratyush/web2py/applications/outreach/', '/home/pratyush/web2py/applications/welcome/', '/home/pratyush/web2py/applications/music_library/', '/home/pratyush/web2py/applications/examples/', '/home/pratyush/web2py/applications/BuySell/', '/home/pratyush/web2py/applications/admin/'])"
p1442
asbasbasbag69
(g85
g71
NtRp1443
(dp1444
g74
(dp1445
sg83
g1417
sg76
(lp1446
g69
(g90
g71
NtRp1447
(dp1448
g74
(dp1449
g94
g95
ssg83
g1443
sg76
(lp1450
S'applications_parent'
p1451
asbag69
(g90
g71
NtRp1452
(dp1453
g74
(dp1454
g101
g102
ssg83
g1443
sg76
(lp1455
S':'
asbag69
(g90
g71
NtRp1456
(dp1457
g74
(dp1458
sg83
g1443
sg76
(lp1459
g69
(g70
g71
NtRp1460
(dp1461
g74
(dp1462
g82
I4
ssg83
g1456
sg76
(lp1463
S'/home/pratyush/web2py'
p1464
asbasbasbag69
(g85
g71
NtRp1465
(dp1466
g74
(dp1467
sg83
g1417
sg76
(lp1468
g69
(g90
g71
NtRp1469
(dp1470
g74
(dp1471
g94
g95
ssg83
g1465
sg76
(lp1472
S'cmd_args'
p1473
asbag69
(g90
g71
NtRp1474
(dp1475
g74
(dp1476
g101
g102
ssg83
g1465
sg76
(lp1477
S':'
asbag69
(g90
g71
NtRp1478
(dp1479
g74
(dp1480
sg83
g1465
sg76
(lp1481
g69
(g70
g71
NtRp1482
(dp1483
g74
(dp1484
g82
I4
ssg83
g1478
sg76
(lp1485
g69
(g78
g71
NtRp1486
(dp1487
g74
(dp1488
g82
I3
ssg83
Nsg76
(lp1489
sbasbasbasbag69
(g85
g71
NtRp1490
(dp1491
g74
(dp1492
sg83
g1417
sg76
(lp1493
g69
(g90
g71
NtRp1494
(dp1495
g74
(dp1496
g94
g95
ssg83
g1490
sg76
(lp1497
S'cmd_options'
p1498
asbag69
(g90
g71
NtRp1499
(dp1500
g74
(dp1501
g101
g102
ssg83
g1490
sg76
(lp1502
S':'
asbag69
(g90
g71
NtRp1503
(dp1504
g74
(dp1505
sg83
g1490
sg76
(lp1506
g69
(g70
g71
NtRp1507
(dp1508
g74
(dp1509
g82
I4
ssg83
g1503
sg76
(lp1510
S"<Values at 0xa526b0c: {'verbose': False, 'ip': '127.0.0.1', 'with_scheduler': False, 'ips': [], 'shutdown_timeout': 5, 'taskbar': False, 'port': 8001, 'maxthreads': None, 'softcron': False, 'server_name': 'alanzak', 'bpython': False, 'nogui': False, 'pid_filename': 'httpserver.pid', 'extcron': False, 'runcron': False, 'run_system_tests': False, 'test': None, 'folder': '/home/pratyush/web2py', 'config': '', 'import_models': False, 'winservice': '', 'shell': None, 'run': '', 'log_filename': 'httpserver.log', 'debuglevel': 30, 'args': [''], 'socket_timeout': 5, 'ssl_ca_certificate': None, 'scheduler': None, 'profiler_filename': None, 'ssl_private_key': '', 'scheduler_groups': None, 'password': '1', 'request_queue_size': 5, 'ssl_certificate': '', 'cronjob': False, 'numthreads': None, 'quiet': False, 'interfaces': None, 'minthreads': None, 'timeout': 10, 'plain': False, 'nobanner': False}>"
p1511
asbasbasbag69
(g85
g71
NtRp1512
(dp1513
g74
(dp1514
sg83
g1417
sg76
(lp1515
g69
(g90
g71
NtRp1516
(dp1517
g74
(dp1518
g94
g95
ssg83
g1512
sg76
(lp1519
S'db_sessions'
p1520
asbag69
(g90
g71
NtRp1521
(dp1522
g74
(dp1523
g101
g102
ssg83
g1512
sg76
(lp1524
S':'
asbag69
(g90
g71
NtRp1525
(dp1526
g74
(dp1527
sg83
g1512
sg76
(lp1528
g69
(g70
g71
NtRp1529
(dp1530
g74
(dp1531
g82
I4
ssg83
g1525
sg76
(lp1532
S'set([])'
p1533
asbasbasbag69
(g85
g71
NtRp1534
(dp1535
g74
(dp1536
sg83
g1417
sg76
(lp1537
g69
(g90
g71
NtRp1538
(dp1539
g74
(dp1540
g94
g95
ssg83
g1534
sg76
(lp1541
S'debugging'
p1542
asbag69
(g90
g71
NtRp1543
(dp1544
g74
(dp1545
g101
g102
ssg83
g1534
sg76
(lp1546
S':'
asbag69
(g90
g71
NtRp1547
(dp1548
g74
(dp1549
sg83
g1534
sg76
(lp1550
g69
(g70
g71
NtRp1551
(dp1552
g74
(dp1553
g82
I4
ssg83
g1547
sg76
(lp1554
g112
asbasbasbag69
(g85
g71
NtRp1555
(dp1556
g74
(dp1557
sg83
g1417
sg76
(lp1558
g69
(g90
g71
NtRp1559
(dp1560
g74
(dp1561
g94
g95
ssg83
g1555
sg76
(lp1562
S'gluon_parent'
p1563
asbag69
(g90
g71
NtRp1564
(dp1565
g74
(dp1566
g101
g102
ssg83
g1555
sg76
(lp1567
S':'
asbag69
(g90
g71
NtRp1568
(dp1569
g74
(dp1570
sg83
g1555
sg76
(lp1571
g69
(g70
g71
NtRp1572
(dp1573
g74
(dp1574
g82
I4
ssg83
g1568
sg76
(lp1575
S'/home/pratyush/web2py'
p1576
asbasbasbag69
(g85
g71
NtRp1577
(dp1578
g74
(dp1579
sg83
g1417
sg76
(lp1580
g69
(g90
g71
NtRp1581
(dp1582
g74
(dp1583
g94
g95
ssg83
g1577
sg76
(lp1584
S'http_accept'
p1585
asbag69
(g90
g71
NtRp1586
(dp1587
g74
(dp1588
g101
g102
ssg83
g1577
sg76
(lp1589
S':'
asbag69
(g90
g71
NtRp1590
(dp1591
g74
(dp1592
sg83
g1577
sg76
(lp1593
g69
(g70
g71
NtRp1594
(dp1595
g74
(dp1596
g82
I4
ssg83
g1590
sg76
(lp1597
S'text/html,application/xhtml+xml,application/xml;q=0.9,*/*;q=0.8'
p1598
asbasbasbag69
(g85
g71
NtRp1599
(dp1600
g74
(dp1601
sg83
g1417
sg76
(lp1602
g69
(g90
g71
NtRp1603
(dp1604
g74
(dp1605
g94
g95
ssg83
g1599
sg76
(lp1606
S'http_accept_charset'
p1607
asbag69
(g90
g71
NtRp1608
(dp1609
g74
(dp1610
g101
g102
ssg83
g1599
sg76
(lp1611
S':'
asbag69
(g90
g71
NtRp1612
(dp1613
g74
(dp1614
sg83
g1599
sg76
(lp1615
g69
(g70
g71
NtRp1616
(dp1617
g74
(dp1618
g82
I4
ssg83
g1612
sg76
(lp1619
S'ISO-8859-1,utf-8;q=0.7,*;q=0.3'
p1620
asbasbasbag69
(g85
g71
NtRp1621
(dp1622
g74
(dp1623
sg83
g1417
sg76
(lp1624
g69
(g90
g71
NtRp1625
(dp1626
g74
(dp1627
g94
g95
ssg83
g1621
sg76
(lp1628
S'http_accept_encoding'
p1629
asbag69
(g90
g71
NtRp1630
(dp1631
g74
(dp1632
g101
g102
ssg83
g1621
sg76
(lp1633
S':'
asbag69
(g90
g71
NtRp1634
(dp1635
g74
(dp1636
sg83
g1621
sg76
(lp1637
g69
(g70
g71
NtRp1638
(dp1639
g74
(dp1640
g82
I4
ssg83
g1634
sg76
(lp1641
S'gzip,deflate,sdch'
p1642
asbasbasbag69
(g85
g71
NtRp1643
(dp1644
g74
(dp1645
sg83
g1417
sg76
(lp1646
g69
(g90
g71
NtRp1647
(dp1648
g74
(dp1649
g94
g95
ssg83
g1643
sg76
(lp1650
S'http_accept_language'
p1651
asbag69
(g90
g71
NtRp1652
(dp1653
g74
(dp1654
g101
g102
ssg83
g1643
sg76
(lp1655
S':'
asbag69
(g90
g71
NtRp1656
(dp1657
g74
(dp1658
sg83
g1643
sg76
(lp1659
g69
(g70
g71
NtRp1660
(dp1661
g74
(dp1662
g82
I4
ssg83
g1656
sg76
(lp1663
S'en-US,en;q=0.8'
p1664
asbasbasbag69
(g85
g71
NtRp1665
(dp1666
g74
(dp1667
sg83
g1417
sg76
(lp1668
g69
(g90
g71
NtRp1669
(dp1670
g74
(dp1671
g94
g95
ssg83
g1665
sg76
(lp1672
S'http_cache_control'
p1673
asbag69
(g90
g71
NtRp1674
(dp1675
g74
(dp1676
g101
g102
ssg83
g1665
sg76
(lp1677
S':'
asbag69
(g90
g71
NtRp1678
(dp1679
g74
(dp1680
sg83
g1665
sg76
(lp1681
g69
(g70
g71
NtRp1682
(dp1683
g74
(dp1684
g82
I4
ssg83
g1678
sg76
(lp1685
S'max-age=0'
p1686
asbasbasbag69
(g85
g71
NtRp1687
(dp1688
g74
(dp1689
sg83
g1417
sg76
(lp1690
g69
(g90
g71
NtRp1691
(dp1692
g74
(dp1693
g94
g95
ssg83
g1687
sg76
(lp1694
S'http_connection'
p1695
asbag69
(g90
g71
NtRp1696
(dp1697
g74
(dp1698
g101
g102
ssg83
g1687
sg76
(lp1699
S':'
asbag69
(g90
g71
NtRp1700
(dp1701
g74
(dp1702
sg83
g1687
sg76
(lp1703
g69
(g70
g71
NtRp1704
(dp1705
g74
(dp1706
g82
I4
ssg83
g1700
sg76
(lp1707
S'keep-alive'
p1708
asbasbasbag69
(g85
g71
NtRp1709
(dp1710
g74
(dp1711
sg83
g1417
sg76
(lp1712
g69
(g90
g71
NtRp1713
(dp1714
g74
(dp1715
g94
g95
ssg83
g1709
sg76
(lp1716
S'http_cookie'
p1717
asbag69
(g90
g71
NtRp1718
(dp1719
g74
(dp1720
g101
g102
ssg83
g1709
sg76
(lp1721
S':'
asbag69
(g90
g71
NtRp1722
(dp1723
g74
(dp1724
sg83
g1709
sg76
(lp1725
g69
(g70
g71
NtRp1726
(dp1727
g74
(dp1728
g82
I4
ssg83
g1722
sg76
(lp1729
S'registered=yes; session_id_welcome=127.0.0.1-9c7bb553-b7cb-4343-8d32-a78739900983; session_id_music_library=127.0.0.1-dd9b4880-33cf-4894-a8a9-2640c5c78a01; session_id_outreach=127.0.0.1-00c3bb02-539e-4bc1-ab10-e3c500bd1248; session_id_admin=127.0.0.1-5c3e6318-3a14-4ff1-97a6-1063e44c4cd9; session_id_buysell=127.0.0.1-d5a07803-4f5c-44c8-b05d-2876d30ca822'
p1730
asbasbasbag69
(g85
g71
NtRp1731
(dp1732
g74
(dp1733
sg83
g1417
sg76
(lp1734
g69
(g90
g71
NtRp1735
(dp1736
g74
(dp1737
g94
g95
ssg83
g1731
sg76
(lp1738
S'http_host'
p1739
asbag69
(g90
g71
NtRp1740
(dp1741
g74
(dp1742
g101
g102
ssg83
g1731
sg76
(lp1743
S':'
asbag69
(g90
g71
NtRp1744
(dp1745
g74
(dp1746
sg83
g1731
sg76
(lp1747
g69
(g70
g71
NtRp1748
(dp1749
g74
(dp1750
g82
I4
ssg83
g1744
sg76
(lp1751
S'127.0.0.1:8001'
p1752
asbasbasbag69
(g85
g71
NtRp1753
(dp1754
g74
(dp1755
sg83
g1417
sg76
(lp1756
g69
(g90
g71
NtRp1757
(dp1758
g74
(dp1759
g94
g95
ssg83
g1753
sg76
(lp1760
S'http_referer'
p1761
asbag69
(g90
g71
NtRp1762
(dp1763
g74
(dp1764
g101
g102
ssg83
g1753
sg76
(lp1765
S':'
asbag69
(g90
g71
NtRp1766
(dp1767
g74
(dp1768
sg83
g1753
sg76
(lp1769
g69
(g70
g71
NtRp1770
(dp1771
g74
(dp1772
g82
I4
ssg83
g1766
sg76
(lp1773
S'http://127.0.0.1:8001/BuySell/default/user/login?_next=/BuySell/default/index'
p1774
asbasbasbag69
(g85
g71
NtRp1775
(dp1776
g74
(dp1777
sg83
g1417
sg76
(lp1778
g69
(g90
g71
NtRp1779
(dp1780
g74
(dp1781
g94
g95
ssg83
g1775
sg76
(lp1782
S'http_user_agent'
p1783
asbag69
(g90
g71
NtRp1784
(dp1785
g74
(dp1786
g101
g102
ssg83
g1775
sg76
(lp1787
S':'
asbag69
(g90
g71
NtRp1788
(dp1789
g74
(dp1790
sg83
g1775
sg76
(lp1791
g69
(g70
g71
NtRp1792
(dp1793
g74
(dp1794
g82
I4
ssg83
g1788
sg76
(lp1795
S'Mozilla/5.0 (X11; Linux i686) AppleWebKit/537.4 (KHTML, like Gecko) Chrome/22.0.1229.79 Safari/537.4'
p1796
asbasbasbag69
(g85
g71
NtRp1797
(dp1798
g74
(dp1799
sg83
g1417
sg76
(lp1800
g69
(g90
g71
NtRp1801
(dp1802
g74
(dp1803
g94
g95
ssg83
g1797
sg76
(lp1804
S'is_jython'
p1805
asbag69
(g90
g71
NtRp1806
(dp1807
g74
(dp1808
g101
g102
ssg83
g1797
sg76
(lp1809
S':'
asbag69
(g90
g71
NtRp1810
(dp1811
g74
(dp1812
sg83
g1797
sg76
(lp1813
g69
(g70
g71
NtRp1814
(dp1815
g74
(dp1816
g82
I4
ssg83
g1810
sg76
(lp1817
g112
asbasbasbag69
(g85
g71
NtRp1818
(dp1819
g74
(dp1820
sg83
g1417
sg76
(lp1821
g69
(g90
g71
NtRp1822
(dp1823
g74
(dp1824
g94
g95
ssg83
g1818
sg76
(lp1825
S'is_pypy'
p1826
asbag69
(g90
g71
NtRp1827
(dp1828
g74
(dp1829
g101
g102
ssg83
g1818
sg76
(lp1830
S':'
asbag69
(g90
g71
NtRp1831
(dp1832
g74
(dp1833
sg83
g1818
sg76
(lp1834
g69
(g70
g71
NtRp1835
(dp1836
g74
(dp1837
g82
I4
ssg83
g1831
sg76
(lp1838
g112
asbasbasbag69
(g85
g71
NtRp1839
(dp1840
g74
(dp1841
sg83
g1417
sg76
(lp1842
g69
(g90
g71
NtRp1843
(dp1844
g74
(dp1845
g94
g95
ssg83
g1839
sg76
(lp1846
S'local_hosts'
p1847
asbag69
(g90
g71
NtRp1848
(dp1849
g74
(dp1850
g101
g102
ssg83
g1839
sg76
(lp1851
S':'
asbag69
(g90
g71
NtRp1852
(dp1853
g74
(dp1854
sg83
g1839
sg76
(lp1855
g69
(g70
g71
NtRp1856
(dp1857
g74
(dp1858
g82
I4
ssg83
g1852
sg76
(lp1859
g69
(g78
g71
NtRp1860
(dp1861
g74
(dp1862
g82
I3
ssg83
Nsg76
(lp1863
g69
(g85
g71
NtRp1864
(dp1865
g74
(dp1866
sg83
g1860
sg76
(lp1867
g69
(g90
g71
NtRp1868
(dp1869
g74
(dp1870
sg83
g1864
sg76
(lp1871
g69
(g70
g71
NtRp1872
(dp1873
g74
(dp1874
g82
I3
ssg83
g1868
sg76
(lp1875
S'127.0.1.1'
p1876
asbasbasbag69
(g85
g71
NtRp1877
(dp1878
g74
(dp1879
sg83
g1860
sg76
(lp1880
g69
(g90
g71
NtRp1881
(dp1882
g74
(dp1883
sg83
g1877
sg76
(lp1884
g69
(g70
g71
NtRp1885
(dp1886
g74
(dp1887
g82
I3
ssg83
g1881
sg76
(lp1888
S'::1'
p1889
asbasbasbag69
(g85
g71
NtRp1890
(dp1891
g74
(dp1892
sg83
g1860
sg76
(lp1893
g69
(g90
g71
NtRp1894
(dp1895
g74
(dp1896
sg83
g1890
sg76
(lp1897
g69
(g70
g71
NtRp1898
(dp1899
g74
(dp1900
g82
I3
ssg83
g1894
sg76
(lp1901
S'alanzak'
p1902
asbasbasbag69
(g85
g71
NtRp1903
(dp1904
g74
(dp1905
sg83
g1860
sg76
(lp1906
g69
(g90
g71
NtRp1907
(dp1908
g74
(dp1909
sg83
g1903
sg76
(lp1910
g69
(g70
g71
NtRp1911
(dp1912
g74
(dp1913
g82
I3
ssg83
g1907
sg76
(lp1914
S'::ffff:127.0.0.1'
p1915
asbasbasbag69
(g85
g71
NtRp1916
(dp1917
g74
(dp1918
sg83
g1860
sg76
(lp1919
g69
(g90
g71
NtRp1920
(dp1921
g74
(dp1922
sg83
g1916
sg76
(lp1923
g69
(g70
g71
NtRp1924
(dp1925
g74
(dp1926
g82
I3
ssg83
g1920
sg76
(lp1927
S'127.0.0.1'
p1928
asbasbasbasbasbasbasbag69
(g85
g71
NtRp1929
(dp1930
g74
(dp1931
sg83
g1417
sg76
(lp1932
g69
(g90
g71
NtRp1933
(dp1934
g74
(dp1935
g94
g95
ssg83
g1929
sg76
(lp1936
S'path_info'
p1937
asbag69
(g90
g71
NtRp1938
(dp1939
g74
(dp1940
g101
g102
ssg83
g1929
sg76
(lp1941
S':'
asbag69
(g90
g71
NtRp1942
(dp1943
g74
(dp1944
sg83
g1929
sg76
(lp1945
g69
(g70
g71
NtRp1946
(dp1947
g74
(dp1948
g82
I4
ssg83
g1942
sg76
(lp1949
S'/BuySell/default/index'
p1950
asbasbasbag69
(g85
g71
NtRp1951
(dp1952
g74
(dp1953
sg83
g1417
sg76
(lp1954
g69
(g90
g71
NtRp1955
(dp1956
g74
(dp1957
g94
g95
ssg83
g1951
sg76
(lp1958
S'query_string'
p1959
asbag69
(g90
g71
NtRp1960
(dp1961
g74
(dp1962
g101
g102
ssg83
g1951
sg76
(lp1963
S':'
asbag69
(g90
g71
NtRp1964
(dp1965
g74
(dp1966
sg83
g1951
sg76
(lp1967
g69
(g70
g71
NtRp1968
(dp1969
g74
(dp1970
g82
I4
ssg83
g1964
sg76
(lp1971
S''
asbasbasbag69
(g85
g71
NtRp1972
(dp1973
g74
(dp1974
sg83
g1417
sg76
(lp1975
g69
(g90
g71
NtRp1976
(dp1977
g74
(dp1978
g94
g95
ssg83
g1972
sg76
(lp1979
S'remote_addr'
p1980
asbag69
(g90
g71
NtRp1981
(dp1982
g74
(dp1983
g101
g102
ssg83
g1972
sg76
(lp1984
S':'
asbag69
(g90
g71
NtRp1985
(dp1986
g74
(dp1987
sg83
g1972
sg76
(lp1988
g69
(g70
g71
NtRp1989
(dp1990
g74
(dp1991
g82
I4
ssg83
g1985
sg76
(lp1992
g224
asbasbasbag69
(g85
g71
NtRp1993
(dp1994
g74
(dp1995
sg83
g1417
sg76
(lp1996
g69
(g90
g71
NtRp1997
(dp1998
g74
(dp1999
g94
g95
ssg83
g1993
sg76
(lp2000
S'remote_port'
p2001
asbag69
(g90
g71
NtRp2002
(dp2003
g74
(dp2004
g101
g102
ssg83
g1993
sg76
(lp2005
S':'
asbag69
(g90
g71
NtRp2006
(dp2007
g74
(dp2008
sg83
g1993
sg76
(lp2009
g69
(g70
g71
NtRp2010
(dp2011
g74
(dp2012
g82
I4
ssg83
g2006
sg76
(lp2013
S'32939'
p2014
asbasbasbag69
(g85
g71
NtRp2015
(dp2016
g74
(dp2017
sg83
g1417
sg76
(lp2018
g69
(g90
g71
NtRp2019
(dp2020
g74
(dp2021
g94
g95
ssg83
g2015
sg76
(lp2022
S'request_method'
p2023
asbag69
(g90
g71
NtRp2024
(dp2025
g74
(dp2026
g101
g102
ssg83
g2015
sg76
(lp2027
S':'
asbag69
(g90
g71
NtRp2028
(dp2029
g74
(dp2030
sg83
g2015
sg76
(lp2031
g69
(g70
g71
NtRp2032
(dp2033
g74
(dp2034
g82
I4
ssg83
g2028
sg76
(lp2035
S'GET'
p2036
asbasbasbag69
(g85
g71
NtRp2037
(dp2038
g74
(dp2039
sg83
g1417
sg76
(lp2040
g69
(g90
g71
NtRp2041
(dp2042
g74
(dp2043
g94
g95
ssg83
g2037
sg76
(lp2044
S'request_uri'
p2045
asbag69
(g90
g71
NtRp2046
(dp2047
g74
(dp2048
g101
g102
ssg83
g2037
sg76
(lp2049
S':'
asbag69
(g90
g71
NtRp2050
(dp2051
g74
(dp2052
sg83
g2037
sg76
(lp2053
g69
(g70
g71
NtRp2054
(dp2055
g74
(dp2056
g82
I4
ssg83
g2050
sg76
(lp2057
g1950
asbasbasbag69
(g85
g71
NtRp2058
(dp2059
g74
(dp2060
sg83
g1417
sg76
(lp2061
g69
(g90
g71
NtRp2062
(dp2063
g74
(dp2064
g94
g95
ssg83
g2058
sg76
(lp2065
S'script_name'
p2066
asbag69
(g90
g71
NtRp2067
(dp2068
g74
(dp2069
g101
g102
ssg83
g2058
sg76
(lp2070
S':'
asbag69
(g90
g71
NtRp2071
(dp2072
g74
(dp2073
sg83
g2058
sg76
(lp2074
g69
(g70
g71
NtRp2075
(dp2076
g74
(dp2077
g82
I4
ssg83
g2071
sg76
(lp2078
S''
asbasbasbag69
(g85
g71
NtRp2079
(dp2080
g74
(dp2081
sg83
g1417
sg76
(lp2082
g69
(g90
g71
NtRp2083
(dp2084
g74
(dp2085
g94
g95
ssg83
g2079
sg76
(lp2086
S'server_name'
p2087
asbag69
(g90
g71
NtRp2088
(dp2089
g74
(dp2090
g101
g102
ssg83
g2079
sg76
(lp2091
S':'
asbag69
(g90
g71
NtRp2092
(dp2093
g74
(dp2094
sg83
g2079
sg76
(lp2095
g69
(g70
g71
NtRp2096
(dp2097
g74
(dp2098
g82
I4
ssg83
g2092
sg76
(lp2099
S'alanzak'
p2100
asbasbasbag69
(g85
g71
NtRp2101
(dp2102
g74
(dp2103
sg83
g1417
sg76
(lp2104
g69
(g90
g71
NtRp2105
(dp2106
g74
(dp2107
g94
g95
ssg83
g2101
sg76
(lp2108
S'server_port'
p2109
asbag69
(g90
g71
NtRp2110
(dp2111
g74
(dp2112
g101
g102
ssg83
g2101
sg76
(lp2113
S':'
asbag69
(g90
g71
NtRp2114
(dp2115
g74
(dp2116
sg83
g2101
sg76
(lp2117
g69
(g70
g71
NtRp2118
(dp2119
g74
(dp2120
g82
I4
ssg83
g2114
sg76
(lp2121
S'8001'
p2122
asbasbasbag69
(g85
g71
NtRp2123
(dp2124
g74
(dp2125
sg83
g1417
sg76
(lp2126
g69
(g90
g71
NtRp2127
(dp2128
g74
(dp2129
g94
g95
ssg83
g2123
sg76
(lp2130
S'server_protocol'
p2131
asbag69
(g90
g71
NtRp2132
(dp2133
g74
(dp2134
g101
g102
ssg83
g2123
sg76
(lp2135
S':'
asbag69
(g90
g71
NtRp2136
(dp2137
g74
(dp2138
sg83
g2123
sg76
(lp2139
g69
(g70
g71
NtRp2140
(dp2141
g74
(dp2142
g82
I4
ssg83
g2136
sg76
(lp2143
S'HTTP/1.1'
p2144
asbasbasbag69
(g85
g71
NtRp2145
(dp2146
g74
(dp2147
sg83
g1417
sg76
(lp2148
g69
(g90
g71
NtRp2149
(dp2150
g74
(dp2151
g94
g95
ssg83
g2145
sg76
(lp2152
S'server_software'
p2153
asbag69
(g90
g71
NtRp2154
(dp2155
g74
(dp2156
g101
g102
ssg83
g2145
sg76
(lp2157
S':'
asbag69
(g90
g71
NtRp2158
(dp2159
g74
(dp2160
sg83
g2145
sg76
(lp2161
g69
(g70
g71
NtRp2162
(dp2163
g74
(dp2164
g82
I4
ssg83
g2158
sg76
(lp2165
S'Rocket 1.2.6'
p2166
asbasbasbag69
(g85
g71
NtRp2167
(dp2168
g74
(dp2169
sg83
g1417
sg76
(lp2170
g69
(g90
g71
NtRp2171
(dp2172
g74
(dp2173
g94
g95
ssg83
g2167
sg76
(lp2174
S'web2py_path'
p2175
asbag69
(g90
g71
NtRp2176
(dp2177
g74
(dp2178
g101
g102
ssg83
g2167
sg76
(lp2179
S':'
asbag69
(g90
g71
NtRp2180
(dp2181
g74
(dp2182
sg83
g2167
sg76
(lp2183
g69
(g70
g71
NtRp2184
(dp2185
g74
(dp2186
g82
I4
ssg83
g2180
sg76
(lp2187
g1464
asbasbasbag69
(g85
g71
NtRp2188
(dp2189
g74
(dp2190
sg83
g1417
sg76
(lp2191
g69
(g90
g71
NtRp2192
(dp2193
g74
(dp2194
g94
g95
ssg83
g2188
sg76
(lp2195
S'web2py_version'
p2196
asbag69
(g90
g71
NtRp2197
(dp2198
g74
(dp2199
g101
g102
ssg83
g2188
sg76
(lp2200
S':'
asbag69
(g90
g71
NtRp2201
(dp2202
g74
(dp2203
sg83
g2188
sg76
(lp2204
g69
(g70
g71
NtRp2205
(dp2206
g74
(dp2207
g82
I4
ssg83
g2201
sg76
(lp2208
g69
(g78
g71
NtRp2209
(dp2210
g74
(dp2211
g82
I3
ssg83
Nsg76
(lp2212
g69
(g85
g71
NtRp2213
(dp2214
g74
(dp2215
sg83
g2209
sg76
(lp2216
g69
(g90
g71
NtRp2217
(dp2218
g74
(dp2219
sg83
g2213
sg76
(lp2220
g69
(g70
g71
NtRp2221
(dp2222
g74
(dp2223
g82
I3
ssg83
g2217
sg76
(lp2224
S'2'
asbasbasbag69
(g85
g71
NtRp2225
(dp2226
g74
(dp2227
sg83
g2209
sg76
(lp2228
g69
(g90
g71
NtRp2229
(dp2230
g74
(dp2231
sg83
g2225
sg76
(lp2232
g69
(g70
g71
NtRp2233
(dp2234
g74
(dp2235
g82
I3
ssg83
g2229
sg76
(lp2236
S'3'
asbasbasbag69
(g85
g71
NtRp2237
(dp2238
g74
(dp2239
sg83
g2209
sg76
(lp2240
g69
(g90
g71
NtRp2241
(dp2242
g74
(dp2243
sg83
g2237
sg76
(lp2244
g69
(g70
g71
NtRp2245
(dp2246
g74
(dp2247
g82
I3
ssg83
g2241
sg76
(lp2248
S'2'
asbasbasbag69
(g85
g71
NtRp2249
(dp2250
g74
(dp2251
sg83
g2209
sg76
(lp2252
g69
(g90
g71
NtRp2253
(dp2254
g74
(dp2255
sg83
g2249
sg76
(lp2256
g69
(g70
g71
NtRp2257
(dp2258
g74
(dp2259
g82
I3
ssg83
g2253
sg76
(lp2260
S'datetime.datetime(2012, 12, 17, 15, 3, 30)'
p2261
asbasbasbag69
(g85
g71
NtRp2262
(dp2263
g74
(dp2264
sg83
g2209
sg76
(lp2265
g69
(g90
g71
NtRp2266
(dp2267
g74
(dp2268
sg83
g2262
sg76
(lp2269
g69
(g70
g71
NtRp2270
(dp2271
g74
(dp2272
g82
I3
ssg83
g2266
sg76
(lp2273
S'stable'
p2274
asbasbasbasbasbasbasbag69
(g85
g71
NtRp2275
(dp2276
g74
(dp2277
sg83
g1417
sg76
(lp2278
g69
(g90
g71
NtRp2279
(dp2280
g74
(dp2281
g94
g95
ssg83
g2275
sg76
(lp2282
S'wsgi_errors'
p2283
asbag69
(g90
g71
NtRp2284
(dp2285
g74
(dp2286
g101
g102
ssg83
g2275
sg76
(lp2287
S':'
asbag69
(g90
g71
NtRp2288
(dp2289
g74
(dp2290
sg83
g2275
sg76
(lp2291
g69
(g70
g71
NtRp2292
(dp2293
g74
(dp2294
g82
I4
ssg83
g2288
sg76
(lp2295
S"<open file '<stderr>', mode 'w' at 0xb789e0d0>"
p2296
asbasbasbag69
(g85
g71
NtRp2297
(dp2298
g74
(dp2299
sg83
g1417
sg76
(lp2300
g69
(g90
g71
NtRp2301
(dp2302
g74
(dp2303
g94
g95
ssg83
g2297
sg76
(lp2304
S'wsgi_file_wrapper'
p2305
asbag69
(g90
g71
NtRp2306
(dp2307
g74
(dp2308
g101
g102
ssg83
g2297
sg76
(lp2309
S':'
asbag69
(g90
g71
NtRp2310
(dp2311
g74
(dp2312
sg83
g2297
sg76
(lp2313
g69
(g70
g71
NtRp2314
(dp2315
g74
(dp2316
g82
I4
ssg83
g2310
sg76
(lp2317
S'<class wsgiref.util.FileWrapper at 0xa4afddc>'
p2318
asbasbasbag69
(g85
g71
NtRp2319
(dp2320
g74
(dp2321
sg83
g1417
sg76
(lp2322
g69
(g90
g71
NtRp2323
(dp2324
g74
(dp2325
g94
g95
ssg83
g2319
sg76
(lp2326
S'wsgi_input'
p2327
asbag69
(g90
g71
NtRp2328
(dp2329
g74
(dp2330
g101
g102
ssg83
g2319
sg76
(lp2331
S':'
asbag69
(g90
g71
NtRp2332
(dp2333
g74
(dp2334
sg83
g2319
sg76
(lp2335
g69
(g70
g71
NtRp2336
(dp2337
g74
(dp2338
g82
I4
ssg83
g2332
sg76
(lp2339
S'<socket._fileobject object at 0xb32a3ac>'
p2340
asbasbasbag69
(g85
g71
NtRp2341
(dp2342
g74
(dp2343
sg83
g1417
sg76
(lp2344
g69
(g90
g71
NtRp2345
(dp2346
g74
(dp2347
g94
g95
ssg83
g2341
sg76
(lp2348
S'wsgi_multiprocess'
p2349
asbag69
(g90
g71
NtRp2350
(dp2351
g74
(dp2352
g101
g102
ssg83
g2341
sg76
(lp2353
S':'
asbag69
(g90
g71
NtRp2354
(dp2355
g74
(dp2356
sg83
g2341
sg76
(lp2357
g69
(g70
g71
NtRp2358
(dp2359
g74
(dp2360
g82
I4
ssg83
g2354
sg76
(lp2361
g112
asbasbasbag69
(g85
g71
NtRp2362
(dp2363
g74
(dp2364
sg83
g1417
sg76
(lp2365
g69
(g90
g71
NtRp2366
(dp2367
g74
(dp2368
g94
g95
ssg83
g2362
sg76
(lp2369
S'wsgi_multithread'
p2370
asbag69
(g90
g71
NtRp2371
(dp2372
g74
(dp2373
g101
g102
ssg83
g2362
sg76
(lp2374
S':'
asbag69
(g90
g71
NtRp2375
(dp2376
g74
(dp2377
sg83
g2362
sg76
(lp2378
g69
(g70
g71
NtRp2379
(dp2380
g74
(dp2381
g82
I4
ssg83
g2375
sg76
(lp2382
S'True'
p2383
asbasbasbag69
(g85
g71
NtRp2384
(dp2385
g74
(dp2386
sg83
g1417
sg76
(lp2387
g69
(g90
g71
NtRp2388
(dp2389
g74
(dp2390
g94
g95
ssg83
g2384
sg76
(lp2391
S'wsgi_run_once'
p2392
asbag69
(g90
g71
NtRp2393
(dp2394
g74
(dp2395
g101
g102
ssg83
g2384
sg76
(lp2396
S':'
asbag69
(g90
g71
NtRp2397
(dp2398
g74
(dp2399
sg83
g2384
sg76
(lp2400
g69
(g70
g71
NtRp2401
(dp2402
g74
(dp2403
g82
I4
ssg83
g2397
sg76
(lp2404
g112
asbasbasbag69
(g85
g71
NtRp2405
(dp2406
g74
(dp2407
sg83
g1417
sg76
(lp2408
g69
(g90
g71
NtRp2409
(dp2410
g74
(dp2411
g94
g95
ssg83
g2405
sg76
(lp2412
S'wsgi_url_scheme'
p2413
asbag69
(g90
g71
NtRp2414
(dp2415
g74
(dp2416
g101
g102
ssg83
g2405
sg76
(lp2417
S':'
asbag69
(g90
g71
NtRp2418
(dp2419
g74
(dp2420
sg83
g2405
sg76
(lp2421
g69
(g70
g71
NtRp2422
(dp2423
g74
(dp2424
g82
I4
ssg83
g2418
sg76
(lp2425
S'http'
p2426
asbasbasbag69
(g85
g71
NtRp2427
(dp2428
g74
(dp2429
sg83
g1417
sg76
(lp2430
g69
(g90
g71
NtRp2431
(dp2432
g74
(dp2433
g94
g95
ssg83
g2427
sg76
(lp2434
S'wsgi_version'
p2435
asbag69
(g90
g71
NtRp2436
(dp2437
g74
(dp2438
g101
g102
ssg83
g2427
sg76
(lp2439
S':'
asbag69
(g90
g71
NtRp2440
(dp2441
g74
(dp2442
sg83
g2427
sg76
(lp2443
g69
(g70
g71
NtRp2444
(dp2445
g74
(dp2446
g82
I4
ssg83
g2440
sg76
(lp2447
g69
(g78
g71
NtRp2448
(dp2449
g74
(dp2450
g82
I3
ssg83
Nsg76
(lp2451
g69
(g85
g71
NtRp2452
(dp2453
g74
(dp2454
sg83
g2448
sg76
(lp2455
g69
(g90
g71
NtRp2456
(dp2457
g74
(dp2458
sg83
g2452
sg76
(lp2459
g69
(g70
g71
NtRp2460
(dp2461
g74
(dp2462
g82
I3
ssg83
g2456
sg76
(lp2463
S'1'
asbasbasbag69
(g85
g71
NtRp2464
(dp2465
g74
(dp2466
sg83
g2448
sg76
(lp2467
g69
(g90
g71
NtRp2468
(dp2469
g74
(dp2470
sg83
g2464
sg76
(lp2471
g69
(g70
g71
NtRp2472
(dp2473
g74
(dp2474
g82
I3
ssg83
g2468
sg76
(lp2475
S'0'
asbasbasbasbasbasbasbasbasbasbasbag69
(g85
g71
NtRp2476
(dp2477
g74
(dp2478
sg83
g79
sg76
(lp2479
g69
(g90
g71
NtRp2480
(dp2481
g74
(dp2482
g94
g95
ssg83
g2476
sg76
(lp2483
S'extension'
p2484
asbag69
(g90
g71
NtRp2485
(dp2486
g74
(dp2487
g101
g102
ssg83
g2476
sg76
(lp2488
S':'
asbag69
(g90
g71
NtRp2489
(dp2490
g74
(dp2491
sg83
g2476
sg76
(lp2492
g69
(g70
g71
NtRp2493
(dp2494
g74
(dp2495
g82
I5
ssg83
g2489
sg76
(lp2496
S'html'
p2497
asbasbasbag69
(g85
g71
NtRp2498
(dp2499
g74
(dp2500
sg83
g79
sg76
(lp2501
g69
(g90
g71
NtRp2502
(dp2503
g74
(dp2504
g94
g95
ssg83
g2498
sg76
(lp2505
S'folder'
p2506
asbag69
(g90
g71
NtRp2507
(dp2508
g74
(dp2509
g101
g102
ssg83
g2498
sg76
(lp2510
S':'
asbag69
(g90
g71
NtRp2511
(dp2512
g74
(dp2513
sg83
g2498
sg76
(lp2514
g69
(g70
g71
NtRp2515
(dp2516
g74
(dp2517
g82
I5
ssg83
g2511
sg76
(lp2518
S'/home/pratyush/web2py/applications/BuySell/'
p2519
asbasbasbag69
(g85
g71
NtRp2520
(dp2521
g74
(dp2522
sg83
g79
sg76
(lp2523
g69
(g90
g71
NtRp2524
(dp2525
g74
(dp2526
g94
g95
ssg83
g2520
sg76
(lp2527
S'function'
p2528
asbag69
(g90
g71
NtRp2529
(dp2530
g74
(dp2531
g101
g102
ssg83
g2520
sg76
(lp2532
S':'
asbag69
(g90
g71
NtRp2533
(dp2534
g74
(dp2535
sg83
g2520
sg76
(lp2536
g69
(g70
g71
NtRp2537
(dp2538
g74
(dp2539
g82
I5
ssg83
g2533
sg76
(lp2540
S'index'
p2541
asbasbasbag69
(g85
g71
NtRp2542
(dp2543
g74
(dp2544
sg83
g79
sg76
(lp2545
g69
(g90
g71
NtRp2546
(dp2547
g74
(dp2548
g94
g95
ssg83
g2542
sg76
(lp2549
S'get_vars'
p2550
asbag69
(g90
g71
NtRp2551
(dp2552
g74
(dp2553
g101
g102
ssg83
g2542
sg76
(lp2554
S':'
asbag69
(g90
g71
NtRp2555
(dp2556
g74
(dp2557
sg83
g2542
sg76
(lp2558
g69
(g70
g71
NtRp2559
(dp2560
g74
(dp2561
g82
I5
ssg83
g2555
sg76
(lp2562
g69
(g78
g71
NtRp2563
(dp2564
g74
(dp2565
g82
I4
ssg83
Nsg76
(lp2566
sbasbasbasbag69
(g85
g71
NtRp2567
(dp2568
g74
(dp2569
sg83
g79
sg76
(lp2570
g69
(g90
g71
NtRp2571
(dp2572
g74
(dp2573
g94
g95
ssg83
g2567
sg76
(lp2574
S'global_settings'
p2575
asbag69
(g90
g71
NtRp2576
(dp2577
g74
(dp2578
g101
g102
ssg83
g2567
sg76
(lp2579
S':'
asbag69
(g90
g71
NtRp2580
(dp2581
g74
(dp2582
sg83
g2567
sg76
(lp2583
g69
(g70
g71
NtRp2584
(dp2585
g74
(dp2586
g82
I5
ssg83
g2580
sg76
(lp2587
g69
(g78
g71
NtRp2588
(dp2589
g74
(dp2590
g82
I4
ssg83
Nsg76
(lp2591
g69
(g85
g71
NtRp2592
(dp2593
g74
(dp2594
sg83
g2588
sg76
(lp2595
g69
(g90
g71
NtRp2596
(dp2597
g74
(dp2598
g94
g95
ssg83
g2592
sg76
(lp2599
g1429
asbag69
(g90
g71
NtRp2600
(dp2601
g74
(dp2602
g101
g102
ssg83
g2592
sg76
(lp2603
S':'
asbag69
(g90
g71
NtRp2604
(dp2605
g74
(dp2606
sg83
g2592
sg76
(lp2607
g69
(g70
g71
NtRp2608
(dp2609
g74
(dp2610
g82
I4
ssg83
g2604
sg76
(lp2611
S"set(['/home/pratyush/web2py/applications/db_project/', '/home/pratyush/web2py/applications/outreach/', '/home/pratyush/web2py/applications/welcome/', '/home/pratyush/web2py/applications/music_library/', '/home/pratyush/web2py/applications/examples/', '/home/pratyush/web2py/applications/BuySell/', '/home/pratyush/web2py/applications/admin/'])"
p2612
asbasbasbag69
(g85
g71
NtRp2613
(dp2614
g74
(dp2615
sg83
g2588
sg76
(lp2616
g69
(g90
g71
NtRp2617
(dp2618
g74
(dp2619
g94
g95
ssg83
g2613
sg76
(lp2620
g1451
asbag69
(g90
g71
NtRp2621
(dp2622
g74
(dp2623
g101
g102
ssg83
g2613
sg76
(lp2624
S':'
asbag69
(g90
g71
NtRp2625
(dp2626
g74
(dp2627
sg83
g2613
sg76
(lp2628
g69
(g70
g71
NtRp2629
(dp2630
g74
(dp2631
g82
I4
ssg83
g2625
sg76
(lp2632
g1464
asbasbasbag69
(g85
g71
NtRp2633
(dp2634
g74
(dp2635
sg83
g2588
sg76
(lp2636
g69
(g90
g71
NtRp2637
(dp2638
g74
(dp2639
g94
g95
ssg83
g2633
sg76
(lp2640
g1473
asbag69
(g90
g71
NtRp2641
(dp2642
g74
(dp2643
g101
g102
ssg83
g2633
sg76
(lp2644
S':'
asbag69
(g90
g71
NtRp2645
(dp2646
g74
(dp2647
sg83
g2633
sg76
(lp2648
g69
(g70
g71
NtRp2649
(dp2650
g74
(dp2651
g82
I4
ssg83
g2645
sg76
(lp2652
g69
(g78
g71
NtRp2653
(dp2654
g74
(dp2655
g82
I3
ssg83
Nsg76
(lp2656
sbasbasbasbag69
(g85
g71
NtRp2657
(dp2658
g74
(dp2659
sg83
g2588
sg76
(lp2660
g69
(g90
g71
NtRp2661
(dp2662
g74
(dp2663
g94
g95
ssg83
g2657
sg76
(lp2664
g1498
asbag69
(g90
g71
NtRp2665
(dp2666
g74
(dp2667
g101
g102
ssg83
g2657
sg76
(lp2668
S':'
asbag69
(g90
g71
NtRp2669
(dp2670
g74
(dp2671
sg83
g2657
sg76
(lp2672
g69
(g70
g71
NtRp2673
(dp2674
g74
(dp2675
g82
I4
ssg83
g2669
sg76
(lp2676
S"<Values at 0xa526b0c: {'verbose': False, 'ip': '127.0.0.1', 'with_scheduler': False, 'ips': [], 'shutdown_timeout': 5, 'taskbar': False, 'port': 8001, 'maxthreads': None, 'softcron': False, 'server_name': 'alanzak', 'bpython': False, 'nogui': False, 'pid_filename': 'httpserver.pid', 'extcron': False, 'runcron': False, 'run_system_tests': False, 'test': None, 'folder': '/home/pratyush/web2py', 'config': '', 'import_models': False, 'winservice': '', 'shell': None, 'run': '', 'log_filename': 'httpserver.log', 'debuglevel': 30, 'args': [''], 'socket_timeout': 5, 'ssl_ca_certificate': None, 'scheduler': None, 'profiler_filename': None, 'ssl_private_key': '', 'scheduler_groups': None, 'password': '1', 'request_queue_size': 5, 'ssl_certificate': '', 'cronjob': False, 'numthreads': None, 'quiet': False, 'interfaces': None, 'minthreads': None, 'timeout': 10, 'plain': False, 'nobanner': False}>"
p2677
asbasbasbag69
(g85
g71
NtRp2678
(dp2679
g74
(dp2680
sg83
g2588
sg76
(lp2681
g69
(g90
g71
NtRp2682
(dp2683
g74
(dp2684
g94
g95
ssg83
g2678
sg76
(lp2685
g1520
asbag69
(g90
g71
NtRp2686
(dp2687
g74
(dp2688
g101
g102
ssg83
g2678
sg76
(lp2689
S':'
asbag69
(g90
g71
NtRp2690
(dp2691
g74
(dp2692
sg83
g2678
sg76
(lp2693
g69
(g70
g71
NtRp2694
(dp2695
g74
(dp2696
g82
I4
ssg83
g2690
sg76
(lp2697
S'set([])'
p2698
asbasbasbag69
(g85
g71
NtRp2699
(dp2700
g74
(dp2701
sg83
g2588
sg76
(lp2702
g69
(g90
g71
NtRp2703
(dp2704
g74
(dp2705
g94
g95
ssg83
g2699
sg76
(lp2706
g1542
asbag69
(g90
g71
NtRp2707
(dp2708
g74
(dp2709
g101
g102
ssg83
g2699
sg76
(lp2710
S':'
asbag69
(g90
g71
NtRp2711
(dp2712
g74
(dp2713
sg83
g2699
sg76
(lp2714
g69
(g70
g71
NtRp2715
(dp2716
g74
(dp2717
g82
I4
ssg83
g2711
sg76
(lp2718
g112
asbasbasbag69
(g85
g71
NtRp2719
(dp2720
g74
(dp2721
sg83
g2588
sg76
(lp2722
g69
(g90
g71
NtRp2723
(dp2724
g74
(dp2725
g94
g95
ssg83
g2719
sg76
(lp2726
g1563
asbag69
(g90
g71
NtRp2727
(dp2728
g74
(dp2729
g101
g102
ssg83
g2719
sg76
(lp2730
S':'
asbag69
(g90
g71
NtRp2731
(dp2732
g74
(dp2733
sg83
g2719
sg76
(lp2734
g69
(g70
g71
NtRp2735
(dp2736
g74
(dp2737
g82
I4
ssg83
g2731
sg76
(lp2738
g1576
asbasbasbag69
(g85
g71
NtRp2739
(dp2740
g74
(dp2741
sg83
g2588
sg76
(lp2742
g69
(g90
g71
NtRp2743
(dp2744
g74
(dp2745
g94
g95
ssg83
g2739
sg76
(lp2746
g1805
asbag69
(g90
g71
NtRp2747
(dp2748
g74
(dp2749
g101
g102
ssg83
g2739
sg76
(lp2750
S':'
asbag69
(g90
g71
NtRp2751
(dp2752
g74
(dp2753
sg83
g2739
sg76
(lp2754
g69
(g70
g71
NtRp2755
(dp2756
g74
(dp2757
g82
I4
ssg83
g2751
sg76
(lp2758
g112
asbasbasbag69
(g85
g71
NtRp2759
(dp2760
g74
(dp2761
sg83
g2588
sg76
(lp2762
g69
(g90
g71
NtRp2763
(dp2764
g74
(dp2765
g94
g95
ssg83
g2759
sg76
(lp2766
g1826
asbag69
(g90
g71
NtRp2767
(dp2768
g74
(dp2769
g101
g102
ssg83
g2759
sg76
(lp2770
S':'
asbag69
(g90
g71
NtRp2771
(dp2772
g74
(dp2773
sg83
g2759
sg76
(lp2774
g69
(g70
g71
NtRp2775
(dp2776
g74
(dp2777
g82
I4
ssg83
g2771
sg76
(lp2778
g112
asbasbasbag69
(g85
g71
NtRp2779
(dp2780
g74
(dp2781
sg83
g2588
sg76
(lp2782
g69
(g90
g71
NtRp2783
(dp2784
g74
(dp2785
g94
g95
ssg83
g2779
sg76
(lp2786
g1847
asbag69
(g90
g71
NtRp2787
(dp2788
g74
(dp2789
g101
g102
ssg83
g2779
sg76
(lp2790
S':'
asbag69
(g90
g71
NtRp2791
(dp2792
g74
(dp2793
sg83
g2779
sg76
(lp2794
g69
(g70
g71
NtRp2795
(dp2796
g74
(dp2797
g82
I4
ssg83
g2791
sg76
(lp2798
g69
(g78
g71
NtRp2799
(dp2800
g74
(dp2801
g82
I3
ssg83
Nsg76
(lp2802
g69
(g85
g71
NtRp2803
(dp2804
g74
(dp2805
sg83
g2799
sg76
(lp2806
g69
(g90
g71
NtRp2807
(dp2808
g74
(dp2809
sg83
g2803
sg76
(lp2810
g69
(g70
g71
NtRp2811
(dp2812
g74
(dp2813
g82
I3
ssg83
g2807
sg76
(lp2814
g1876
asbasbasbag69
(g85
g71
NtRp2815
(dp2816
g74
(dp2817
sg83
g2799
sg76
(lp2818
g69
(g90
g71
NtRp2819
(dp2820
g74
(dp2821
sg83
g2815
sg76
(lp2822
g69
(g70
g71
NtRp2823
(dp2824
g74
(dp2825
g82
I3
ssg83
g2819
sg76
(lp2826
g1889
asbasbasbag69
(g85
g71
NtRp2827
(dp2828
g74
(dp2829
sg83
g2799
sg76
(lp2830
g69
(g90
g71
NtRp2831
(dp2832
g74
(dp2833
sg83
g2827
sg76
(lp2834
g69
(g70
g71
NtRp2835
(dp2836
g74
(dp2837
g82
I3
ssg83
g2831
sg76
(lp2838
g1902
asbasbasbag69
(g85
g71
NtRp2839
(dp2840
g74
(dp2841
sg83
g2799
sg76
(lp2842
g69
(g90
g71
NtRp2843
(dp2844
g74
(dp2845
sg83
g2839
sg76
(lp2846
g69
(g70
g71
NtRp2847
(dp2848
g74
(dp2849
g82
I3
ssg83
g2843
sg76
(lp2850
g1915
asbasbasbag69
(g85
g71
NtRp2851
(dp2852
g74
(dp2853
sg83
g2799
sg76
(lp2854
g69
(g90
g71
NtRp2855
(dp2856
g74
(dp2857
sg83
g2851
sg76
(lp2858
g69
(g70
g71
NtRp2859
(dp2860
g74
(dp2861
g82
I3
ssg83
g2855
sg76
(lp2862
g1928
asbasbasbasbasbasbasbag69
(g85
g71
NtRp2863
(dp2864
g74
(dp2865
sg83
g2588
sg76
(lp2866
g69
(g90
g71
NtRp2867
(dp2868
g74
(dp2869
g94
g95
ssg83
g2863
sg76
(lp2870
g2196
asbag69
(g90
g71
NtRp2871
(dp2872
g74
(dp2873
g101
g102
ssg83
g2863
sg76
(lp2874
S':'
asbag69
(g90
g71
NtRp2875
(dp2876
g74
(dp2877
sg83
g2863
sg76
(lp2878
g69
(g70
g71
NtRp2879
(dp2880
g74
(dp2881
g82
I4
ssg83
g2875
sg76
(lp2882
g69
(g78
g71
NtRp2883
(dp2884
g74
(dp2885
g82
I3
ssg83
Nsg76
(lp2886
g69
(g85
g71
NtRp2887
(dp2888
g74
(dp2889
sg83
g2883
sg76
(lp2890
g69
(g90
g71
NtRp2891
(dp2892
g74
(dp2893
sg83
g2887
sg76
(lp2894
g69
(g70
g71
NtRp2895
(dp2896
g74
(dp2897
g82
I3
ssg83
g2891
sg76
(lp2898
S'2'
asbasbasbag69
(g85
g71
NtRp2899
(dp2900
g74
(dp2901
sg83
g2883
sg76
(lp2902
g69
(g90
g71
NtRp2903
(dp2904
g74
(dp2905
sg83
g2899
sg76
(lp2906
g69
(g70
g71
NtRp2907
(dp2908
g74
(dp2909
g82
I3
ssg83
g2903
sg76
(lp2910
S'3'
asbasbasbag69
(g85
g71
NtRp2911
(dp2912
g74
(dp2913
sg83
g2883
sg76
(lp2914
g69
(g90
g71
NtRp2915
(dp2916
g74
(dp2917
sg83
g2911
sg76
(lp2918
g69
(g70
g71
NtRp2919
(dp2920
g74
(dp2921
g82
I3
ssg83
g2915
sg76
(lp2922
S'2'
asbasbasbag69
(g85
g71
NtRp2923
(dp2924
g74
(dp2925
sg83
g2883
sg76
(lp2926
g69
(g90
g71
NtRp2927
(dp2928
g74
(dp2929
sg83
g2923
sg76
(lp2930
g69
(g70
g71
NtRp2931
(dp2932
g74
(dp2933
g82
I3
ssg83
g2927
sg76
(lp2934
S'datetime.datetime(2012, 12, 17, 15, 3, 30)'
p2935
asbasbasbag69
(g85
g71
NtRp2936
(dp2937
g74
(dp2938
sg83
g2883
sg76
(lp2939
g69
(g90
g71
NtRp2940
(dp2941
g74
(dp2942
sg83
g2936
sg76
(lp2943
g69
(g70
g71
NtRp2944
(dp2945
g74
(dp2946
g82
I3
ssg83
g2940
sg76
(lp2947
g2274
asbasbasbasbasbasbasbasbasbasbasbag69
(g85
g71
NtRp2948
(dp2949
g74
(dp2950
sg83
g79
sg76
(lp2951
g69
(g90
g71
NtRp2952
(dp2953
g74
(dp2954
g94
g95
ssg83
g2948
sg76
(lp2955
S'is_https'
p2956
asbag69
(g90
g71
NtRp2957
(dp2958
g74
(dp2959
g101
g102
ssg83
g2948
sg76
(lp2960
S':'
asbag69
(g90
g71
NtRp2961
(dp2962
g74
(dp2963
sg83
g2948
sg76
(lp2964
g69
(g70
g71
NtRp2965
(dp2966
g74
(dp2967
g82
I5
ssg83
g2961
sg76
(lp2968
g112
asbasbasbag69
(g85
g71
NtRp2969
(dp2970
g74
(dp2971
sg83
g79
sg76
(lp2972
g69
(g90
g71
NtRp2973
(dp2974
g74
(dp2975
g94
g95
ssg83
g2969
sg76
(lp2976
S'is_local'
p2977
asbag69
(g90
g71
NtRp2978
(dp2979
g74
(dp2980
g101
g102
ssg83
g2969
sg76
(lp2981
S':'
asbag69
(g90
g71
NtRp2982
(dp2983
g74
(dp2984
sg83
g2969
sg76
(lp2985
g69
(g70
g71
NtRp2986
(dp2987
g74
(dp2988
g82
I5
ssg83
g2982
sg76
(lp2989
g2383
asbasbasbag69
(g85
g71
NtRp2990
(dp2991
g74
(dp2992
sg83
g79
sg76
(lp2993
g69
(g90
g71
NtRp2994
(dp2995
g74
(dp2996
g94
g95
ssg83
g2990
sg76
(lp2997
S'is_restful'
p2998
asbag69
(g90
g71
NtRp2999
(dp3000
g74
(dp3001
g101
g102
ssg83
g2990
sg76
(lp3002
S':'
asbag69
(g90
g71
NtRp3003
(dp3004
g74
(dp3005
sg83
g2990
sg76
(lp3006
g69
(g70
g71
NtRp3007
(dp3008
g74
(dp3009
g82
I5
ssg83
g3003
sg76
(lp3010
g112
asbasbasbag69
(g85
g71
NtRp3011
(dp3012
g74
(dp3013
sg83
g79
sg76
(lp3014
g69
(g90
g71
NtRp3015
(dp3016
g74
(dp3017
g94
g95
ssg83
g3011
sg76
(lp3018
S'now'
p3019
asbag69
(g90
g71
NtRp3020
(dp3021
g74
(dp3022
g101
g102
ssg83
g3011
sg76
(lp3023
S':'
asbag69
(g90
g71
NtRp3024
(dp3025
g74
(dp3026
sg83
g3011
sg76
(lp3027
g69
(g70
g71
NtRp3028
(dp3029
g74
(dp3030
g82
I5
ssg83
g3024
sg76
(lp3031
S'datetime.datetime(2013, 4, 22, 12, 26, 37, 772391)'
p3032
asbasbasbag69
(g85
g71
NtRp3033
(dp3034
g74
(dp3035
sg83
g79
sg76
(lp3036
g69
(g90
g71
NtRp3037
(dp3038
g74
(dp3039
g94
g95
ssg83
g3033
sg76
(lp3040
S'post_vars'
p3041
asbag69
(g90
g71
NtRp3042
(dp3043
g74
(dp3044
g101
g102
ssg83
g3033
sg76
(lp3045
S':'
asbag69
(g90
g71
NtRp3046
(dp3047
g74
(dp3048
sg83
g3033
sg76
(lp3049
g69
(g70
g71
NtRp3050
(dp3051
g74
(dp3052
g82
I5
ssg83
g3046
sg76
(lp3053
g69
(g78
g71
NtRp3054
(dp3055
g74
(dp3056
g82
I4
ssg83
Nsg76
(lp3057
sbasbasbasbag69
(g85
g71
NtRp3058
(dp3059
g74
(dp3060
sg83
g79
sg76
(lp3061
g69
(g90
g71
NtRp3062
(dp3063
g74
(dp3064
g94
g95
ssg83
g3058
sg76
(lp3065
S'raw_args'
p3066
asbag69
(g90
g71
NtRp3067
(dp3068
g74
(dp3069
g101
g102
ssg83
g3058
sg76
(lp3070
S':'
asbag69
(g90
g71
NtRp3071
(dp3072
g74
(dp3073
sg83
g3058
sg76
(lp3074
g69
(g70
g71
NtRp3075
(dp3076
g74
(dp3077
g82
I5
ssg83
g3071
sg76
(lp3078
S''
asbasbasbag69
(g85
g71
NtRp3079
(dp3080
g74
(dp3081
sg83
g79
sg76
(lp3082
g69
(g90
g71
NtRp3083
(dp3084
g74
(dp3085
g94
g95
ssg83
g3079
sg76
(lp3086
S'raw_extension'
p3087
asbag69
(g90
g71
NtRp3088
(dp3089
g74
(dp3090
g101
g102
ssg83
g3079
sg76
(lp3091
S':'
asbag69
(g90
g71
NtRp3092
(dp3093
g74
(dp3094
sg83
g3079
sg76
(lp3095
g69
(g70
g71
NtRp3096
(dp3097
g74
(dp3098
g82
I5
ssg83
g3092
sg76
(lp3099
S'None'
p3100
asbasbasbag69
(g85
g71
NtRp3101
(dp3102
g74
(dp3103
sg83
g79
sg76
(lp3104
g69
(g90
g71
NtRp3105
(dp3106
g74
(dp3107
g94
g95
ssg83
g3101
sg76
(lp3108
S'url'
p3109
asbag69
(g90
g71
NtRp3110
(dp3111
g74
(dp3112
g101
g102
ssg83
g3101
sg76
(lp3113
S':'
asbag69
(g90
g71
NtRp3114
(dp3115
g74
(dp3116
sg83
g3101
sg76
(lp3117
g69
(g70
g71
NtRp3118
(dp3119
g74
(dp3120
g82
I5
ssg83
g3114
sg76
(lp3121
g1950
asbasbasbag69
(g85
g71
NtRp3122
(dp3123
g74
(dp3124
sg83
g79
sg76
(lp3125
g69
(g90
g71
NtRp3126
(dp3127
g74
(dp3128
g94
g95
ssg83
g3122
sg76
(lp3129
S'utcnow'
p3130
asbag69
(g90
g71
NtRp3131
(dp3132
g74
(dp3133
g101
g102
ssg83
g3122
sg76
(lp3134
S':'
asbag69
(g90
g71
NtRp3135
(dp3136
g74
(dp3137
sg83
g3122
sg76
(lp3138
g69
(g70
g71
NtRp3139
(dp3140
g74
(dp3141
g82
I5
ssg83
g3135
sg76
(lp3142
S'datetime.datetime(2013, 4, 22, 6, 56, 37, 772429)'
p3143
asbasbasbag69
(g85
g71
NtRp3144
(dp3145
g74
(dp3146
sg83
g79
sg76
(lp3147
g69
(g90
g71
NtRp3148
(dp3149
g74
(dp3150
g94
g95
ssg83
g3144
sg76
(lp3151
S'uuid'
p3152
asbag69
(g90
g71
NtRp3153
(dp3154
g74
(dp3155
g101
g102
ssg83
g3144
sg76
(lp3156
S':'
asbag69
(g90
g71
NtRp3157
(dp3158
g74
(dp3159
sg83
g3144
sg76
(lp3160
g69
(g70
g71
NtRp3161
(dp3162
g74
(dp3163
g82
I5
ssg83
g3157
sg76
(lp3164
S'BuySell/127.0.0.1.2013-04-22.12-26-37.ccfd4e6a-3196-461a-b2fd-0ffea839cbab'
p3165
asbasbasbag69
(g85
g71
NtRp3166
(dp3167
g74
(dp3168
sg83
g79
sg76
(lp3169
g69
(g90
g71
NtRp3170
(dp3171
g74
(dp3172
g94
g95
ssg83
g3166
sg76
(lp3173
S'vars'
p3174
asbag69
(g90
g71
NtRp3175
(dp3176
g74
(dp3177
g101
g102
ssg83
g3166
sg76
(lp3178
S':'
asbag69
(g90
g71
NtRp3179
(dp3180
g74
(dp3181
sg83
g3166
sg76
(lp3182
g69
(g70
g71
NtRp3183
(dp3184
g74
(dp3185
g82
I5
ssg83
g3179
sg76
(lp3186
g69
(g78
g71
NtRp3187
(dp3188
g74
(dp3189
g82
I4
ssg83
Nsg76
(lp3190
sbasbasbasbag69
(g85
g71
NtRp3191
(dp3192
g74
(dp3193
sg83
g79
sg76
(lp3194
g69
(g90
g71
NtRp3195
(dp3196
g74
(dp3197
g94
g95
ssg83
g3191
sg76
(lp3198
S'wsgi'
p3199
asbag69
(g90
g71
NtRp3200
(dp3201
g74
(dp3202
g101
g102
ssg83
g3191
sg76
(lp3203
S':'
asbag69
(g90
g71
NtRp3204
(dp3205
g74
(dp3206
sg83
g3191
sg76
(lp3207
g69
(g70
g71
NtRp3208
(dp3209
g74
(dp3210
g82
I5
ssg83
g3204
sg76
(lp3211
g69
(g78
g71
NtRp3212
(dp3213
g74
(dp3214
g82
I4
ssg83
Nsg76
(lp3215
g69
(g85
g71
NtRp3216
(dp3217
g74
(dp3218
sg83
g3212
sg76
(lp3219
g69
(g90
g71
NtRp3220
(dp3221
g74
(dp3222
g94
g95
ssg83
g3216
sg76
(lp3223
S'environ'
p3224
asbag69
(g90
g71
NtRp3225
(dp3226
g74
(dp3227
g101
g102
ssg83
g3216
sg76
(lp3228
S':'
asbag69
(g90
g71
NtRp3229
(dp3230
g74
(dp3231
sg83
g3216
sg76
(lp3232
g69
(g70
g71
NtRp3233
(dp3234
g74
(dp3235
g82
I4
ssg83
g3229
sg76
(lp3236
g69
(g78
g71
NtRp3237
(dp3238
g74
(dp3239
g82
I3
ssg83
Nsg76
(lp3240
g69
(g85
g71
NtRp3241
(dp3242
g74
(dp3243
sg83
g3237
sg76
(lp3244
g69
(g90
g71
NtRp3245
(dp3246
g74
(dp3247
g94
g95
ssg83
g3241
sg76
(lp3248
S'HTTP_ACCEPT'
p3249
asbag69
(g90
g71
NtRp3250
(dp3251
g74
(dp3252
g101
g102
ssg83
g3241
sg76
(lp3253
S':'
asbag69
(g90
g71
NtRp3254
(dp3255
g74
(dp3256
sg83
g3241
sg76
(lp3257
g69
(g70
g71
NtRp3258
(dp3259
g74
(dp3260
g82
I3
ssg83
g3254
sg76
(lp3261
g1598
asbasbasbag69
(g85
g71
NtRp3262
(dp3263
g74
(dp3264
sg83
g3237
sg76
(lp3265
g69
(g90
g71
NtRp3266
(dp3267
g74
(dp3268
g94
g95
ssg83
g3262
sg76
(lp3269
S'HTTP_ACCEPT_CHARSET'
p3270
asbag69
(g90
g71
NtRp3271
(dp3272
g74
(dp3273
g101
g102
ssg83
g3262
sg76
(lp3274
S':'
asbag69
(g90
g71
NtRp3275
(dp3276
g74
(dp3277
sg83
g3262
sg76
(lp3278
g69
(g70
g71
NtRp3279
(dp3280
g74
(dp3281
g82
I3
ssg83
g3275
sg76
(lp3282
g1620
asbasbasbag69
(g85
g71
NtRp3283
(dp3284
g74
(dp3285
sg83
g3237
sg76
(lp3286
g69
(g90
g71
NtRp3287
(dp3288
g74
(dp3289
g94
g95
ssg83
g3283
sg76
(lp3290
S'HTTP_ACCEPT_ENCODING'
p3291
asbag69
(g90
g71
NtRp3292
(dp3293
g74
(dp3294
g101
g102
ssg83
g3283
sg76
(lp3295
S':'
asbag69
(g90
g71
NtRp3296
(dp3297
g74
(dp3298
sg83
g3283
sg76
(lp3299
g69
(g70
g71
NtRp3300
(dp3301
g74
(dp3302
g82
I3
ssg83
g3296
sg76
(lp3303
g1642
asbasbasbag69
(g85
g71
NtRp3304
(dp3305
g74
(dp3306
sg83
g3237
sg76
(lp3307
g69
(g90
g71
NtRp3308
(dp3309
g74
(dp3310
g94
g95
ssg83
g3304
sg76
(lp3311
S'HTTP_ACCEPT_LANGUAGE'
p3312
asbag69
(g90
g71
NtRp3313
(dp3314
g74
(dp3315
g101
g102
ssg83
g3304
sg76
(lp3316
S':'
asbag69
(g90
g71
NtRp3317
(dp3318
g74
(dp3319
sg83
g3304
sg76
(lp3320
g69
(g70
g71
NtRp3321
(dp3322
g74
(dp3323
g82
I3
ssg83
g3317
sg76
(lp3324
g1664
asbasbasbag69
(g85
g71
NtRp3325
(dp3326
g74
(dp3327
sg83
g3237
sg76
(lp3328
g69
(g90
g71
NtRp3329
(dp3330
g74
(dp3331
g94
g95
ssg83
g3325
sg76
(lp3332
S'HTTP_CACHE_CONTROL'
p3333
asbag69
(g90
g71
NtRp3334
(dp3335
g74
(dp3336
g101
g102
ssg83
g3325
sg76
(lp3337
S':'
asbag69
(g90
g71
NtRp3338
(dp3339
g74
(dp3340
sg83
g3325
sg76
(lp3341
g69
(g70
g71
NtRp3342
(dp3343
g74
(dp3344
g82
I3
ssg83
g3338
sg76
(lp3345
g1686
asbasbasbag69
(g85
g71
NtRp3346
(dp3347
g74
(dp3348
sg83
g3237
sg76
(lp3349
g69
(g90
g71
NtRp3350
(dp3351
g74
(dp3352
g94
g95
ssg83
g3346
sg76
(lp3353
S'HTTP_CONNECTION'
p3354
asbag69
(g90
g71
NtRp3355
(dp3356
g74
(dp3357
g101
g102
ssg83
g3346
sg76
(lp3358
S':'
asbag69
(g90
g71
NtRp3359
(dp3360
g74
(dp3361
sg83
g3346
sg76
(lp3362
g69
(g70
g71
NtRp3363
(dp3364
g74
(dp3365
g82
I3
ssg83
g3359
sg76
(lp3366
g1708
asbasbasbag69
(g85
g71
NtRp3367
(dp3368
g74
(dp3369
sg83
g3237
sg76
(lp3370
g69
(g90
g71
NtRp3371
(dp3372
g74
(dp3373
g94
g95
ssg83
g3367
sg76
(lp3374
S'HTTP_COOKIE'
p3375
asbag69
(g90
g71
NtRp3376
(dp3377
g74
(dp3378
g101
g102
ssg83
g3367
sg76
(lp3379
S':'
asbag69
(g90
g71
NtRp3380
(dp3381
g74
(dp3382
sg83
g3367
sg76
(lp3383
g69
(g70
g71
NtRp3384
(dp3385
g74
(dp3386
g82
I3
ssg83
g3380
sg76
(lp3387
g1730
asbasbasbag69
(g85
g71
NtRp3388
(dp3389
g74
(dp3390
sg83
g3237
sg76
(lp3391
g69
(g90
g71
NtRp3392
(dp3393
g74
(dp3394
g94
g95
ssg83
g3388
sg76
(lp3395
S'HTTP_HOST'
p3396
asbag69
(g90
g71
NtRp3397
(dp3398
g74
(dp3399
g101
g102
ssg83
g3388
sg76
(lp3400
S':'
asbag69
(g90
g71
NtRp3401
(dp3402
g74
(dp3403
sg83
g3388
sg76
(lp3404
g69
(g70
g71
NtRp3405
(dp3406
g74
(dp3407
g82
I3
ssg83
g3401
sg76
(lp3408
g1752
asbasbasbag69
(g85
g71
NtRp3409
(dp3410
g74
(dp3411
sg83
g3237
sg76
(lp3412
g69
(g90
g71
NtRp3413
(dp3414
g74
(dp3415
g94
g95
ssg83
g3409
sg76
(lp3416
S'HTTP_REFERER'
p3417
asbag69
(g90
g71
NtRp3418
(dp3419
g74
(dp3420
g101
g102
ssg83
g3409
sg76
(lp3421
S':'
asbag69
(g90
g71
NtRp3422
(dp3423
g74
(dp3424
sg83
g3409
sg76
(lp3425
g69
(g70
g71
NtRp3426
(dp3427
g74
(dp3428
g82
I3
ssg83
g3422
sg76
(lp3429
g1774
asbasbasbag69
(g85
g71
NtRp3430
(dp3431
g74
(dp3432
sg83
g3237
sg76
(lp3433
g69
(g90
g71
NtRp3434
(dp3435
g74
(dp3436
g94
g95
ssg83
g3430
sg76
(lp3437
S'HTTP_USER_AGENT'
p3438
asbag69
(g90
g71
NtRp3439
(dp3440
g74
(dp3441
g101
g102
ssg83
g3430
sg76
(lp3442
S':'
asbag69
(g90
g71
NtRp3443
(dp3444
g74
(dp3445
sg83
g3430
sg76
(lp3446
g69
(g70
g71
NtRp3447
(dp3448
g74
(dp3449
g82
I3
ssg83
g3443
sg76
(lp3450
g1796
asbasbasbag69
(g85
g71
NtRp3451
(dp3452
g74
(dp3453
sg83
g3237
sg76
(lp3454
g69
(g90
g71
NtRp3455
(dp3456
g74
(dp3457
g94
g95
ssg83
g3451
sg76
(lp3458
S'PATH_INFO'
p3459
asbag69
(g90
g71
NtRp3460
(dp3461
g74
(dp3462
g101
g102
ssg83
g3451
sg76
(lp3463
S':'
asbag69
(g90
g71
NtRp3464
(dp3465
g74
(dp3466
sg83
g3451
sg76
(lp3467
g69
(g70
g71
NtRp3468
(dp3469
g74
(dp3470
g82
I3
ssg83
g3464
sg76
(lp3471
g1950
asbasbasbag69
(g85
g71
NtRp3472
(dp3473
g74
(dp3474
sg83
g3237
sg76
(lp3475
g69
(g90
g71
NtRp3476
(dp3477
g74
(dp3478
g94
g95
ssg83
g3472
sg76
(lp3479
S'QUERY_STRING'
p3480
asbag69
(g90
g71
NtRp3481
(dp3482
g74
(dp3483
g101
g102
ssg83
g3472
sg76
(lp3484
S':'
asbag69
(g90
g71
NtRp3485
(dp3486
g74
(dp3487
sg83
g3472
sg76
(lp3488
g69
(g70
g71
NtRp3489
(dp3490
g74
(dp3491
g82
I3
ssg83
g3485
sg76
(lp3492
S''
asbasbasbag69
(g85
g71
NtRp3493
(dp3494
g74
(dp3495
sg83
g3237
sg76
(lp3496
g69
(g90
g71
NtRp3497
(dp3498
g74
(dp3499
g94
g95
ssg83
g3493
sg76
(lp3500
S'REMOTE_ADDR'
p3501
asbag69
(g90
g71
NtRp3502
(dp3503
g74
(dp3504
g101
g102
ssg83
g3493
sg76
(lp3505
S':'
asbag69
(g90
g71
NtRp3506
(dp3507
g74
(dp3508
sg83
g3493
sg76
(lp3509
g69
(g70
g71
NtRp3510
(dp3511
g74
(dp3512
g82
I3
ssg83
g3506
sg76
(lp3513
g224
asbasbasbag69
(g85
g71
NtRp3514
(dp3515
g74
(dp3516
sg83
g3237
sg76
(lp3517
g69
(g90
g71
NtRp3518
(dp3519
g74
(dp3520
g94
g95
ssg83
g3514
sg76
(lp3521
S'REMOTE_PORT'
p3522
asbag69
(g90
g71
NtRp3523
(dp3524
g74
(dp3525
g101
g102
ssg83
g3514
sg76
(lp3526
S':'
asbag69
(g90
g71
NtRp3527
(dp3528
g74
(dp3529
sg83
g3514
sg76
(lp3530
g69
(g70
g71
NtRp3531
(dp3532
g74
(dp3533
g82
I3
ssg83
g3527
sg76
(lp3534
g2014
asbasbasbag69
(g85
g71
NtRp3535
(dp3536
g74
(dp3537
sg83
g3237
sg76
(lp3538
g69
(g90
g71
NtRp3539
(dp3540
g74
(dp3541
g94
g95
ssg83
g3535
sg76
(lp3542
S'REQUEST_METHOD'
p3543
asbag69
(g90
g71
NtRp3544
(dp3545
g74
(dp3546
g101
g102
ssg83
g3535
sg76
(lp3547
S':'
asbag69
(g90
g71
NtRp3548
(dp3549
g74
(dp3550
sg83
g3535
sg76
(lp3551
g69
(g70
g71
NtRp3552
(dp3553
g74
(dp3554
g82
I3
ssg83
g3548
sg76
(lp3555
g2036
asbasbasbag69
(g85
g71
NtRp3556
(dp3557
g74
(dp3558
sg83
g3237
sg76
(lp3559
g69
(g90
g71
NtRp3560
(dp3561
g74
(dp3562
g94
g95
ssg83
g3556
sg76
(lp3563
S'REQUEST_URI'
p3564
asbag69
(g90
g71
NtRp3565
(dp3566
g74
(dp3567
g101
g102
ssg83
g3556
sg76
(lp3568
S':'
asbag69
(g90
g71
NtRp3569
(dp3570
g74
(dp3571
sg83
g3556
sg76
(lp3572
g69
(g70
g71
NtRp3573
(dp3574
g74
(dp3575
g82
I3
ssg83
g3569
sg76
(lp3576
g1950
asbasbasbag69
(g85
g71
NtRp3577
(dp3578
g74
(dp3579
sg83
g3237
sg76
(lp3580
g69
(g90
g71
NtRp3581
(dp3582
g74
(dp3583
g94
g95
ssg83
g3577
sg76
(lp3584
S'SCRIPT_NAME'
p3585
asbag69
(g90
g71
NtRp3586
(dp3587
g74
(dp3588
g101
g102
ssg83
g3577
sg76
(lp3589
S':'
asbag69
(g90
g71
NtRp3590
(dp3591
g74
(dp3592
sg83
g3577
sg76
(lp3593
g69
(g70
g71
NtRp3594
(dp3595
g74
(dp3596
g82
I3
ssg83
g3590
sg76
(lp3597
S''
asbasbasbag69
(g85
g71
NtRp3598
(dp3599
g74
(dp3600
sg83
g3237
sg76
(lp3601
g69
(g90
g71
NtRp3602
(dp3603
g74
(dp3604
g94
g95
ssg83
g3598
sg76
(lp3605
S'SERVER_NAME'
p3606
asbag69
(g90
g71
NtRp3607
(dp3608
g74
(dp3609
g101
g102
ssg83
g3598
sg76
(lp3610
S':'
asbag69
(g90
g71
NtRp3611
(dp3612
g74
(dp3613
sg83
g3598
sg76
(lp3614
g69
(g70
g71
NtRp3615
(dp3616
g74
(dp3617
g82
I3
ssg83
g3611
sg76
(lp3618
g2100
asbasbasbag69
(g85
g71
NtRp3619
(dp3620
g74
(dp3621
sg83
g3237
sg76
(lp3622
g69
(g90
g71
NtRp3623
(dp3624
g74
(dp3625
g94
g95
ssg83
g3619
sg76
(lp3626
S'SERVER_PORT'
p3627
asbag69
(g90
g71
NtRp3628
(dp3629
g74
(dp3630
g101
g102
ssg83
g3619
sg76
(lp3631
S':'
asbag69
(g90
g71
NtRp3632
(dp3633
g74
(dp3634
sg83
g3619
sg76
(lp3635
g69
(g70
g71
NtRp3636
(dp3637
g74
(dp3638
g82
I3
ssg83
g3632
sg76
(lp3639
g2122
asbasbasbag69
(g85
g71
NtRp3640
(dp3641
g74
(dp3642
sg83
g3237
sg76
(lp3643
g69
(g90
g71
NtRp3644
(dp3645
g74
(dp3646
g94
g95
ssg83
g3640
sg76
(lp3647
S'SERVER_PROTOCOL'
p3648
asbag69
(g90
g71
NtRp3649
(dp3650
g74
(dp3651
g101
g102
ssg83
g3640
sg76
(lp3652
S':'
asbag69
(g90
g71
NtRp3653
(dp3654
g74
(dp3655
sg83
g3640
sg76
(lp3656
g69
(g70
g71
NtRp3657
(dp3658
g74
(dp3659
g82
I3
ssg83
g3653
sg76
(lp3660
g2144
asbasbasbag69
(g85
g71
NtRp3661
(dp3662
g74
(dp3663
sg83
g3237
sg76
(lp3664
g69
(g90
g71
NtRp3665
(dp3666
g74
(dp3667
g94
g95
ssg83
g3661
sg76
(lp3668
S'SERVER_SOFTWARE'
p3669
asbag69
(g90
g71
NtRp3670
(dp3671
g74
(dp3672
g101
g102
ssg83
g3661
sg76
(lp3673
S':'
asbag69
(g90
g71
NtRp3674
(dp3675
g74
(dp3676
sg83
g3661
sg76
(lp3677
g69
(g70
g71
NtRp3678
(dp3679
g74
(dp3680
g82
I3
ssg83
g3674
sg76
(lp3681
g2166
asbasbasbag69
(g85
g71
NtRp3682
(dp3683
g74
(dp3684
sg83
g3237
sg76
(lp3685
g69
(g90
g71
NtRp3686
(dp3687
g74
(dp3688
g94
g95
ssg83
g3682
sg76
(lp3689
S'wsgi.errors'
p3690
asbag69
(g90
g71
NtRp3691
(dp3692
g74
(dp3693
g101
g102
ssg83
g3682
sg76
(lp3694
S':'
asbag69
(g90
g71
NtRp3695
(dp3696
g74
(dp3697
sg83
g3682
sg76
(lp3698
g69
(g70
g71
NtRp3699
(dp3700
g74
(dp3701
g82
I3
ssg83
g3695
sg76
(lp3702
S"<open file '<stderr>', mode 'w' at 0xb789e0d0>"
p3703
asbasbasbag69
(g85
g71
NtRp3704
(dp3705
g74
(dp3706
sg83
g3237
sg76
(lp3707
g69
(g90
g71
NtRp3708
(dp3709
g74
(dp3710
g94
g95
ssg83
g3704
sg76
(lp3711
S'wsgi.file_wrapper'
p3712
asbag69
(g90
g71
NtRp3713
(dp3714
g74
(dp3715
g101
g102
ssg83
g3704
sg76
(lp3716
S':'
asbag69
(g90
g71
NtRp3717
(dp3718
g74
(dp3719
sg83
g3704
sg76
(lp3720
g69
(g70
g71
NtRp3721
(dp3722
g74
(dp3723
g82
I3
ssg83
g3717
sg76
(lp3724
S'<class wsgiref.util.FileWrapper at 0xa4afddc>'
p3725
asbasbasbag69
(g85
g71
NtRp3726
(dp3727
g74
(dp3728
sg83
g3237
sg76
(lp3729
g69
(g90
g71
NtRp3730
(dp3731
g74
(dp3732
g94
g95
ssg83
g3726
sg76
(lp3733
S'wsgi.input'
p3734
asbag69
(g90
g71
NtRp3735
(dp3736
g74
(dp3737
g101
g102
ssg83
g3726
sg76
(lp3738
S':'
asbag69
(g90
g71
NtRp3739
(dp3740
g74
(dp3741
sg83
g3726
sg76
(lp3742
g69
(g70
g71
NtRp3743
(dp3744
g74
(dp3745
g82
I3
ssg83
g3739
sg76
(lp3746
S'<cStringIO.StringO object at 0xb3afe60>'
p3747
asbasbasbag69
(g85
g71
NtRp3748
(dp3749
g74
(dp3750
sg83
g3237
sg76
(lp3751
g69
(g90
g71
NtRp3752
(dp3753
g74
(dp3754
g94
g95
ssg83
g3748
sg76
(lp3755
S'wsgi.multiprocess'
p3756
asbag69
(g90
g71
NtRp3757
(dp3758
g74
(dp3759
g101
g102
ssg83
g3748
sg76
(lp3760
S':'
asbag69
(g90
g71
NtRp3761
(dp3762
g74
(dp3763
sg83
g3748
sg76
(lp3764
g69
(g70
g71
NtRp3765
(dp3766
g74
(dp3767
g82
I3
ssg83
g3761
sg76
(lp3768
g112
asbasbasbag69
(g85
g71
NtRp3769
(dp3770
g74
(dp3771
sg83
g3237
sg76
(lp3772
g69
(g90
g71
NtRp3773
(dp3774
g74
(dp3775
g94
g95
ssg83
g3769
sg76
(lp3776
S'wsgi.multithread'
p3777
asbag69
(g90
g71
NtRp3778
(dp3779
g74
(dp3780
g101
g102
ssg83
g3769
sg76
(lp3781
S':'
asbag69
(g90
g71
NtRp3782
(dp3783
g74
(dp3784
sg83
g3769
sg76
(lp3785
g69
(g70
g71
NtRp3786
(dp3787
g74
(dp3788
g82
I3
ssg83
g3782
sg76
(lp3789
g2383
asbasbasbag69
(g85
g71
NtRp3790
(dp3791
g74
(dp3792
sg83
g3237
sg76
(lp3793
g69
(g90
g71
NtRp3794
(dp3795
g74
(dp3796
g94
g95
ssg83
g3790
sg76
(lp3797
S'wsgi.run_once'
p3798
asbag69
(g90
g71
NtRp3799
(dp3800
g74
(dp3801
g101
g102
ssg83
g3790
sg76
(lp3802
S':'
asbag69
(g90
g71
NtRp3803
(dp3804
g74
(dp3805
sg83
g3790
sg76
(lp3806
g69
(g70
g71
NtRp3807
(dp3808
g74
(dp3809
g82
I3
ssg83
g3803
sg76
(lp3810
g112
asbasbasbag69
(g85
g71
NtRp3811
(dp3812
g74
(dp3813
sg83
g3237
sg76
(lp3814
g69
(g90
g71
NtRp3815
(dp3816
g74
(dp3817
g94
g95
ssg83
g3811
sg76
(lp3818
S'wsgi.url_scheme'
p3819
asbag69
(g90
g71
NtRp3820
(dp3821
g74
(dp3822
g101
g102
ssg83
g3811
sg76
(lp3823
S':'
asbag69
(g90
g71
NtRp3824
(dp3825
g74
(dp3826
sg83
g3811
sg76
(lp3827
g69
(g70
g71
NtRp3828
(dp3829
g74
(dp3830
g82
I3
ssg83
g3824
sg76
(lp3831
g2426
asbasbasbag69
(g85
g71
NtRp3832
(dp3833
g74
(dp3834
sg83
g3237
sg76
(lp3835
g69
(g90
g71
NtRp3836
(dp3837
g74
(dp3838
g94
g95
ssg83
g3832
sg76
(lp3839
S'wsgi.version'
p3840
asbag69
(g90
g71
NtRp3841
(dp3842
g74
(dp3843
g101
g102
ssg83
g3832
sg76
(lp3844
S':'
asbag69
(g90
g71
NtRp3845
(dp3846
g74
(dp3847
sg83
g3832
sg76
(lp3848
g69
(g70
g71
NtRp3849
(dp3850
g74
(dp3851
g82
I3
ssg83
g3845
sg76
(lp3852
S'1'
asbasbasbasbasbasbasbasbasbasbasbasbasbsS'frames'
p3853
(lp3854
(dp3855
S'file'
p3856
S'/home/pratyush/web2py/gluon/restricted.py'
p3857
sS'dump'
p3858
(dp3859
S'code'
p3860
S"'# -*- coding: utf-8 -*-\\n# this file is released ...   return\\nresponse._vars=response._caller(index)\\n'"
p3861
sS'layer'
p3862
S"'/home/pratyush/web2py/applications/BuySell/controllers/default.py'"
p3863
sS'global compile2'
p3864
S'<function compile2>'
p3865
sS'ccode'
p3866
S'undefined'
p3867
ssS'lnum'
p3868
I211
sS'lines'
p3869
(dp3870
I206
S"    environment['__name__'] = '__restricted__'"
p3871
sI207
S'    try:'
p3872
sI208
S'        if isinstance(code, types.CodeType):'
p3873
sI209
S'            ccode = code'
p3874
sI210
S'        else:'
p3875
sI211
S'            ccode = compile2(code, layer)'
p3876
sI212
S'        exec ccode in environment'
p3877
sI213
S'    except HTTP:'
p3878
sI214
S'        raise'
p3879
sI215
S'    except RestrictedError:'
p3880
ssS'call'
p3881
S"(code='# -*- coding: utf-8 -*-\\n# this file is released ...   return\\nresponse._vars=response._caller(index)\\n', environment={'A': <class 'gluon.html.A'>, 'Auth': <class 'gluon.tools.Auth'>, 'B': <class 'gluon.html.B'>, 'BEAUTIFY': <class 'gluon.html.BEAUTIFY'>, 'BODY': <class 'gluon.html.BODY'>, 'BR': <class 'gluon.html.BR'>, 'BUTTON': <class 'gluon.html.BUTTON'>, 'CAT': <class 'gluon.html.CAT'>, 'CENTER': <class 'gluon.html.CENTER'>, 'CLEANUP': <class 'gluon.validators.CLEANUP'>, ...}, layer='/home/pratyush/web2py/applications/BuySell/controllers/default.py')"
p3882
sS'func'
p3883
S'restricted'
p3884
sa(dp3885
g3856
S'/home/pratyush/web2py/gluon/restricted.py'
p3886
sg3858
(dp3887
S'builtincompile'
p3888
S'<built-in function compile>'
p3889
sS'code'
p3890
S"'# -*- coding: utf-8 -*-\\n# this file is released ...   return\\nresponse._vars=response._caller(index)\\n'"
p3891
sS'code.rstrip'
p3892
S'<built-in method rstrip of str object>'
p3893
sS').replace'
p3894
g3867
sS'layer'
p3895
S"'/home/pratyush/web2py/applications/BuySell/controllers/default.py'"
p3896
ssg3868
I194
sg3869
(dp3897
I192
S"    The +'\\n' is necessary else compile fails when code ends in a comment."
p3898
sI193
S'    """'
p3899
sI194
S"    return compile(code.rstrip().replace('\\r\\n', '\\n') + '\\n', layer, 'exec')"
p3900
sI195
S''
sI196
S''
sI197
S"def restricted(code, environment=None, layer='Unknown'):"
p3901
sI198
S'    """'
p3902
sI189
S''
sI190
S'def compile2(code, layer):'
p3903
sI191
S'    """'
p3904
ssg3881
S"(code='# -*- coding: utf-8 -*-\\n# this file is released ...   return\\nresponse._vars=response._caller(index)\\n', layer='/home/pratyush/web2py/applications/BuySell/controllers/default.py')"
p3905
sg3883
S'compile2'
p3906
sasS'pyver'
p3907
S'Python 2.7.2+: /usr/bin/python2.7'
p3908
sS'session'
p3909
g69
(g70
g71
NtRp3910
(dp3911
g74
(dp3912
sg76
(lp3913
g69
(g78
g71
NtRp3914
(dp3915
g74
(dp3916
g82
I5
ssg83
Nsg76
(lp3917
g69
(g85
g71
NtRp3918
(dp3919
g74
(dp3920
sg83
g3914
sg76
(lp3921
g69
(g90
g71
NtRp3922
(dp3923
g74
(dp3924
g94
g95
ssg83
g3918
sg76
(lp3925
S'auth'
p3926
asbag69
(g90
g71
NtRp3927
(dp3928
g74
(dp3929
g101
g102
ssg83
g3918
sg76
(lp3930
S':'
asbag69
(g90
g71
NtRp3931
(dp3932
g74
(dp3933
sg83
g3918
sg76
(lp3934
g69
(g70
g71
NtRp3935
(dp3936
g74
(dp3937
g82
I5
ssg83
g3931
sg76
(lp3938
g69
(g78
g71
NtRp3939
(dp3940
g74
(dp3941
g82
I4
ssg83
Nsg76
(lp3942
g69
(g85
g71
NtRp3943
(dp3944
g74
(dp3945
sg83
g3939
sg76
(lp3946
g69
(g90
g71
NtRp3947
(dp3948
g74
(dp3949
g94
g95
ssg83
g3943
sg76
(lp3950
S'expiration'
p3951
asbag69
(g90
g71
NtRp3952
(dp3953
g74
(dp3954
g101
g102
ssg83
g3943
sg76
(lp3955
S':'
asbag69
(g90
g71
NtRp3956
(dp3957
g74
(dp3958
sg83
g3943
sg76
(lp3959
g69
(g70
g71
NtRp3960
(dp3961
g74
(dp3962
g82
I4
ssg83
g3956
sg76
(lp3963
S'3600'
p3964
asbasbasbag69
(g85
g71
NtRp3965
(dp3966
g74
(dp3967
sg83
g3939
sg76
(lp3968
g69
(g90
g71
NtRp3969
(dp3970
g74
(dp3971
g94
g95
ssg83
g3965
sg76
(lp3972
S'hmac_key'
p3973
asbag69
(g90
g71
NtRp3974
(dp3975
g74
(dp3976
g101
g102
ssg83
g3965
sg76
(lp3977
S':'
asbag69
(g90
g71
NtRp3978
(dp3979
g74
(dp3980
sg83
g3965
sg76
(lp3981
g69
(g70
g71
NtRp3982
(dp3983
g74
(dp3984
g82
I4
ssg83
g3978
sg76
(lp3985
S'f955c0b8-d8e2-4e65-9122-4b7628c115d5'
p3986
asbasbasbag69
(g85
g71
NtRp3987
(dp3988
g74
(dp3989
sg83
g3939
sg76
(lp3990
g69
(g90
g71
NtRp3991
(dp3992
g74
(dp3993
g94
g95
ssg83
g3987
sg76
(lp3994
S'last_visit'
p3995
asbag69
(g90
g71
NtRp3996
(dp3997
g74
(dp3998
g101
g102
ssg83
g3987
sg76
(lp3999
S':'
asbag69
(g90
g71
NtRp4000
(dp4001
g74
(dp4002
sg83
g3987
sg76
(lp4003
g69
(g70
g71
NtRp4004
(dp4005
g74
(dp4006
g82
I4
ssg83
g4000
sg76
(lp4007
S'datetime.datetime(2013, 4, 22, 12, 21, 55, 878791)'
p4008
asbasbasbag69
(g85
g71
NtRp4009
(dp4010
g74
(dp4011
sg83
g3939
sg76
(lp4012
g69
(g90
g71
NtRp4013
(dp4014
g74
(dp4015
g94
g95
ssg83
g4009
sg76
(lp4016
S'remember'
p4017
asbag69
(g90
g71
NtRp4018
(dp4019
g74
(dp4020
g101
g102
ssg83
g4009
sg76
(lp4021
S':'
asbag69
(g90
g71
NtRp4022
(dp4023
g74
(dp4024
sg83
g4009
sg76
(lp4025
g69
(g70
g71
NtRp4026
(dp4027
g74
(dp4028
g82
I4
ssg83
g4022
sg76
(lp4029
g112
asbasbasbag69
(g85
g71
NtRp4030
(dp4031
g74
(dp4032
sg83
g3939
sg76
(lp4033
g69
(g90
g71
NtRp4034
(dp4035
g74
(dp4036
g94
g95
ssg83
g4030
sg76
(lp4037
S'user'
p4038
asbag69
(g90
g71
NtRp4039
(dp4040
g74
(dp4041
g101
g102
ssg83
g4030
sg76
(lp4042
S':'
asbag69
(g90
g71
NtRp4043
(dp4044
g74
(dp4045
sg83
g4030
sg76
(lp4046
g69
(g70
g71
NtRp4047
(dp4048
g74
(dp4049
g82
I4
ssg83
g4043
sg76
(lp4050
g69
(g78
g71
NtRp4051
(dp4052
g74
(dp4053
g82
I3
ssg83
Nsg76
(lp4054
g69
(g85
g71
NtRp4055
(dp4056
g74
(dp4057
sg83
g4051
sg76
(lp4058
g69
(g90
g71
NtRp4059
(dp4060
g74
(dp4061
g94
g95
ssg83
g4055
sg76
(lp4062
S'email'
p4063
asbag69
(g90
g71
NtRp4064
(dp4065
g74
(dp4066
g101
g102
ssg83
g4055
sg76
(lp4067
S':'
asbag69
(g90
g71
NtRp4068
(dp4069
g74
(dp4070
sg83
g4055
sg76
(lp4071
g69
(g70
g71
NtRp4072
(dp4073
g74
(dp4074
g82
I3
ssg83
g4068
sg76
(lp4075
S'pratyush.nigam@gmail.com'
p4076
asbasbasbag69
(g85
g71
NtRp4077
(dp4078
g74
(dp4079
sg83
g4051
sg76
(lp4080
g69
(g90
g71
NtRp4081
(dp4082
g74
(dp4083
g94
g95
ssg83
g4077
sg76
(lp4084
S'first_name'
p4085
asbag69
(g90
g71
NtRp4086
(dp4087
g74
(dp4088
g101
g102
ssg83
g4077
sg76
(lp4089
S':'
asbag69
(g90
g71
NtRp4090
(dp4091
g74
(dp4092
sg83
g4077
sg76
(lp4093
g69
(g70
g71
NtRp4094
(dp4095
g74
(dp4096
g82
I3
ssg83
g4090
sg76
(lp4097
S'Pratyush'
p4098
asbasbasbag69
(g85
g71
NtRp4099
(dp4100
g74
(dp4101
sg83
g4051
sg76
(lp4102
g69
(g90
g71
NtRp4103
(dp4104
g74
(dp4105
g94
g95
ssg83
g4099
sg76
(lp4106
S'id'
p4107
asbag69
(g90
g71
NtRp4108
(dp4109
g74
(dp4110
g101
g102
ssg83
g4099
sg76
(lp4111
S':'
asbag69
(g90
g71
NtRp4112
(dp4113
g74
(dp4114
sg83
g4099
sg76
(lp4115
g69
(g70
g71
NtRp4116
(dp4117
g74
(dp4118
g82
I3
ssg83
g4112
sg76
(lp4119
S'1'
asbasbasbag69
(g85
g71
NtRp4120
(dp4121
g74
(dp4122
sg83
g4051
sg76
(lp4123
g69
(g90
g71
NtRp4124
(dp4125
g74
(dp4126
g94
g95
ssg83
g4120
sg76
(lp4127
S'last_name'
p4128
asbag69
(g90
g71
NtRp4129
(dp4130
g74
(dp4131
g101
g102
ssg83
g4120
sg76
(lp4132
S':'
asbag69
(g90
g71
NtRp4133
(dp4134
g74
(dp4135
sg83
g4120
sg76
(lp4136
g69
(g70
g71
NtRp4137
(dp4138
g74
(dp4139
g82
I3
ssg83
g4133
sg76
(lp4140
S'Nigam'
p4141
asbasbasbag69
(g85
g71
NtRp4142
(dp4143
g74
(dp4144
sg83
g4051
sg76
(lp4145
g69
(g90
g71
NtRp4146
(dp4147
g74
(dp4148
g94
g95
ssg83
g4142
sg76
(lp4149
S'registration_id'
p4150
asbag69
(g90
g71
NtRp4151
(dp4152
g74
(dp4153
g101
g102
ssg83
g4142
sg76
(lp4154
S':'
asbag69
(g90
g71
NtRp4155
(dp4156
g74
(dp4157
sg83
g4142
sg76
(lp4158
g69
(g70
g71
NtRp4159
(dp4160
g74
(dp4161
g82
I3
ssg83
g4155
sg76
(lp4162
S''
asbasbasbag69
(g85
g71
NtRp4163
(dp4164
g74
(dp4165
sg83
g4051
sg76
(lp4166
g69
(g90
g71
NtRp4167
(dp4168
g74
(dp4169
g94
g95
ssg83
g4163
sg76
(lp4170
S'registration_key'
p4171
asbag69
(g90
g71
NtRp4172
(dp4173
g74
(dp4174
g101
g102
ssg83
g4163
sg76
(lp4175
S':'
asbag69
(g90
g71
NtRp4176
(dp4177
g74
(dp4178
sg83
g4163
sg76
(lp4179
g69
(g70
g71
NtRp4180
(dp4181
g74
(dp4182
g82
I3
ssg83
g4176
sg76
(lp4183
S''
asbasbasbag69
(g85
g71
NtRp4184
(dp4185
g74
(dp4186
sg83
g4051
sg76
(lp4187
g69
(g90
g71
NtRp4188
(dp4189
g74
(dp4190
g94
g95
ssg83
g4184
sg76
(lp4191
S'reset_password_key'
p4192
asbag69
(g90
g71
NtRp4193
(dp4194
g74
(dp4195
g101
g102
ssg83
g4184
sg76
(lp4196
S':'
asbag69
(g90
g71
NtRp4197
(dp4198
g74
(dp4199
sg83
g4184
sg76
(lp4200
g69
(g70
g71
NtRp4201
(dp4202
g74
(dp4203
g82
I3
ssg83
g4197
sg76
(lp4204
S''
asbasbasbasbasbasbasbag69
(g85
g71
NtRp4205
(dp4206
g74
(dp4207
sg83
g3939
sg76
(lp4208
g69
(g90
g71
NtRp4209
(dp4210
g74
(dp4211
g94
g95
ssg83
g4205
sg76
(lp4212
S'user_groups'
p4213
asbag69
(g90
g71
NtRp4214
(dp4215
g74
(dp4216
g101
g102
ssg83
g4205
sg76
(lp4217
S':'
asbag69
(g90
g71
NtRp4218
(dp4219
g74
(dp4220
sg83
g4205
sg76
(lp4221
g69
(g70
g71
NtRp4222
(dp4223
g74
(dp4224
g82
I4
ssg83
g4218
sg76
(lp4225
g69
(g78
g71
NtRp4226
(dp4227
g74
(dp4228
g82
I3
ssg83
Nsg76
(lp4229
g69
(g85
g71
NtRp4230
(dp4231
g74
(dp4232
sg83
g4226
sg76
(lp4233
g69
(g90
g71
NtRp4234
(dp4235
g74
(dp4236
g94
g95
ssg83
g4230
sg76
(lp4237
S'1'
asbag69
(g90
g71
NtRp4238
(dp4239
g74
(dp4240
g101
g102
ssg83
g4230
sg76
(lp4241
S':'
asbag69
(g90
g71
NtRp4242
(dp4243
g74
(dp4244
sg83
g4230
sg76
(lp4245
g69
(g70
g71
NtRp4246
(dp4247
g74
(dp4248
g82
I3
ssg83
g4242
sg76
(lp4249
S'user_1'
p4250
asbasbasbasbasbasbasbasbasbasbasbag69
(g85
g71
NtRp4251
(dp4252
g74
(dp4253
sg83
g3914
sg76
(lp4254
g69
(g90
g71
NtRp4255
(dp4256
g74
(dp4257
g94
g95
ssg83
g4251
sg76
(lp4258
S'flash'
p4259
asbag69
(g90
g71
NtRp4260
(dp4261
g74
(dp4262
g101
g102
ssg83
g4251
sg76
(lp4263
S':'
asbag69
(g90
g71
NtRp4264
(dp4265
g74
(dp4266
sg83
g4251
sg76
(lp4267
g69
(g70
g71
NtRp4268
(dp4269
g74
(dp4270
g82
I5
ssg83
g4264
sg76
(lp4271
S'None'
p4272
asbasbasbasbasbsS'etype'
p4273
S"<type 'exceptions.SyntaxError'>"
p4274
sS'date'
p4275
S'Mon Apr 22 12:26:37 2013'
p4276
sS'response'
p4277
g69
(g70
g71
NtRp4278
(dp4279
g74
(dp4280
sg76
(lp4281
g69
(g78
g71
NtRp4282
(dp4283
g74
(dp4284
g82
I5
ssg83
Nsg76
(lp4285
g69
(g85
g71
NtRp4286
(dp4287
g74
(dp4288
sg83
g4282
sg76
(lp4289
g69
(g90
g71
NtRp4290
(dp4291
g74
(dp4292
g94
g95
ssg83
g4286
sg76
(lp4293
g167
asbag69
(g90
g71
NtRp4294
(dp4295
g74
(dp4296
g101
g102
ssg83
g4286
sg76
(lp4297
S':'
asbag69
(g90
g71
NtRp4298
(dp4299
g74
(dp4300
sg83
g4286
sg76
(lp4301
g69
(g70
g71
NtRp4302
(dp4303
g74
(dp4304
g82
I5
ssg83
g4298
sg76
(lp4305
S'<cStringIO.StringO object at 0xa8b7160>'
p4306
asbasbasbag69
(g85
g71
NtRp4307
(dp4308
g74
(dp4309
sg83
g4282
sg76
(lp4310
g69
(g90
g71
NtRp4311
(dp4312
g74
(dp4313
g94
g95
ssg83
g4307
sg76
(lp4314
g255
asbag69
(g90
g71
NtRp4315
(dp4316
g74
(dp4317
g101
g102
ssg83
g4307
sg76
(lp4318
S':'
asbag69
(g90
g71
NtRp4319
(dp4320
g74
(dp4321
sg83
g4307
sg76
(lp4322
g69
(g70
g71
NtRp4323
(dp4324
g74
(dp4325
g82
I5
ssg83
g4319
sg76
(lp4326
g69
(g78
g71
NtRp4327
(dp4328
g74
(dp4329
g82
I4
ssg83
Nsg76
(lp4330
g69
(g85
g71
NtRp4331
(dp4332
g74
(dp4333
sg83
g4327
sg76
(lp4334
g69
(g90
g71
NtRp4335
(dp4336
g74
(dp4337
g94
g95
ssg83
g4331
sg76
(lp4338
S'session_id_buysell'
p4339
asbag69
(g90
g71
NtRp4340
(dp4341
g74
(dp4342
g101
g102
ssg83
g4331
sg76
(lp4343
S':'
asbag69
(g90
g71
NtRp4344
(dp4345
g74
(dp4346
sg83
g4331
sg76
(lp4347
g69
(g70
g71
NtRp4348
(dp4349
g74
(dp4350
g82
I4
ssg83
g4344
sg76
(lp4351
g673
ag69
(g78
g71
NtRp4352
(dp4353
g74
(dp4354
g82
I3
ssg83
Nsg76
(lp4355
g69
(g85
g71
NtRp4356
(dp4357
g74
(dp4358
sg83
g4352
sg76
(lp4359
g69
(g90
g71
NtRp4360
(dp4361
g74
(dp4362
g94
g95
ssg83
g4356
sg76
(lp4363
g306
asbag69
(g90
g71
NtRp4364
(dp4365
g74
(dp4366
g101
g102
ssg83
g4356
sg76
(lp4367
S':'
asbag69
(g90
g71
NtRp4368
(dp4369
g74
(dp4370
sg83
g4356
sg76
(lp4371
g69
(g70
g71
NtRp4372
(dp4373
g74
(dp4374
g82
I3
ssg83
g4368
sg76
(lp4375
S''
asbasbasbag69
(g85
g71
NtRp4376
(dp4377
g74
(dp4378
sg83
g4352
sg76
(lp4379
g69
(g90
g71
NtRp4380
(dp4381
g74
(dp4382
g94
g95
ssg83
g4376
sg76
(lp4383
g327
asbag69
(g90
g71
NtRp4384
(dp4385
g74
(dp4386
g101
g102
ssg83
g4376
sg76
(lp4387
S':'
asbag69
(g90
g71
NtRp4388
(dp4389
g74
(dp4390
sg83
g4376
sg76
(lp4391
g69
(g70
g71
NtRp4392
(dp4393
g74
(dp4394
g82
I3
ssg83
g4388
sg76
(lp4395
S''
asbasbasbag69
(g85
g71
NtRp4396
(dp4397
g74
(dp4398
sg83
g4352
sg76
(lp4399
g69
(g90
g71
NtRp4400
(dp4401
g74
(dp4402
g94
g95
ssg83
g4396
sg76
(lp4403
g348
asbag69
(g90
g71
NtRp4404
(dp4405
g74
(dp4406
g101
g102
ssg83
g4396
sg76
(lp4407
S':'
asbag69
(g90
g71
NtRp4408
(dp4409
g74
(dp4410
sg83
g4396
sg76
(lp4411
g69
(g70
g71
NtRp4412
(dp4413
g74
(dp4414
g82
I3
ssg83
g4408
sg76
(lp4415
S''
asbasbasbag69
(g85
g71
NtRp4416
(dp4417
g74
(dp4418
sg83
g4352
sg76
(lp4419
g69
(g90
g71
NtRp4420
(dp4421
g74
(dp4422
g94
g95
ssg83
g4416
sg76
(lp4423
g369
asbag69
(g90
g71
NtRp4424
(dp4425
g74
(dp4426
g101
g102
ssg83
g4416
sg76
(lp4427
S':'
asbag69
(g90
g71
NtRp4428
(dp4429
g74
(dp4430
sg83
g4416
sg76
(lp4431
g69
(g70
g71
NtRp4432
(dp4433
g74
(dp4434
g82
I3
ssg83
g4428
sg76
(lp4435
S''
asbasbasbag69
(g85
g71
NtRp4436
(dp4437
g74
(dp4438
sg83
g4352
sg76
(lp4439
g69
(g90
g71
NtRp4440
(dp4441
g74
(dp4442
g94
g95
ssg83
g4436
sg76
(lp4443
g390
asbag69
(g90
g71
NtRp4444
(dp4445
g74
(dp4446
g101
g102
ssg83
g4436
sg76
(lp4447
S':'
asbag69
(g90
g71
NtRp4448
(dp4449
g74
(dp4450
sg83
g4436
sg76
(lp4451
g69
(g70
g71
NtRp4452
(dp4453
g74
(dp4454
g82
I3
ssg83
g4448
sg76
(lp4455
S''
asbasbasbag69
(g85
g71
NtRp4456
(dp4457
g74
(dp4458
sg83
g4352
sg76
(lp4459
g69
(g90
g71
NtRp4460
(dp4461
g74
(dp4462
g94
g95
ssg83
g4456
sg76
(lp4463
g411
asbag69
(g90
g71
NtRp4464
(dp4465
g74
(dp4466
g101
g102
ssg83
g4456
sg76
(lp4467
S':'
asbag69
(g90
g71
NtRp4468
(dp4469
g74
(dp4470
sg83
g4456
sg76
(lp4471
g69
(g70
g71
NtRp4472
(dp4473
g74
(dp4474
g82
I3
ssg83
g4468
sg76
(lp4475
S'/'
asbasbasbag69
(g85
g71
NtRp4476
(dp4477
g74
(dp4478
sg83
g4352
sg76
(lp4479
g69
(g90
g71
NtRp4480
(dp4481
g74
(dp4482
g94
g95
ssg83
g4476
sg76
(lp4483
g432
asbag69
(g90
g71
NtRp4484
(dp4485
g74
(dp4486
g101
g102
ssg83
g4476
sg76
(lp4487
S':'
asbag69
(g90
g71
NtRp4488
(dp4489
g74
(dp4490
sg83
g4476
sg76
(lp4491
g69
(g70
g71
NtRp4492
(dp4493
g74
(dp4494
g82
I3
ssg83
g4488
sg76
(lp4495
S''
asbasbasbag69
(g85
g71
NtRp4496
(dp4497
g74
(dp4498
sg83
g4352
sg76
(lp4499
g69
(g90
g71
NtRp4500
(dp4501
g74
(dp4502
g94
g95
ssg83
g4496
sg76
(lp4503
g453
asbag69
(g90
g71
NtRp4504
(dp4505
g74
(dp4506
g101
g102
ssg83
g4496
sg76
(lp4507
S':'
asbag69
(g90
g71
NtRp4508
(dp4509
g74
(dp4510
sg83
g4496
sg76
(lp4511
g69
(g70
g71
NtRp4512
(dp4513
g74
(dp4514
g82
I3
ssg83
g4508
sg76
(lp4515
S''
asbasbasbasbasbasbasbasbasbasbasbag69
(g85
g71
NtRp4516
(dp4517
g74
(dp4518
sg83
g4282
sg76
(lp4519
g69
(g90
g71
NtRp4520
(dp4521
g74
(dp4522
g94
g95
ssg83
g4516
sg76
(lp4523
S'delimiters'
p4524
asbag69
(g90
g71
NtRp4525
(dp4526
g74
(dp4527
g101
g102
ssg83
g4516
sg76
(lp4528
S':'
asbag69
(g90
g71
NtRp4529
(dp4530
g74
(dp4531
sg83
g4516
sg76
(lp4532
g69
(g70
g71
NtRp4533
(dp4534
g74
(dp4535
g82
I5
ssg83
g4529
sg76
(lp4536
g69
(g78
g71
NtRp4537
(dp4538
g74
(dp4539
g82
I4
ssg83
Nsg76
(lp4540
g69
(g85
g71
NtRp4541
(dp4542
g74
(dp4543
sg83
g4537
sg76
(lp4544
g69
(g90
g71
NtRp4545
(dp4546
g74
(dp4547
sg83
g4541
sg76
(lp4548
g69
(g70
g71
NtRp4549
(dp4550
g74
(dp4551
g82
I4
ssg83
g4545
sg76
(lp4552
S'{{'
p4553
asbasbasbag69
(g85
g71
NtRp4554
(dp4555
g74
(dp4556
sg83
g4537
sg76
(lp4557
g69
(g90
g71
NtRp4558
(dp4559
g74
(dp4560
sg83
g4554
sg76
(lp4561
g69
(g70
g71
NtRp4562
(dp4563
g74
(dp4564
g82
I4
ssg83
g4558
sg76
(lp4565
S'}}'
p4566
asbasbasbasbasbasbasbag69
(g85
g71
NtRp4567
(dp4568
g74
(dp4569
sg83
g4282
sg76
(lp4570
g69
(g90
g71
NtRp4571
(dp4572
g74
(dp4573
g94
g95
ssg83
g4567
sg76
(lp4574
S'files'
p4575
asbag69
(g90
g71
NtRp4576
(dp4577
g74
(dp4578
g101
g102
ssg83
g4567
sg76
(lp4579
S':'
asbag69
(g90
g71
NtRp4580
(dp4581
g74
(dp4582
sg83
g4567
sg76
(lp4583
g69
(g70
g71
NtRp4584
(dp4585
g74
(dp4586
g82
I5
ssg83
g4580
sg76
(lp4587
g69
(g78
g71
NtRp4588
(dp4589
g74
(dp4590
g82
I4
ssg83
Nsg76
(lp4591
sbasbasbasbag69
(g85
g71
NtRp4592
(dp4593
g74
(dp4594
sg83
g4282
sg76
(lp4595
g69
(g90
g71
NtRp4596
(dp4597
g74
(dp4598
g94
g95
ssg83
g4592
sg76
(lp4599
S'flash'
p4600
asbag69
(g90
g71
NtRp4601
(dp4602
g74
(dp4603
g101
g102
ssg83
g4592
sg76
(lp4604
S':'
asbag69
(g90
g71
NtRp4605
(dp4606
g74
(dp4607
sg83
g4592
sg76
(lp4608
g69
(g70
g71
NtRp4609
(dp4610
g74
(dp4611
g82
I5
ssg83
g4605
sg76
(lp4612
S''
asbasbasbag69
(g85
g71
NtRp4613
(dp4614
g74
(dp4615
sg83
g4282
sg76
(lp4616
g69
(g90
g71
NtRp4617
(dp4618
g74
(dp4619
g94
g95
ssg83
g4613
sg76
(lp4620
S'generic_patterns'
p4621
asbag69
(g90
g71
NtRp4622
(dp4623
g74
(dp4624
g101
g102
ssg83
g4613
sg76
(lp4625
S':'
asbag69
(g90
g71
NtRp4626
(dp4627
g74
(dp4628
sg83
g4613
sg76
(lp4629
g69
(g70
g71
NtRp4630
(dp4631
g74
(dp4632
g82
I5
ssg83
g4626
sg76
(lp4633
g69
(g78
g71
NtRp4634
(dp4635
g74
(dp4636
g82
I4
ssg83
Nsg76
(lp4637
g69
(g85
g71
NtRp4638
(dp4639
g74
(dp4640
sg83
g4634
sg76
(lp4641
g69
(g90
g71
NtRp4642
(dp4643
g74
(dp4644
sg83
g4638
sg76
(lp4645
g69
(g70
g71
NtRp4646
(dp4647
g74
(dp4648
g82
I4
ssg83
g4642
sg76
(lp4649
S'*'
asbasbasbasbasbasbasbag69
(g85
g71
NtRp4650
(dp4651
g74
(dp4652
sg83
g4282
sg76
(lp4653
g69
(g90
g71
NtRp4654
(dp4655
g74
(dp4656
g94
g95
ssg83
g4650
sg76
(lp4657
S'google_analytics_id'
p4658
asbag69
(g90
g71
NtRp4659
(dp4660
g74
(dp4661
g101
g102
ssg83
g4650
sg76
(lp4662
S':'
asbag69
(g90
g71
NtRp4663
(dp4664
g74
(dp4665
sg83
g4650
sg76
(lp4666
g69
(g70
g71
NtRp4667
(dp4668
g74
(dp4669
g82
I5
ssg83
g4663
sg76
(lp4670
S'None'
p4671
asbasbasbag69
(g85
g71
NtRp4672
(dp4673
g74
(dp4674
sg83
g4282
sg76
(lp4675
g69
(g90
g71
NtRp4676
(dp4677
g74
(dp4678
g94
g95
ssg83
g4672
sg76
(lp4679
S'headers'
p4680
asbag69
(g90
g71
NtRp4681
(dp4682
g74
(dp4683
g101
g102
ssg83
g4672
sg76
(lp4684
S':'
asbag69
(g90
g71
NtRp4685
(dp4686
g74
(dp4687
sg83
g4672
sg76
(lp4688
g69
(g70
g71
NtRp4689
(dp4690
g74
(dp4691
g82
I5
ssg83
g4685
sg76
(lp4692
g69
(g78
g71
NtRp4693
(dp4694
g74
(dp4695
g82
I4
ssg83
Nsg76
(lp4696
g69
(g85
g71
NtRp4697
(dp4698
g74
(dp4699
sg83
g4693
sg76
(lp4700
g69
(g90
g71
NtRp4701
(dp4702
g74
(dp4703
g94
g95
ssg83
g4697
sg76
(lp4704
S'X-Powered-By'
p4705
asbag69
(g90
g71
NtRp4706
(dp4707
g74
(dp4708
g101
g102
ssg83
g4697
sg76
(lp4709
S':'
asbag69
(g90
g71
NtRp4710
(dp4711
g74
(dp4712
sg83
g4697
sg76
(lp4713
g69
(g70
g71
NtRp4714
(dp4715
g74
(dp4716
g82
I4
ssg83
g4710
sg76
(lp4717
S'web2py'
p4718
asbasbasbasbasbasbasbag69
(g85
g71
NtRp4719
(dp4720
g74
(dp4721
sg83
g4282
sg76
(lp4722
g69
(g90
g71
NtRp4723
(dp4724
g74
(dp4725
g94
g95
ssg83
g4719
sg76
(lp4726
S'logo'
p4727
asbag69
(g90
g71
NtRp4728
(dp4729
g74
(dp4730
g101
g102
ssg83
g4719
sg76
(lp4731
S':'
asbag69
(g90
g71
NtRp4732
(dp4733
g74
(dp4734
sg83
g4719
sg76
(lp4735
g69
(g70
g71
NtRp4736
(dp4737
g74
(dp4738
g82
I5
ssg83
g4732
sg76
(lp4739
g69
(cgluon.html
A
p4740
g71
NtRp4741
(dp4742
g74
(dp4743
S'_class'
p4744
S'brand'
p4745
sS'_href'
p4746
S''
ssg83
Nsg76
(lp4747
g69
(cgluon.html
B
p4748
g71
NtRp4749
(dp4750
g74
(dp4751
sg83
g4741
sg76
(lp4752
S'Buy/Sell'
p4753
asbacgluon.html
XML_unpickle
p4754
(S's\r\x00\x00\x00&trade;&nbsp;'
tRp4755
asbasbasbasbag69
(g85
g71
NtRp4756
(dp4757
g74
(dp4758
sg83
g4282
sg76
(lp4759
g69
(g90
g71
NtRp4760
(dp4761
g74
(dp4762
g94
g95
ssg83
g4756
sg76
(lp4763
S'menu'
p4764
asbag69
(g90
g71
NtRp4765
(dp4766
g74
(dp4767
g101
g102
ssg83
g4756
sg76
(lp4768
S':'
asbag69
(g90
g71
NtRp4769
(dp4770
g74
(dp4771
sg83
g4756
sg76
(lp4772
g69
(g70
g71
NtRp4773
(dp4774
g74
(dp4775
g82
I5
ssg83
g4769
sg76
(lp4776
g69
(g78
g71
NtRp4777
(dp4778
g74
(dp4779
g82
I4
ssg83
Nsg76
(lp4780
g69
(g85
g71
NtRp4781
(dp4782
g74
(dp4783
sg83
g4777
sg76
(lp4784
g69
(g90
g71
NtRp4785
(dp4786
g74
(dp4787
sg83
g4781
sg76
(lp4788
g69
(g70
g71
NtRp4789
(dp4790
g74
(dp4791
g82
I4
ssg83
g4785
sg76
(lp4792
g69
(g78
g71
NtRp4793
(dp4794
g74
(dp4795
g82
I3
ssg83
Nsg76
(lp4796
g69
(g85
g71
NtRp4797
(dp4798
g74
(dp4799
sg83
g4793
sg76
(lp4800
g69
(g90
g71
NtRp4801
(dp4802
g74
(dp4803
sg83
g4797
sg76
(lp4804
g69
(g70
g71
NtRp4805
(dp4806
g74
(dp4807
g82
I3
ssg83
g4801
sg76
(lp4808
cgluon.languages
lazyT_unpickle
p4809
(S's\x04\x00\x00\x00Home'
tRp4810
asbasbasbag69
(g85
g71
NtRp4811
(dp4812
g74
(dp4813
sg83
g4793
sg76
(lp4814
g69
(g90
g71
NtRp4815
(dp4816
g74
(dp4817
sg83
g4811
sg76
(lp4818
g69
(g70
g71
NtRp4819
(dp4820
g74
(dp4821
g82
I3
ssg83
g4815
sg76
(lp4822
g112
asbasbasbag69
(g85
g71
NtRp4823
(dp4824
g74
(dp4825
sg83
g4793
sg76
(lp4826
g69
(g90
g71
NtRp4827
(dp4828
g74
(dp4829
sg83
g4823
sg76
(lp4830
g69
(g70
g71
NtRp4831
(dp4832
g74
(dp4833
g82
I3
ssg83
g4827
sg76
(lp4834
S'/BuySell/default/index'
p4835
asbasbasbag69
(g85
g71
NtRp4836
(dp4837
g74
(dp4838
sg83
g4793
sg76
(lp4839
g69
(g90
g71
NtRp4840
(dp4841
g74
(dp4842
sg83
g4836
sg76
(lp4843
g69
(g70
g71
NtRp4844
(dp4845
g74
(dp4846
g82
I3
ssg83
g4840
sg76
(lp4847
g69
(g78
g71
NtRp4848
(dp4849
g74
(dp4850
g82
I2
ssg83
Nsg76
(lp4851
sbasbasbasbasbasbasbasbag69
(g85
g71
NtRp4852
(dp4853
g74
(dp4854
sg83
g4777
sg76
(lp4855
g69
(g90
g71
NtRp4856
(dp4857
g74
(dp4858
sg83
g4852
sg76
(lp4859
g69
(g70
g71
NtRp4860
(dp4861
g74
(dp4862
g82
I4
ssg83
g4856
sg76
(lp4863
g69
(g78
g71
NtRp4864
(dp4865
g74
(dp4866
g82
I3
ssg83
Nsg76
(lp4867
g69
(g85
g71
NtRp4868
(dp4869
g74
(dp4870
sg83
g4864
sg76
(lp4871
g69
(g90
g71
NtRp4872
(dp4873
g74
(dp4874
sg83
g4868
sg76
(lp4875
g69
(g70
g71
NtRp4876
(dp4877
g74
(dp4878
g82
I3
ssg83
g4872
sg76
(lp4879
g69
(cgluon.html
SPAN
p4880
g71
NtRp4881
(dp4882
g74
(dp4883
g4744
S'highlighted'
p4884
ssg83
Nsg76
(lp4885
S'Navigate'
p4886
asbasbasbasbag69
(g85
g71
NtRp4887
(dp4888
g74
(dp4889
sg83
g4864
sg76
(lp4890
g69
(g90
g71
NtRp4891
(dp4892
g74
(dp4893
sg83
g4887
sg76
(lp4894
g69
(g70
g71
NtRp4895
(dp4896
g74
(dp4897
g82
I3
ssg83
g4891
sg76
(lp4898
g112
asbasbasbag69
(g85
g71
NtRp4899
(dp4900
g74
(dp4901
sg83
g4864
sg76
(lp4902
g69
(g90
g71
NtRp4903
(dp4904
g74
(dp4905
sg83
g4899
sg76
(lp4906
g69
(g70
g71
NtRp4907
(dp4908
g74
(dp4909
g82
I3
ssg83
g4903
sg76
(lp4910
S'http://web2py.com'
p4911
asbasbasbag69
(g85
g71
NtRp4912
(dp4913
g74
(dp4914
sg83
g4864
sg76
(lp4915
g69
(g90
g71
NtRp4916
(dp4917
g74
(dp4918
sg83
g4912
sg76
(lp4919
g69
(g70
g71
NtRp4920
(dp4921
g74
(dp4922
g82
I3
ssg83
g4916
sg76
(lp4923
g69
(g78
g71
NtRp4924
(dp4925
g74
(dp4926
g82
I2
ssg83
Nsg76
(lp4927
g69
(g85
g71
NtRp4928
(dp4929
g74
(dp4930
sg83
g4924
sg76
(lp4931
g69
(g90
g71
NtRp4932
(dp4933
g74
(dp4934
sg83
g4928
sg76
(lp4935
g69
(g70
g71
NtRp4936
(dp4937
g74
(dp4938
g82
I2
ssg83
g4932
sg76
(lp4939
g69
(g78
g71
NtRp4940
(dp4941
g74
(dp4942
g82
I1
ssg83
Nsg76
(lp4943
g69
(g85
g71
NtRp4944
(dp4945
g74
(dp4946
sg83
g4940
sg76
(lp4947
g69
(g90
g71
NtRp4948
(dp4949
g74
(dp4950
sg83
g4944
sg76
(lp4951
g69
(g70
g71
NtRp4952
(dp4953
g74
(dp4954
g82
I1
ssg83
g4948
sg76
(lp4955
g4809
(S's\r\x00\x00\x00List of items'
tRp4956
asbasbasbag69
(g85
g71
NtRp4957
(dp4958
g74
(dp4959
sg83
g4940
sg76
(lp4960
g69
(g90
g71
NtRp4961
(dp4962
g74
(dp4963
sg83
g4957
sg76
(lp4964
g69
(g70
g71
NtRp4965
(dp4966
g74
(dp4967
g82
I1
ssg83
g4961
sg76
(lp4968
I00
asbasbasbag69
(g85
g71
NtRp4969
(dp4970
g74
(dp4971
sg83
g4940
sg76
(lp4972
g69
(g90
g71
NtRp4973
(dp4974
g74
(dp4975
sg83
g4969
sg76
(lp4976
g69
(g70
g71
NtRp4977
(dp4978
g74
(dp4979
g82
I1
ssg83
g4973
sg76
(lp4980
S'/admin/default/site'
p4981
asbasbasbasbasbasbasbag69
(g85
g71
NtRp4982
(dp4983
g74
(dp4984
sg83
g4924
sg76
(lp4985
g69
(g90
g71
NtRp4986
(dp4987
g74
(dp4988
sg83
g4982
sg76
(lp4989
g69
(g70
g71
NtRp4990
(dp4991
g74
(dp4992
g82
I2
ssg83
g4986
sg76
(lp4993
g69
(g78
g71
NtRp4994
(dp4995
g74
(dp4996
g82
I1
ssg83
Nsg76
(lp4997
g69
(g85
g71
NtRp4998
(dp4999
g74
(dp5000
sg83
g4994
sg76
(lp5001
g69
(g90
g71
NtRp5002
(dp5003
g74
(dp5004
sg83
g4998
sg76
(lp5005
g69
(g70
g71
NtRp5006
(dp5007
g74
(dp5008
g82
I1
ssg83
g5002
sg76
(lp5009
g4809
(S't\x04\x00\x00\x00Sell'
tRp5010
asbasbasbag69
(g85
g71
NtRp5011
(dp5012
g74
(dp5013
sg83
g4994
sg76
(lp5014
g69
(g90
g71
NtRp5015
(dp5016
g74
(dp5017
sg83
g5011
sg76
(lp5018
g69
(g70
g71
NtRp5019
(dp5020
g74
(dp5021
g82
I1
ssg83
g5015
sg76
(lp5022
I00
asbasbasbag69
(g85
g71
NtRp5023
(dp5024
g74
(dp5025
sg83
g4994
sg76
(lp5026
g69
(g90
g71
NtRp5027
(dp5028
g74
(dp5029
sg83
g5023
sg76
(lp5030
g69
(g70
g71
NtRp5031
(dp5032
g74
(dp5033
g82
I1
ssg83
g5027
sg76
(lp5034
S'/admin/default/design/BuySell'
p5035
asbasbasbag69
(g85
g71
NtRp5036
(dp5037
g74
(dp5038
sg83
g4994
sg76
(lp5039
g69
(g90
g71
NtRp5040
(dp5041
g74
(dp5042
sg83
g5036
sg76
(lp5043
g69
(g70
g71
NtRp5044
(dp5045
g74
(dp5046
g82
I1
ssg83
g5040
sg76
(lp5047
(lp5048
(g4809
(S's\n\x00\x00\x00Controller'
tRp5049
I00
S'/admin/default/edit/BuySell/controllers/default.py'
tp5050
a(g4809
(S's\x04\x00\x00\x00View'
tRp5051
I00
S'/admin/default/edit/BuySell/views/default/index.html'
tp5052
a(g4809
(S's\x06\x00\x00\x00Layout'
tRp5053
I00
S'/admin/default/edit/BuySell/views/layout.html'
tp5054
a(g4809
(S's\n\x00\x00\x00Stylesheet'
tRp5055
I00
S'/admin/default/edit/BuySell/static/css/web2py.css'
tp5056
a(g4809
(S's\x08\x00\x00\x00DB Model'
tRp5057
I00
S'/admin/default/edit/BuySell/models/db.py'
tp5058
a(g4809
(S's\n\x00\x00\x00Menu Model'
tRp5059
I00
S'/admin/default/edit/BuySell/models/menu.py'
tp5060
a(g4809
(S's\x08\x00\x00\x00Database'
tRp5061
I00
S'/BuySell/appadmin/index'
tp5062
a(g4809
(S's\x06\x00\x00\x00Errors'
tRp5063
I00
S'/admin/default/errors/BuySell'
tp5064
a(g4809
(S's\x05\x00\x00\x00About'
tRp5065
I00
S'/admin/default/about/BuySell'
tp5066
aasbasbasbasbasbasbasbag69
(g85
g71
NtRp5067
(dp5068
g74
(dp5069
sg83
g4924
sg76
(lp5070
g69
(g90
g71
NtRp5071
(dp5072
g74
(dp5073
sg83
g5067
sg76
(lp5074
g69
(g70
g71
NtRp5075
(dp5076
g74
(dp5077
g82
I2
ssg83
g5071
sg76
(lp5078
g69
(g78
g71
NtRp5079
(dp5080
g74
(dp5081
g82
I1
ssg83
Nsg76
(lp5082
g69
(g85
g71
NtRp5083
(dp5084
g74
(dp5085
sg83
g5079
sg76
(lp5086
g69
(g90
g71
NtRp5087
(dp5088
g74
(dp5089
sg83
g5083
sg76
(lp5090
g69
(g70
g71
NtRp5091
(dp5092
g74
(dp5093
g82
I1
ssg83
g5087
sg76
(lp5094
S'Buy'
p5095
asbasbasbag69
(g85
g71
NtRp5096
(dp5097
g74
(dp5098
sg83
g5079
sg76
(lp5099
g69
(g90
g71
NtRp5100
(dp5101
g74
(dp5102
sg83
g5096
sg76
(lp5103
g69
(g70
g71
NtRp5104
(dp5105
g74
(dp5106
g82
I1
ssg83
g5100
sg76
(lp5107
I00
asbasbasbag69
(g85
g71
NtRp5108
(dp5109
g74
(dp5110
sg83
g5079
sg76
(lp5111
g69
(g90
g71
NtRp5112
(dp5113
g74
(dp5114
sg83
g5108
sg76
(lp5115
g69
(g70
g71
NtRp5116
(dp5117
g74
(dp5118
g82
I1
ssg83
g5112
sg76
(lp5119
S'http://www.web2py.com'
p5120
asbasbasbag69
(g85
g71
NtRp5121
(dp5122
g74
(dp5123
sg83
g5079
sg76
(lp5124
g69
(g90
g71
NtRp5125
(dp5126
g74
(dp5127
sg83
g5121
sg76
(lp5128
g69
(g70
g71
NtRp5129
(dp5130
g74
(dp5131
g82
I1
ssg83
g5125
sg76
(lp5132
(lp5133
(g4809
(S's\x08\x00\x00\x00Download'
tRp5134
I00
S'http://www.web2py.com/examples/default/download'
p5135
tp5136
a(g4809
(S's\x07\x00\x00\x00Support'
tRp5137
I00
S'http://www.web2py.com/examples/default/support'
p5138
tp5139
a(g4809
(S's\x04\x00\x00\x00Demo'
tRp5140
I00
S'http://web2py.com/demo_admin'
p5141
tp5142
a(g4809
(S's\x0e\x00\x00\x00Quick Examples'
tRp5143
I00
S'http://web2py.com/examples/default/examples'
p5144
tp5145
a(g4809
(S's\x03\x00\x00\x00FAQ'
tRp5146
I00
S'http://web2py.com/AlterEgo'
p5147
tp5148
a(g4809
(S's\x06\x00\x00\x00Videos'
tRp5149
I00
S'http://www.web2py.com/examples/default/videos/'
p5150
tp5151
a(g4809
(S's\x11\x00\x00\x00Free Applications'
tRp5152
I00
S'http://web2py.com/appliances'
p5153
tp5154
a(g4809
(S's\x07\x00\x00\x00Plugins'
tRp5155
I00
S'http://web2py.com/plugins'
p5156
tp5157
a(g4809
(S's\x07\x00\x00\x00Layouts'
tRp5158
I00
S'http://web2py.com/layouts'
p5159
tp5160
a(g4809
(S's\x07\x00\x00\x00Recipes'
tRp5161
I00
S'http://web2pyslices.com/'
p5162
tp5163
a(g4809
(S's\x08\x00\x00\x00Semantic'
tRp5164
I00
S'http://web2py.com/semantic'
p5165
tp5166
aasbasbasbasbasbasbasbag69
(g85
g71
NtRp5167
(dp5168
g74
(dp5169
sg83
g4924
sg76
(lp5170
g69
(g90
g71
NtRp5171
(dp5172
g74
(dp5173
sg83
g5167
sg76
(lp5174
g69
(g70
g71
NtRp5175
(dp5176
g74
(dp5177
g82
I2
ssg83
g5171
sg76
(lp5178
g69
(g78
g71
NtRp5179
(dp5180
g74
(dp5181
g82
I1
ssg83
Nsg76
(lp5182
g69
(g85
g71
NtRp5183
(dp5184
g74
(dp5185
sg83
g5179
sg76
(lp5186
g69
(g90
g71
NtRp5187
(dp5188
g74
(dp5189
sg83
g5183
sg76
(lp5190
g69
(g70
g71
NtRp5191
(dp5192
g74
(dp5193
g82
I1
ssg83
g5187
sg76
(lp5194
g4809
(S's\x0e\x00\x00\x00All Categories'
tRp5195
asbasbasbag69
(g85
g71
NtRp5196
(dp5197
g74
(dp5198
sg83
g5179
sg76
(lp5199
g69
(g90
g71
NtRp5200
(dp5201
g74
(dp5202
sg83
g5196
sg76
(lp5203
g69
(g70
g71
NtRp5204
(dp5205
g74
(dp5206
g82
I1
ssg83
g5200
sg76
(lp5207
I00
asbasbasbag69
(g85
g71
NtRp5208
(dp5209
g74
(dp5210
sg83
g5179
sg76
(lp5211
g69
(g90
g71
NtRp5212
(dp5213
g74
(dp5214
sg83
g5208
sg76
(lp5215
g69
(g70
g71
NtRp5216
(dp5217
g74
(dp5218
g82
I1
ssg83
g5212
sg76
(lp5219
S'http://www.web2py.com/book'
p5220
asbasbasbag69
(g85
g71
NtRp5221
(dp5222
g74
(dp5223
sg83
g5179
sg76
(lp5224
g69
(g90
g71
NtRp5225
(dp5226
g74
(dp5227
sg83
g5221
sg76
(lp5228
g69
(g70
g71
NtRp5229
(dp5230
g74
(dp5231
g82
I1
ssg83
g5225
sg76
(lp5232
(lp5233
(g4809
(S's\x07\x00\x00\x00Preface'
tRp5234
I00
S'http://www.web2py.com/book/default/chapter/00'
p5235
tp5236
a(g4809
(S's\x0c\x00\x00\x00Introduction'
tRp5237
I00
S'http://www.web2py.com/book/default/chapter/01'
p5238
tp5239
a(g4809
(S's\x06\x00\x00\x00Python'
tRp5240
I00
S'http://www.web2py.com/book/default/chapter/02'
p5241
tp5242
a(g4809
(S's\x08\x00\x00\x00Overview'
tRp5243
I00
S'http://www.web2py.com/book/default/chapter/03'
p5244
tp5245
a(g4809
(S's\x08\x00\x00\x00The Core'
tRp5246
I00
S'http://www.web2py.com/book/default/chapter/04'
p5247
tp5248
a(g4809
(S's\t\x00\x00\x00The Views'
tRp5249
I00
S'http://www.web2py.com/book/default/chapter/05'
p5250
tp5251
a(g4809
(S's\x08\x00\x00\x00Database'
tRp5252
I00
S'http://www.web2py.com/book/default/chapter/06'
p5253
tp5254
a(g4809
(S's\x14\x00\x00\x00Forms and Validators'
tRp5255
I00
S'http://www.web2py.com/book/default/chapter/07'
p5256
tp5257
a(g4809
(S's\r\x00\x00\x00Email and SMS'
tRp5258
I00
S'http://www.web2py.com/book/default/chapter/08'
p5259
tp5260
a(g4809
(S's\x0e\x00\x00\x00Access Control'
tRp5261
I00
S'http://www.web2py.com/book/default/chapter/09'
p5262
tp5263
a(g4809
(S's\x08\x00\x00\x00Services'
tRp5264
I00
S'http://www.web2py.com/book/default/chapter/10'
p5265
tp5266
a(g4809
(S's\x0c\x00\x00\x00Ajax Recipes'
tRp5267
I00
S'http://www.web2py.com/book/default/chapter/11'
p5268
tp5269
a(g4809
(S's\x16\x00\x00\x00Components and Plugins'
tRp5270
I00
S'http://www.web2py.com/book/default/chapter/12'
p5271
tp5272
a(g4809
(S's\x12\x00\x00\x00Deployment Recipes'
tRp5273
I00
S'http://www.web2py.com/book/default/chapter/13'
p5274
tp5275
a(g4809
(S's\r\x00\x00\x00Other Recipes'
tRp5276
I00
S'http://www.web2py.com/book/default/chapter/14'
p5277
tp5278
a(g4809
(S's\r\x00\x00\x00Buy this book'
tRp5279
I00
S'http://stores.lulu.com/web2py'
p5280
tp5281
aasbasbasbasbasbasbasbag69
(g85
g71
NtRp5282
(dp5283
g74
(dp5284
sg83
g4924
sg76
(lp5285
g69
(g90
g71
NtRp5286
(dp5287
g74
(dp5288
sg83
g5282
sg76
(lp5289
g69
(g70
g71
NtRp5290
(dp5291
g74
(dp5292
g82
I2
ssg83
g5286
sg76
(lp5293
g69
(g78
g71
NtRp5294
(dp5295
g74
(dp5296
g82
I1
ssg83
Nsg76
(lp5297
g69
(g85
g71
NtRp5298
(dp5299
g74
(dp5300
sg83
g5294
sg76
(lp5301
g69
(g90
g71
NtRp5302
(dp5303
g74
(dp5304
sg83
g5298
sg76
(lp5305
g69
(g70
g71
NtRp5306
(dp5307
g74
(dp5308
g82
I1
ssg83
g5302
sg76
(lp5309
g4809
(S's\t\x00\x00\x00Community'
tRp5310
asbasbasbag69
(g85
g71
NtRp5311
(dp5312
g74
(dp5313
sg83
g5294
sg76
(lp5314
g69
(g90
g71
NtRp5315
(dp5316
g74
(dp5317
sg83
g5311
sg76
(lp5318
g69
(g70
g71
NtRp5319
(dp5320
g74
(dp5321
g82
I1
ssg83
g5315
sg76
(lp5322
I00
asbasbasbag69
(g85
g71
NtRp5323
(dp5324
g74
(dp5325
sg83
g5294
sg76
(lp5326
g69
(g90
g71
NtRp5327
(dp5328
g74
(dp5329
sg83
g5323
sg76
(lp5330
g69
(g70
g71
NtRp5331
(dp5332
g74
(dp5333
g82
I1
ssg83
g5327
sg76
(lp5334
Nasbasbasbag69
(g85
g71
NtRp5335
(dp5336
g74
(dp5337
sg83
g5294
sg76
(lp5338
g69
(g90
g71
NtRp5339
(dp5340
g74
(dp5341
sg83
g5335
sg76
(lp5342
g69
(g70
g71
NtRp5343
(dp5344
g74
(dp5345
g82
I1
ssg83
g5339
sg76
(lp5346
(lp5347
(g4809
(S's\t\x00\x00\x00Community'
tRp5348
I00
S'http://www.web2py.com/examples/default/usergroups'
p5349
tp5350
a(g4809
(S's\x07\x00\x00\x00Twitter'
tRp5351
I00
S'http://twitter.com/web2py'
p5352
tp5353
a(g4809
(S's\t\x00\x00\x00Live Chat'
tRp5354
I00
S'http://webchat.freenode.net/?channels=web2py'
p5355
tp5356
aasbasbasbasbasbasbasbag69
(g85
g71
NtRp5357
(dp5358
g74
(dp5359
sg83
g4924
sg76
(lp5360
g69
(g90
g71
NtRp5361
(dp5362
g74
(dp5363
sg83
g5357
sg76
(lp5364
g69
(g70
g71
NtRp5365
(dp5366
g74
(dp5367
g82
I2
ssg83
g5361
sg76
(lp5368
g69
(g78
g71
NtRp5369
(dp5370
g74
(dp5371
g82
I1
ssg83
Nsg76
(lp5372
g69
(g85
g71
NtRp5373
(dp5374
g74
(dp5375
sg83
g5369
sg76
(lp5376
g69
(g90
g71
NtRp5377
(dp5378
g74
(dp5379
sg83
g5373
sg76
(lp5380
g69
(g70
g71
NtRp5381
(dp5382
g74
(dp5383
g82
I1
ssg83
g5377
sg76
(lp5384
g4809
(S't\x04\x00\x00\x00Help'
tRp5385
asbasbasbag69
(g85
g71
NtRp5386
(dp5387
g74
(dp5388
sg83
g5369
sg76
(lp5389
g69
(g90
g71
NtRp5390
(dp5391
g74
(dp5392
sg83
g5386
sg76
(lp5393
g69
(g70
g71
NtRp5394
(dp5395
g74
(dp5396
g82
I1
ssg83
g5390
sg76
(lp5397
I00
asbasbasbag69
(g85
g71
NtRp5398
(dp5399
g74
(dp5400
sg83
g5369
sg76
(lp5401
g69
(g90
g71
NtRp5402
(dp5403
g74
(dp5404
sg83
g5398
sg76
(lp5405
g69
(g70
g71
NtRp5406
(dp5407
g74
(dp5408
g82
I1
ssg83
g5402
sg76
(lp5409
Nasbasbasbag69
(g85
g71
NtRp5410
(dp5411
g74
(dp5412
sg83
g5369
sg76
(lp5413
g69
(g90
g71
NtRp5414
(dp5415
g74
(dp5416
sg83
g5410
sg76
(lp5417
g69
(g70
g71
NtRp5418
(dp5419
g74
(dp5420
g82
I1
ssg83
g5414
sg76
(lp5421
(lp5422
(S'plugin_wiki'
p5423
I00
S'http://web2py.com/examples/default/download'
p5424
tp5425
a(g4809
(S's\r\x00\x00\x00Other Plugins'
tRp5426
I00
g5156
tp5427
a(g4809
(S's\x0e\x00\x00\x00Layout Plugins'
tRp5428
I00
g5159
tp5429
aasbasbasbasbasbasbasbasbasbasbasbasbasbasbasbasbasbasbasbag69
(g85
g71
NtRp5430
(dp5431
g74
(dp5432
sg83
g4282
sg76
(lp5433
g69
(g90
g71
NtRp5434
(dp5435
g74
(dp5436
g94
g95
ssg83
g5430
sg76
(lp5437
S'meta'
p5438
asbag69
(g90
g71
NtRp5439
(dp5440
g74
(dp5441
g101
g102
ssg83
g5430
sg76
(lp5442
S':'
asbag69
(g90
g71
NtRp5443
(dp5444
g74
(dp5445
sg83
g5430
sg76
(lp5446
g69
(g70
g71
NtRp5447
(dp5448
g74
(dp5449
g82
I5
ssg83
g5443
sg76
(lp5450
g69
(g78
g71
NtRp5451
(dp5452
g74
(dp5453
g82
I4
ssg83
Nsg76
(lp5454
g69
(g85
g71
NtRp5455
(dp5456
g74
(dp5457
sg83
g5451
sg76
(lp5458
g69
(g90
g71
NtRp5459
(dp5460
g74
(dp5461
g94
g95
ssg83
g5455
sg76
(lp5462
S'author'
p5463
asbag69
(g90
g71
NtRp5464
(dp5465
g74
(dp5466
g101
g102
ssg83
g5455
sg76
(lp5467
S':'
asbag69
(g90
g71
NtRp5468
(dp5469
g74
(dp5470
sg83
g5455
sg76
(lp5471
g69
(g70
g71
NtRp5472
(dp5473
g74
(dp5474
g82
I4
ssg83
g5468
sg76
(lp5475
S'Your Name <you@example.com>'
p5476
asbasbasbag69
(g85
g71
NtRp5477
(dp5478
g74
(dp5479
sg83
g5451
sg76
(lp5480
g69
(g90
g71
NtRp5481
(dp5482
g74
(dp5483
g94
g95
ssg83
g5477
sg76
(lp5484
S'description'
p5485
asbag69
(g90
g71
NtRp5486
(dp5487
g74
(dp5488
g101
g102
ssg83
g5477
sg76
(lp5489
S':'
asbag69
(g90
g71
NtRp5490
(dp5491
g74
(dp5492
sg83
g5477
sg76
(lp5493
g69
(g70
g71
NtRp5494
(dp5495
g74
(dp5496
g82
I4
ssg83
g5490
sg76
(lp5497
S'a cool new app'
p5498
asbasbasbag69
(g85
g71
NtRp5499
(dp5500
g74
(dp5501
sg83
g5451
sg76
(lp5502
g69
(g90
g71
NtRp5503
(dp5504
g74
(dp5505
g94
g95
ssg83
g5499
sg76
(lp5506
S'generator'
p5507
asbag69
(g90
g71
NtRp5508
(dp5509
g74
(dp5510
g101
g102
ssg83
g5499
sg76
(lp5511
S':'
asbag69
(g90
g71
NtRp5512
(dp5513
g74
(dp5514
sg83
g5499
sg76
(lp5515
g69
(g70
g71
NtRp5516
(dp5517
g74
(dp5518
g82
I4
ssg83
g5512
sg76
(lp5519
S'Web2py Web Framework'
p5520
asbasbasbag69
(g85
g71
NtRp5521
(dp5522
g74
(dp5523
sg83
g5451
sg76
(lp5524
g69
(g90
g71
NtRp5525
(dp5526
g74
(dp5527
g94
g95
ssg83
g5521
sg76
(lp5528
S'keywords'
p5529
asbag69
(g90
g71
NtRp5530
(dp5531
g74
(dp5532
g101
g102
ssg83
g5521
sg76
(lp5533
S':'
asbag69
(g90
g71
NtRp5534
(dp5535
g74
(dp5536
sg83
g5521
sg76
(lp5537
g69
(g70
g71
NtRp5538
(dp5539
g74
(dp5540
g82
I4
ssg83
g5534
sg76
(lp5541
S'web2py, python, framework'
p5542
asbasbasbasbasbasbasbag69
(g85
g71
NtRp5543
(dp5544
g74
(dp5545
sg83
g4282
sg76
(lp5546
g69
(g90
g71
NtRp5547
(dp5548
g74
(dp5549
g94
g95
ssg83
g5543
sg76
(lp5550
S'models_to_run'
p5551
asbag69
(g90
g71
NtRp5552
(dp5553
g74
(dp5554
g101
g102
ssg83
g5543
sg76
(lp5555
S':'
asbag69
(g90
g71
NtRp5556
(dp5557
g74
(dp5558
sg83
g5543
sg76
(lp5559
g69
(g70
g71
NtRp5560
(dp5561
g74
(dp5562
g82
I5
ssg83
g5556
sg76
(lp5563
g69
(g78
g71
NtRp5564
(dp5565
g74
(dp5566
g82
I4
ssg83
Nsg76
(lp5567
g69
(g85
g71
NtRp5568
(dp5569
g74
(dp5570
sg83
g5564
sg76
(lp5571
g69
(g90
g71
NtRp5572
(dp5573
g74
(dp5574
sg83
g5568
sg76
(lp5575
g69
(g70
g71
NtRp5576
(dp5577
g74
(dp5578
g82
I4
ssg83
g5572
sg76
(lp5579
S'^\\w+\\.py$'
p5580
asbasbasbag69
(g85
g71
NtRp5581
(dp5582
g74
(dp5583
sg83
g5564
sg76
(lp5584
g69
(g90
g71
NtRp5585
(dp5586
g74
(dp5587
sg83
g5581
sg76
(lp5588
g69
(g70
g71
NtRp5589
(dp5590
g74
(dp5591
g82
I4
ssg83
g5585
sg76
(lp5592
S'^default/\\w+\\.py$'
p5593
asbasbasbag69
(g85
g71
NtRp5594
(dp5595
g74
(dp5596
sg83
g5564
sg76
(lp5597
g69
(g90
g71
NtRp5598
(dp5599
g74
(dp5600
sg83
g5594
sg76
(lp5601
g69
(g70
g71
NtRp5602
(dp5603
g74
(dp5604
g82
I4
ssg83
g5598
sg76
(lp5605
S'^default/index/\\w+\\.py$'
p5606
asbasbasbasbasbasbasbag69
(g85
g71
NtRp5607
(dp5608
g74
(dp5609
sg83
g4282
sg76
(lp5610
g69
(g90
g71
NtRp5611
(dp5612
g74
(dp5613
g94
g95
ssg83
g5607
sg76
(lp5614
S'postprocessing'
p5615
asbag69
(g90
g71
NtRp5616
(dp5617
g74
(dp5618
g101
g102
ssg83
g5607
sg76
(lp5619
S':'
asbag69
(g90
g71
NtRp5620
(dp5621
g74
(dp5622
sg83
g5607
sg76
(lp5623
g69
(g70
g71
NtRp5624
(dp5625
g74
(dp5626
g82
I5
ssg83
g5620
sg76
(lp5627
g69
(g78
g71
NtRp5628
(dp5629
g74
(dp5630
g82
I4
ssg83
Nsg76
(lp5631
sbasbasbasbag69
(g85
g71
NtRp5632
(dp5633
g74
(dp5634
sg83
g4282
sg76
(lp5635
g69
(g90
g71
NtRp5636
(dp5637
g74
(dp5638
g94
g95
ssg83
g5632
sg76
(lp5639
S'session_cookie_expires'
p5640
asbag69
(g90
g71
NtRp5641
(dp5642
g74
(dp5643
g101
g102
ssg83
g5632
sg76
(lp5644
S':'
asbag69
(g90
g71
NtRp5645
(dp5646
g74
(dp5647
sg83
g5632
sg76
(lp5648
g69
(g70
g71
NtRp5649
(dp5650
g74
(dp5651
g82
I5
ssg83
g5645
sg76
(lp5652
S'None'
p5653
asbasbasbag69
(g85
g71
NtRp5654
(dp5655
g74
(dp5656
sg83
g4282
sg76
(lp5657
g69
(g90
g71
NtRp5658
(dp5659
g74
(dp5660
g94
g95
ssg83
g5654
sg76
(lp5661
S'session_data_name'
p5662
asbag69
(g90
g71
NtRp5663
(dp5664
g74
(dp5665
g101
g102
ssg83
g5654
sg76
(lp5666
S':'
asbag69
(g90
g71
NtRp5667
(dp5668
g74
(dp5669
sg83
g5654
sg76
(lp5670
g69
(g70
g71
NtRp5671
(dp5672
g74
(dp5673
g82
I5
ssg83
g5667
sg76
(lp5674
S'session_data_buysell'
p5675
asbasbasbag69
(g85
g71
NtRp5676
(dp5677
g74
(dp5678
sg83
g4282
sg76
(lp5679
g69
(g90
g71
NtRp5680
(dp5681
g74
(dp5682
g94
g95
ssg83
g5676
sg76
(lp5683
S'session_file'
p5684
asbag69
(g90
g71
NtRp5685
(dp5686
g74
(dp5687
g101
g102
ssg83
g5676
sg76
(lp5688
S':'
asbag69
(g90
g71
NtRp5689
(dp5690
g74
(dp5691
sg83
g5676
sg76
(lp5692
g69
(g70
g71
NtRp5693
(dp5694
g74
(dp5695
g82
I5
ssg83
g5689
sg76
(lp5696
S"<open file '/home/pratyush/web2py/applications/BuySell/sessions/127.0.0.1-d5a07803-4f5c-44c8-b05d-2876d30ca822', mode 'rb+' at 0xa80fac8>"
p5697
asbasbasbag69
(g85
g71
NtRp5698
(dp5699
g74
(dp5700
sg83
g4282
sg76
(lp5701
g69
(g90
g71
NtRp5702
(dp5703
g74
(dp5704
g94
g95
ssg83
g5698
sg76
(lp5705
S'session_filename'
p5706
asbag69
(g90
g71
NtRp5707
(dp5708
g74
(dp5709
g101
g102
ssg83
g5698
sg76
(lp5710
S':'
asbag69
(g90
g71
NtRp5711
(dp5712
g74
(dp5713
sg83
g5698
sg76
(lp5714
g69
(g70
g71
NtRp5715
(dp5716
g74
(dp5717
g82
I5
ssg83
g5711
sg76
(lp5718
S'/home/pratyush/web2py/applications/BuySell/sessions/127.0.0.1-d5a07803-4f5c-44c8-b05d-2876d30ca822'
p5719
asbasbasbag69
(g85
g71
NtRp5720
(dp5721
g74
(dp5722
sg83
g4282
sg76
(lp5723
g69
(g90
g71
NtRp5724
(dp5725
g74
(dp5726
g94
g95
ssg83
g5720
sg76
(lp5727
S'session_id'
p5728
asbag69
(g90
g71
NtRp5729
(dp5730
g74
(dp5731
g101
g102
ssg83
g5720
sg76
(lp5732
S':'
asbag69
(g90
g71
NtRp5733
(dp5734
g74
(dp5735
sg83
g5720
sg76
(lp5736
g69
(g70
g71
NtRp5737
(dp5738
g74
(dp5739
g82
I5
ssg83
g5733
sg76
(lp5740
g673
asbasbasbag69
(g85
g71
NtRp5741
(dp5742
g74
(dp5743
sg83
g4282
sg76
(lp5744
g69
(g90
g71
NtRp5745
(dp5746
g74
(dp5747
g94
g95
ssg83
g5741
sg76
(lp5748
S'session_id_name'
p5749
asbag69
(g90
g71
NtRp5750
(dp5751
g74
(dp5752
g101
g102
ssg83
g5741
sg76
(lp5753
S':'
asbag69
(g90
g71
NtRp5754
(dp5755
g74
(dp5756
sg83
g5741
sg76
(lp5757
g69
(g70
g71
NtRp5758
(dp5759
g74
(dp5760
g82
I5
ssg83
g5754
sg76
(lp5761
g4339
asbasbasbag69
(g85
g71
NtRp5762
(dp5763
g74
(dp5764
sg83
g4282
sg76
(lp5765
g69
(g90
g71
NtRp5766
(dp5767
g74
(dp5768
g94
g95
ssg83
g5762
sg76
(lp5769
S'session_locked'
p5770
asbag69
(g90
g71
NtRp5771
(dp5772
g74
(dp5773
g101
g102
ssg83
g5762
sg76
(lp5774
S':'
asbag69
(g90
g71
NtRp5775
(dp5776
g74
(dp5777
sg83
g5762
sg76
(lp5778
g69
(g70
g71
NtRp5779
(dp5780
g74
(dp5781
g82
I5
ssg83
g5775
sg76
(lp5782
g2383
asbasbasbag69
(g85
g71
NtRp5783
(dp5784
g74
(dp5785
sg83
g4282
sg76
(lp5786
g69
(g90
g71
NtRp5787
(dp5788
g74
(dp5789
g94
g95
ssg83
g5783
sg76
(lp5790
S'session_new'
p5791
asbag69
(g90
g71
NtRp5792
(dp5793
g74
(dp5794
g101
g102
ssg83
g5783
sg76
(lp5795
S':'
asbag69
(g90
g71
NtRp5796
(dp5797
g74
(dp5798
sg83
g5783
sg76
(lp5799
g69
(g70
g71
NtRp5800
(dp5801
g74
(dp5802
g82
I5
ssg83
g5796
sg76
(lp5803
g112
asbasbasbag69
(g85
g71
NtRp5804
(dp5805
g74
(dp5806
sg83
g4282
sg76
(lp5807
g69
(g90
g71
NtRp5808
(dp5809
g74
(dp5810
g94
g95
ssg83
g5804
sg76
(lp5811
S'session_storage_type'
p5812
asbag69
(g90
g71
NtRp5813
(dp5814
g74
(dp5815
g101
g102
ssg83
g5804
sg76
(lp5816
S':'
asbag69
(g90
g71
NtRp5817
(dp5818
g74
(dp5819
sg83
g5804
sg76
(lp5820
g69
(g70
g71
NtRp5821
(dp5822
g74
(dp5823
g82
I5
ssg83
g5817
sg76
(lp5824
g3856
asbasbasbag69
(g85
g71
NtRp5825
(dp5826
g74
(dp5827
sg83
g4282
sg76
(lp5828
g69
(g90
g71
NtRp5829
(dp5830
g74
(dp5831
g94
g95
ssg83
g5825
sg76
(lp5832
S'status'
p5833
asbag69
(g90
g71
NtRp5834
(dp5835
g74
(dp5836
g101
g102
ssg83
g5825
sg76
(lp5837
S':'
asbag69
(g90
g71
NtRp5838
(dp5839
g74
(dp5840
sg83
g5825
sg76
(lp5841
g69
(g70
g71
NtRp5842
(dp5843
g74
(dp5844
g82
I5
ssg83
g5838
sg76
(lp5845
S'200'
p5846
asbasbasbag69
(g85
g71
NtRp5847
(dp5848
g74
(dp5849
sg83
g4282
sg76
(lp5850
g69
(g90
g71
NtRp5851
(dp5852
g74
(dp5853
g94
g95
ssg83
g5847
sg76
(lp5854
S'subtitle'
p5855
asbag69
(g90
g71
NtRp5856
(dp5857
g74
(dp5858
g101
g102
ssg83
g5847
sg76
(lp5859
S':'
asbag69
(g90
g71
NtRp5860
(dp5861
g74
(dp5862
sg83
g5847
sg76
(lp5863
g69
(g70
g71
NtRp5864
(dp5865
g74
(dp5866
g82
I5
ssg83
g5860
sg76
(lp5867
g4809
(S's\r\x00\x00\x00customize me!'
tRp5868
asbasbasbag69
(g85
g71
NtRp5869
(dp5870
g74
(dp5871
sg83
g4282
sg76
(lp5872
g69
(g90
g71
NtRp5873
(dp5874
g74
(dp5875
g94
g95
ssg83
g5869
sg76
(lp5876
S'title'
p5877
asbag69
(g90
g71
NtRp5878
(dp5879
g74
(dp5880
g101
g102
ssg83
g5869
sg76
(lp5881
S':'
asbag69
(g90
g71
NtRp5882
(dp5883
g74
(dp5884
sg83
g5869
sg76
(lp5885
g69
(g70
g71
NtRp5886
(dp5887
g74
(dp5888
g82
I5
ssg83
g5882
sg76
(lp5889
S'Buysell'
p5890
asbasbasbag69
(g85
g71
NtRp5891
(dp5892
g74
(dp5893
sg83
g4282
sg76
(lp5894
g69
(g90
g71
NtRp5895
(dp5896
g74
(dp5897
g94
g95
ssg83
g5891
sg76
(lp5898
S'view'
p5899
asbag69
(g90
g71
NtRp5900
(dp5901
g74
(dp5902
g101
g102
ssg83
g5891
sg76
(lp5903
S':'
asbag69
(g90
g71
NtRp5904
(dp5905
g74
(dp5906
sg83
g5891
sg76
(lp5907
g69
(g70
g71
NtRp5908
(dp5909
g74
(dp5910
g82
I5
ssg83
g5904
sg76
(lp5911
S'default/index.html'
p5912
asbasbasbasbasbsS'locals'
p5913
(dp5914
g4
S"'/home/pratyush/web2py/applications/BuySell/controllers/default.py'"
p5915
sg6
S"'# -*- coding: utf-8 -*-\\n# this file is released ...   return\\nresponse._vars=response._caller(index)\\n'"
p5916
sssS'traceback'
p5917
S'Traceback (most recent call last):\n  File "/home/pratyush/web2py/gluon/restricted.py", line 211, in restricted\n    ccode = compile2(code, layer)\n  File "/home/pratyush/web2py/gluon/restricted.py", line 194, in compile2\n    return compile(code.rstrip().replace(\'\\r\\n\', \'\\n\') + \'\\n\', layer, \'exec\')\n  File "/home/pratyush/web2py/applications/BuySell/controllers/default.py", line 77\n    @auth.is_logged_in():\n                        ^\nSyntaxError: invalid syntax\n'
p5918
s.