(dp1
S'output'
p2
S"<type 'exceptions.IndentationError'> unexpected indent (db.py, line 91)"
p3
sS'layer'
p4
S'/home/pratyush/web2py/applications/BuySell/models/db.py'
p5
sS'code'
p6
S"# -*- coding: utf-8 -*-\n\n#########################################################################\n## This scaffolding model makes your app work on Google App Engine too\n## File is released under public domain and you can use without limitations\n#########################################################################\n\n## if SSL/HTTPS is properly configured and you want all HTTP requests to\n## be redirected to HTTPS, uncomment the line below:\n# request.requires_https()\n\nif not request.env.web2py_runtime_gae:\n    ## if NOT running on Google App Engine use SQLite or other DB\n    db = DAL('sqlite://storage.sqlite',pool_size=1,check_reserved=['all'])\nelse:\n    ## connect to Google BigTable (optional 'google:datastore://namespace')\n    db = DAL('google:datastore')\n    ## store sessions and tickets there\n    session.connect(request, response, db=db)\n    ## or store session in Memcache, Redis, etc.\n    ## from gluon.contrib.memdb import MEMDB\n    ## from google.appengine.api.memcache import Client\n    ## session.connect(request, response, db = MEMDB(Client()))\n\n## by default give a view/generic.extension to all actions from localhost\n## none otherwise. a pattern can be 'controller/function.extension'\nresponse.generic_patterns = ['*'] if request.is_local else []\n## (optional) optimize handling of static files\n# response.optimize_css = 'concat,minify,inline'\n# response.optimize_js = 'concat,minify,inline'\n\n#########################################################################\n## Here is sample code if you need for\n## - email capabilities\n## - authentication (registration, login, logout, ... )\n## - authorization (role based authorization)\n## - services (xml, csv, json, xmlrpc, jsonrpc, amf, rss)\n## - old style crud actions\n## (more options discussed in gluon/tools.py)\n#########################################################################\n\nfrom gluon.tools import Auth, Crud, Service, PluginManager, prettydate\nauth = Auth(db)\ncrud, service, plugins = Crud(db), Service(), PluginManager()\n\n## create all tables needed by auth if not custom tables\nauth.define_tables(username=False, signature=False)\n\n## configure email\nmail = auth.settings.mailer\nmail.settings.server = 'logging' or 'smtp.gmail.com:587'\nmail.settings.sender = 'you@gmail.com'\nmail.settings.login = 'username:password'\n\n## configure auth policy\nauth.settings.registration_requires_verification = False\nauth.settings.registration_requires_approval = False\nauth.settings.reset_password_requires_verification = True\n\n## if you need to use OpenID, Facebook, MySpace, Twitter, Linkedin, etc.\n## register with janrain.com, write your domain:api_key in private/janrain.key\nfrom gluon.contrib.login_methods.rpx_account import use_janrain\nuse_janrain(auth, filename='private/janrain.key')\n\n#########################################################################\n## Define your tables below (or better in another model file) for example\n##\n## >>> db.define_table('mytable',Field('myfield','string'))\n##\n## Fields can be 'string','text','password','integer','double','boolean'\n##       'date','time','datetime','blob','upload', 'reference TABLENAME'\n## There is an implicit 'id integer autoincrement' field\n## Consult manual for more options, validators, etc.\n##\n## More API examples for controllers:\n##\n## >>> db.mytable.insert(myfield='value')\n## >>> rows=db(db.mytable.myfield=='value').select(db.mytable.ALL)\n## >>> for row in rows: print row.id, row.myfield\n#########################################################################\n\n## after defining tables, uncomment below to enable auditing\n# auth.enable_record_versioning(db)\n\ndb.define_table('item',                         \n                SQLField('name',requires = IS_NOT_EMPTY()),\n                SQLField('category', requires = IS_IN_SET('Arts and Crafts','Clothing','Gifts','Footwears'),default = 'Arts and Crafts'),        \n                SQLField('price', 'integer',requires = IS_NOT_EMPTY()),\n                SQLField('image','upload'),\n                SQLField('user', db.auth_user, default=auth.user_id,writable=False, requires=IS_IN_DB(db, db.auth_user.id)))\n                SQLField('description','text',requires = IS_NOT_EMPTY()))"
p7
sS'snapshot'
p8
(dp9
S'exception'
p10
(dp11
S'__getslice__'
p12
S"<method-wrapper '__getslice__' of exceptions.IndentationError object>"
p13
sS'text'
p14
S'"                SQLField(\'description\',\'text\',requires = IS_NOT_EMPTY()))\\n"'
p15
sS'__str__'
p16
S"<method-wrapper '__str__' of exceptions.IndentationError object>"
p17
sS'__reduce__'
p18
S'<built-in method __reduce__ of exceptions.IndentationError object>'
p19
sS'__dict__'
p20
S'{}'
p21
sS'__sizeof__'
p22
S'<built-in method __sizeof__ of exceptions.IndentationError object>'
p23
sS'__init__'
p24
S"<method-wrapper '__init__' of exceptions.IndentationError object>"
p25
sS'__setattr__'
p26
S"<method-wrapper '__setattr__' of exceptions.IndentationError object>"
p27
sS'__reduce_ex__'
p28
S'<built-in method __reduce_ex__ of exceptions.IndentationError object>'
p29
sS'__new__'
p30
S'<built-in method __new__ of type object>'
p31
sS'__format__'
p32
S'<built-in method __format__ of exceptions.IndentationError object>'
p33
sS'__class__'
p34
S"<type 'exceptions.IndentationError'>"
p35
sS'filename'
p36
S"'/home/pratyush/web2py/applications/BuySell/models/db.py'"
p37
sS'lineno'
p38
S'91'
p39
sS'msg'
p40
S"'unexpected indent'"
p41
sS'__doc__'
p42
S"'Improper indentation.'"
p43
sS'__getitem__'
p44
S"<method-wrapper '__getitem__' of exceptions.IndentationError object>"
p45
sS'__setstate__'
p46
S'<built-in method __setstate__ of exceptions.IndentationError object>'
p47
sS'__getattribute__'
p48
S"<method-wrapper '__getattribute__' of exceptions.IndentationError object>"
p49
sS'print_file_and_line'
p50
S'None'
p51
sS'args'
p52
S'(\'unexpected indent\', (\'/home/pratyush/web2py/applications/BuySell/models/db.py\', 91, 16, "                SQLField(\'description\',\'text\',requires = IS_NOT_EMPTY()))\\n"))'
p53
sS'__subclasshook__'
p54
S'<built-in method __subclasshook__ of type object>'
p55
sS'offset'
p56
S'16'
p57
sS'__unicode__'
p58
S'<built-in method __unicode__ of exceptions.IndentationError object>'
p59
sS'__delattr__'
p60
S"<method-wrapper '__delattr__' of exceptions.IndentationError object>"
p61
sS'__repr__'
p62
S"<method-wrapper '__repr__' of exceptions.IndentationError object>"
p63
sS'__hash__'
p64
S"<method-wrapper '__hash__' of exceptions.IndentationError object>"
p65
ssS'evalue'
p66
S'unexpected indent (db.py, line 91)'
p67
sS'request'
p68
ccopy_reg
_reconstructor
p69
(cgluon.html
BEAUTIFY
p70
c__builtin__
object
p71
NtRp72
(dp73
S'attributes'
p74
(dp75
sS'components'
p76
(lp77
g69
(cgluon.html
TABLE
p78
g71
NtRp79
(dp80
g74
(dp81
S'level'
p82
I5
ssS'parent'
p83
Nsg76
(lp84
g69
(cgluon.html
TR
p85
g71
NtRp86
(dp87
g74
(dp88
sg83
g79
sg76
(lp89
g69
(cgluon.html
TD
p90
g71
NtRp91
(dp92
g74
(dp93
S'_style'
p94
S'font-weight:bold;vertical-align:top'
p95
ssg83
g86
sg76
(lp96
S'ajax'
p97
asbag69
(g90
g71
NtRp98
(dp99
g74
(dp100
S'_valign'
p101
S'top'
p102
ssg83
g86
sg76
(lp103
S':'
asbag69
(g90
g71
NtRp104
(dp105
g74
(dp106
sg83
g86
sg76
(lp107
g69
(g70
g71
NtRp108
(dp109
g74
(dp110
g82
I5
ssg83
g104
sg76
(lp111
S'False'
p112
asbasbasbag69
(g85
g71
NtRp113
(dp114
g74
(dp115
sg83
g79
sg76
(lp116
g69
(g90
g71
NtRp117
(dp118
g74
(dp119
g94
g95
ssg83
g113
sg76
(lp120
S'application'
p121
asbag69
(g90
g71
NtRp122
(dp123
g74
(dp124
g101
g102
ssg83
g113
sg76
(lp125
S':'
asbag69
(g90
g71
NtRp126
(dp127
g74
(dp128
sg83
g113
sg76
(lp129
g69
(g70
g71
NtRp130
(dp131
g74
(dp132
g82
I5
ssg83
g126
sg76
(lp133
S'BuySell'
p134
asbasbasbag69
(g85
g71
NtRp135
(dp136
g74
(dp137
sg83
g79
sg76
(lp138
g69
(g90
g71
NtRp139
(dp140
g74
(dp141
g94
g95
ssg83
g135
sg76
(lp142
g52
asbag69
(g90
g71
NtRp143
(dp144
g74
(dp145
g101
g102
ssg83
g135
sg76
(lp146
S':'
asbag69
(g90
g71
NtRp147
(dp148
g74
(dp149
sg83
g135
sg76
(lp150
g69
(g70
g71
NtRp151
(dp152
g74
(dp153
g82
I5
ssg83
g147
sg76
(lp154
g69
(g78
g71
NtRp155
(dp156
g74
(dp157
g82
I4
ssg83
Nsg76
(lp158
sbasbasbasbag69
(g85
g71
NtRp159
(dp160
g74
(dp161
sg83
g79
sg76
(lp162
g69
(g90
g71
NtRp163
(dp164
g74
(dp165
g94
g95
ssg83
g159
sg76
(lp166
S'body'
p167
asbag69
(g90
g71
NtRp168
(dp169
g74
(dp170
g101
g102
ssg83
g159
sg76
(lp171
S':'
asbag69
(g90
g71
NtRp172
(dp173
g74
(dp174
sg83
g159
sg76
(lp175
g69
(g70
g71
NtRp176
(dp177
g74
(dp178
g82
I5
ssg83
g172
sg76
(lp179
S'<cStringIO.StringO object at 0xacec380>'
p180
asbasbasbag69
(g85
g71
NtRp181
(dp182
g74
(dp183
sg83
g79
sg76
(lp184
g69
(g90
g71
NtRp185
(dp186
g74
(dp187
g94
g95
ssg83
g181
sg76
(lp188
S'cid'
p189
asbag69
(g90
g71
NtRp190
(dp191
g74
(dp192
g101
g102
ssg83
g181
sg76
(lp193
S':'
asbag69
(g90
g71
NtRp194
(dp195
g74
(dp196
sg83
g181
sg76
(lp197
g69
(g70
g71
NtRp198
(dp199
g74
(dp200
g82
I5
ssg83
g194
sg76
(lp201
S'None'
p202
asbasbasbag69
(g85
g71
NtRp203
(dp204
g74
(dp205
sg83
g79
sg76
(lp206
g69
(g90
g71
NtRp207
(dp208
g74
(dp209
g94
g95
ssg83
g203
sg76
(lp210
S'client'
p211
asbag69
(g90
g71
NtRp212
(dp213
g74
(dp214
g101
g102
ssg83
g203
sg76
(lp215
S':'
asbag69
(g90
g71
NtRp216
(dp217
g74
(dp218
sg83
g203
sg76
(lp219
g69
(g70
g71
NtRp220
(dp221
g74
(dp222
g82
I5
ssg83
g216
sg76
(lp223
S'127.0.0.1'
p224
asbasbasbag69
(g85
g71
NtRp225
(dp226
g74
(dp227
sg83
g79
sg76
(lp228
g69
(g90
g71
NtRp229
(dp230
g74
(dp231
g94
g95
ssg83
g225
sg76
(lp232
S'controller'
p233
asbag69
(g90
g71
NtRp234
(dp235
g74
(dp236
g101
g102
ssg83
g225
sg76
(lp237
S':'
asbag69
(g90
g71
NtRp238
(dp239
g74
(dp240
sg83
g225
sg76
(lp241
g69
(g70
g71
NtRp242
(dp243
g74
(dp244
g82
I5
ssg83
g238
sg76
(lp245
S'default'
p246
asbasbasbag69
(g85
g71
NtRp247
(dp248
g74
(dp249
sg83
g79
sg76
(lp250
g69
(g90
g71
NtRp251
(dp252
g74
(dp253
g94
g95
ssg83
g247
sg76
(lp254
S'cookies'
p255
asbag69
(g90
g71
NtRp256
(dp257
g74
(dp258
g101
g102
ssg83
g247
sg76
(lp259
S':'
asbag69
(g90
g71
NtRp260
(dp261
g74
(dp262
sg83
g247
sg76
(lp263
g69
(g70
g71
NtRp264
(dp265
g74
(dp266
g82
I5
ssg83
g260
sg76
(lp267
g69
(g78
g71
NtRp268
(dp269
g74
(dp270
g82
I4
ssg83
Nsg76
(lp271
g69
(g85
g71
NtRp272
(dp273
g74
(dp274
sg83
g268
sg76
(lp275
g69
(g90
g71
NtRp276
(dp277
g74
(dp278
g94
g95
ssg83
g272
sg76
(lp279
S'registered'
p280
asbag69
(g90
g71
NtRp281
(dp282
g74
(dp283
g101
g102
ssg83
g272
sg76
(lp284
S':'
asbag69
(g90
g71
NtRp285
(dp286
g74
(dp287
sg83
g272
sg76
(lp288
g69
(g70
g71
NtRp289
(dp290
g74
(dp291
g82
I4
ssg83
g285
sg76
(lp292
S'yes'
p293
ag69
(g78
g71
NtRp294
(dp295
g74
(dp296
g82
I3
ssg83
Nsg76
(lp297
g69
(g85
g71
NtRp298
(dp299
g74
(dp300
sg83
g294
sg76
(lp301
g69
(g90
g71
NtRp302
(dp303
g74
(dp304
g94
g95
ssg83
g298
sg76
(lp305
S'comment'
p306
asbag69
(g90
g71
NtRp307
(dp308
g74
(dp309
g101
g102
ssg83
g298
sg76
(lp310
S':'
asbag69
(g90
g71
NtRp311
(dp312
g74
(dp313
sg83
g298
sg76
(lp314
g69
(g70
g71
NtRp315
(dp316
g74
(dp317
g82
I3
ssg83
g311
sg76
(lp318
S''
asbasbasbag69
(g85
g71
NtRp319
(dp320
g74
(dp321
sg83
g294
sg76
(lp322
g69
(g90
g71
NtRp323
(dp324
g74
(dp325
g94
g95
ssg83
g319
sg76
(lp326
S'domain'
p327
asbag69
(g90
g71
NtRp328
(dp329
g74
(dp330
g101
g102
ssg83
g319
sg76
(lp331
S':'
asbag69
(g90
g71
NtRp332
(dp333
g74
(dp334
sg83
g319
sg76
(lp335
g69
(g70
g71
NtRp336
(dp337
g74
(dp338
g82
I3
ssg83
g332
sg76
(lp339
S''
asbasbasbag69
(g85
g71
NtRp340
(dp341
g74
(dp342
sg83
g294
sg76
(lp343
g69
(g90
g71
NtRp344
(dp345
g74
(dp346
g94
g95
ssg83
g340
sg76
(lp347
S'expires'
p348
asbag69
(g90
g71
NtRp349
(dp350
g74
(dp351
g101
g102
ssg83
g340
sg76
(lp352
S':'
asbag69
(g90
g71
NtRp353
(dp354
g74
(dp355
sg83
g340
sg76
(lp356
g69
(g70
g71
NtRp357
(dp358
g74
(dp359
g82
I3
ssg83
g353
sg76
(lp360
S''
asbasbasbag69
(g85
g71
NtRp361
(dp362
g74
(dp363
sg83
g294
sg76
(lp364
g69
(g90
g71
NtRp365
(dp366
g74
(dp367
g94
g95
ssg83
g361
sg76
(lp368
S'httponly'
p369
asbag69
(g90
g71
NtRp370
(dp371
g74
(dp372
g101
g102
ssg83
g361
sg76
(lp373
S':'
asbag69
(g90
g71
NtRp374
(dp375
g74
(dp376
sg83
g361
sg76
(lp377
g69
(g70
g71
NtRp378
(dp379
g74
(dp380
g82
I3
ssg83
g374
sg76
(lp381
S''
asbasbasbag69
(g85
g71
NtRp382
(dp383
g74
(dp384
sg83
g294
sg76
(lp385
g69
(g90
g71
NtRp386
(dp387
g74
(dp388
g94
g95
ssg83
g382
sg76
(lp389
S'max-age'
p390
asbag69
(g90
g71
NtRp391
(dp392
g74
(dp393
g101
g102
ssg83
g382
sg76
(lp394
S':'
asbag69
(g90
g71
NtRp395
(dp396
g74
(dp397
sg83
g382
sg76
(lp398
g69
(g70
g71
NtRp399
(dp400
g74
(dp401
g82
I3
ssg83
g395
sg76
(lp402
S''
asbasbasbag69
(g85
g71
NtRp403
(dp404
g74
(dp405
sg83
g294
sg76
(lp406
g69
(g90
g71
NtRp407
(dp408
g74
(dp409
g94
g95
ssg83
g403
sg76
(lp410
S'path'
p411
asbag69
(g90
g71
NtRp412
(dp413
g74
(dp414
g101
g102
ssg83
g403
sg76
(lp415
S':'
asbag69
(g90
g71
NtRp416
(dp417
g74
(dp418
sg83
g403
sg76
(lp419
g69
(g70
g71
NtRp420
(dp421
g74
(dp422
g82
I3
ssg83
g416
sg76
(lp423
S''
asbasbasbag69
(g85
g71
NtRp424
(dp425
g74
(dp426
sg83
g294
sg76
(lp427
g69
(g90
g71
NtRp428
(dp429
g74
(dp430
g94
g95
ssg83
g424
sg76
(lp431
S'secure'
p432
asbag69
(g90
g71
NtRp433
(dp434
g74
(dp435
g101
g102
ssg83
g424
sg76
(lp436
S':'
asbag69
(g90
g71
NtRp437
(dp438
g74
(dp439
sg83
g424
sg76
(lp440
g69
(g70
g71
NtRp441
(dp442
g74
(dp443
g82
I3
ssg83
g437
sg76
(lp444
S''
asbasbasbag69
(g85
g71
NtRp445
(dp446
g74
(dp447
sg83
g294
sg76
(lp448
g69
(g90
g71
NtRp449
(dp450
g74
(dp451
g94
g95
ssg83
g445
sg76
(lp452
S'version'
p453
asbag69
(g90
g71
NtRp454
(dp455
g74
(dp456
g101
g102
ssg83
g445
sg76
(lp457
S':'
asbag69
(g90
g71
NtRp458
(dp459
g74
(dp460
sg83
g445
sg76
(lp461
g69
(g70
g71
NtRp462
(dp463
g74
(dp464
g82
I3
ssg83
g458
sg76
(lp465
S''
asbasbasbasbasbasbasbag69
(g85
g71
NtRp466
(dp467
g74
(dp468
sg83
g268
sg76
(lp469
g69
(g90
g71
NtRp470
(dp471
g74
(dp472
g94
g95
ssg83
g466
sg76
(lp473
S'session_id_admin'
p474
asbag69
(g90
g71
NtRp475
(dp476
g74
(dp477
g101
g102
ssg83
g466
sg76
(lp478
S':'
asbag69
(g90
g71
NtRp479
(dp480
g74
(dp481
sg83
g466
sg76
(lp482
g69
(g70
g71
NtRp483
(dp484
g74
(dp485
g82
I4
ssg83
g479
sg76
(lp486
S'127.0.0.1-5c3e6318-3a14-4ff1-97a6-1063e44c4cd9'
p487
ag69
(g78
g71
NtRp488
(dp489
g74
(dp490
g82
I3
ssg83
Nsg76
(lp491
g69
(g85
g71
NtRp492
(dp493
g74
(dp494
sg83
g488
sg76
(lp495
g69
(g90
g71
NtRp496
(dp497
g74
(dp498
g94
g95
ssg83
g492
sg76
(lp499
g306
asbag69
(g90
g71
NtRp500
(dp501
g74
(dp502
g101
g102
ssg83
g492
sg76
(lp503
S':'
asbag69
(g90
g71
NtRp504
(dp505
g74
(dp506
sg83
g492
sg76
(lp507
g69
(g70
g71
NtRp508
(dp509
g74
(dp510
g82
I3
ssg83
g504
sg76
(lp511
S''
asbasbasbag69
(g85
g71
NtRp512
(dp513
g74
(dp514
sg83
g488
sg76
(lp515
g69
(g90
g71
NtRp516
(dp517
g74
(dp518
g94
g95
ssg83
g512
sg76
(lp519
g327
asbag69
(g90
g71
NtRp520
(dp521
g74
(dp522
g101
g102
ssg83
g512
sg76
(lp523
S':'
asbag69
(g90
g71
NtRp524
(dp525
g74
(dp526
sg83
g512
sg76
(lp527
g69
(g70
g71
NtRp528
(dp529
g74
(dp530
g82
I3
ssg83
g524
sg76
(lp531
S''
asbasbasbag69
(g85
g71
NtRp532
(dp533
g74
(dp534
sg83
g488
sg76
(lp535
g69
(g90
g71
NtRp536
(dp537
g74
(dp538
g94
g95
ssg83
g532
sg76
(lp539
g348
asbag69
(g90
g71
NtRp540
(dp541
g74
(dp542
g101
g102
ssg83
g532
sg76
(lp543
S':'
asbag69
(g90
g71
NtRp544
(dp545
g74
(dp546
sg83
g532
sg76
(lp547
g69
(g70
g71
NtRp548
(dp549
g74
(dp550
g82
I3
ssg83
g544
sg76
(lp551
S''
asbasbasbag69
(g85
g71
NtRp552
(dp553
g74
(dp554
sg83
g488
sg76
(lp555
g69
(g90
g71
NtRp556
(dp557
g74
(dp558
g94
g95
ssg83
g552
sg76
(lp559
g369
asbag69
(g90
g71
NtRp560
(dp561
g74
(dp562
g101
g102
ssg83
g552
sg76
(lp563
S':'
asbag69
(g90
g71
NtRp564
(dp565
g74
(dp566
sg83
g552
sg76
(lp567
g69
(g70
g71
NtRp568
(dp569
g74
(dp570
g82
I3
ssg83
g564
sg76
(lp571
S''
asbasbasbag69
(g85
g71
NtRp572
(dp573
g74
(dp574
sg83
g488
sg76
(lp575
g69
(g90
g71
NtRp576
(dp577
g74
(dp578
g94
g95
ssg83
g572
sg76
(lp579
g390
asbag69
(g90
g71
NtRp580
(dp581
g74
(dp582
g101
g102
ssg83
g572
sg76
(lp583
S':'
asbag69
(g90
g71
NtRp584
(dp585
g74
(dp586
sg83
g572
sg76
(lp587
g69
(g70
g71
NtRp588
(dp589
g74
(dp590
g82
I3
ssg83
g584
sg76
(lp591
S''
asbasbasbag69
(g85
g71
NtRp592
(dp593
g74
(dp594
sg83
g488
sg76
(lp595
g69
(g90
g71
NtRp596
(dp597
g74
(dp598
g94
g95
ssg83
g592
sg76
(lp599
g411
asbag69
(g90
g71
NtRp600
(dp601
g74
(dp602
g101
g102
ssg83
g592
sg76
(lp603
S':'
asbag69
(g90
g71
NtRp604
(dp605
g74
(dp606
sg83
g592
sg76
(lp607
g69
(g70
g71
NtRp608
(dp609
g74
(dp610
g82
I3
ssg83
g604
sg76
(lp611
S''
asbasbasbag69
(g85
g71
NtRp612
(dp613
g74
(dp614
sg83
g488
sg76
(lp615
g69
(g90
g71
NtRp616
(dp617
g74
(dp618
g94
g95
ssg83
g612
sg76
(lp619
g432
asbag69
(g90
g71
NtRp620
(dp621
g74
(dp622
g101
g102
ssg83
g612
sg76
(lp623
S':'
asbag69
(g90
g71
NtRp624
(dp625
g74
(dp626
sg83
g612
sg76
(lp627
g69
(g70
g71
NtRp628
(dp629
g74
(dp630
g82
I3
ssg83
g624
sg76
(lp631
S''
asbasbasbag69
(g85
g71
NtRp632
(dp633
g74
(dp634
sg83
g488
sg76
(lp635
g69
(g90
g71
NtRp636
(dp637
g74
(dp638
g94
g95
ssg83
g632
sg76
(lp639
g453
asbag69
(g90
g71
NtRp640
(dp641
g74
(dp642
g101
g102
ssg83
g632
sg76
(lp643
S':'
asbag69
(g90
g71
NtRp644
(dp645
g74
(dp646
sg83
g632
sg76
(lp647
g69
(g70
g71
NtRp648
(dp649
g74
(dp650
g82
I3
ssg83
g644
sg76
(lp651
S''
asbasbasbasbasbasbasbag69
(g85
g71
NtRp652
(dp653
g74
(dp654
sg83
g268
sg76
(lp655
g69
(g90
g71
NtRp656
(dp657
g74
(dp658
g94
g95
ssg83
g652
sg76
(lp659
S'session_id_buysell'
p660
asbag69
(g90
g71
NtRp661
(dp662
g74
(dp663
g101
g102
ssg83
g652
sg76
(lp664
S':'
asbag69
(g90
g71
NtRp665
(dp666
g74
(dp667
sg83
g652
sg76
(lp668
g69
(g70
g71
NtRp669
(dp670
g74
(dp671
g82
I4
ssg83
g665
sg76
(lp672
S'127.0.0.1-d5a07803-4f5c-44c8-b05d-2876d30ca822'
p673
ag69
(g78
g71
NtRp674
(dp675
g74
(dp676
g82
I3
ssg83
Nsg76
(lp677
g69
(g85
g71
NtRp678
(dp679
g74
(dp680
sg83
g674
sg76
(lp681
g69
(g90
g71
NtRp682
(dp683
g74
(dp684
g94
g95
ssg83
g678
sg76
(lp685
g306
asbag69
(g90
g71
NtRp686
(dp687
g74
(dp688
g101
g102
ssg83
g678
sg76
(lp689
S':'
asbag69
(g90
g71
NtRp690
(dp691
g74
(dp692
sg83
g678
sg76
(lp693
g69
(g70
g71
NtRp694
(dp695
g74
(dp696
g82
I3
ssg83
g690
sg76
(lp697
S''
asbasbasbag69
(g85
g71
NtRp698
(dp699
g74
(dp700
sg83
g674
sg76
(lp701
g69
(g90
g71
NtRp702
(dp703
g74
(dp704
g94
g95
ssg83
g698
sg76
(lp705
g327
asbag69
(g90
g71
NtRp706
(dp707
g74
(dp708
g101
g102
ssg83
g698
sg76
(lp709
S':'
asbag69
(g90
g71
NtRp710
(dp711
g74
(dp712
sg83
g698
sg76
(lp713
g69
(g70
g71
NtRp714
(dp715
g74
(dp716
g82
I3
ssg83
g710
sg76
(lp717
S''
asbasbasbag69
(g85
g71
NtRp718
(dp719
g74
(dp720
sg83
g674
sg76
(lp721
g69
(g90
g71
NtRp722
(dp723
g74
(dp724
g94
g95
ssg83
g718
sg76
(lp725
g348
asbag69
(g90
g71
NtRp726
(dp727
g74
(dp728
g101
g102
ssg83
g718
sg76
(lp729
S':'
asbag69
(g90
g71
NtRp730
(dp731
g74
(dp732
sg83
g718
sg76
(lp733
g69
(g70
g71
NtRp734
(dp735
g74
(dp736
g82
I3
ssg83
g730
sg76
(lp737
S''
asbasbasbag69
(g85
g71
NtRp738
(dp739
g74
(dp740
sg83
g674
sg76
(lp741
g69
(g90
g71
NtRp742
(dp743
g74
(dp744
g94
g95
ssg83
g738
sg76
(lp745
g369
asbag69
(g90
g71
NtRp746
(dp747
g74
(dp748
g101
g102
ssg83
g738
sg76
(lp749
S':'
asbag69
(g90
g71
NtRp750
(dp751
g74
(dp752
sg83
g738
sg76
(lp753
g69
(g70
g71
NtRp754
(dp755
g74
(dp756
g82
I3
ssg83
g750
sg76
(lp757
S''
asbasbasbag69
(g85
g71
NtRp758
(dp759
g74
(dp760
sg83
g674
sg76
(lp761
g69
(g90
g71
NtRp762
(dp763
g74
(dp764
g94
g95
ssg83
g758
sg76
(lp765
g390
asbag69
(g90
g71
NtRp766
(dp767
g74
(dp768
g101
g102
ssg83
g758
sg76
(lp769
S':'
asbag69
(g90
g71
NtRp770
(dp771
g74
(dp772
sg83
g758
sg76
(lp773
g69
(g70
g71
NtRp774
(dp775
g74
(dp776
g82
I3
ssg83
g770
sg76
(lp777
S''
asbasbasbag69
(g85
g71
NtRp778
(dp779
g74
(dp780
sg83
g674
sg76
(lp781
g69
(g90
g71
NtRp782
(dp783
g74
(dp784
g94
g95
ssg83
g778
sg76
(lp785
g411
asbag69
(g90
g71
NtRp786
(dp787
g74
(dp788
g101
g102
ssg83
g778
sg76
(lp789
S':'
asbag69
(g90
g71
NtRp790
(dp791
g74
(dp792
sg83
g778
sg76
(lp793
g69
(g70
g71
NtRp794
(dp795
g74
(dp796
g82
I3
ssg83
g790
sg76
(lp797
S''
asbasbasbag69
(g85
g71
NtRp798
(dp799
g74
(dp800
sg83
g674
sg76
(lp801
g69
(g90
g71
NtRp802
(dp803
g74
(dp804
g94
g95
ssg83
g798
sg76
(lp805
g432
asbag69
(g90
g71
NtRp806
(dp807
g74
(dp808
g101
g102
ssg83
g798
sg76
(lp809
S':'
asbag69
(g90
g71
NtRp810
(dp811
g74
(dp812
sg83
g798
sg76
(lp813
g69
(g70
g71
NtRp814
(dp815
g74
(dp816
g82
I3
ssg83
g810
sg76
(lp817
S''
asbasbasbag69
(g85
g71
NtRp818
(dp819
g74
(dp820
sg83
g674
sg76
(lp821
g69
(g90
g71
NtRp822
(dp823
g74
(dp824
g94
g95
ssg83
g818
sg76
(lp825
g453
asbag69
(g90
g71
NtRp826
(dp827
g74
(dp828
g101
g102
ssg83
g818
sg76
(lp829
S':'
asbag69
(g90
g71
NtRp830
(dp831
g74
(dp832
sg83
g818
sg76
(lp833
g69
(g70
g71
NtRp834
(dp835
g74
(dp836
g82
I3
ssg83
g830
sg76
(lp837
S''
asbasbasbasbasbasbasbag69
(g85
g71
NtRp838
(dp839
g74
(dp840
sg83
g268
sg76
(lp841
g69
(g90
g71
NtRp842
(dp843
g74
(dp844
g94
g95
ssg83
g838
sg76
(lp845
S'session_id_music_library'
p846
asbag69
(g90
g71
NtRp847
(dp848
g74
(dp849
g101
g102
ssg83
g838
sg76
(lp850
S':'
asbag69
(g90
g71
NtRp851
(dp852
g74
(dp853
sg83
g838
sg76
(lp854
g69
(g70
g71
NtRp855
(dp856
g74
(dp857
g82
I4
ssg83
g851
sg76
(lp858
S'127.0.0.1-dd9b4880-33cf-4894-a8a9-2640c5c78a01'
p859
ag69
(g78
g71
NtRp860
(dp861
g74
(dp862
g82
I3
ssg83
Nsg76
(lp863
g69
(g85
g71
NtRp864
(dp865
g74
(dp866
sg83
g860
sg76
(lp867
g69
(g90
g71
NtRp868
(dp869
g74
(dp870
g94
g95
ssg83
g864
sg76
(lp871
g306
asbag69
(g90
g71
NtRp872
(dp873
g74
(dp874
g101
g102
ssg83
g864
sg76
(lp875
S':'
asbag69
(g90
g71
NtRp876
(dp877
g74
(dp878
sg83
g864
sg76
(lp879
g69
(g70
g71
NtRp880
(dp881
g74
(dp882
g82
I3
ssg83
g876
sg76
(lp883
S''
asbasbasbag69
(g85
g71
NtRp884
(dp885
g74
(dp886
sg83
g860
sg76
(lp887
g69
(g90
g71
NtRp888
(dp889
g74
(dp890
g94
g95
ssg83
g884
sg76
(lp891
g327
asbag69
(g90
g71
NtRp892
(dp893
g74
(dp894
g101
g102
ssg83
g884
sg76
(lp895
S':'
asbag69
(g90
g71
NtRp896
(dp897
g74
(dp898
sg83
g884
sg76
(lp899
g69
(g70
g71
NtRp900
(dp901
g74
(dp902
g82
I3
ssg83
g896
sg76
(lp903
S''
asbasbasbag69
(g85
g71
NtRp904
(dp905
g74
(dp906
sg83
g860
sg76
(lp907
g69
(g90
g71
NtRp908
(dp909
g74
(dp910
g94
g95
ssg83
g904
sg76
(lp911
g348
asbag69
(g90
g71
NtRp912
(dp913
g74
(dp914
g101
g102
ssg83
g904
sg76
(lp915
S':'
asbag69
(g90
g71
NtRp916
(dp917
g74
(dp918
sg83
g904
sg76
(lp919
g69
(g70
g71
NtRp920
(dp921
g74
(dp922
g82
I3
ssg83
g916
sg76
(lp923
S''
asbasbasbag69
(g85
g71
NtRp924
(dp925
g74
(dp926
sg83
g860
sg76
(lp927
g69
(g90
g71
NtRp928
(dp929
g74
(dp930
g94
g95
ssg83
g924
sg76
(lp931
g369
asbag69
(g90
g71
NtRp932
(dp933
g74
(dp934
g101
g102
ssg83
g924
sg76
(lp935
S':'
asbag69
(g90
g71
NtRp936
(dp937
g74
(dp938
sg83
g924
sg76
(lp939
g69
(g70
g71
NtRp940
(dp941
g74
(dp942
g82
I3
ssg83
g936
sg76
(lp943
S''
asbasbasbag69
(g85
g71
NtRp944
(dp945
g74
(dp946
sg83
g860
sg76
(lp947
g69
(g90
g71
NtRp948
(dp949
g74
(dp950
g94
g95
ssg83
g944
sg76
(lp951
g390
asbag69
(g90
g71
NtRp952
(dp953
g74
(dp954
g101
g102
ssg83
g944
sg76
(lp955
S':'
asbag69
(g90
g71
NtRp956
(dp957
g74
(dp958
sg83
g944
sg76
(lp959
g69
(g70
g71
NtRp960
(dp961
g74
(dp962
g82
I3
ssg83
g956
sg76
(lp963
S''
asbasbasbag69
(g85
g71
NtRp964
(dp965
g74
(dp966
sg83
g860
sg76
(lp967
g69
(g90
g71
NtRp968
(dp969
g74
(dp970
g94
g95
ssg83
g964
sg76
(lp971
g411
asbag69
(g90
g71
NtRp972
(dp973
g74
(dp974
g101
g102
ssg83
g964
sg76
(lp975
S':'
asbag69
(g90
g71
NtRp976
(dp977
g74
(dp978
sg83
g964
sg76
(lp979
g69
(g70
g71
NtRp980
(dp981
g74
(dp982
g82
I3
ssg83
g976
sg76
(lp983
S''
asbasbasbag69
(g85
g71
NtRp984
(dp985
g74
(dp986
sg83
g860
sg76
(lp987
g69
(g90
g71
NtRp988
(dp989
g74
(dp990
g94
g95
ssg83
g984
sg76
(lp991
g432
asbag69
(g90
g71
NtRp992
(dp993
g74
(dp994
g101
g102
ssg83
g984
sg76
(lp995
S':'
asbag69
(g90
g71
NtRp996
(dp997
g74
(dp998
sg83
g984
sg76
(lp999
g69
(g70
g71
NtRp1000
(dp1001
g74
(dp1002
g82
I3
ssg83
g996
sg76
(lp1003
S''
asbasbasbag69
(g85
g71
NtRp1004
(dp1005
g74
(dp1006
sg83
g860
sg76
(lp1007
g69
(g90
g71
NtRp1008
(dp1009
g74
(dp1010
g94
g95
ssg83
g1004
sg76
(lp1011
g453
asbag69
(g90
g71
NtRp1012
(dp1013
g74
(dp1014
g101
g102
ssg83
g1004
sg76
(lp1015
S':'
asbag69
(g90
g71
NtRp1016
(dp1017
g74
(dp1018
sg83
g1004
sg76
(lp1019
g69
(g70
g71
NtRp1020
(dp1021
g74
(dp1022
g82
I3
ssg83
g1016
sg76
(lp1023
S''
asbasbasbasbasbasbasbag69
(g85
g71
NtRp1024
(dp1025
g74
(dp1026
sg83
g268
sg76
(lp1027
g69
(g90
g71
NtRp1028
(dp1029
g74
(dp1030
g94
g95
ssg83
g1024
sg76
(lp1031
S'session_id_outreach'
p1032
asbag69
(g90
g71
NtRp1033
(dp1034
g74
(dp1035
g101
g102
ssg83
g1024
sg76
(lp1036
S':'
asbag69
(g90
g71
NtRp1037
(dp1038
g74
(dp1039
sg83
g1024
sg76
(lp1040
g69
(g70
g71
NtRp1041
(dp1042
g74
(dp1043
g82
I4
ssg83
g1037
sg76
(lp1044
S'127.0.0.1-00c3bb02-539e-4bc1-ab10-e3c500bd1248'
p1045
ag69
(g78
g71
NtRp1046
(dp1047
g74
(dp1048
g82
I3
ssg83
Nsg76
(lp1049
g69
(g85
g71
NtRp1050
(dp1051
g74
(dp1052
sg83
g1046
sg76
(lp1053
g69
(g90
g71
NtRp1054
(dp1055
g74
(dp1056
g94
g95
ssg83
g1050
sg76
(lp1057
g306
asbag69
(g90
g71
NtRp1058
(dp1059
g74
(dp1060
g101
g102
ssg83
g1050
sg76
(lp1061
S':'
asbag69
(g90
g71
NtRp1062
(dp1063
g74
(dp1064
sg83
g1050
sg76
(lp1065
g69
(g70
g71
NtRp1066
(dp1067
g74
(dp1068
g82
I3
ssg83
g1062
sg76
(lp1069
S''
asbasbasbag69
(g85
g71
NtRp1070
(dp1071
g74
(dp1072
sg83
g1046
sg76
(lp1073
g69
(g90
g71
NtRp1074
(dp1075
g74
(dp1076
g94
g95
ssg83
g1070
sg76
(lp1077
g327
asbag69
(g90
g71
NtRp1078
(dp1079
g74
(dp1080
g101
g102
ssg83
g1070
sg76
(lp1081
S':'
asbag69
(g90
g71
NtRp1082
(dp1083
g74
(dp1084
sg83
g1070
sg76
(lp1085
g69
(g70
g71
NtRp1086
(dp1087
g74
(dp1088
g82
I3
ssg83
g1082
sg76
(lp1089
S''
asbasbasbag69
(g85
g71
NtRp1090
(dp1091
g74
(dp1092
sg83
g1046
sg76
(lp1093
g69
(g90
g71
NtRp1094
(dp1095
g74
(dp1096
g94
g95
ssg83
g1090
sg76
(lp1097
g348
asbag69
(g90
g71
NtRp1098
(dp1099
g74
(dp1100
g101
g102
ssg83
g1090
sg76
(lp1101
S':'
asbag69
(g90
g71
NtRp1102
(dp1103
g74
(dp1104
sg83
g1090
sg76
(lp1105
g69
(g70
g71
NtRp1106
(dp1107
g74
(dp1108
g82
I3
ssg83
g1102
sg76
(lp1109
S''
asbasbasbag69
(g85
g71
NtRp1110
(dp1111
g74
(dp1112
sg83
g1046
sg76
(lp1113
g69
(g90
g71
NtRp1114
(dp1115
g74
(dp1116
g94
g95
ssg83
g1110
sg76
(lp1117
g369
asbag69
(g90
g71
NtRp1118
(dp1119
g74
(dp1120
g101
g102
ssg83
g1110
sg76
(lp1121
S':'
asbag69
(g90
g71
NtRp1122
(dp1123
g74
(dp1124
sg83
g1110
sg76
(lp1125
g69
(g70
g71
NtRp1126
(dp1127
g74
(dp1128
g82
I3
ssg83
g1122
sg76
(lp1129
S''
asbasbasbag69
(g85
g71
NtRp1130
(dp1131
g74
(dp1132
sg83
g1046
sg76
(lp1133
g69
(g90
g71
NtRp1134
(dp1135
g74
(dp1136
g94
g95
ssg83
g1130
sg76
(lp1137
g390
asbag69
(g90
g71
NtRp1138
(dp1139
g74
(dp1140
g101
g102
ssg83
g1130
sg76
(lp1141
S':'
asbag69
(g90
g71
NtRp1142
(dp1143
g74
(dp1144
sg83
g1130
sg76
(lp1145
g69
(g70
g71
NtRp1146
(dp1147
g74
(dp1148
g82
I3
ssg83
g1142
sg76
(lp1149
S''
asbasbasbag69
(g85
g71
NtRp1150
(dp1151
g74
(dp1152
sg83
g1046
sg76
(lp1153
g69
(g90
g71
NtRp1154
(dp1155
g74
(dp1156
g94
g95
ssg83
g1150
sg76
(lp1157
g411
asbag69
(g90
g71
NtRp1158
(dp1159
g74
(dp1160
g101
g102
ssg83
g1150
sg76
(lp1161
S':'
asbag69
(g90
g71
NtRp1162
(dp1163
g74
(dp1164
sg83
g1150
sg76
(lp1165
g69
(g70
g71
NtRp1166
(dp1167
g74
(dp1168
g82
I3
ssg83
g1162
sg76
(lp1169
S''
asbasbasbag69
(g85
g71
NtRp1170
(dp1171
g74
(dp1172
sg83
g1046
sg76
(lp1173
g69
(g90
g71
NtRp1174
(dp1175
g74
(dp1176
g94
g95
ssg83
g1170
sg76
(lp1177
g432
asbag69
(g90
g71
NtRp1178
(dp1179
g74
(dp1180
g101
g102
ssg83
g1170
sg76
(lp1181
S':'
asbag69
(g90
g71
NtRp1182
(dp1183
g74
(dp1184
sg83
g1170
sg76
(lp1185
g69
(g70
g71
NtRp1186
(dp1187
g74
(dp1188
g82
I3
ssg83
g1182
sg76
(lp1189
S''
asbasbasbag69
(g85
g71
NtRp1190
(dp1191
g74
(dp1192
sg83
g1046
sg76
(lp1193
g69
(g90
g71
NtRp1194
(dp1195
g74
(dp1196
g94
g95
ssg83
g1190
sg76
(lp1197
g453
asbag69
(g90
g71
NtRp1198
(dp1199
g74
(dp1200
g101
g102
ssg83
g1190
sg76
(lp1201
S':'
asbag69
(g90
g71
NtRp1202
(dp1203
g74
(dp1204
sg83
g1190
sg76
(lp1205
g69
(g70
g71
NtRp1206
(dp1207
g74
(dp1208
g82
I3
ssg83
g1202
sg76
(lp1209
S''
asbasbasbasbasbasbasbag69
(g85
g71
NtRp1210
(dp1211
g74
(dp1212
sg83
g268
sg76
(lp1213
g69
(g90
g71
NtRp1214
(dp1215
g74
(dp1216
g94
g95
ssg83
g1210
sg76
(lp1217
S'session_id_welcome'
p1218
asbag69
(g90
g71
NtRp1219
(dp1220
g74
(dp1221
g101
g102
ssg83
g1210
sg76
(lp1222
S':'
asbag69
(g90
g71
NtRp1223
(dp1224
g74
(dp1225
sg83
g1210
sg76
(lp1226
g69
(g70
g71
NtRp1227
(dp1228
g74
(dp1229
g82
I4
ssg83
g1223
sg76
(lp1230
S'127.0.0.1-9c7bb553-b7cb-4343-8d32-a78739900983'
p1231
ag69
(g78
g71
NtRp1232
(dp1233
g74
(dp1234
g82
I3
ssg83
Nsg76
(lp1235
g69
(g85
g71
NtRp1236
(dp1237
g74
(dp1238
sg83
g1232
sg76
(lp1239
g69
(g90
g71
NtRp1240
(dp1241
g74
(dp1242
g94
g95
ssg83
g1236
sg76
(lp1243
g306
asbag69
(g90
g71
NtRp1244
(dp1245
g74
(dp1246
g101
g102
ssg83
g1236
sg76
(lp1247
S':'
asbag69
(g90
g71
NtRp1248
(dp1249
g74
(dp1250
sg83
g1236
sg76
(lp1251
g69
(g70
g71
NtRp1252
(dp1253
g74
(dp1254
g82
I3
ssg83
g1248
sg76
(lp1255
S''
asbasbasbag69
(g85
g71
NtRp1256
(dp1257
g74
(dp1258
sg83
g1232
sg76
(lp1259
g69
(g90
g71
NtRp1260
(dp1261
g74
(dp1262
g94
g95
ssg83
g1256
sg76
(lp1263
g327
asbag69
(g90
g71
NtRp1264
(dp1265
g74
(dp1266
g101
g102
ssg83
g1256
sg76
(lp1267
S':'
asbag69
(g90
g71
NtRp1268
(dp1269
g74
(dp1270
sg83
g1256
sg76
(lp1271
g69
(g70
g71
NtRp1272
(dp1273
g74
(dp1274
g82
I3
ssg83
g1268
sg76
(lp1275
S''
asbasbasbag69
(g85
g71
NtRp1276
(dp1277
g74
(dp1278
sg83
g1232
sg76
(lp1279
g69
(g90
g71
NtRp1280
(dp1281
g74
(dp1282
g94
g95
ssg83
g1276
sg76
(lp1283
g348
asbag69
(g90
g71
NtRp1284
(dp1285
g74
(dp1286
g101
g102
ssg83
g1276
sg76
(lp1287
S':'
asbag69
(g90
g71
NtRp1288
(dp1289
g74
(dp1290
sg83
g1276
sg76
(lp1291
g69
(g70
g71
NtRp1292
(dp1293
g74
(dp1294
g82
I3
ssg83
g1288
sg76
(lp1295
S''
asbasbasbag69
(g85
g71
NtRp1296
(dp1297
g74
(dp1298
sg83
g1232
sg76
(lp1299
g69
(g90
g71
NtRp1300
(dp1301
g74
(dp1302
g94
g95
ssg83
g1296
sg76
(lp1303
g369
asbag69
(g90
g71
NtRp1304
(dp1305
g74
(dp1306
g101
g102
ssg83
g1296
sg76
(lp1307
S':'
asbag69
(g90
g71
NtRp1308
(dp1309
g74
(dp1310
sg83
g1296
sg76
(lp1311
g69
(g70
g71
NtRp1312
(dp1313
g74
(dp1314
g82
I3
ssg83
g1308
sg76
(lp1315
S''
asbasbasbag69
(g85
g71
NtRp1316
(dp1317
g74
(dp1318
sg83
g1232
sg76
(lp1319
g69
(g90
g71
NtRp1320
(dp1321
g74
(dp1322
g94
g95
ssg83
g1316
sg76
(lp1323
g390
asbag69
(g90
g71
NtRp1324
(dp1325
g74
(dp1326
g101
g102
ssg83
g1316
sg76
(lp1327
S':'
asbag69
(g90
g71
NtRp1328
(dp1329
g74
(dp1330
sg83
g1316
sg76
(lp1331
g69
(g70
g71
NtRp1332
(dp1333
g74
(dp1334
g82
I3
ssg83
g1328
sg76
(lp1335
S''
asbasbasbag69
(g85
g71
NtRp1336
(dp1337
g74
(dp1338
sg83
g1232
sg76
(lp1339
g69
(g90
g71
NtRp1340
(dp1341
g74
(dp1342
g94
g95
ssg83
g1336
sg76
(lp1343
g411
asbag69
(g90
g71
NtRp1344
(dp1345
g74
(dp1346
g101
g102
ssg83
g1336
sg76
(lp1347
S':'
asbag69
(g90
g71
NtRp1348
(dp1349
g74
(dp1350
sg83
g1336
sg76
(lp1351
g69
(g70
g71
NtRp1352
(dp1353
g74
(dp1354
g82
I3
ssg83
g1348
sg76
(lp1355
S''
asbasbasbag69
(g85
g71
NtRp1356
(dp1357
g74
(dp1358
sg83
g1232
sg76
(lp1359
g69
(g90
g71
NtRp1360
(dp1361
g74
(dp1362
g94
g95
ssg83
g1356
sg76
(lp1363
g432
asbag69
(g90
g71
NtRp1364
(dp1365
g74
(dp1366
g101
g102
ssg83
g1356
sg76
(lp1367
S':'
asbag69
(g90
g71
NtRp1368
(dp1369
g74
(dp1370
sg83
g1356
sg76
(lp1371
g69
(g70
g71
NtRp1372
(dp1373
g74
(dp1374
g82
I3
ssg83
g1368
sg76
(lp1375
S''
asbasbasbag69
(g85
g71
NtRp1376
(dp1377
g74
(dp1378
sg83
g1232
sg76
(lp1379
g69
(g90
g71
NtRp1380
(dp1381
g74
(dp1382
g94
g95
ssg83
g1376
sg76
(lp1383
g453
asbag69
(g90
g71
NtRp1384
(dp1385
g74
(dp1386
g101
g102
ssg83
g1376
sg76
(lp1387
S':'
asbag69
(g90
g71
NtRp1388
(dp1389
g74
(dp1390
sg83
g1376
sg76
(lp1391
g69
(g70
g71
NtRp1392
(dp1393
g74
(dp1394
g82
I3
ssg83
g1388
sg76
(lp1395
S''
asbasbasbasbasbasbasbasbasbasbasbag69
(g85
g71
NtRp1396
(dp1397
g74
(dp1398
sg83
g79
sg76
(lp1399
g69
(g90
g71
NtRp1400
(dp1401
g74
(dp1402
g94
g95
ssg83
g1396
sg76
(lp1403
S'env'
p1404
asbag69
(g90
g71
NtRp1405
(dp1406
g74
(dp1407
g101
g102
ssg83
g1396
sg76
(lp1408
S':'
asbag69
(g90
g71
NtRp1409
(dp1410
g74
(dp1411
sg83
g1396
sg76
(lp1412
g69
(g70
g71
NtRp1413
(dp1414
g74
(dp1415
g82
I5
ssg83
g1409
sg76
(lp1416
g69
(g78
g71
NtRp1417
(dp1418
g74
(dp1419
g82
I4
ssg83
Nsg76
(lp1420
g69
(g85
g71
NtRp1421
(dp1422
g74
(dp1423
sg83
g1417
sg76
(lp1424
g69
(g90
g71
NtRp1425
(dp1426
g74
(dp1427
g94
g95
ssg83
g1421
sg76
(lp1428
S'app_folders'
p1429
asbag69
(g90
g71
NtRp1430
(dp1431
g74
(dp1432
g101
g102
ssg83
g1421
sg76
(lp1433
S':'
asbag69
(g90
g71
NtRp1434
(dp1435
g74
(dp1436
sg83
g1421
sg76
(lp1437
g69
(g70
g71
NtRp1438
(dp1439
g74
(dp1440
g82
I4
ssg83
g1434
sg76
(lp1441
S"set(['/home/pratyush/web2py/applications/music_library/', '/home/pratyush/web2py/applications/admin/', '/home/pratyush/web2py/applications/BuySell/', '/home/pratyush/web2py/applications/db_project/'])"
p1442
asbasbasbag69
(g85
g71
NtRp1443
(dp1444
g74
(dp1445
sg83
g1417
sg76
(lp1446
g69
(g90
g71
NtRp1447
(dp1448
g74
(dp1449
g94
g95
ssg83
g1443
sg76
(lp1450
S'applications_parent'
p1451
asbag69
(g90
g71
NtRp1452
(dp1453
g74
(dp1454
g101
g102
ssg83
g1443
sg76
(lp1455
S':'
asbag69
(g90
g71
NtRp1456
(dp1457
g74
(dp1458
sg83
g1443
sg76
(lp1459
g69
(g70
g71
NtRp1460
(dp1461
g74
(dp1462
g82
I4
ssg83
g1456
sg76
(lp1463
S'/home/pratyush/web2py'
p1464
asbasbasbag69
(g85
g71
NtRp1465
(dp1466
g74
(dp1467
sg83
g1417
sg76
(lp1468
g69
(g90
g71
NtRp1469
(dp1470
g74
(dp1471
g94
g95
ssg83
g1465
sg76
(lp1472
S'cmd_args'
p1473
asbag69
(g90
g71
NtRp1474
(dp1475
g74
(dp1476
g101
g102
ssg83
g1465
sg76
(lp1477
S':'
asbag69
(g90
g71
NtRp1478
(dp1479
g74
(dp1480
sg83
g1465
sg76
(lp1481
g69
(g70
g71
NtRp1482
(dp1483
g74
(dp1484
g82
I4
ssg83
g1478
sg76
(lp1485
g69
(g78
g71
NtRp1486
(dp1487
g74
(dp1488
g82
I3
ssg83
Nsg76
(lp1489
sbasbasbasbag69
(g85
g71
NtRp1490
(dp1491
g74
(dp1492
sg83
g1417
sg76
(lp1493
g69
(g90
g71
NtRp1494
(dp1495
g74
(dp1496
g94
g95
ssg83
g1490
sg76
(lp1497
S'cmd_options'
p1498
asbag69
(g90
g71
NtRp1499
(dp1500
g74
(dp1501
g101
g102
ssg83
g1490
sg76
(lp1502
S':'
asbag69
(g90
g71
NtRp1503
(dp1504
g74
(dp1505
sg83
g1490
sg76
(lp1506
g69
(g70
g71
NtRp1507
(dp1508
g74
(dp1509
g82
I4
ssg83
g1503
sg76
(lp1510
S"<Values at 0xa526b0c: {'verbose': False, 'ip': '127.0.0.1', 'with_scheduler': False, 'ips': [], 'shutdown_timeout': 5, 'taskbar': False, 'port': 8001, 'maxthreads': None, 'softcron': False, 'server_name': 'alanzak', 'bpython': False, 'nogui': False, 'pid_filename': 'httpserver.pid', 'extcron': False, 'runcron': False, 'run_system_tests': False, 'test': None, 'folder': '/home/pratyush/web2py', 'config': '', 'import_models': False, 'winservice': '', 'shell': None, 'run': '', 'log_filename': 'httpserver.log', 'debuglevel': 30, 'args': [''], 'socket_timeout': 5, 'ssl_ca_certificate': None, 'scheduler': None, 'profiler_filename': None, 'ssl_private_key': '', 'scheduler_groups': None, 'password': '1', 'request_queue_size': 5, 'ssl_certificate': '', 'cronjob': False, 'numthreads': None, 'quiet': False, 'interfaces': None, 'minthreads': None, 'timeout': 10, 'plain': False, 'nobanner': False}>"
p1511
asbasbasbag69
(g85
g71
NtRp1512
(dp1513
g74
(dp1514
sg83
g1417
sg76
(lp1515
g69
(g90
g71
NtRp1516
(dp1517
g74
(dp1518
g94
g95
ssg83
g1512
sg76
(lp1519
S'db_sessions'
p1520
asbag69
(g90
g71
NtRp1521
(dp1522
g74
(dp1523
g101
g102
ssg83
g1512
sg76
(lp1524
S':'
asbag69
(g90
g71
NtRp1525
(dp1526
g74
(dp1527
sg83
g1512
sg76
(lp1528
g69
(g70
g71
NtRp1529
(dp1530
g74
(dp1531
g82
I4
ssg83
g1525
sg76
(lp1532
S'set([])'
p1533
asbasbasbag69
(g85
g71
NtRp1534
(dp1535
g74
(dp1536
sg83
g1417
sg76
(lp1537
g69
(g90
g71
NtRp1538
(dp1539
g74
(dp1540
g94
g95
ssg83
g1534
sg76
(lp1541
S'debugging'
p1542
asbag69
(g90
g71
NtRp1543
(dp1544
g74
(dp1545
g101
g102
ssg83
g1534
sg76
(lp1546
S':'
asbag69
(g90
g71
NtRp1547
(dp1548
g74
(dp1549
sg83
g1534
sg76
(lp1550
g69
(g70
g71
NtRp1551
(dp1552
g74
(dp1553
g82
I4
ssg83
g1547
sg76
(lp1554
g112
asbasbasbag69
(g85
g71
NtRp1555
(dp1556
g74
(dp1557
sg83
g1417
sg76
(lp1558
g69
(g90
g71
NtRp1559
(dp1560
g74
(dp1561
g94
g95
ssg83
g1555
sg76
(lp1562
S'gluon_parent'
p1563
asbag69
(g90
g71
NtRp1564
(dp1565
g74
(dp1566
g101
g102
ssg83
g1555
sg76
(lp1567
S':'
asbag69
(g90
g71
NtRp1568
(dp1569
g74
(dp1570
sg83
g1555
sg76
(lp1571
g69
(g70
g71
NtRp1572
(dp1573
g74
(dp1574
g82
I4
ssg83
g1568
sg76
(lp1575
S'/home/pratyush/web2py'
p1576
asbasbasbag69
(g85
g71
NtRp1577
(dp1578
g74
(dp1579
sg83
g1417
sg76
(lp1580
g69
(g90
g71
NtRp1581
(dp1582
g74
(dp1583
g94
g95
ssg83
g1577
sg76
(lp1584
S'http_accept'
p1585
asbag69
(g90
g71
NtRp1586
(dp1587
g74
(dp1588
g101
g102
ssg83
g1577
sg76
(lp1589
S':'
asbag69
(g90
g71
NtRp1590
(dp1591
g74
(dp1592
sg83
g1577
sg76
(lp1593
g69
(g70
g71
NtRp1594
(dp1595
g74
(dp1596
g82
I4
ssg83
g1590
sg76
(lp1597
S'text/html,application/xhtml+xml,application/xml;q=0.9,*/*;q=0.8'
p1598
asbasbasbag69
(g85
g71
NtRp1599
(dp1600
g74
(dp1601
sg83
g1417
sg76
(lp1602
g69
(g90
g71
NtRp1603
(dp1604
g74
(dp1605
g94
g95
ssg83
g1599
sg76
(lp1606
S'http_accept_charset'
p1607
asbag69
(g90
g71
NtRp1608
(dp1609
g74
(dp1610
g101
g102
ssg83
g1599
sg76
(lp1611
S':'
asbag69
(g90
g71
NtRp1612
(dp1613
g74
(dp1614
sg83
g1599
sg76
(lp1615
g69
(g70
g71
NtRp1616
(dp1617
g74
(dp1618
g82
I4
ssg83
g1612
sg76
(lp1619
S'ISO-8859-1,utf-8;q=0.7,*;q=0.3'
p1620
asbasbasbag69
(g85
g71
NtRp1621
(dp1622
g74
(dp1623
sg83
g1417
sg76
(lp1624
g69
(g90
g71
NtRp1625
(dp1626
g74
(dp1627
g94
g95
ssg83
g1621
sg76
(lp1628
S'http_accept_encoding'
p1629
asbag69
(g90
g71
NtRp1630
(dp1631
g74
(dp1632
g101
g102
ssg83
g1621
sg76
(lp1633
S':'
asbag69
(g90
g71
NtRp1634
(dp1635
g74
(dp1636
sg83
g1621
sg76
(lp1637
g69
(g70
g71
NtRp1638
(dp1639
g74
(dp1640
g82
I4
ssg83
g1634
sg76
(lp1641
S'gzip,deflate,sdch'
p1642
asbasbasbag69
(g85
g71
NtRp1643
(dp1644
g74
(dp1645
sg83
g1417
sg76
(lp1646
g69
(g90
g71
NtRp1647
(dp1648
g74
(dp1649
g94
g95
ssg83
g1643
sg76
(lp1650
S'http_accept_language'
p1651
asbag69
(g90
g71
NtRp1652
(dp1653
g74
(dp1654
g101
g102
ssg83
g1643
sg76
(lp1655
S':'
asbag69
(g90
g71
NtRp1656
(dp1657
g74
(dp1658
sg83
g1643
sg76
(lp1659
g69
(g70
g71
NtRp1660
(dp1661
g74
(dp1662
g82
I4
ssg83
g1656
sg76
(lp1663
S'en-US,en;q=0.8'
p1664
asbasbasbag69
(g85
g71
NtRp1665
(dp1666
g74
(dp1667
sg83
g1417
sg76
(lp1668
g69
(g90
g71
NtRp1669
(dp1670
g74
(dp1671
g94
g95
ssg83
g1665
sg76
(lp1672
S'http_cache_control'
p1673
asbag69
(g90
g71
NtRp1674
(dp1675
g74
(dp1676
g101
g102
ssg83
g1665
sg76
(lp1677
S':'
asbag69
(g90
g71
NtRp1678
(dp1679
g74
(dp1680
sg83
g1665
sg76
(lp1681
g69
(g70
g71
NtRp1682
(dp1683
g74
(dp1684
g82
I4
ssg83
g1678
sg76
(lp1685
S'max-age=0'
p1686
asbasbasbag69
(g85
g71
NtRp1687
(dp1688
g74
(dp1689
sg83
g1417
sg76
(lp1690
g69
(g90
g71
NtRp1691
(dp1692
g74
(dp1693
g94
g95
ssg83
g1687
sg76
(lp1694
S'http_connection'
p1695
asbag69
(g90
g71
NtRp1696
(dp1697
g74
(dp1698
g101
g102
ssg83
g1687
sg76
(lp1699
S':'
asbag69
(g90
g71
NtRp1700
(dp1701
g74
(dp1702
sg83
g1687
sg76
(lp1703
g69
(g70
g71
NtRp1704
(dp1705
g74
(dp1706
g82
I4
ssg83
g1700
sg76
(lp1707
S'keep-alive'
p1708
asbasbasbag69
(g85
g71
NtRp1709
(dp1710
g74
(dp1711
sg83
g1417
sg76
(lp1712
g69
(g90
g71
NtRp1713
(dp1714
g74
(dp1715
g94
g95
ssg83
g1709
sg76
(lp1716
S'http_cookie'
p1717
asbag69
(g90
g71
NtRp1718
(dp1719
g74
(dp1720
g101
g102
ssg83
g1709
sg76
(lp1721
S':'
asbag69
(g90
g71
NtRp1722
(dp1723
g74
(dp1724
sg83
g1709
sg76
(lp1725
g69
(g70
g71
NtRp1726
(dp1727
g74
(dp1728
g82
I4
ssg83
g1722
sg76
(lp1729
S'registered=yes; session_id_welcome=127.0.0.1-9c7bb553-b7cb-4343-8d32-a78739900983; session_id_outreach=127.0.0.1-00c3bb02-539e-4bc1-ab10-e3c500bd1248; session_id_buysell=127.0.0.1-d5a07803-4f5c-44c8-b05d-2876d30ca822; session_id_music_library=127.0.0.1-dd9b4880-33cf-4894-a8a9-2640c5c78a01; session_id_admin=127.0.0.1-5c3e6318-3a14-4ff1-97a6-1063e44c4cd9'
p1730
asbasbasbag69
(g85
g71
NtRp1731
(dp1732
g74
(dp1733
sg83
g1417
sg76
(lp1734
g69
(g90
g71
NtRp1735
(dp1736
g74
(dp1737
g94
g95
ssg83
g1731
sg76
(lp1738
S'http_host'
p1739
asbag69
(g90
g71
NtRp1740
(dp1741
g74
(dp1742
g101
g102
ssg83
g1731
sg76
(lp1743
S':'
asbag69
(g90
g71
NtRp1744
(dp1745
g74
(dp1746
sg83
g1731
sg76
(lp1747
g69
(g70
g71
NtRp1748
(dp1749
g74
(dp1750
g82
I4
ssg83
g1744
sg76
(lp1751
S'127.0.0.1:8001'
p1752
asbasbasbag69
(g85
g71
NtRp1753
(dp1754
g74
(dp1755
sg83
g1417
sg76
(lp1756
g69
(g90
g71
NtRp1757
(dp1758
g74
(dp1759
g94
g95
ssg83
g1753
sg76
(lp1760
S'http_referer'
p1761
asbag69
(g90
g71
NtRp1762
(dp1763
g74
(dp1764
g101
g102
ssg83
g1753
sg76
(lp1765
S':'
asbag69
(g90
g71
NtRp1766
(dp1767
g74
(dp1768
sg83
g1753
sg76
(lp1769
g69
(g70
g71
NtRp1770
(dp1771
g74
(dp1772
g82
I4
ssg83
g1766
sg76
(lp1773
S'http://127.0.0.1:8001/BuySell/default/index'
p1774
asbasbasbag69
(g85
g71
NtRp1775
(dp1776
g74
(dp1777
sg83
g1417
sg76
(lp1778
g69
(g90
g71
NtRp1779
(dp1780
g74
(dp1781
g94
g95
ssg83
g1775
sg76
(lp1782
S'http_user_agent'
p1783
asbag69
(g90
g71
NtRp1784
(dp1785
g74
(dp1786
g101
g102
ssg83
g1775
sg76
(lp1787
S':'
asbag69
(g90
g71
NtRp1788
(dp1789
g74
(dp1790
sg83
g1775
sg76
(lp1791
g69
(g70
g71
NtRp1792
(dp1793
g74
(dp1794
g82
I4
ssg83
g1788
sg76
(lp1795
S'Mozilla/5.0 (X11; Linux i686) AppleWebKit/537.4 (KHTML, like Gecko) Chrome/22.0.1229.79 Safari/537.4'
p1796
asbasbasbag69
(g85
g71
NtRp1797
(dp1798
g74
(dp1799
sg83
g1417
sg76
(lp1800
g69
(g90
g71
NtRp1801
(dp1802
g74
(dp1803
g94
g95
ssg83
g1797
sg76
(lp1804
S'is_jython'
p1805
asbag69
(g90
g71
NtRp1806
(dp1807
g74
(dp1808
g101
g102
ssg83
g1797
sg76
(lp1809
S':'
asbag69
(g90
g71
NtRp1810
(dp1811
g74
(dp1812
sg83
g1797
sg76
(lp1813
g69
(g70
g71
NtRp1814
(dp1815
g74
(dp1816
g82
I4
ssg83
g1810
sg76
(lp1817
g112
asbasbasbag69
(g85
g71
NtRp1818
(dp1819
g74
(dp1820
sg83
g1417
sg76
(lp1821
g69
(g90
g71
NtRp1822
(dp1823
g74
(dp1824
g94
g95
ssg83
g1818
sg76
(lp1825
S'is_pypy'
p1826
asbag69
(g90
g71
NtRp1827
(dp1828
g74
(dp1829
g101
g102
ssg83
g1818
sg76
(lp1830
S':'
asbag69
(g90
g71
NtRp1831
(dp1832
g74
(dp1833
sg83
g1818
sg76
(lp1834
g69
(g70
g71
NtRp1835
(dp1836
g74
(dp1837
g82
I4
ssg83
g1831
sg76
(lp1838
g112
asbasbasbag69
(g85
g71
NtRp1839
(dp1840
g74
(dp1841
sg83
g1417
sg76
(lp1842
g69
(g90
g71
NtRp1843
(dp1844
g74
(dp1845
g94
g95
ssg83
g1839
sg76
(lp1846
S'local_hosts'
p1847
asbag69
(g90
g71
NtRp1848
(dp1849
g74
(dp1850
g101
g102
ssg83
g1839
sg76
(lp1851
S':'
asbag69
(g90
g71
NtRp1852
(dp1853
g74
(dp1854
sg83
g1839
sg76
(lp1855
g69
(g70
g71
NtRp1856
(dp1857
g74
(dp1858
g82
I4
ssg83
g1852
sg76
(lp1859
g69
(g78
g71
NtRp1860
(dp1861
g74
(dp1862
g82
I3
ssg83
Nsg76
(lp1863
g69
(g85
g71
NtRp1864
(dp1865
g74
(dp1866
sg83
g1860
sg76
(lp1867
g69
(g90
g71
NtRp1868
(dp1869
g74
(dp1870
sg83
g1864
sg76
(lp1871
g69
(g70
g71
NtRp1872
(dp1873
g74
(dp1874
g82
I3
ssg83
g1868
sg76
(lp1875
S'127.0.1.1'
p1876
asbasbasbag69
(g85
g71
NtRp1877
(dp1878
g74
(dp1879
sg83
g1860
sg76
(lp1880
g69
(g90
g71
NtRp1881
(dp1882
g74
(dp1883
sg83
g1877
sg76
(lp1884
g69
(g70
g71
NtRp1885
(dp1886
g74
(dp1887
g82
I3
ssg83
g1881
sg76
(lp1888
S'::1'
p1889
asbasbasbag69
(g85
g71
NtRp1890
(dp1891
g74
(dp1892
sg83
g1860
sg76
(lp1893
g69
(g90
g71
NtRp1894
(dp1895
g74
(dp1896
sg83
g1890
sg76
(lp1897
g69
(g70
g71
NtRp1898
(dp1899
g74
(dp1900
g82
I3
ssg83
g1894
sg76
(lp1901
S'alanzak'
p1902
asbasbasbag69
(g85
g71
NtRp1903
(dp1904
g74
(dp1905
sg83
g1860
sg76
(lp1906
g69
(g90
g71
NtRp1907
(dp1908
g74
(dp1909
sg83
g1903
sg76
(lp1910
g69
(g70
g71
NtRp1911
(dp1912
g74
(dp1913
g82
I3
ssg83
g1907
sg76
(lp1914
S'::ffff:127.0.0.1'
p1915
asbasbasbag69
(g85
g71
NtRp1916
(dp1917
g74
(dp1918
sg83
g1860
sg76
(lp1919
g69
(g90
g71
NtRp1920
(dp1921
g74
(dp1922
sg83
g1916
sg76
(lp1923
g69
(g70
g71
NtRp1924
(dp1925
g74
(dp1926
g82
I3
ssg83
g1920
sg76
(lp1927
S'127.0.0.1'
p1928
asbasbasbasbasbasbasbag69
(g85
g71
NtRp1929
(dp1930
g74
(dp1931
sg83
g1417
sg76
(lp1932
g69
(g90
g71
NtRp1933
(dp1934
g74
(dp1935
g94
g95
ssg83
g1929
sg76
(lp1936
S'path_info'
p1937
asbag69
(g90
g71
NtRp1938
(dp1939
g74
(dp1940
g101
g102
ssg83
g1929
sg76
(lp1941
S':'
asbag69
(g90
g71
NtRp1942
(dp1943
g74
(dp1944
sg83
g1929
sg76
(lp1945
g69
(g70
g71
NtRp1946
(dp1947
g74
(dp1948
g82
I4
ssg83
g1942
sg76
(lp1949
S'/BuySell/default/index'
p1950
asbasbasbag69
(g85
g71
NtRp1951
(dp1952
g74
(dp1953
sg83
g1417
sg76
(lp1954
g69
(g90
g71
NtRp1955
(dp1956
g74
(dp1957
g94
g95
ssg83
g1951
sg76
(lp1958
S'query_string'
p1959
asbag69
(g90
g71
NtRp1960
(dp1961
g74
(dp1962
g101
g102
ssg83
g1951
sg76
(lp1963
S':'
asbag69
(g90
g71
NtRp1964
(dp1965
g74
(dp1966
sg83
g1951
sg76
(lp1967
g69
(g70
g71
NtRp1968
(dp1969
g74
(dp1970
g82
I4
ssg83
g1964
sg76
(lp1971
S''
asbasbasbag69
(g85
g71
NtRp1972
(dp1973
g74
(dp1974
sg83
g1417
sg76
(lp1975
g69
(g90
g71
NtRp1976
(dp1977
g74
(dp1978
g94
g95
ssg83
g1972
sg76
(lp1979
S'remote_addr'
p1980
asbag69
(g90
g71
NtRp1981
(dp1982
g74
(dp1983
g101
g102
ssg83
g1972
sg76
(lp1984
S':'
asbag69
(g90
g71
NtRp1985
(dp1986
g74
(dp1987
sg83
g1972
sg76
(lp1988
g69
(g70
g71
NtRp1989
(dp1990
g74
(dp1991
g82
I4
ssg83
g1985
sg76
(lp1992
g224
asbasbasbag69
(g85
g71
NtRp1993
(dp1994
g74
(dp1995
sg83
g1417
sg76
(lp1996
g69
(g90
g71
NtRp1997
(dp1998
g74
(dp1999
g94
g95
ssg83
g1993
sg76
(lp2000
S'remote_port'
p2001
asbag69
(g90
g71
NtRp2002
(dp2003
g74
(dp2004
g101
g102
ssg83
g1993
sg76
(lp2005
S':'
asbag69
(g90
g71
NtRp2006
(dp2007
g74
(dp2008
sg83
g1993
sg76
(lp2009
g69
(g70
g71
NtRp2010
(dp2011
g74
(dp2012
g82
I4
ssg83
g2006
sg76
(lp2013
S'60393'
p2014
asbasbasbag69
(g85
g71
NtRp2015
(dp2016
g74
(dp2017
sg83
g1417
sg76
(lp2018
g69
(g90
g71
NtRp2019
(dp2020
g74
(dp2021
g94
g95
ssg83
g2015
sg76
(lp2022
S'request_method'
p2023
asbag69
(g90
g71
NtRp2024
(dp2025
g74
(dp2026
g101
g102
ssg83
g2015
sg76
(lp2027
S':'
asbag69
(g90
g71
NtRp2028
(dp2029
g74
(dp2030
sg83
g2015
sg76
(lp2031
g69
(g70
g71
NtRp2032
(dp2033
g74
(dp2034
g82
I4
ssg83
g2028
sg76
(lp2035
S'GET'
p2036
asbasbasbag69
(g85
g71
NtRp2037
(dp2038
g74
(dp2039
sg83
g1417
sg76
(lp2040
g69
(g90
g71
NtRp2041
(dp2042
g74
(dp2043
g94
g95
ssg83
g2037
sg76
(lp2044
S'request_uri'
p2045
asbag69
(g90
g71
NtRp2046
(dp2047
g74
(dp2048
g101
g102
ssg83
g2037
sg76
(lp2049
S':'
asbag69
(g90
g71
NtRp2050
(dp2051
g74
(dp2052
sg83
g2037
sg76
(lp2053
g69
(g70
g71
NtRp2054
(dp2055
g74
(dp2056
g82
I4
ssg83
g2050
sg76
(lp2057
g1950
asbasbasbag69
(g85
g71
NtRp2058
(dp2059
g74
(dp2060
sg83
g1417
sg76
(lp2061
g69
(g90
g71
NtRp2062
(dp2063
g74
(dp2064
g94
g95
ssg83
g2058
sg76
(lp2065
S'script_name'
p2066
asbag69
(g90
g71
NtRp2067
(dp2068
g74
(dp2069
g101
g102
ssg83
g2058
sg76
(lp2070
S':'
asbag69
(g90
g71
NtRp2071
(dp2072
g74
(dp2073
sg83
g2058
sg76
(lp2074
g69
(g70
g71
NtRp2075
(dp2076
g74
(dp2077
g82
I4
ssg83
g2071
sg76
(lp2078
S''
asbasbasbag69
(g85
g71
NtRp2079
(dp2080
g74
(dp2081
sg83
g1417
sg76
(lp2082
g69
(g90
g71
NtRp2083
(dp2084
g74
(dp2085
g94
g95
ssg83
g2079
sg76
(lp2086
S'server_name'
p2087
asbag69
(g90
g71
NtRp2088
(dp2089
g74
(dp2090
g101
g102
ssg83
g2079
sg76
(lp2091
S':'
asbag69
(g90
g71
NtRp2092
(dp2093
g74
(dp2094
sg83
g2079
sg76
(lp2095
g69
(g70
g71
NtRp2096
(dp2097
g74
(dp2098
g82
I4
ssg83
g2092
sg76
(lp2099
S'alanzak'
p2100
asbasbasbag69
(g85
g71
NtRp2101
(dp2102
g74
(dp2103
sg83
g1417
sg76
(lp2104
g69
(g90
g71
NtRp2105
(dp2106
g74
(dp2107
g94
g95
ssg83
g2101
sg76
(lp2108
S'server_port'
p2109
asbag69
(g90
g71
NtRp2110
(dp2111
g74
(dp2112
g101
g102
ssg83
g2101
sg76
(lp2113
S':'
asbag69
(g90
g71
NtRp2114
(dp2115
g74
(dp2116
sg83
g2101
sg76
(lp2117
g69
(g70
g71
NtRp2118
(dp2119
g74
(dp2120
g82
I4
ssg83
g2114
sg76
(lp2121
S'8001'
p2122
asbasbasbag69
(g85
g71
NtRp2123
(dp2124
g74
(dp2125
sg83
g1417
sg76
(lp2126
g69
(g90
g71
NtRp2127
(dp2128
g74
(dp2129
g94
g95
ssg83
g2123
sg76
(lp2130
S'server_protocol'
p2131
asbag69
(g90
g71
NtRp2132
(dp2133
g74
(dp2134
g101
g102
ssg83
g2123
sg76
(lp2135
S':'
asbag69
(g90
g71
NtRp2136
(dp2137
g74
(dp2138
sg83
g2123
sg76
(lp2139
g69
(g70
g71
NtRp2140
(dp2141
g74
(dp2142
g82
I4
ssg83
g2136
sg76
(lp2143
S'HTTP/1.1'
p2144
asbasbasbag69
(g85
g71
NtRp2145
(dp2146
g74
(dp2147
sg83
g1417
sg76
(lp2148
g69
(g90
g71
NtRp2149
(dp2150
g74
(dp2151
g94
g95
ssg83
g2145
sg76
(lp2152
S'server_software'
p2153
asbag69
(g90
g71
NtRp2154
(dp2155
g74
(dp2156
g101
g102
ssg83
g2145
sg76
(lp2157
S':'
asbag69
(g90
g71
NtRp2158
(dp2159
g74
(dp2160
sg83
g2145
sg76
(lp2161
g69
(g70
g71
NtRp2162
(dp2163
g74
(dp2164
g82
I4
ssg83
g2158
sg76
(lp2165
S'Rocket 1.2.6'
p2166
asbasbasbag69
(g85
g71
NtRp2167
(dp2168
g74
(dp2169
sg83
g1417
sg76
(lp2170
g69
(g90
g71
NtRp2171
(dp2172
g74
(dp2173
g94
g95
ssg83
g2167
sg76
(lp2174
S'web2py_path'
p2175
asbag69
(g90
g71
NtRp2176
(dp2177
g74
(dp2178
g101
g102
ssg83
g2167
sg76
(lp2179
S':'
asbag69
(g90
g71
NtRp2180
(dp2181
g74
(dp2182
sg83
g2167
sg76
(lp2183
g69
(g70
g71
NtRp2184
(dp2185
g74
(dp2186
g82
I4
ssg83
g2180
sg76
(lp2187
g1464
asbasbasbag69
(g85
g71
NtRp2188
(dp2189
g74
(dp2190
sg83
g1417
sg76
(lp2191
g69
(g90
g71
NtRp2192
(dp2193
g74
(dp2194
g94
g95
ssg83
g2188
sg76
(lp2195
S'web2py_version'
p2196
asbag69
(g90
g71
NtRp2197
(dp2198
g74
(dp2199
g101
g102
ssg83
g2188
sg76
(lp2200
S':'
asbag69
(g90
g71
NtRp2201
(dp2202
g74
(dp2203
sg83
g2188
sg76
(lp2204
g69
(g70
g71
NtRp2205
(dp2206
g74
(dp2207
g82
I4
ssg83
g2201
sg76
(lp2208
g69
(g78
g71
NtRp2209
(dp2210
g74
(dp2211
g82
I3
ssg83
Nsg76
(lp2212
g69
(g85
g71
NtRp2213
(dp2214
g74
(dp2215
sg83
g2209
sg76
(lp2216
g69
(g90
g71
NtRp2217
(dp2218
g74
(dp2219
sg83
g2213
sg76
(lp2220
g69
(g70
g71
NtRp2221
(dp2222
g74
(dp2223
g82
I3
ssg83
g2217
sg76
(lp2224
S'2'
asbasbasbag69
(g85
g71
NtRp2225
(dp2226
g74
(dp2227
sg83
g2209
sg76
(lp2228
g69
(g90
g71
NtRp2229
(dp2230
g74
(dp2231
sg83
g2225
sg76
(lp2232
g69
(g70
g71
NtRp2233
(dp2234
g74
(dp2235
g82
I3
ssg83
g2229
sg76
(lp2236
S'3'
asbasbasbag69
(g85
g71
NtRp2237
(dp2238
g74
(dp2239
sg83
g2209
sg76
(lp2240
g69
(g90
g71
NtRp2241
(dp2242
g74
(dp2243
sg83
g2237
sg76
(lp2244
g69
(g70
g71
NtRp2245
(dp2246
g74
(dp2247
g82
I3
ssg83
g2241
sg76
(lp2248
S'2'
asbasbasbag69
(g85
g71
NtRp2249
(dp2250
g74
(dp2251
sg83
g2209
sg76
(lp2252
g69
(g90
g71
NtRp2253
(dp2254
g74
(dp2255
sg83
g2249
sg76
(lp2256
g69
(g70
g71
NtRp2257
(dp2258
g74
(dp2259
g82
I3
ssg83
g2253
sg76
(lp2260
S'datetime.datetime(2012, 12, 17, 15, 3, 30)'
p2261
asbasbasbag69
(g85
g71
NtRp2262
(dp2263
g74
(dp2264
sg83
g2209
sg76
(lp2265
g69
(g90
g71
NtRp2266
(dp2267
g74
(dp2268
sg83
g2262
sg76
(lp2269
g69
(g70
g71
NtRp2270
(dp2271
g74
(dp2272
g82
I3
ssg83
g2266
sg76
(lp2273
S'stable'
p2274
asbasbasbasbasbasbasbag69
(g85
g71
NtRp2275
(dp2276
g74
(dp2277
sg83
g1417
sg76
(lp2278
g69
(g90
g71
NtRp2279
(dp2280
g74
(dp2281
g94
g95
ssg83
g2275
sg76
(lp2282
S'wsgi_errors'
p2283
asbag69
(g90
g71
NtRp2284
(dp2285
g74
(dp2286
g101
g102
ssg83
g2275
sg76
(lp2287
S':'
asbag69
(g90
g71
NtRp2288
(dp2289
g74
(dp2290
sg83
g2275
sg76
(lp2291
g69
(g70
g71
NtRp2292
(dp2293
g74
(dp2294
g82
I4
ssg83
g2288
sg76
(lp2295
S"<open file '<stderr>', mode 'w' at 0xb789e0d0>"
p2296
asbasbasbag69
(g85
g71
NtRp2297
(dp2298
g74
(dp2299
sg83
g1417
sg76
(lp2300
g69
(g90
g71
NtRp2301
(dp2302
g74
(dp2303
g94
g95
ssg83
g2297
sg76
(lp2304
S'wsgi_file_wrapper'
p2305
asbag69
(g90
g71
NtRp2306
(dp2307
g74
(dp2308
g101
g102
ssg83
g2297
sg76
(lp2309
S':'
asbag69
(g90
g71
NtRp2310
(dp2311
g74
(dp2312
sg83
g2297
sg76
(lp2313
g69
(g70
g71
NtRp2314
(dp2315
g74
(dp2316
g82
I4
ssg83
g2310
sg76
(lp2317
S'<class wsgiref.util.FileWrapper at 0xa4afddc>'
p2318
asbasbasbag69
(g85
g71
NtRp2319
(dp2320
g74
(dp2321
sg83
g1417
sg76
(lp2322
g69
(g90
g71
NtRp2323
(dp2324
g74
(dp2325
g94
g95
ssg83
g2319
sg76
(lp2326
S'wsgi_input'
p2327
asbag69
(g90
g71
NtRp2328
(dp2329
g74
(dp2330
g101
g102
ssg83
g2319
sg76
(lp2331
S':'
asbag69
(g90
g71
NtRp2332
(dp2333
g74
(dp2334
sg83
g2319
sg76
(lp2335
g69
(g70
g71
NtRp2336
(dp2337
g74
(dp2338
g82
I4
ssg83
g2332
sg76
(lp2339
S'<socket._fileobject object at 0xab53cec>'
p2340
asbasbasbag69
(g85
g71
NtRp2341
(dp2342
g74
(dp2343
sg83
g1417
sg76
(lp2344
g69
(g90
g71
NtRp2345
(dp2346
g74
(dp2347
g94
g95
ssg83
g2341
sg76
(lp2348
S'wsgi_multiprocess'
p2349
asbag69
(g90
g71
NtRp2350
(dp2351
g74
(dp2352
g101
g102
ssg83
g2341
sg76
(lp2353
S':'
asbag69
(g90
g71
NtRp2354
(dp2355
g74
(dp2356
sg83
g2341
sg76
(lp2357
g69
(g70
g71
NtRp2358
(dp2359
g74
(dp2360
g82
I4
ssg83
g2354
sg76
(lp2361
g112
asbasbasbag69
(g85
g71
NtRp2362
(dp2363
g74
(dp2364
sg83
g1417
sg76
(lp2365
g69
(g90
g71
NtRp2366
(dp2367
g74
(dp2368
g94
g95
ssg83
g2362
sg76
(lp2369
S'wsgi_multithread'
p2370
asbag69
(g90
g71
NtRp2371
(dp2372
g74
(dp2373
g101
g102
ssg83
g2362
sg76
(lp2374
S':'
asbag69
(g90
g71
NtRp2375
(dp2376
g74
(dp2377
sg83
g2362
sg76
(lp2378
g69
(g70
g71
NtRp2379
(dp2380
g74
(dp2381
g82
I4
ssg83
g2375
sg76
(lp2382
S'True'
p2383
asbasbasbag69
(g85
g71
NtRp2384
(dp2385
g74
(dp2386
sg83
g1417
sg76
(lp2387
g69
(g90
g71
NtRp2388
(dp2389
g74
(dp2390
g94
g95
ssg83
g2384
sg76
(lp2391
S'wsgi_run_once'
p2392
asbag69
(g90
g71
NtRp2393
(dp2394
g74
(dp2395
g101
g102
ssg83
g2384
sg76
(lp2396
S':'
asbag69
(g90
g71
NtRp2397
(dp2398
g74
(dp2399
sg83
g2384
sg76
(lp2400
g69
(g70
g71
NtRp2401
(dp2402
g74
(dp2403
g82
I4
ssg83
g2397
sg76
(lp2404
g112
asbasbasbag69
(g85
g71
NtRp2405
(dp2406
g74
(dp2407
sg83
g1417
sg76
(lp2408
g69
(g90
g71
NtRp2409
(dp2410
g74
(dp2411
g94
g95
ssg83
g2405
sg76
(lp2412
S'wsgi_url_scheme'
p2413
asbag69
(g90
g71
NtRp2414
(dp2415
g74
(dp2416
g101
g102
ssg83
g2405
sg76
(lp2417
S':'
asbag69
(g90
g71
NtRp2418
(dp2419
g74
(dp2420
sg83
g2405
sg76
(lp2421
g69
(g70
g71
NtRp2422
(dp2423
g74
(dp2424
g82
I4
ssg83
g2418
sg76
(lp2425
S'http'
p2426
asbasbasbag69
(g85
g71
NtRp2427
(dp2428
g74
(dp2429
sg83
g1417
sg76
(lp2430
g69
(g90
g71
NtRp2431
(dp2432
g74
(dp2433
g94
g95
ssg83
g2427
sg76
(lp2434
S'wsgi_version'
p2435
asbag69
(g90
g71
NtRp2436
(dp2437
g74
(dp2438
g101
g102
ssg83
g2427
sg76
(lp2439
S':'
asbag69
(g90
g71
NtRp2440
(dp2441
g74
(dp2442
sg83
g2427
sg76
(lp2443
g69
(g70
g71
NtRp2444
(dp2445
g74
(dp2446
g82
I4
ssg83
g2440
sg76
(lp2447
g69
(g78
g71
NtRp2448
(dp2449
g74
(dp2450
g82
I3
ssg83
Nsg76
(lp2451
g69
(g85
g71
NtRp2452
(dp2453
g74
(dp2454
sg83
g2448
sg76
(lp2455
g69
(g90
g71
NtRp2456
(dp2457
g74
(dp2458
sg83
g2452
sg76
(lp2459
g69
(g70
g71
NtRp2460
(dp2461
g74
(dp2462
g82
I3
ssg83
g2456
sg76
(lp2463
S'1'
asbasbasbag69
(g85
g71
NtRp2464
(dp2465
g74
(dp2466
sg83
g2448
sg76
(lp2467
g69
(g90
g71
NtRp2468
(dp2469
g74
(dp2470
sg83
g2464
sg76
(lp2471
g69
(g70
g71
NtRp2472
(dp2473
g74
(dp2474
g82
I3
ssg83
g2468
sg76
(lp2475
S'0'
asbasbasbasbasbasbasbasbasbasbasbag69
(g85
g71
NtRp2476
(dp2477
g74
(dp2478
sg83
g79
sg76
(lp2479
g69
(g90
g71
NtRp2480
(dp2481
g74
(dp2482
g94
g95
ssg83
g2476
sg76
(lp2483
S'extension'
p2484
asbag69
(g90
g71
NtRp2485
(dp2486
g74
(dp2487
g101
g102
ssg83
g2476
sg76
(lp2488
S':'
asbag69
(g90
g71
NtRp2489
(dp2490
g74
(dp2491
sg83
g2476
sg76
(lp2492
g69
(g70
g71
NtRp2493
(dp2494
g74
(dp2495
g82
I5
ssg83
g2489
sg76
(lp2496
S'html'
p2497
asbasbasbag69
(g85
g71
NtRp2498
(dp2499
g74
(dp2500
sg83
g79
sg76
(lp2501
g69
(g90
g71
NtRp2502
(dp2503
g74
(dp2504
g94
g95
ssg83
g2498
sg76
(lp2505
S'folder'
p2506
asbag69
(g90
g71
NtRp2507
(dp2508
g74
(dp2509
g101
g102
ssg83
g2498
sg76
(lp2510
S':'
asbag69
(g90
g71
NtRp2511
(dp2512
g74
(dp2513
sg83
g2498
sg76
(lp2514
g69
(g70
g71
NtRp2515
(dp2516
g74
(dp2517
g82
I5
ssg83
g2511
sg76
(lp2518
S'/home/pratyush/web2py/applications/BuySell/'
p2519
asbasbasbag69
(g85
g71
NtRp2520
(dp2521
g74
(dp2522
sg83
g79
sg76
(lp2523
g69
(g90
g71
NtRp2524
(dp2525
g74
(dp2526
g94
g95
ssg83
g2520
sg76
(lp2527
S'function'
p2528
asbag69
(g90
g71
NtRp2529
(dp2530
g74
(dp2531
g101
g102
ssg83
g2520
sg76
(lp2532
S':'
asbag69
(g90
g71
NtRp2533
(dp2534
g74
(dp2535
sg83
g2520
sg76
(lp2536
g69
(g70
g71
NtRp2537
(dp2538
g74
(dp2539
g82
I5
ssg83
g2533
sg76
(lp2540
S'index'
p2541
asbasbasbag69
(g85
g71
NtRp2542
(dp2543
g74
(dp2544
sg83
g79
sg76
(lp2545
g69
(g90
g71
NtRp2546
(dp2547
g74
(dp2548
g94
g95
ssg83
g2542
sg76
(lp2549
S'get_vars'
p2550
asbag69
(g90
g71
NtRp2551
(dp2552
g74
(dp2553
g101
g102
ssg83
g2542
sg76
(lp2554
S':'
asbag69
(g90
g71
NtRp2555
(dp2556
g74
(dp2557
sg83
g2542
sg76
(lp2558
g69
(g70
g71
NtRp2559
(dp2560
g74
(dp2561
g82
I5
ssg83
g2555
sg76
(lp2562
g69
(g78
g71
NtRp2563
(dp2564
g74
(dp2565
g82
I4
ssg83
Nsg76
(lp2566
sbasbasbasbag69
(g85
g71
NtRp2567
(dp2568
g74
(dp2569
sg83
g79
sg76
(lp2570
g69
(g90
g71
NtRp2571
(dp2572
g74
(dp2573
g94
g95
ssg83
g2567
sg76
(lp2574
S'global_settings'
p2575
asbag69
(g90
g71
NtRp2576
(dp2577
g74
(dp2578
g101
g102
ssg83
g2567
sg76
(lp2579
S':'
asbag69
(g90
g71
NtRp2580
(dp2581
g74
(dp2582
sg83
g2567
sg76
(lp2583
g69
(g70
g71
NtRp2584
(dp2585
g74
(dp2586
g82
I5
ssg83
g2580
sg76
(lp2587
g69
(g78
g71
NtRp2588
(dp2589
g74
(dp2590
g82
I4
ssg83
Nsg76
(lp2591
g69
(g85
g71
NtRp2592
(dp2593
g74
(dp2594
sg83
g2588
sg76
(lp2595
g69
(g90
g71
NtRp2596
(dp2597
g74
(dp2598
g94
g95
ssg83
g2592
sg76
(lp2599
g1429
asbag69
(g90
g71
NtRp2600
(dp2601
g74
(dp2602
g101
g102
ssg83
g2592
sg76
(lp2603
S':'
asbag69
(g90
g71
NtRp2604
(dp2605
g74
(dp2606
sg83
g2592
sg76
(lp2607
g69
(g70
g71
NtRp2608
(dp2609
g74
(dp2610
g82
I4
ssg83
g2604
sg76
(lp2611
S"set(['/home/pratyush/web2py/applications/music_library/', '/home/pratyush/web2py/applications/admin/', '/home/pratyush/web2py/applications/BuySell/', '/home/pratyush/web2py/applications/db_project/'])"
p2612
asbasbasbag69
(g85
g71
NtRp2613
(dp2614
g74
(dp2615
sg83
g2588
sg76
(lp2616
g69
(g90
g71
NtRp2617
(dp2618
g74
(dp2619
g94
g95
ssg83
g2613
sg76
(lp2620
g1451
asbag69
(g90
g71
NtRp2621
(dp2622
g74
(dp2623
g101
g102
ssg83
g2613
sg76
(lp2624
S':'
asbag69
(g90
g71
NtRp2625
(dp2626
g74
(dp2627
sg83
g2613
sg76
(lp2628
g69
(g70
g71
NtRp2629
(dp2630
g74
(dp2631
g82
I4
ssg83
g2625
sg76
(lp2632
g1464
asbasbasbag69
(g85
g71
NtRp2633
(dp2634
g74
(dp2635
sg83
g2588
sg76
(lp2636
g69
(g90
g71
NtRp2637
(dp2638
g74
(dp2639
g94
g95
ssg83
g2633
sg76
(lp2640
g1473
asbag69
(g90
g71
NtRp2641
(dp2642
g74
(dp2643
g101
g102
ssg83
g2633
sg76
(lp2644
S':'
asbag69
(g90
g71
NtRp2645
(dp2646
g74
(dp2647
sg83
g2633
sg76
(lp2648
g69
(g70
g71
NtRp2649
(dp2650
g74
(dp2651
g82
I4
ssg83
g2645
sg76
(lp2652
g69
(g78
g71
NtRp2653
(dp2654
g74
(dp2655
g82
I3
ssg83
Nsg76
(lp2656
sbasbasbasbag69
(g85
g71
NtRp2657
(dp2658
g74
(dp2659
sg83
g2588
sg76
(lp2660
g69
(g90
g71
NtRp2661
(dp2662
g74
(dp2663
g94
g95
ssg83
g2657
sg76
(lp2664
g1498
asbag69
(g90
g71
NtRp2665
(dp2666
g74
(dp2667
g101
g102
ssg83
g2657
sg76
(lp2668
S':'
asbag69
(g90
g71
NtRp2669
(dp2670
g74
(dp2671
sg83
g2657
sg76
(lp2672
g69
(g70
g71
NtRp2673
(dp2674
g74
(dp2675
g82
I4
ssg83
g2669
sg76
(lp2676
S"<Values at 0xa526b0c: {'verbose': False, 'ip': '127.0.0.1', 'with_scheduler': False, 'ips': [], 'shutdown_timeout': 5, 'taskbar': False, 'port': 8001, 'maxthreads': None, 'softcron': False, 'server_name': 'alanzak', 'bpython': False, 'nogui': False, 'pid_filename': 'httpserver.pid', 'extcron': False, 'runcron': False, 'run_system_tests': False, 'test': None, 'folder': '/home/pratyush/web2py', 'config': '', 'import_models': False, 'winservice': '', 'shell': None, 'run': '', 'log_filename': 'httpserver.log', 'debuglevel': 30, 'args': [''], 'socket_timeout': 5, 'ssl_ca_certificate': None, 'scheduler': None, 'profiler_filename': None, 'ssl_private_key': '', 'scheduler_groups': None, 'password': '1', 'request_queue_size': 5, 'ssl_certificate': '', 'cronjob': False, 'numthreads': None, 'quiet': False, 'interfaces': None, 'minthreads': None, 'timeout': 10, 'plain': False, 'nobanner': False}>"
p2677
asbasbasbag69
(g85
g71
NtRp2678
(dp2679
g74
(dp2680
sg83
g2588
sg76
(lp2681
g69
(g90
g71
NtRp2682
(dp2683
g74
(dp2684
g94
g95
ssg83
g2678
sg76
(lp2685
g1520
asbag69
(g90
g71
NtRp2686
(dp2687
g74
(dp2688
g101
g102
ssg83
g2678
sg76
(lp2689
S':'
asbag69
(g90
g71
NtRp2690
(dp2691
g74
(dp2692
sg83
g2678
sg76
(lp2693
g69
(g70
g71
NtRp2694
(dp2695
g74
(dp2696
g82
I4
ssg83
g2690
sg76
(lp2697
S'set([])'
p2698
asbasbasbag69
(g85
g71
NtRp2699
(dp2700
g74
(dp2701
sg83
g2588
sg76
(lp2702
g69
(g90
g71
NtRp2703
(dp2704
g74
(dp2705
g94
g95
ssg83
g2699
sg76
(lp2706
g1542
asbag69
(g90
g71
NtRp2707
(dp2708
g74
(dp2709
g101
g102
ssg83
g2699
sg76
(lp2710
S':'
asbag69
(g90
g71
NtRp2711
(dp2712
g74
(dp2713
sg83
g2699
sg76
(lp2714
g69
(g70
g71
NtRp2715
(dp2716
g74
(dp2717
g82
I4
ssg83
g2711
sg76
(lp2718
g112
asbasbasbag69
(g85
g71
NtRp2719
(dp2720
g74
(dp2721
sg83
g2588
sg76
(lp2722
g69
(g90
g71
NtRp2723
(dp2724
g74
(dp2725
g94
g95
ssg83
g2719
sg76
(lp2726
g1563
asbag69
(g90
g71
NtRp2727
(dp2728
g74
(dp2729
g101
g102
ssg83
g2719
sg76
(lp2730
S':'
asbag69
(g90
g71
NtRp2731
(dp2732
g74
(dp2733
sg83
g2719
sg76
(lp2734
g69
(g70
g71
NtRp2735
(dp2736
g74
(dp2737
g82
I4
ssg83
g2731
sg76
(lp2738
g1576
asbasbasbag69
(g85
g71
NtRp2739
(dp2740
g74
(dp2741
sg83
g2588
sg76
(lp2742
g69
(g90
g71
NtRp2743
(dp2744
g74
(dp2745
g94
g95
ssg83
g2739
sg76
(lp2746
g1805
asbag69
(g90
g71
NtRp2747
(dp2748
g74
(dp2749
g101
g102
ssg83
g2739
sg76
(lp2750
S':'
asbag69
(g90
g71
NtRp2751
(dp2752
g74
(dp2753
sg83
g2739
sg76
(lp2754
g69
(g70
g71
NtRp2755
(dp2756
g74
(dp2757
g82
I4
ssg83
g2751
sg76
(lp2758
g112
asbasbasbag69
(g85
g71
NtRp2759
(dp2760
g74
(dp2761
sg83
g2588
sg76
(lp2762
g69
(g90
g71
NtRp2763
(dp2764
g74
(dp2765
g94
g95
ssg83
g2759
sg76
(lp2766
g1826
asbag69
(g90
g71
NtRp2767
(dp2768
g74
(dp2769
g101
g102
ssg83
g2759
sg76
(lp2770
S':'
asbag69
(g90
g71
NtRp2771
(dp2772
g74
(dp2773
sg83
g2759
sg76
(lp2774
g69
(g70
g71
NtRp2775
(dp2776
g74
(dp2777
g82
I4
ssg83
g2771
sg76
(lp2778
g112
asbasbasbag69
(g85
g71
NtRp2779
(dp2780
g74
(dp2781
sg83
g2588
sg76
(lp2782
g69
(g90
g71
NtRp2783
(dp2784
g74
(dp2785
g94
g95
ssg83
g2779
sg76
(lp2786
g1847
asbag69
(g90
g71
NtRp2787
(dp2788
g74
(dp2789
g101
g102
ssg83
g2779
sg76
(lp2790
S':'
asbag69
(g90
g71
NtRp2791
(dp2792
g74
(dp2793
sg83
g2779
sg76
(lp2794
g69
(g70
g71
NtRp2795
(dp2796
g74
(dp2797
g82
I4
ssg83
g2791
sg76
(lp2798
g69
(g78
g71
NtRp2799
(dp2800
g74
(dp2801
g82
I3
ssg83
Nsg76
(lp2802
g69
(g85
g71
NtRp2803
(dp2804
g74
(dp2805
sg83
g2799
sg76
(lp2806
g69
(g90
g71
NtRp2807
(dp2808
g74
(dp2809
sg83
g2803
sg76
(lp2810
g69
(g70
g71
NtRp2811
(dp2812
g74
(dp2813
g82
I3
ssg83
g2807
sg76
(lp2814
g1876
asbasbasbag69
(g85
g71
NtRp2815
(dp2816
g74
(dp2817
sg83
g2799
sg76
(lp2818
g69
(g90
g71
NtRp2819
(dp2820
g74
(dp2821
sg83
g2815
sg76
(lp2822
g69
(g70
g71
NtRp2823
(dp2824
g74
(dp2825
g82
I3
ssg83
g2819
sg76
(lp2826
g1889
asbasbasbag69
(g85
g71
NtRp2827
(dp2828
g74
(dp2829
sg83
g2799
sg76
(lp2830
g69
(g90
g71
NtRp2831
(dp2832
g74
(dp2833
sg83
g2827
sg76
(lp2834
g69
(g70
g71
NtRp2835
(dp2836
g74
(dp2837
g82
I3
ssg83
g2831
sg76
(lp2838
g1902
asbasbasbag69
(g85
g71
NtRp2839
(dp2840
g74
(dp2841
sg83
g2799
sg76
(lp2842
g69
(g90
g71
NtRp2843
(dp2844
g74
(dp2845
sg83
g2839
sg76
(lp2846
g69
(g70
g71
NtRp2847
(dp2848
g74
(dp2849
g82
I3
ssg83
g2843
sg76
(lp2850
g1915
asbasbasbag69
(g85
g71
NtRp2851
(dp2852
g74
(dp2853
sg83
g2799
sg76
(lp2854
g69
(g90
g71
NtRp2855
(dp2856
g74
(dp2857
sg83
g2851
sg76
(lp2858
g69
(g70
g71
NtRp2859
(dp2860
g74
(dp2861
g82
I3
ssg83
g2855
sg76
(lp2862
g1928
asbasbasbasbasbasbasbag69
(g85
g71
NtRp2863
(dp2864
g74
(dp2865
sg83
g2588
sg76
(lp2866
g69
(g90
g71
NtRp2867
(dp2868
g74
(dp2869
g94
g95
ssg83
g2863
sg76
(lp2870
g2196
asbag69
(g90
g71
NtRp2871
(dp2872
g74
(dp2873
g101
g102
ssg83
g2863
sg76
(lp2874
S':'
asbag69
(g90
g71
NtRp2875
(dp2876
g74
(dp2877
sg83
g2863
sg76
(lp2878
g69
(g70
g71
NtRp2879
(dp2880
g74
(dp2881
g82
I4
ssg83
g2875
sg76
(lp2882
g69
(g78
g71
NtRp2883
(dp2884
g74
(dp2885
g82
I3
ssg83
Nsg76
(lp2886
g69
(g85
g71
NtRp2887
(dp2888
g74
(dp2889
sg83
g2883
sg76
(lp2890
g69
(g90
g71
NtRp2891
(dp2892
g74
(dp2893
sg83
g2887
sg76
(lp2894
g69
(g70
g71
NtRp2895
(dp2896
g74
(dp2897
g82
I3
ssg83
g2891
sg76
(lp2898
S'2'
asbasbasbag69
(g85
g71
NtRp2899
(dp2900
g74
(dp2901
sg83
g2883
sg76
(lp2902
g69
(g90
g71
NtRp2903
(dp2904
g74
(dp2905
sg83
g2899
sg76
(lp2906
g69
(g70
g71
NtRp2907
(dp2908
g74
(dp2909
g82
I3
ssg83
g2903
sg76
(lp2910
S'3'
asbasbasbag69
(g85
g71
NtRp2911
(dp2912
g74
(dp2913
sg83
g2883
sg76
(lp2914
g69
(g90
g71
NtRp2915
(dp2916
g74
(dp2917
sg83
g2911
sg76
(lp2918
g69
(g70
g71
NtRp2919
(dp2920
g74
(dp2921
g82
I3
ssg83
g2915
sg76
(lp2922
S'2'
asbasbasbag69
(g85
g71
NtRp2923
(dp2924
g74
(dp2925
sg83
g2883
sg76
(lp2926
g69
(g90
g71
NtRp2927
(dp2928
g74
(dp2929
sg83
g2923
sg76
(lp2930
g69
(g70
g71
NtRp2931
(dp2932
g74
(dp2933
g82
I3
ssg83
g2927
sg76
(lp2934
S'datetime.datetime(2012, 12, 17, 15, 3, 30)'
p2935
asbasbasbag69
(g85
g71
NtRp2936
(dp2937
g74
(dp2938
sg83
g2883
sg76
(lp2939
g69
(g90
g71
NtRp2940
(dp2941
g74
(dp2942
sg83
g2936
sg76
(lp2943
g69
(g70
g71
NtRp2944
(dp2945
g74
(dp2946
g82
I3
ssg83
g2940
sg76
(lp2947
g2274
asbasbasbasbasbasbasbasbasbasbasbag69
(g85
g71
NtRp2948
(dp2949
g74
(dp2950
sg83
g79
sg76
(lp2951
g69
(g90
g71
NtRp2952
(dp2953
g74
(dp2954
g94
g95
ssg83
g2948
sg76
(lp2955
S'is_https'
p2956
asbag69
(g90
g71
NtRp2957
(dp2958
g74
(dp2959
g101
g102
ssg83
g2948
sg76
(lp2960
S':'
asbag69
(g90
g71
NtRp2961
(dp2962
g74
(dp2963
sg83
g2948
sg76
(lp2964
g69
(g70
g71
NtRp2965
(dp2966
g74
(dp2967
g82
I5
ssg83
g2961
sg76
(lp2968
g112
asbasbasbag69
(g85
g71
NtRp2969
(dp2970
g74
(dp2971
sg83
g79
sg76
(lp2972
g69
(g90
g71
NtRp2973
(dp2974
g74
(dp2975
g94
g95
ssg83
g2969
sg76
(lp2976
S'is_local'
p2977
asbag69
(g90
g71
NtRp2978
(dp2979
g74
(dp2980
g101
g102
ssg83
g2969
sg76
(lp2981
S':'
asbag69
(g90
g71
NtRp2982
(dp2983
g74
(dp2984
sg83
g2969
sg76
(lp2985
g69
(g70
g71
NtRp2986
(dp2987
g74
(dp2988
g82
I5
ssg83
g2982
sg76
(lp2989
g2383
asbasbasbag69
(g85
g71
NtRp2990
(dp2991
g74
(dp2992
sg83
g79
sg76
(lp2993
g69
(g90
g71
NtRp2994
(dp2995
g74
(dp2996
g94
g95
ssg83
g2990
sg76
(lp2997
S'is_restful'
p2998
asbag69
(g90
g71
NtRp2999
(dp3000
g74
(dp3001
g101
g102
ssg83
g2990
sg76
(lp3002
S':'
asbag69
(g90
g71
NtRp3003
(dp3004
g74
(dp3005
sg83
g2990
sg76
(lp3006
g69
(g70
g71
NtRp3007
(dp3008
g74
(dp3009
g82
I5
ssg83
g3003
sg76
(lp3010
g112
asbasbasbag69
(g85
g71
NtRp3011
(dp3012
g74
(dp3013
sg83
g79
sg76
(lp3014
g69
(g90
g71
NtRp3015
(dp3016
g74
(dp3017
g94
g95
ssg83
g3011
sg76
(lp3018
S'now'
p3019
asbag69
(g90
g71
NtRp3020
(dp3021
g74
(dp3022
g101
g102
ssg83
g3011
sg76
(lp3023
S':'
asbag69
(g90
g71
NtRp3024
(dp3025
g74
(dp3026
sg83
g3011
sg76
(lp3027
g69
(g70
g71
NtRp3028
(dp3029
g74
(dp3030
g82
I5
ssg83
g3024
sg76
(lp3031
S'datetime.datetime(2013, 4, 22, 11, 51, 33, 296603)'
p3032
asbasbasbag69
(g85
g71
NtRp3033
(dp3034
g74
(dp3035
sg83
g79
sg76
(lp3036
g69
(g90
g71
NtRp3037
(dp3038
g74
(dp3039
g94
g95
ssg83
g3033
sg76
(lp3040
S'post_vars'
p3041
asbag69
(g90
g71
NtRp3042
(dp3043
g74
(dp3044
g101
g102
ssg83
g3033
sg76
(lp3045
S':'
asbag69
(g90
g71
NtRp3046
(dp3047
g74
(dp3048
sg83
g3033
sg76
(lp3049
g69
(g70
g71
NtRp3050
(dp3051
g74
(dp3052
g82
I5
ssg83
g3046
sg76
(lp3053
g69
(g78
g71
NtRp3054
(dp3055
g74
(dp3056
g82
I4
ssg83
Nsg76
(lp3057
sbasbasbasbag69
(g85
g71
NtRp3058
(dp3059
g74
(dp3060
sg83
g79
sg76
(lp3061
g69
(g90
g71
NtRp3062
(dp3063
g74
(dp3064
g94
g95
ssg83
g3058
sg76
(lp3065
S'raw_args'
p3066
asbag69
(g90
g71
NtRp3067
(dp3068
g74
(dp3069
g101
g102
ssg83
g3058
sg76
(lp3070
S':'
asbag69
(g90
g71
NtRp3071
(dp3072
g74
(dp3073
sg83
g3058
sg76
(lp3074
g69
(g70
g71
NtRp3075
(dp3076
g74
(dp3077
g82
I5
ssg83
g3071
sg76
(lp3078
S''
asbasbasbag69
(g85
g71
NtRp3079
(dp3080
g74
(dp3081
sg83
g79
sg76
(lp3082
g69
(g90
g71
NtRp3083
(dp3084
g74
(dp3085
g94
g95
ssg83
g3079
sg76
(lp3086
S'raw_extension'
p3087
asbag69
(g90
g71
NtRp3088
(dp3089
g74
(dp3090
g101
g102
ssg83
g3079
sg76
(lp3091
S':'
asbag69
(g90
g71
NtRp3092
(dp3093
g74
(dp3094
sg83
g3079
sg76
(lp3095
g69
(g70
g71
NtRp3096
(dp3097
g74
(dp3098
g82
I5
ssg83
g3092
sg76
(lp3099
S'None'
p3100
asbasbasbag69
(g85
g71
NtRp3101
(dp3102
g74
(dp3103
sg83
g79
sg76
(lp3104
g69
(g90
g71
NtRp3105
(dp3106
g74
(dp3107
g94
g95
ssg83
g3101
sg76
(lp3108
S'url'
p3109
asbag69
(g90
g71
NtRp3110
(dp3111
g74
(dp3112
g101
g102
ssg83
g3101
sg76
(lp3113
S':'
asbag69
(g90
g71
NtRp3114
(dp3115
g74
(dp3116
sg83
g3101
sg76
(lp3117
g69
(g70
g71
NtRp3118
(dp3119
g74
(dp3120
g82
I5
ssg83
g3114
sg76
(lp3121
g1950
asbasbasbag69
(g85
g71
NtRp3122
(dp3123
g74
(dp3124
sg83
g79
sg76
(lp3125
g69
(g90
g71
NtRp3126
(dp3127
g74
(dp3128
g94
g95
ssg83
g3122
sg76
(lp3129
S'utcnow'
p3130
asbag69
(g90
g71
NtRp3131
(dp3132
g74
(dp3133
g101
g102
ssg83
g3122
sg76
(lp3134
S':'
asbag69
(g90
g71
NtRp3135
(dp3136
g74
(dp3137
sg83
g3122
sg76
(lp3138
g69
(g70
g71
NtRp3139
(dp3140
g74
(dp3141
g82
I5
ssg83
g3135
sg76
(lp3142
S'datetime.datetime(2013, 4, 22, 6, 21, 33, 296642)'
p3143
asbasbasbag69
(g85
g71
NtRp3144
(dp3145
g74
(dp3146
sg83
g79
sg76
(lp3147
g69
(g90
g71
NtRp3148
(dp3149
g74
(dp3150
g94
g95
ssg83
g3144
sg76
(lp3151
S'uuid'
p3152
asbag69
(g90
g71
NtRp3153
(dp3154
g74
(dp3155
g101
g102
ssg83
g3144
sg76
(lp3156
S':'
asbag69
(g90
g71
NtRp3157
(dp3158
g74
(dp3159
sg83
g3144
sg76
(lp3160
g69
(g70
g71
NtRp3161
(dp3162
g74
(dp3163
g82
I5
ssg83
g3157
sg76
(lp3164
S'BuySell/127.0.0.1.2013-04-22.11-51-33.9f400daf-7572-40cd-888a-85df5ca802f1'
p3165
asbasbasbag69
(g85
g71
NtRp3166
(dp3167
g74
(dp3168
sg83
g79
sg76
(lp3169
g69
(g90
g71
NtRp3170
(dp3171
g74
(dp3172
g94
g95
ssg83
g3166
sg76
(lp3173
S'vars'
p3174
asbag69
(g90
g71
NtRp3175
(dp3176
g74
(dp3177
g101
g102
ssg83
g3166
sg76
(lp3178
S':'
asbag69
(g90
g71
NtRp3179
(dp3180
g74
(dp3181
sg83
g3166
sg76
(lp3182
g69
(g70
g71
NtRp3183
(dp3184
g74
(dp3185
g82
I5
ssg83
g3179
sg76
(lp3186
g69
(g78
g71
NtRp3187
(dp3188
g74
(dp3189
g82
I4
ssg83
Nsg76
(lp3190
sbasbasbasbag69
(g85
g71
NtRp3191
(dp3192
g74
(dp3193
sg83
g79
sg76
(lp3194
g69
(g90
g71
NtRp3195
(dp3196
g74
(dp3197
g94
g95
ssg83
g3191
sg76
(lp3198
S'wsgi'
p3199
asbag69
(g90
g71
NtRp3200
(dp3201
g74
(dp3202
g101
g102
ssg83
g3191
sg76
(lp3203
S':'
asbag69
(g90
g71
NtRp3204
(dp3205
g74
(dp3206
sg83
g3191
sg76
(lp3207
g69
(g70
g71
NtRp3208
(dp3209
g74
(dp3210
g82
I5
ssg83
g3204
sg76
(lp3211
g69
(g78
g71
NtRp3212
(dp3213
g74
(dp3214
g82
I4
ssg83
Nsg76
(lp3215
g69
(g85
g71
NtRp3216
(dp3217
g74
(dp3218
sg83
g3212
sg76
(lp3219
g69
(g90
g71
NtRp3220
(dp3221
g74
(dp3222
g94
g95
ssg83
g3216
sg76
(lp3223
S'environ'
p3224
asbag69
(g90
g71
NtRp3225
(dp3226
g74
(dp3227
g101
g102
ssg83
g3216
sg76
(lp3228
S':'
asbag69
(g90
g71
NtRp3229
(dp3230
g74
(dp3231
sg83
g3216
sg76
(lp3232
g69
(g70
g71
NtRp3233
(dp3234
g74
(dp3235
g82
I4
ssg83
g3229
sg76
(lp3236
g69
(g78
g71
NtRp3237
(dp3238
g74
(dp3239
g82
I3
ssg83
Nsg76
(lp3240
g69
(g85
g71
NtRp3241
(dp3242
g74
(dp3243
sg83
g3237
sg76
(lp3244
g69
(g90
g71
NtRp3245
(dp3246
g74
(dp3247
g94
g95
ssg83
g3241
sg76
(lp3248
S'HTTP_ACCEPT'
p3249
asbag69
(g90
g71
NtRp3250
(dp3251
g74
(dp3252
g101
g102
ssg83
g3241
sg76
(lp3253
S':'
asbag69
(g90
g71
NtRp3254
(dp3255
g74
(dp3256
sg83
g3241
sg76
(lp3257
g69
(g70
g71
NtRp3258
(dp3259
g74
(dp3260
g82
I3
ssg83
g3254
sg76
(lp3261
g1598
asbasbasbag69
(g85
g71
NtRp3262
(dp3263
g74
(dp3264
sg83
g3237
sg76
(lp3265
g69
(g90
g71
NtRp3266
(dp3267
g74
(dp3268
g94
g95
ssg83
g3262
sg76
(lp3269
S'HTTP_ACCEPT_CHARSET'
p3270
asbag69
(g90
g71
NtRp3271
(dp3272
g74
(dp3273
g101
g102
ssg83
g3262
sg76
(lp3274
S':'
asbag69
(g90
g71
NtRp3275
(dp3276
g74
(dp3277
sg83
g3262
sg76
(lp3278
g69
(g70
g71
NtRp3279
(dp3280
g74
(dp3281
g82
I3
ssg83
g3275
sg76
(lp3282
g1620
asbasbasbag69
(g85
g71
NtRp3283
(dp3284
g74
(dp3285
sg83
g3237
sg76
(lp3286
g69
(g90
g71
NtRp3287
(dp3288
g74
(dp3289
g94
g95
ssg83
g3283
sg76
(lp3290
S'HTTP_ACCEPT_ENCODING'
p3291
asbag69
(g90
g71
NtRp3292
(dp3293
g74
(dp3294
g101
g102
ssg83
g3283
sg76
(lp3295
S':'
asbag69
(g90
g71
NtRp3296
(dp3297
g74
(dp3298
sg83
g3283
sg76
(lp3299
g69
(g70
g71
NtRp3300
(dp3301
g74
(dp3302
g82
I3
ssg83
g3296
sg76
(lp3303
g1642
asbasbasbag69
(g85
g71
NtRp3304
(dp3305
g74
(dp3306
sg83
g3237
sg76
(lp3307
g69
(g90
g71
NtRp3308
(dp3309
g74
(dp3310
g94
g95
ssg83
g3304
sg76
(lp3311
S'HTTP_ACCEPT_LANGUAGE'
p3312
asbag69
(g90
g71
NtRp3313
(dp3314
g74
(dp3315
g101
g102
ssg83
g3304
sg76
(lp3316
S':'
asbag69
(g90
g71
NtRp3317
(dp3318
g74
(dp3319
sg83
g3304
sg76
(lp3320
g69
(g70
g71
NtRp3321
(dp3322
g74
(dp3323
g82
I3
ssg83
g3317
sg76
(lp3324
g1664
asbasbasbag69
(g85
g71
NtRp3325
(dp3326
g74
(dp3327
sg83
g3237
sg76
(lp3328
g69
(g90
g71
NtRp3329
(dp3330
g74
(dp3331
g94
g95
ssg83
g3325
sg76
(lp3332
S'HTTP_CACHE_CONTROL'
p3333
asbag69
(g90
g71
NtRp3334
(dp3335
g74
(dp3336
g101
g102
ssg83
g3325
sg76
(lp3337
S':'
asbag69
(g90
g71
NtRp3338
(dp3339
g74
(dp3340
sg83
g3325
sg76
(lp3341
g69
(g70
g71
NtRp3342
(dp3343
g74
(dp3344
g82
I3
ssg83
g3338
sg76
(lp3345
g1686
asbasbasbag69
(g85
g71
NtRp3346
(dp3347
g74
(dp3348
sg83
g3237
sg76
(lp3349
g69
(g90
g71
NtRp3350
(dp3351
g74
(dp3352
g94
g95
ssg83
g3346
sg76
(lp3353
S'HTTP_CONNECTION'
p3354
asbag69
(g90
g71
NtRp3355
(dp3356
g74
(dp3357
g101
g102
ssg83
g3346
sg76
(lp3358
S':'
asbag69
(g90
g71
NtRp3359
(dp3360
g74
(dp3361
sg83
g3346
sg76
(lp3362
g69
(g70
g71
NtRp3363
(dp3364
g74
(dp3365
g82
I3
ssg83
g3359
sg76
(lp3366
g1708
asbasbasbag69
(g85
g71
NtRp3367
(dp3368
g74
(dp3369
sg83
g3237
sg76
(lp3370
g69
(g90
g71
NtRp3371
(dp3372
g74
(dp3373
g94
g95
ssg83
g3367
sg76
(lp3374
S'HTTP_COOKIE'
p3375
asbag69
(g90
g71
NtRp3376
(dp3377
g74
(dp3378
g101
g102
ssg83
g3367
sg76
(lp3379
S':'
asbag69
(g90
g71
NtRp3380
(dp3381
g74
(dp3382
sg83
g3367
sg76
(lp3383
g69
(g70
g71
NtRp3384
(dp3385
g74
(dp3386
g82
I3
ssg83
g3380
sg76
(lp3387
g1730
asbasbasbag69
(g85
g71
NtRp3388
(dp3389
g74
(dp3390
sg83
g3237
sg76
(lp3391
g69
(g90
g71
NtRp3392
(dp3393
g74
(dp3394
g94
g95
ssg83
g3388
sg76
(lp3395
S'HTTP_HOST'
p3396
asbag69
(g90
g71
NtRp3397
(dp3398
g74
(dp3399
g101
g102
ssg83
g3388
sg76
(lp3400
S':'
asbag69
(g90
g71
NtRp3401
(dp3402
g74
(dp3403
sg83
g3388
sg76
(lp3404
g69
(g70
g71
NtRp3405
(dp3406
g74
(dp3407
g82
I3
ssg83
g3401
sg76
(lp3408
g1752
asbasbasbag69
(g85
g71
NtRp3409
(dp3410
g74
(dp3411
sg83
g3237
sg76
(lp3412
g69
(g90
g71
NtRp3413
(dp3414
g74
(dp3415
g94
g95
ssg83
g3409
sg76
(lp3416
S'HTTP_REFERER'
p3417
asbag69
(g90
g71
NtRp3418
(dp3419
g74
(dp3420
g101
g102
ssg83
g3409
sg76
(lp3421
S':'
asbag69
(g90
g71
NtRp3422
(dp3423
g74
(dp3424
sg83
g3409
sg76
(lp3425
g69
(g70
g71
NtRp3426
(dp3427
g74
(dp3428
g82
I3
ssg83
g3422
sg76
(lp3429
g1774
asbasbasbag69
(g85
g71
NtRp3430
(dp3431
g74
(dp3432
sg83
g3237
sg76
(lp3433
g69
(g90
g71
NtRp3434
(dp3435
g74
(dp3436
g94
g95
ssg83
g3430
sg76
(lp3437
S'HTTP_USER_AGENT'
p3438
asbag69
(g90
g71
NtRp3439
(dp3440
g74
(dp3441
g101
g102
ssg83
g3430
sg76
(lp3442
S':'
asbag69
(g90
g71
NtRp3443
(dp3444
g74
(dp3445
sg83
g3430
sg76
(lp3446
g69
(g70
g71
NtRp3447
(dp3448
g74
(dp3449
g82
I3
ssg83
g3443
sg76
(lp3450
g1796
asbasbasbag69
(g85
g71
NtRp3451
(dp3452
g74
(dp3453
sg83
g3237
sg76
(lp3454
g69
(g90
g71
NtRp3455
(dp3456
g74
(dp3457
g94
g95
ssg83
g3451
sg76
(lp3458
S'PATH_INFO'
p3459
asbag69
(g90
g71
NtRp3460
(dp3461
g74
(dp3462
g101
g102
ssg83
g3451
sg76
(lp3463
S':'
asbag69
(g90
g71
NtRp3464
(dp3465
g74
(dp3466
sg83
g3451
sg76
(lp3467
g69
(g70
g71
NtRp3468
(dp3469
g74
(dp3470
g82
I3
ssg83
g3464
sg76
(lp3471
g1950
asbasbasbag69
(g85
g71
NtRp3472
(dp3473
g74
(dp3474
sg83
g3237
sg76
(lp3475
g69
(g90
g71
NtRp3476
(dp3477
g74
(dp3478
g94
g95
ssg83
g3472
sg76
(lp3479
S'QUERY_STRING'
p3480
asbag69
(g90
g71
NtRp3481
(dp3482
g74
(dp3483
g101
g102
ssg83
g3472
sg76
(lp3484
S':'
asbag69
(g90
g71
NtRp3485
(dp3486
g74
(dp3487
sg83
g3472
sg76
(lp3488
g69
(g70
g71
NtRp3489
(dp3490
g74
(dp3491
g82
I3
ssg83
g3485
sg76
(lp3492
S''
asbasbasbag69
(g85
g71
NtRp3493
(dp3494
g74
(dp3495
sg83
g3237
sg76
(lp3496
g69
(g90
g71
NtRp3497
(dp3498
g74
(dp3499
g94
g95
ssg83
g3493
sg76
(lp3500
S'REMOTE_ADDR'
p3501
asbag69
(g90
g71
NtRp3502
(dp3503
g74
(dp3504
g101
g102
ssg83
g3493
sg76
(lp3505
S':'
asbag69
(g90
g71
NtRp3506
(dp3507
g74
(dp3508
sg83
g3493
sg76
(lp3509
g69
(g70
g71
NtRp3510
(dp3511
g74
(dp3512
g82
I3
ssg83
g3506
sg76
(lp3513
g224
asbasbasbag69
(g85
g71
NtRp3514
(dp3515
g74
(dp3516
sg83
g3237
sg76
(lp3517
g69
(g90
g71
NtRp3518
(dp3519
g74
(dp3520
g94
g95
ssg83
g3514
sg76
(lp3521
S'REMOTE_PORT'
p3522
asbag69
(g90
g71
NtRp3523
(dp3524
g74
(dp3525
g101
g102
ssg83
g3514
sg76
(lp3526
S':'
asbag69
(g90
g71
NtRp3527
(dp3528
g74
(dp3529
sg83
g3514
sg76
(lp3530
g69
(g70
g71
NtRp3531
(dp3532
g74
(dp3533
g82
I3
ssg83
g3527
sg76
(lp3534
g2014
asbasbasbag69
(g85
g71
NtRp3535
(dp3536
g74
(dp3537
sg83
g3237
sg76
(lp3538
g69
(g90
g71
NtRp3539
(dp3540
g74
(dp3541
g94
g95
ssg83
g3535
sg76
(lp3542
S'REQUEST_METHOD'
p3543
asbag69
(g90
g71
NtRp3544
(dp3545
g74
(dp3546
g101
g102
ssg83
g3535
sg76
(lp3547
S':'
asbag69
(g90
g71
NtRp3548
(dp3549
g74
(dp3550
sg83
g3535
sg76
(lp3551
g69
(g70
g71
NtRp3552
(dp3553
g74
(dp3554
g82
I3
ssg83
g3548
sg76
(lp3555
g2036
asbasbasbag69
(g85
g71
NtRp3556
(dp3557
g74
(dp3558
sg83
g3237
sg76
(lp3559
g69
(g90
g71
NtRp3560
(dp3561
g74
(dp3562
g94
g95
ssg83
g3556
sg76
(lp3563
S'REQUEST_URI'
p3564
asbag69
(g90
g71
NtRp3565
(dp3566
g74
(dp3567
g101
g102
ssg83
g3556
sg76
(lp3568
S':'
asbag69
(g90
g71
NtRp3569
(dp3570
g74
(dp3571
sg83
g3556
sg76
(lp3572
g69
(g70
g71
NtRp3573
(dp3574
g74
(dp3575
g82
I3
ssg83
g3569
sg76
(lp3576
g1950
asbasbasbag69
(g85
g71
NtRp3577
(dp3578
g74
(dp3579
sg83
g3237
sg76
(lp3580
g69
(g90
g71
NtRp3581
(dp3582
g74
(dp3583
g94
g95
ssg83
g3577
sg76
(lp3584
S'SCRIPT_NAME'
p3585
asbag69
(g90
g71
NtRp3586
(dp3587
g74
(dp3588
g101
g102
ssg83
g3577
sg76
(lp3589
S':'
asbag69
(g90
g71
NtRp3590
(dp3591
g74
(dp3592
sg83
g3577
sg76
(lp3593
g69
(g70
g71
NtRp3594
(dp3595
g74
(dp3596
g82
I3
ssg83
g3590
sg76
(lp3597
S''
asbasbasbag69
(g85
g71
NtRp3598
(dp3599
g74
(dp3600
sg83
g3237
sg76
(lp3601
g69
(g90
g71
NtRp3602
(dp3603
g74
(dp3604
g94
g95
ssg83
g3598
sg76
(lp3605
S'SERVER_NAME'
p3606
asbag69
(g90
g71
NtRp3607
(dp3608
g74
(dp3609
g101
g102
ssg83
g3598
sg76
(lp3610
S':'
asbag69
(g90
g71
NtRp3611
(dp3612
g74
(dp3613
sg83
g3598
sg76
(lp3614
g69
(g70
g71
NtRp3615
(dp3616
g74
(dp3617
g82
I3
ssg83
g3611
sg76
(lp3618
g2100
asbasbasbag69
(g85
g71
NtRp3619
(dp3620
g74
(dp3621
sg83
g3237
sg76
(lp3622
g69
(g90
g71
NtRp3623
(dp3624
g74
(dp3625
g94
g95
ssg83
g3619
sg76
(lp3626
S'SERVER_PORT'
p3627
asbag69
(g90
g71
NtRp3628
(dp3629
g74
(dp3630
g101
g102
ssg83
g3619
sg76
(lp3631
S':'
asbag69
(g90
g71
NtRp3632
(dp3633
g74
(dp3634
sg83
g3619
sg76
(lp3635
g69
(g70
g71
NtRp3636
(dp3637
g74
(dp3638
g82
I3
ssg83
g3632
sg76
(lp3639
g2122
asbasbasbag69
(g85
g71
NtRp3640
(dp3641
g74
(dp3642
sg83
g3237
sg76
(lp3643
g69
(g90
g71
NtRp3644
(dp3645
g74
(dp3646
g94
g95
ssg83
g3640
sg76
(lp3647
S'SERVER_PROTOCOL'
p3648
asbag69
(g90
g71
NtRp3649
(dp3650
g74
(dp3651
g101
g102
ssg83
g3640
sg76
(lp3652
S':'
asbag69
(g90
g71
NtRp3653
(dp3654
g74
(dp3655
sg83
g3640
sg76
(lp3656
g69
(g70
g71
NtRp3657
(dp3658
g74
(dp3659
g82
I3
ssg83
g3653
sg76
(lp3660
g2144
asbasbasbag69
(g85
g71
NtRp3661
(dp3662
g74
(dp3663
sg83
g3237
sg76
(lp3664
g69
(g90
g71
NtRp3665
(dp3666
g74
(dp3667
g94
g95
ssg83
g3661
sg76
(lp3668
S'SERVER_SOFTWARE'
p3669
asbag69
(g90
g71
NtRp3670
(dp3671
g74
(dp3672
g101
g102
ssg83
g3661
sg76
(lp3673
S':'
asbag69
(g90
g71
NtRp3674
(dp3675
g74
(dp3676
sg83
g3661
sg76
(lp3677
g69
(g70
g71
NtRp3678
(dp3679
g74
(dp3680
g82
I3
ssg83
g3674
sg76
(lp3681
g2166
asbasbasbag69
(g85
g71
NtRp3682
(dp3683
g74
(dp3684
sg83
g3237
sg76
(lp3685
g69
(g90
g71
NtRp3686
(dp3687
g74
(dp3688
g94
g95
ssg83
g3682
sg76
(lp3689
S'wsgi.errors'
p3690
asbag69
(g90
g71
NtRp3691
(dp3692
g74
(dp3693
g101
g102
ssg83
g3682
sg76
(lp3694
S':'
asbag69
(g90
g71
NtRp3695
(dp3696
g74
(dp3697
sg83
g3682
sg76
(lp3698
g69
(g70
g71
NtRp3699
(dp3700
g74
(dp3701
g82
I3
ssg83
g3695
sg76
(lp3702
S"<open file '<stderr>', mode 'w' at 0xb789e0d0>"
p3703
asbasbasbag69
(g85
g71
NtRp3704
(dp3705
g74
(dp3706
sg83
g3237
sg76
(lp3707
g69
(g90
g71
NtRp3708
(dp3709
g74
(dp3710
g94
g95
ssg83
g3704
sg76
(lp3711
S'wsgi.file_wrapper'
p3712
asbag69
(g90
g71
NtRp3713
(dp3714
g74
(dp3715
g101
g102
ssg83
g3704
sg76
(lp3716
S':'
asbag69
(g90
g71
NtRp3717
(dp3718
g74
(dp3719
sg83
g3704
sg76
(lp3720
g69
(g70
g71
NtRp3721
(dp3722
g74
(dp3723
g82
I3
ssg83
g3717
sg76
(lp3724
S'<class wsgiref.util.FileWrapper at 0xa4afddc>'
p3725
asbasbasbag69
(g85
g71
NtRp3726
(dp3727
g74
(dp3728
sg83
g3237
sg76
(lp3729
g69
(g90
g71
NtRp3730
(dp3731
g74
(dp3732
g94
g95
ssg83
g3726
sg76
(lp3733
S'wsgi.input'
p3734
asbag69
(g90
g71
NtRp3735
(dp3736
g74
(dp3737
g101
g102
ssg83
g3726
sg76
(lp3738
S':'
asbag69
(g90
g71
NtRp3739
(dp3740
g74
(dp3741
sg83
g3726
sg76
(lp3742
g69
(g70
g71
NtRp3743
(dp3744
g74
(dp3745
g82
I3
ssg83
g3739
sg76
(lp3746
S'<cStringIO.StringO object at 0xacec380>'
p3747
asbasbasbag69
(g85
g71
NtRp3748
(dp3749
g74
(dp3750
sg83
g3237
sg76
(lp3751
g69
(g90
g71
NtRp3752
(dp3753
g74
(dp3754
g94
g95
ssg83
g3748
sg76
(lp3755
S'wsgi.multiprocess'
p3756
asbag69
(g90
g71
NtRp3757
(dp3758
g74
(dp3759
g101
g102
ssg83
g3748
sg76
(lp3760
S':'
asbag69
(g90
g71
NtRp3761
(dp3762
g74
(dp3763
sg83
g3748
sg76
(lp3764
g69
(g70
g71
NtRp3765
(dp3766
g74
(dp3767
g82
I3
ssg83
g3761
sg76
(lp3768
g112
asbasbasbag69
(g85
g71
NtRp3769
(dp3770
g74
(dp3771
sg83
g3237
sg76
(lp3772
g69
(g90
g71
NtRp3773
(dp3774
g74
(dp3775
g94
g95
ssg83
g3769
sg76
(lp3776
S'wsgi.multithread'
p3777
asbag69
(g90
g71
NtRp3778
(dp3779
g74
(dp3780
g101
g102
ssg83
g3769
sg76
(lp3781
S':'
asbag69
(g90
g71
NtRp3782
(dp3783
g74
(dp3784
sg83
g3769
sg76
(lp3785
g69
(g70
g71
NtRp3786
(dp3787
g74
(dp3788
g82
I3
ssg83
g3782
sg76
(lp3789
g2383
asbasbasbag69
(g85
g71
NtRp3790
(dp3791
g74
(dp3792
sg83
g3237
sg76
(lp3793
g69
(g90
g71
NtRp3794
(dp3795
g74
(dp3796
g94
g95
ssg83
g3790
sg76
(lp3797
S'wsgi.run_once'
p3798
asbag69
(g90
g71
NtRp3799
(dp3800
g74
(dp3801
g101
g102
ssg83
g3790
sg76
(lp3802
S':'
asbag69
(g90
g71
NtRp3803
(dp3804
g74
(dp3805
sg83
g3790
sg76
(lp3806
g69
(g70
g71
NtRp3807
(dp3808
g74
(dp3809
g82
I3
ssg83
g3803
sg76
(lp3810
g112
asbasbasbag69
(g85
g71
NtRp3811
(dp3812
g74
(dp3813
sg83
g3237
sg76
(lp3814
g69
(g90
g71
NtRp3815
(dp3816
g74
(dp3817
g94
g95
ssg83
g3811
sg76
(lp3818
S'wsgi.url_scheme'
p3819
asbag69
(g90
g71
NtRp3820
(dp3821
g74
(dp3822
g101
g102
ssg83
g3811
sg76
(lp3823
S':'
asbag69
(g90
g71
NtRp3824
(dp3825
g74
(dp3826
sg83
g3811
sg76
(lp3827
g69
(g70
g71
NtRp3828
(dp3829
g74
(dp3830
g82
I3
ssg83
g3824
sg76
(lp3831
g2426
asbasbasbag69
(g85
g71
NtRp3832
(dp3833
g74
(dp3834
sg83
g3237
sg76
(lp3835
g69
(g90
g71
NtRp3836
(dp3837
g74
(dp3838
g94
g95
ssg83
g3832
sg76
(lp3839
S'wsgi.version'
p3840
asbag69
(g90
g71
NtRp3841
(dp3842
g74
(dp3843
g101
g102
ssg83
g3832
sg76
(lp3844
S':'
asbag69
(g90
g71
NtRp3845
(dp3846
g74
(dp3847
sg83
g3832
sg76
(lp3848
g69
(g70
g71
NtRp3849
(dp3850
g74
(dp3851
g82
I3
ssg83
g3845
sg76
(lp3852
S'1'
asbasbasbasbasbasbasbasbasbasbasbasbasbsS'frames'
p3853
(lp3854
(dp3855
S'file'
p3856
S'/home/pratyush/web2py/gluon/restricted.py'
p3857
sS'dump'
p3858
(dp3859
S'code'
p3860
S'"# -*- coding: utf-8 -*-\\n\\n#######################...(\'description\',\'text\',requires = IS_NOT_EMPTY()))"'
p3861
sS'layer'
p3862
S"'/home/pratyush/web2py/applications/BuySell/models/db.py'"
p3863
sS'global compile2'
p3864
S'<function compile2>'
p3865
sS'ccode'
p3866
S'undefined'
p3867
ssS'lnum'
p3868
I211
sS'lines'
p3869
(dp3870
I206
S"    environment['__name__'] = '__restricted__'"
p3871
sI207
S'    try:'
p3872
sI208
S'        if isinstance(code, types.CodeType):'
p3873
sI209
S'            ccode = code'
p3874
sI210
S'        else:'
p3875
sI211
S'            ccode = compile2(code, layer)'
p3876
sI212
S'        exec ccode in environment'
p3877
sI213
S'    except HTTP:'
p3878
sI214
S'        raise'
p3879
sI215
S'    except RestrictedError:'
p3880
ssS'call'
p3881
S'(code="# -*- coding: utf-8 -*-\\n\\n#######################...(\'description\',\'text\',requires = IS_NOT_EMPTY()))", environment={\'A\': <class \'gluon.html.A\'>, \'B\': <class \'gluon.html.B\'>, \'BEAUTIFY\': <class \'gluon.html.BEAUTIFY\'>, \'BODY\': <class \'gluon.html.BODY\'>, \'BR\': <class \'gluon.html.BR\'>, \'BUTTON\': <class \'gluon.html.BUTTON\'>, \'CAT\': <class \'gluon.html.CAT\'>, \'CENTER\': <class \'gluon.html.CENTER\'>, \'CLEANUP\': <class \'gluon.validators.CLEANUP\'>, \'CODE\': <class \'gluon.html.CODE\'>, ...}, layer=\'/home/pratyush/web2py/applications/BuySell/models/db.py\')'
p3882
sS'func'
p3883
S'restricted'
p3884
sa(dp3885
g3856
S'/home/pratyush/web2py/gluon/restricted.py'
p3886
sg3858
(dp3887
S'builtincompile'
p3888
S'<built-in function compile>'
p3889
sS'code'
p3890
S'"# -*- coding: utf-8 -*-\\n\\n#######################...(\'description\',\'text\',requires = IS_NOT_EMPTY()))"'
p3891
sS'code.rstrip'
p3892
S'<built-in method rstrip of str object>'
p3893
sS').replace'
p3894
g3867
sS'layer'
p3895
S"'/home/pratyush/web2py/applications/BuySell/models/db.py'"
p3896
ssg3868
I194
sg3869
(dp3897
I192
S"    The +'\\n' is necessary else compile fails when code ends in a comment."
p3898
sI193
S'    """'
p3899
sI194
S"    return compile(code.rstrip().replace('\\r\\n', '\\n') + '\\n', layer, 'exec')"
p3900
sI195
S''
sI196
S''
sI197
S"def restricted(code, environment=None, layer='Unknown'):"
p3901
sI198
S'    """'
p3902
sI189
S''
sI190
S'def compile2(code, layer):'
p3903
sI191
S'    """'
p3904
ssg3881
S'(code="# -*- coding: utf-8 -*-\\n\\n#######################...(\'description\',\'text\',requires = IS_NOT_EMPTY()))", layer=\'/home/pratyush/web2py/applications/BuySell/models/db.py\')'
p3905
sg3883
S'compile2'
p3906
sasS'pyver'
p3907
S'Python 2.7.2+: /usr/bin/python2.7'
p3908
sS'session'
p3909
g69
(g70
g71
NtRp3910
(dp3911
g74
(dp3912
sg76
(lp3913
g69
(g78
g71
NtRp3914
(dp3915
g74
(dp3916
g82
I5
ssg83
Nsg76
(lp3917
sbasbsS'etype'
p3918
S"<type 'exceptions.IndentationError'>"
p3919
sS'date'
p3920
S'Mon Apr 22 11:51:33 2013'
p3921
sS'response'
p3922
g69
(g70
g71
NtRp3923
(dp3924
g74
(dp3925
sg76
(lp3926
g69
(g78
g71
NtRp3927
(dp3928
g74
(dp3929
g82
I5
ssg83
Nsg76
(lp3930
g69
(g85
g71
NtRp3931
(dp3932
g74
(dp3933
sg83
g3927
sg76
(lp3934
g69
(g90
g71
NtRp3935
(dp3936
g74
(dp3937
g94
g95
ssg83
g3931
sg76
(lp3938
g167
asbag69
(g90
g71
NtRp3939
(dp3940
g74
(dp3941
g101
g102
ssg83
g3931
sg76
(lp3942
S':'
asbag69
(g90
g71
NtRp3943
(dp3944
g74
(dp3945
sg83
g3931
sg76
(lp3946
g69
(g70
g71
NtRp3947
(dp3948
g74
(dp3949
g82
I5
ssg83
g3943
sg76
(lp3950
S'<cStringIO.StringO object at 0xae46360>'
p3951
asbasbasbag69
(g85
g71
NtRp3952
(dp3953
g74
(dp3954
sg83
g3927
sg76
(lp3955
g69
(g90
g71
NtRp3956
(dp3957
g74
(dp3958
g94
g95
ssg83
g3952
sg76
(lp3959
g255
asbag69
(g90
g71
NtRp3960
(dp3961
g74
(dp3962
g101
g102
ssg83
g3952
sg76
(lp3963
S':'
asbag69
(g90
g71
NtRp3964
(dp3965
g74
(dp3966
sg83
g3952
sg76
(lp3967
g69
(g70
g71
NtRp3968
(dp3969
g74
(dp3970
g82
I5
ssg83
g3964
sg76
(lp3971
g69
(g78
g71
NtRp3972
(dp3973
g74
(dp3974
g82
I4
ssg83
Nsg76
(lp3975
g69
(g85
g71
NtRp3976
(dp3977
g74
(dp3978
sg83
g3972
sg76
(lp3979
g69
(g90
g71
NtRp3980
(dp3981
g74
(dp3982
g94
g95
ssg83
g3976
sg76
(lp3983
S'session_id_buysell'
p3984
asbag69
(g90
g71
NtRp3985
(dp3986
g74
(dp3987
g101
g102
ssg83
g3976
sg76
(lp3988
S':'
asbag69
(g90
g71
NtRp3989
(dp3990
g74
(dp3991
sg83
g3976
sg76
(lp3992
g69
(g70
g71
NtRp3993
(dp3994
g74
(dp3995
g82
I4
ssg83
g3989
sg76
(lp3996
g673
ag69
(g78
g71
NtRp3997
(dp3998
g74
(dp3999
g82
I3
ssg83
Nsg76
(lp4000
g69
(g85
g71
NtRp4001
(dp4002
g74
(dp4003
sg83
g3997
sg76
(lp4004
g69
(g90
g71
NtRp4005
(dp4006
g74
(dp4007
g94
g95
ssg83
g4001
sg76
(lp4008
g306
asbag69
(g90
g71
NtRp4009
(dp4010
g74
(dp4011
g101
g102
ssg83
g4001
sg76
(lp4012
S':'
asbag69
(g90
g71
NtRp4013
(dp4014
g74
(dp4015
sg83
g4001
sg76
(lp4016
g69
(g70
g71
NtRp4017
(dp4018
g74
(dp4019
g82
I3
ssg83
g4013
sg76
(lp4020
S''
asbasbasbag69
(g85
g71
NtRp4021
(dp4022
g74
(dp4023
sg83
g3997
sg76
(lp4024
g69
(g90
g71
NtRp4025
(dp4026
g74
(dp4027
g94
g95
ssg83
g4021
sg76
(lp4028
g327
asbag69
(g90
g71
NtRp4029
(dp4030
g74
(dp4031
g101
g102
ssg83
g4021
sg76
(lp4032
S':'
asbag69
(g90
g71
NtRp4033
(dp4034
g74
(dp4035
sg83
g4021
sg76
(lp4036
g69
(g70
g71
NtRp4037
(dp4038
g74
(dp4039
g82
I3
ssg83
g4033
sg76
(lp4040
S''
asbasbasbag69
(g85
g71
NtRp4041
(dp4042
g74
(dp4043
sg83
g3997
sg76
(lp4044
g69
(g90
g71
NtRp4045
(dp4046
g74
(dp4047
g94
g95
ssg83
g4041
sg76
(lp4048
g348
asbag69
(g90
g71
NtRp4049
(dp4050
g74
(dp4051
g101
g102
ssg83
g4041
sg76
(lp4052
S':'
asbag69
(g90
g71
NtRp4053
(dp4054
g74
(dp4055
sg83
g4041
sg76
(lp4056
g69
(g70
g71
NtRp4057
(dp4058
g74
(dp4059
g82
I3
ssg83
g4053
sg76
(lp4060
S''
asbasbasbag69
(g85
g71
NtRp4061
(dp4062
g74
(dp4063
sg83
g3997
sg76
(lp4064
g69
(g90
g71
NtRp4065
(dp4066
g74
(dp4067
g94
g95
ssg83
g4061
sg76
(lp4068
g369
asbag69
(g90
g71
NtRp4069
(dp4070
g74
(dp4071
g101
g102
ssg83
g4061
sg76
(lp4072
S':'
asbag69
(g90
g71
NtRp4073
(dp4074
g74
(dp4075
sg83
g4061
sg76
(lp4076
g69
(g70
g71
NtRp4077
(dp4078
g74
(dp4079
g82
I3
ssg83
g4073
sg76
(lp4080
S''
asbasbasbag69
(g85
g71
NtRp4081
(dp4082
g74
(dp4083
sg83
g3997
sg76
(lp4084
g69
(g90
g71
NtRp4085
(dp4086
g74
(dp4087
g94
g95
ssg83
g4081
sg76
(lp4088
g390
asbag69
(g90
g71
NtRp4089
(dp4090
g74
(dp4091
g101
g102
ssg83
g4081
sg76
(lp4092
S':'
asbag69
(g90
g71
NtRp4093
(dp4094
g74
(dp4095
sg83
g4081
sg76
(lp4096
g69
(g70
g71
NtRp4097
(dp4098
g74
(dp4099
g82
I3
ssg83
g4093
sg76
(lp4100
S''
asbasbasbag69
(g85
g71
NtRp4101
(dp4102
g74
(dp4103
sg83
g3997
sg76
(lp4104
g69
(g90
g71
NtRp4105
(dp4106
g74
(dp4107
g94
g95
ssg83
g4101
sg76
(lp4108
g411
asbag69
(g90
g71
NtRp4109
(dp4110
g74
(dp4111
g101
g102
ssg83
g4101
sg76
(lp4112
S':'
asbag69
(g90
g71
NtRp4113
(dp4114
g74
(dp4115
sg83
g4101
sg76
(lp4116
g69
(g70
g71
NtRp4117
(dp4118
g74
(dp4119
g82
I3
ssg83
g4113
sg76
(lp4120
S'/'
asbasbasbag69
(g85
g71
NtRp4121
(dp4122
g74
(dp4123
sg83
g3997
sg76
(lp4124
g69
(g90
g71
NtRp4125
(dp4126
g74
(dp4127
g94
g95
ssg83
g4121
sg76
(lp4128
g432
asbag69
(g90
g71
NtRp4129
(dp4130
g74
(dp4131
g101
g102
ssg83
g4121
sg76
(lp4132
S':'
asbag69
(g90
g71
NtRp4133
(dp4134
g74
(dp4135
sg83
g4121
sg76
(lp4136
g69
(g70
g71
NtRp4137
(dp4138
g74
(dp4139
g82
I3
ssg83
g4133
sg76
(lp4140
S''
asbasbasbag69
(g85
g71
NtRp4141
(dp4142
g74
(dp4143
sg83
g3997
sg76
(lp4144
g69
(g90
g71
NtRp4145
(dp4146
g74
(dp4147
g94
g95
ssg83
g4141
sg76
(lp4148
g453
asbag69
(g90
g71
NtRp4149
(dp4150
g74
(dp4151
g101
g102
ssg83
g4141
sg76
(lp4152
S':'
asbag69
(g90
g71
NtRp4153
(dp4154
g74
(dp4155
sg83
g4141
sg76
(lp4156
g69
(g70
g71
NtRp4157
(dp4158
g74
(dp4159
g82
I3
ssg83
g4153
sg76
(lp4160
S''
asbasbasbasbasbasbasbasbasbasbasbag69
(g85
g71
NtRp4161
(dp4162
g74
(dp4163
sg83
g3927
sg76
(lp4164
g69
(g90
g71
NtRp4165
(dp4166
g74
(dp4167
g94
g95
ssg83
g4161
sg76
(lp4168
S'delimiters'
p4169
asbag69
(g90
g71
NtRp4170
(dp4171
g74
(dp4172
g101
g102
ssg83
g4161
sg76
(lp4173
S':'
asbag69
(g90
g71
NtRp4174
(dp4175
g74
(dp4176
sg83
g4161
sg76
(lp4177
g69
(g70
g71
NtRp4178
(dp4179
g74
(dp4180
g82
I5
ssg83
g4174
sg76
(lp4181
g69
(g78
g71
NtRp4182
(dp4183
g74
(dp4184
g82
I4
ssg83
Nsg76
(lp4185
g69
(g85
g71
NtRp4186
(dp4187
g74
(dp4188
sg83
g4182
sg76
(lp4189
g69
(g90
g71
NtRp4190
(dp4191
g74
(dp4192
sg83
g4186
sg76
(lp4193
g69
(g70
g71
NtRp4194
(dp4195
g74
(dp4196
g82
I4
ssg83
g4190
sg76
(lp4197
S'{{'
p4198
asbasbasbag69
(g85
g71
NtRp4199
(dp4200
g74
(dp4201
sg83
g4182
sg76
(lp4202
g69
(g90
g71
NtRp4203
(dp4204
g74
(dp4205
sg83
g4199
sg76
(lp4206
g69
(g70
g71
NtRp4207
(dp4208
g74
(dp4209
g82
I4
ssg83
g4203
sg76
(lp4210
S'}}'
p4211
asbasbasbasbasbasbasbag69
(g85
g71
NtRp4212
(dp4213
g74
(dp4214
sg83
g3927
sg76
(lp4215
g69
(g90
g71
NtRp4216
(dp4217
g74
(dp4218
g94
g95
ssg83
g4212
sg76
(lp4219
S'files'
p4220
asbag69
(g90
g71
NtRp4221
(dp4222
g74
(dp4223
g101
g102
ssg83
g4212
sg76
(lp4224
S':'
asbag69
(g90
g71
NtRp4225
(dp4226
g74
(dp4227
sg83
g4212
sg76
(lp4228
g69
(g70
g71
NtRp4229
(dp4230
g74
(dp4231
g82
I5
ssg83
g4225
sg76
(lp4232
g69
(g78
g71
NtRp4233
(dp4234
g74
(dp4235
g82
I4
ssg83
Nsg76
(lp4236
sbasbasbasbag69
(g85
g71
NtRp4237
(dp4238
g74
(dp4239
sg83
g3927
sg76
(lp4240
g69
(g90
g71
NtRp4241
(dp4242
g74
(dp4243
g94
g95
ssg83
g4237
sg76
(lp4244
S'flash'
p4245
asbag69
(g90
g71
NtRp4246
(dp4247
g74
(dp4248
g101
g102
ssg83
g4237
sg76
(lp4249
S':'
asbag69
(g90
g71
NtRp4250
(dp4251
g74
(dp4252
sg83
g4237
sg76
(lp4253
g69
(g70
g71
NtRp4254
(dp4255
g74
(dp4256
g82
I5
ssg83
g4250
sg76
(lp4257
S''
asbasbasbag69
(g85
g71
NtRp4258
(dp4259
g74
(dp4260
sg83
g3927
sg76
(lp4261
g69
(g90
g71
NtRp4262
(dp4263
g74
(dp4264
g94
g95
ssg83
g4258
sg76
(lp4265
S'generic_patterns'
p4266
asbag69
(g90
g71
NtRp4267
(dp4268
g74
(dp4269
g101
g102
ssg83
g4258
sg76
(lp4270
S':'
asbag69
(g90
g71
NtRp4271
(dp4272
g74
(dp4273
sg83
g4258
sg76
(lp4274
g69
(g70
g71
NtRp4275
(dp4276
g74
(dp4277
g82
I5
ssg83
g4271
sg76
(lp4278
g69
(g78
g71
NtRp4279
(dp4280
g74
(dp4281
g82
I4
ssg83
Nsg76
(lp4282
sbasbasbasbag69
(g85
g71
NtRp4283
(dp4284
g74
(dp4285
sg83
g3927
sg76
(lp4286
g69
(g90
g71
NtRp4287
(dp4288
g74
(dp4289
g94
g95
ssg83
g4283
sg76
(lp4290
S'headers'
p4291
asbag69
(g90
g71
NtRp4292
(dp4293
g74
(dp4294
g101
g102
ssg83
g4283
sg76
(lp4295
S':'
asbag69
(g90
g71
NtRp4296
(dp4297
g74
(dp4298
sg83
g4283
sg76
(lp4299
g69
(g70
g71
NtRp4300
(dp4301
g74
(dp4302
g82
I5
ssg83
g4296
sg76
(lp4303
g69
(g78
g71
NtRp4304
(dp4305
g74
(dp4306
g82
I4
ssg83
Nsg76
(lp4307
g69
(g85
g71
NtRp4308
(dp4309
g74
(dp4310
sg83
g4304
sg76
(lp4311
g69
(g90
g71
NtRp4312
(dp4313
g74
(dp4314
g94
g95
ssg83
g4308
sg76
(lp4315
S'X-Powered-By'
p4316
asbag69
(g90
g71
NtRp4317
(dp4318
g74
(dp4319
g101
g102
ssg83
g4308
sg76
(lp4320
S':'
asbag69
(g90
g71
NtRp4321
(dp4322
g74
(dp4323
sg83
g4308
sg76
(lp4324
g69
(g70
g71
NtRp4325
(dp4326
g74
(dp4327
g82
I4
ssg83
g4321
sg76
(lp4328
S'web2py'
p4329
asbasbasbasbasbasbasbag69
(g85
g71
NtRp4330
(dp4331
g74
(dp4332
sg83
g3927
sg76
(lp4333
g69
(g90
g71
NtRp4334
(dp4335
g74
(dp4336
g94
g95
ssg83
g4330
sg76
(lp4337
S'menu'
p4338
asbag69
(g90
g71
NtRp4339
(dp4340
g74
(dp4341
g101
g102
ssg83
g4330
sg76
(lp4342
S':'
asbag69
(g90
g71
NtRp4343
(dp4344
g74
(dp4345
sg83
g4330
sg76
(lp4346
g69
(g70
g71
NtRp4347
(dp4348
g74
(dp4349
g82
I5
ssg83
g4343
sg76
(lp4350
g69
(g78
g71
NtRp4351
(dp4352
g74
(dp4353
g82
I4
ssg83
Nsg76
(lp4354
sbasbasbasbag69
(g85
g71
NtRp4355
(dp4356
g74
(dp4357
sg83
g3927
sg76
(lp4358
g69
(g90
g71
NtRp4359
(dp4360
g74
(dp4361
g94
g95
ssg83
g4355
sg76
(lp4362
S'meta'
p4363
asbag69
(g90
g71
NtRp4364
(dp4365
g74
(dp4366
g101
g102
ssg83
g4355
sg76
(lp4367
S':'
asbag69
(g90
g71
NtRp4368
(dp4369
g74
(dp4370
sg83
g4355
sg76
(lp4371
g69
(g70
g71
NtRp4372
(dp4373
g74
(dp4374
g82
I5
ssg83
g4368
sg76
(lp4375
g69
(g78
g71
NtRp4376
(dp4377
g74
(dp4378
g82
I4
ssg83
Nsg76
(lp4379
sbasbasbasbag69
(g85
g71
NtRp4380
(dp4381
g74
(dp4382
sg83
g3927
sg76
(lp4383
g69
(g90
g71
NtRp4384
(dp4385
g74
(dp4386
g94
g95
ssg83
g4380
sg76
(lp4387
S'models_to_run'
p4388
asbag69
(g90
g71
NtRp4389
(dp4390
g74
(dp4391
g101
g102
ssg83
g4380
sg76
(lp4392
S':'
asbag69
(g90
g71
NtRp4393
(dp4394
g74
(dp4395
sg83
g4380
sg76
(lp4396
g69
(g70
g71
NtRp4397
(dp4398
g74
(dp4399
g82
I5
ssg83
g4393
sg76
(lp4400
g69
(g78
g71
NtRp4401
(dp4402
g74
(dp4403
g82
I4
ssg83
Nsg76
(lp4404
g69
(g85
g71
NtRp4405
(dp4406
g74
(dp4407
sg83
g4401
sg76
(lp4408
g69
(g90
g71
NtRp4409
(dp4410
g74
(dp4411
sg83
g4405
sg76
(lp4412
g69
(g70
g71
NtRp4413
(dp4414
g74
(dp4415
g82
I4
ssg83
g4409
sg76
(lp4416
S'^\\w+\\.py$'
p4417
asbasbasbag69
(g85
g71
NtRp4418
(dp4419
g74
(dp4420
sg83
g4401
sg76
(lp4421
g69
(g90
g71
NtRp4422
(dp4423
g74
(dp4424
sg83
g4418
sg76
(lp4425
g69
(g70
g71
NtRp4426
(dp4427
g74
(dp4428
g82
I4
ssg83
g4422
sg76
(lp4429
S'^default/\\w+\\.py$'
p4430
asbasbasbag69
(g85
g71
NtRp4431
(dp4432
g74
(dp4433
sg83
g4401
sg76
(lp4434
g69
(g90
g71
NtRp4435
(dp4436
g74
(dp4437
sg83
g4431
sg76
(lp4438
g69
(g70
g71
NtRp4439
(dp4440
g74
(dp4441
g82
I4
ssg83
g4435
sg76
(lp4442
S'^default/index/\\w+\\.py$'
p4443
asbasbasbasbasbasbasbag69
(g85
g71
NtRp4444
(dp4445
g74
(dp4446
sg83
g3927
sg76
(lp4447
g69
(g90
g71
NtRp4448
(dp4449
g74
(dp4450
g94
g95
ssg83
g4444
sg76
(lp4451
S'postprocessing'
p4452
asbag69
(g90
g71
NtRp4453
(dp4454
g74
(dp4455
g101
g102
ssg83
g4444
sg76
(lp4456
S':'
asbag69
(g90
g71
NtRp4457
(dp4458
g74
(dp4459
sg83
g4444
sg76
(lp4460
g69
(g70
g71
NtRp4461
(dp4462
g74
(dp4463
g82
I5
ssg83
g4457
sg76
(lp4464
g69
(g78
g71
NtRp4465
(dp4466
g74
(dp4467
g82
I4
ssg83
Nsg76
(lp4468
sbasbasbasbag69
(g85
g71
NtRp4469
(dp4470
g74
(dp4471
sg83
g3927
sg76
(lp4472
g69
(g90
g71
NtRp4473
(dp4474
g74
(dp4475
g94
g95
ssg83
g4469
sg76
(lp4476
S'session_cookie_expires'
p4477
asbag69
(g90
g71
NtRp4478
(dp4479
g74
(dp4480
g101
g102
ssg83
g4469
sg76
(lp4481
S':'
asbag69
(g90
g71
NtRp4482
(dp4483
g74
(dp4484
sg83
g4469
sg76
(lp4485
g69
(g70
g71
NtRp4486
(dp4487
g74
(dp4488
g82
I5
ssg83
g4482
sg76
(lp4489
S'None'
p4490
asbasbasbag69
(g85
g71
NtRp4491
(dp4492
g74
(dp4493
sg83
g3927
sg76
(lp4494
g69
(g90
g71
NtRp4495
(dp4496
g74
(dp4497
g94
g95
ssg83
g4491
sg76
(lp4498
S'session_data_name'
p4499
asbag69
(g90
g71
NtRp4500
(dp4501
g74
(dp4502
g101
g102
ssg83
g4491
sg76
(lp4503
S':'
asbag69
(g90
g71
NtRp4504
(dp4505
g74
(dp4506
sg83
g4491
sg76
(lp4507
g69
(g70
g71
NtRp4508
(dp4509
g74
(dp4510
g82
I5
ssg83
g4504
sg76
(lp4511
S'session_data_buysell'
p4512
asbasbasbag69
(g85
g71
NtRp4513
(dp4514
g74
(dp4515
sg83
g3927
sg76
(lp4516
g69
(g90
g71
NtRp4517
(dp4518
g74
(dp4519
g94
g95
ssg83
g4513
sg76
(lp4520
S'session_file'
p4521
asbag69
(g90
g71
NtRp4522
(dp4523
g74
(dp4524
g101
g102
ssg83
g4513
sg76
(lp4525
S':'
asbag69
(g90
g71
NtRp4526
(dp4527
g74
(dp4528
sg83
g4513
sg76
(lp4529
g69
(g70
g71
NtRp4530
(dp4531
g74
(dp4532
g82
I5
ssg83
g4526
sg76
(lp4533
S'None'
p4534
asbasbasbag69
(g85
g71
NtRp4535
(dp4536
g74
(dp4537
sg83
g3927
sg76
(lp4538
g69
(g90
g71
NtRp4539
(dp4540
g74
(dp4541
g94
g95
ssg83
g4535
sg76
(lp4542
S'session_filename'
p4543
asbag69
(g90
g71
NtRp4544
(dp4545
g74
(dp4546
g101
g102
ssg83
g4535
sg76
(lp4547
S':'
asbag69
(g90
g71
NtRp4548
(dp4549
g74
(dp4550
sg83
g4535
sg76
(lp4551
g69
(g70
g71
NtRp4552
(dp4553
g74
(dp4554
g82
I5
ssg83
g4548
sg76
(lp4555
S'/home/pratyush/web2py/applications/BuySell/sessions/127.0.0.1-d5a07803-4f5c-44c8-b05d-2876d30ca822'
p4556
asbasbasbag69
(g85
g71
NtRp4557
(dp4558
g74
(dp4559
sg83
g3927
sg76
(lp4560
g69
(g90
g71
NtRp4561
(dp4562
g74
(dp4563
g94
g95
ssg83
g4557
sg76
(lp4564
S'session_id'
p4565
asbag69
(g90
g71
NtRp4566
(dp4567
g74
(dp4568
g101
g102
ssg83
g4557
sg76
(lp4569
S':'
asbag69
(g90
g71
NtRp4570
(dp4571
g74
(dp4572
sg83
g4557
sg76
(lp4573
g69
(g70
g71
NtRp4574
(dp4575
g74
(dp4576
g82
I5
ssg83
g4570
sg76
(lp4577
g673
asbasbasbag69
(g85
g71
NtRp4578
(dp4579
g74
(dp4580
sg83
g3927
sg76
(lp4581
g69
(g90
g71
NtRp4582
(dp4583
g74
(dp4584
g94
g95
ssg83
g4578
sg76
(lp4585
S'session_id_name'
p4586
asbag69
(g90
g71
NtRp4587
(dp4588
g74
(dp4589
g101
g102
ssg83
g4578
sg76
(lp4590
S':'
asbag69
(g90
g71
NtRp4591
(dp4592
g74
(dp4593
sg83
g4578
sg76
(lp4594
g69
(g70
g71
NtRp4595
(dp4596
g74
(dp4597
g82
I5
ssg83
g4591
sg76
(lp4598
g3984
asbasbasbag69
(g85
g71
NtRp4599
(dp4600
g74
(dp4601
sg83
g3927
sg76
(lp4602
g69
(g90
g71
NtRp4603
(dp4604
g74
(dp4605
g94
g95
ssg83
g4599
sg76
(lp4606
S'session_new'
p4607
asbag69
(g90
g71
NtRp4608
(dp4609
g74
(dp4610
g101
g102
ssg83
g4599
sg76
(lp4611
S':'
asbag69
(g90
g71
NtRp4612
(dp4613
g74
(dp4614
sg83
g4599
sg76
(lp4615
g69
(g70
g71
NtRp4616
(dp4617
g74
(dp4618
g82
I5
ssg83
g4612
sg76
(lp4619
g112
asbasbasbag69
(g85
g71
NtRp4620
(dp4621
g74
(dp4622
sg83
g3927
sg76
(lp4623
g69
(g90
g71
NtRp4624
(dp4625
g74
(dp4626
g94
g95
ssg83
g4620
sg76
(lp4627
S'session_storage_type'
p4628
asbag69
(g90
g71
NtRp4629
(dp4630
g74
(dp4631
g101
g102
ssg83
g4620
sg76
(lp4632
S':'
asbag69
(g90
g71
NtRp4633
(dp4634
g74
(dp4635
sg83
g4620
sg76
(lp4636
g69
(g70
g71
NtRp4637
(dp4638
g74
(dp4639
g82
I5
ssg83
g4633
sg76
(lp4640
g3856
asbasbasbag69
(g85
g71
NtRp4641
(dp4642
g74
(dp4643
sg83
g3927
sg76
(lp4644
g69
(g90
g71
NtRp4645
(dp4646
g74
(dp4647
g94
g95
ssg83
g4641
sg76
(lp4648
S'status'
p4649
asbag69
(g90
g71
NtRp4650
(dp4651
g74
(dp4652
g101
g102
ssg83
g4641
sg76
(lp4653
S':'
asbag69
(g90
g71
NtRp4654
(dp4655
g74
(dp4656
sg83
g4641
sg76
(lp4657
g69
(g70
g71
NtRp4658
(dp4659
g74
(dp4660
g82
I5
ssg83
g4654
sg76
(lp4661
S'200'
p4662
asbasbasbag69
(g85
g71
NtRp4663
(dp4664
g74
(dp4665
sg83
g3927
sg76
(lp4666
g69
(g90
g71
NtRp4667
(dp4668
g74
(dp4669
g94
g95
ssg83
g4663
sg76
(lp4670
S'view'
p4671
asbag69
(g90
g71
NtRp4672
(dp4673
g74
(dp4674
g101
g102
ssg83
g4663
sg76
(lp4675
S':'
asbag69
(g90
g71
NtRp4676
(dp4677
g74
(dp4678
sg83
g4663
sg76
(lp4679
g69
(g70
g71
NtRp4680
(dp4681
g74
(dp4682
g82
I5
ssg83
g4676
sg76
(lp4683
S'default/index.html'
p4684
asbasbasbasbasbsS'locals'
p4685
(dp4686
g4
S"'/home/pratyush/web2py/applications/BuySell/models/db.py'"
p4687
sg6
S'"# -*- coding: utf-8 -*-\\n\\n#######################...(\'description\',\'text\',requires = IS_NOT_EMPTY()))"'
p4688
sssS'traceback'
p4689
S'Traceback (most recent call last):\n  File "/home/pratyush/web2py/gluon/restricted.py", line 211, in restricted\n    ccode = compile2(code, layer)\n  File "/home/pratyush/web2py/gluon/restricted.py", line 194, in compile2\n    return compile(code.rstrip().replace(\'\\r\\n\', \'\\n\') + \'\\n\', layer, \'exec\')\n  File "/home/pratyush/web2py/applications/BuySell/models/db.py", line 91\n    SQLField(\'description\',\'text\',requires = IS_NOT_EMPTY()))\n   ^\nIndentationError: unexpected indent\n'
p4690
s.