(dp1
S'output'
p2
S"<type 'exceptions.SyntaxError'> invalid syntax (item_d.html, line 101)"
p3
sS'layer'
p4
S'/home/pratyush/web2py/applications/BuySell/views/default/item_d.html'
p5
sS'code'
p6
S'response.write(\'<!DOCTYPE html>\\n<!-- paulirish.com/2008/conditional-stylesheets-vs-css-hacks-answer-neither/ -->\\n<!--[if lt IE 7]><html class="ie ie6 ie-lte9 ie-lte8 ie-lte7 no-js" lang="\', escape=False)\nresponse.write(T.accepted_language or \'en\')\nresponse.write(\'"> <![endif]-->\\n<!--[if IE 7]><html class="ie ie7 ie-lte9 ie-lte8 ie-lte7 no-js" lang="\', escape=False)\nresponse.write(T.accepted_language or \'en\')\nresponse.write(\'"> <![endif]-->\\n<!--[if IE 8]><html class="ie ie8 ie-lte9 ie-lte8 no-js" lang="\', escape=False)\nresponse.write(T.accepted_language or \'en\')\nresponse.write(\'"> <![endif]-->\\n<!--[if IE 9]><html class="ie9 ie-lte9 no-js" lang="\', escape=False)\nresponse.write(T.accepted_language or \'en\')\nresponse.write(\'"> <![endif]-->\\n<!--[if (gt IE 9)|!(IE)]><!--> <html class="no-js" lang="\', escape=False)\nresponse.write(T.accepted_language or \'en\')\nresponse.write(\'"> <!--<![endif]-->\\n<head>\\n  <meta charset="utf-8" />\\n  <!-- www.phpied.com/conditional-comments-block-downloads/ -->\\n  <!-- Always force latest IE rendering engine\\n       (even in intranet) & Chrome Frame\\n       Remove this if you use the .htaccess -->\\n  <!--[if IE]>\\n      <meta http-equiv="X-UA-Compatible" content="IE=edge\', escape=False)\nresponse.write(not request.is_local and \',chrome=1\' or \'\')\nresponse.write(\'">\\n      <![endif]-->\\n\\n  <title>Buy/Sell</title>\\n\\n  <!-- http://dev.w3.org/html5/markup/meta.name.html -->\\n  <meta name="application-name" content="\', escape=False)\nresponse.write(request.application)\nresponse.write(\'" />\\n\\n  <!-- Speaking of Google, don\\\'t forget to set your site up:\\n       http://google.com/webmasters -->\\n  <meta name="google-site-verification" content="" />\\n\\n  <!--  Mobile Viewport Fix\\n        j.mp/mobileviewport & davidbcalhoun.com/2010/viewport-metatag\\n        device-width: Occupy full width of the screen in its current orientation\\n        initial-scale = 1.0 retains dimensions instead of zooming out if page height > device height\\n        user-scalable = yes allows the user to zoom in -->\\n  <meta name="viewport" content="width=device-width, initial-scale=1.0" />\\n\\n  <link rel="shortcut icon" href="\', escape=False)\nresponse.write(URL(\'static\',\'images/favicon.ico\'))\nresponse.write(\'" type="image/x-icon">\\n  <link rel="apple-touch-icon" href="\', escape=False)\nresponse.write(URL(\'static\',\'images/favicon.png\'))\nresponse.write(\'">\\n\\n  <!-- All JavaScript at the bottom, except for Modernizr which enables\\n       HTML5 elements & feature detects -->\\n  <script src="\', escape=False)\nresponse.write(URL(\'static\',\'js/modernizr.custom.js\'))\nresponse.write(\'"></script>\\n\\n  <!-- include stylesheets -->\\n  \', escape=False)\nresponse.files.append(URL(\'static\',\'css/web2py.css\'))\nresponse.files.append(URL(\'static\',\'css/bootstrap.min.css\'))\nresponse.files.append(URL(\'static\',\'css/bootstrap-responsive.min.css\'))\nresponse.files.append(URL(\'static\',\'css/web2py_bootstrap.css\'))\nresponse.write(\'\\n\\n  \', escape=False)\nresponse.write(\'<script type="text/javascript"><!--\\n    // These variables are used by the web2py_ajax_init function in web2py_ajax.js (which is loaded below).\\n    var w2p_ajax_confirm_message = "\', escape=False)\nresponse.write(T(\'Are you sure you want to delete this object?\'))\nresponse.write(\'";\\n    var w2p_ajax_date_format = "\', escape=False)\nresponse.write(T(\'%Y-%m-%d\'))\nresponse.write(\'";\\n    var w2p_ajax_datetime_format = "\', escape=False)\nresponse.write(T(\'%Y-%m-%d %H:%M:%S\'))\nresponse.write(\'";\\n    //--></script>\\n\', escape=False)\nresponse.files.insert(0,URL(\'static\',\'js/jquery.js\'))\nresponse.files.insert(1,URL(\'static\',\'css/calendar.css\'))\nresponse.files.insert(2,URL(\'static\',\'js/calendar.js\'))\nresponse.files.insert(3,URL(\'static\',\'js/web2py.js\'))\nresponse.include_meta()\nresponse.include_files()\nresponse.write(\'\\n\', escape=False)\nresponse.write(\'\\n\\n  \', escape=False)\n# using sidebars need to know what sidebar you want to use\nleft_sidebar_enabled = globals().get(\'left_sidebar_enabled\',False)\nright_sidebar_enabled = globals().get(\'right_sidebar_enabled\',False)\nmiddle_columns = {0:\'span12\',1:\'span9\',2:\'span6\'}[\n(left_sidebar_enabled and 1 or 0)+(right_sidebar_enabled and 1 or 0)]\nresponse.write(\'\\n\\n  <!-- uncomment here to load jquery-ui\\n       <link rel="stylesheet" href="http://ajax.googleapis.com/ajax/libs/jqueryui/1.8.16/themes/base/jquery-ui.css" type="text/css" media="all" />\\n       <script src="http://ajax.googleapis.com/ajax/libs/jqueryui/1.8.16/jquery-ui.min.js" type="text/javascript"></script>\\n       uncomment to load jquery-ui //-->\\n  <noscript><link href="\', escape=False)\nresponse.write(URL(\'static\', \'css/web2py_bootstrap_nojs.css\'))\nresponse.write(\'" rel="stylesheet" type="text/css" /></noscript>\\n  \', escape=False)\nresponse.write(\'\\n</head>\\n\\n<body>\\n  <!-- Navbar ================================================== -->\\n  <div class="navbar navbar-inverse navbar-fixed-top">\\n    <div class="flash">\', escape=False)\nresponse.write(response.flash or \'\')\nresponse.write(\'</div>\\n    <div class="navbar-inner">\\n      <div class="container">\\n        <!-- the next tag is necessary for bootstrap menus, do not remove -->\\n        <button type="button" class="btn btn-navbar" data-toggle="collapse" data-target=".nav-collapse">\\n          <span class="icon-bar"></span>\\n          <span class="icon-bar"></span>\\n          <span class="icon-bar"></span>\\n        </button>\\n\\t\', escape=False)\nresponse.write(response.logo or \'\')\nresponse.write(\'\\n        <ul id="navbar" class="nav pull-right">\', escape=False)\nresponse.write(\'auth\' in globals() and auth.navbar(mode="dropdown") or \'\')\nresponse.write(\'</ul>\\n        <div class="nav-collapse">\\n          \', escape=False)\nis_mobile=request.user_agent().is_mobile\nresponse.write(\'\\n          \', escape=False)\nif response.menu:\n    response.write(\'\\n          \', escape=False)\n    response.write(MENU(response.menu, _class=\'mobile-menu nav\' if is_mobile else \'nav\',mobile=is_mobile,li_class=\'dropdown\',ul_class=\'dropdown-menu\'))\n    response.write(\'\\n          \', escape=False)\n    pass\nresponse.write(\'\\n        </div><!--/.nav-collapse -->\\n      </div>\\n    </div>\\n  </div><!--/top navbar -->\\n\\n  <div class="container">\\n  <br /><br />\\n    <!-- Masthead ================================================== -->\\n    <!--<header class="mastheader row" id="header">\\n        <div class="span12">\\n            <div class="page-header">\\n                <h1>\\n                   Buy/Sell \\n                    <small>Your one stop to buy and sell customizable products</small>\\n                </h1>\\n            </div>\\n        </div>\\n    </header>-->\\n\\n    <section id="main" class="main row">\\n        \', escape=False)\nif left_sidebar_enabled:\n    response.write(\'\\n        <div class="span3 left-sidebar">\\n            \', escape=False)\n    response.write(\'\\n            <h3>Left Sidebar</h3>\\n            <p></p>\\n            \', escape=False)\n    response.write(\'\\n        </div>\\n        \', escape=False)\n    pass\nresponse.write(\'\\n\\n        <div class="\', escape=False)\nresponse.write(middle_columns)\nresponse.write(\'">\\n            \', escape=False)\nresponse.write(\'\\n            \', escape=False)\nresponse.write(\'\\n\', escape=False)\nitem=item\nresponse.write(\'\\n\\n<h3>\', escape=False)\nresponse.write(item.name)\nresponse.write(\'</h3>\\n\\n<img src="\', escape=False)\nresponse.write(URL(\'download\',args=item.image ))\nresponse.write(\'" width=200px height=auto/>\\n\\n<p>\\n<ul>\\n\\n<li><b>Price:</b> Rs. \', escape=False)\nresponse.write(item.price)\nresponse.write(\'</li>\\n<li><b>Category:</b> \', escape=False)\nresponse.write(item.category)\nresponse.write(\'</li>\\n<li><b>Description:</b>\', escape=False)\nresponse.write(item.description)\nresponse.write(\'</li>\\n<li>\', escape=False)\nif item.selling_type==\'Bid\':\n    response.write(\'\\n        \', escape=False)\n    response.write(A(\'Bid\',_href=URL(r=request, f=\'place_bid\', args=item.id)))\n    response.write(\'\\n    \', escape=False)\n    pass\nresponse.write(\'\\n    \', escape=False)\nif item.selling_type==\'Buy\':\n    response.write(\'\\n        \', escape=False)\n    response.write(A(\'Buy\',_href=URL(r=request, f=\'buy_item\', args=item.id)))\n    response.write(\'\\n    \', escape=False)\n    pass\nresponse.write(\'\\n</li>\\n<li>\\n    <b>Seller Name</b>\\n    \', escape=False)\nfor i in seller:\n    response.write(\'\\n        \', escape=False)\n    if i.id == item.seller\n    response.write(\'\\n            \', escape=False)\n    response.write(A(i.first_name,_href=URL(r=request, f=\'seller\', args=item.id)))\n    response.write(\'\\n        \', escape=False)\n    pass\nresponse.write(\'\\n    \', escape=False)\npass\nresponse.write(\'\\n</li>\\n</ul>\\n</p>\\n\\n\\n\\n\', escape=False)\nresponse.write(reviews)\nresponse.write(\'\\n\', escape=False)\nresponse.write(form)\nresponse.write(\'\\n            \', escape=False)\nresponse.write(\'\\n        </div>\\n\\n        \', escape=False)\nif right_sidebar_enabled:\n    response.write(\'\\n        <div class="span3">\\n            \', escape=False)\n    response.write(\'\\n            <h3>Right Sidebar</h3>\\n            <p></p>\\n            \', escape=False)\n    response.write(\'\\n        </div>\\n        \', escape=False)\n    pass\nresponse.write(\'\\n    </section><!--/main-->\\n\\n    <!-- Footer ================================================== -->\\n    <div class="row">\\n        <footer class="footer span12" id="footer">\\n            <div class="footer-content">\\n                \', escape=False)\nresponse.write(\' <!-- this is default footer -->\\n                <div class="copyright pull-left">\', escape=False)\nresponse.write(T(\'Copyright\'))\nresponse.write(\' &#169; \', escape=False)\nresponse.write(request.now.year)\nresponse.write(\'</div>\\n                <div id="poweredBy" class="pull-right">\\n                    \', escape=False)\nresponse.write(T(\'Powered by\'))\nresponse.write(\'\\n                    <a href="http://www.web2py.com/">web2py</a>\\n                </div>\\n                \', escape=False)\nresponse.write(\'\\n            </div>\\n        </footer>\\n    </div>\\n\\n  </div> <!-- /container -->\\n\\n  <!-- The javascript =============================================\\n       (Placed at the end of the document so the pages load faster) -->\\n  <script src="\', escape=False)\nresponse.write(URL(\'static\',\'js/bootstrap.min.js\'))\nresponse.write(\'"></script>\\n  <script src="\', escape=False)\nresponse.write(URL(\'static\',\'js/web2py_bootstrap.js\'))\nresponse.write(\'"></script>\\n  <!--[if lt IE 7 ]>\\n      <script src="\', escape=False)\nresponse.write(URL(\'static\',\'js/dd_belatedpng.js\'))\nresponse.write(\'"></script>\\n      <script> DD_belatedPNG.fix(\\\'img, .png_bg\\\'); //fix any <img> or .png_bg background-images </script>\\n      <![endif]-->\\n  \\n  \', escape=False)\nif response.google_analytics_id:\n    response.write(\'\\n  <script src="\', escape=False)\n    response.write(URL(\'static\',\'js/analytics.js\'))\n    response.write(\'"></script>\\n  <script type="text/javascript">\\n  analytics.initialize({\\n    \\\'Google Analytics\\\':{trackingId:\\\'\', escape=False)\n    response.write(response.google_analytics_id)\n    response.write("\'} \\n  });</script>\\n  ", escape=False)\n    pass\nresponse.write(\'\\n  <script src="\', escape=False)\nresponse.write(URL(\'static\',\'js/share.js\',vars=dict(static=URL(\'static\',\'images\'))))\nresponse.write(\'"></script>\\n</body>\\n</html>\\n\\n\', escape=False)'
p7
sS'snapshot'
p8
(dp9
S'exception'
p10
(dp11
S'__getslice__'
p12
S"<method-wrapper '__getslice__' of exceptions.SyntaxError object>"
p13
sS'text'
p14
S"'    if i.id == item.seller\\n'"
p15
sS'__str__'
p16
S"<method-wrapper '__str__' of exceptions.SyntaxError object>"
p17
sS'__reduce__'
p18
S'<built-in method __reduce__ of exceptions.SyntaxError object>'
p19
sS'__dict__'
p20
S'{}'
p21
sS'__sizeof__'
p22
S'<built-in method __sizeof__ of exceptions.SyntaxError object>'
p23
sS'__init__'
p24
S"<method-wrapper '__init__' of exceptions.SyntaxError object>"
p25
sS'__setattr__'
p26
S"<method-wrapper '__setattr__' of exceptions.SyntaxError object>"
p27
sS'__reduce_ex__'
p28
S'<built-in method __reduce_ex__ of exceptions.SyntaxError object>'
p29
sS'__new__'
p30
S'<built-in method __new__ of type object>'
p31
sS'__format__'
p32
S'<built-in method __format__ of exceptions.SyntaxError object>'
p33
sS'__class__'
p34
S"<type 'exceptions.SyntaxError'>"
p35
sS'filename'
p36
S"'/home/pratyush/web2py/applications/BuySell/views/default/item_d.html'"
p37
sS'lineno'
p38
S'101'
p39
sS'msg'
p40
S"'invalid syntax'"
p41
sS'__doc__'
p42
S"'Invalid syntax.'"
p43
sS'__getitem__'
p44
S"<method-wrapper '__getitem__' of exceptions.SyntaxError object>"
p45
sS'__setstate__'
p46
S'<built-in method __setstate__ of exceptions.SyntaxError object>'
p47
sS'__getattribute__'
p48
S"<method-wrapper '__getattribute__' of exceptions.SyntaxError object>"
p49
sS'print_file_and_line'
p50
S'None'
p51
sS'args'
p52
S"('invalid syntax', ('/home/pratyush/web2py/applications/BuySell/views/default/item_d.html', 101, 27, '    if i.id == item.seller\\n'))"
p53
sS'__subclasshook__'
p54
S'<built-in method __subclasshook__ of type object>'
p55
sS'offset'
p56
S'27'
p57
sS'__unicode__'
p58
S'<built-in method __unicode__ of exceptions.SyntaxError object>'
p59
sS'__delattr__'
p60
S"<method-wrapper '__delattr__' of exceptions.SyntaxError object>"
p61
sS'__repr__'
p62
S"<method-wrapper '__repr__' of exceptions.SyntaxError object>"
p63
sS'__hash__'
p64
S"<method-wrapper '__hash__' of exceptions.SyntaxError object>"
p65
ssS'evalue'
p66
S'invalid syntax (item_d.html, line 101)'
p67
sS'request'
p68
ccopy_reg
_reconstructor
p69
(cgluon.html
BEAUTIFY
p70
c__builtin__
object
p71
NtRp72
(dp73
S'attributes'
p74
(dp75
sS'components'
p76
(lp77
g69
(cgluon.html
TABLE
p78
g71
NtRp79
(dp80
g74
(dp81
S'level'
p82
I5
ssS'parent'
p83
Nsg76
(lp84
g69
(cgluon.html
TR
p85
g71
NtRp86
(dp87
g74
(dp88
sg83
g79
sg76
(lp89
g69
(cgluon.html
TD
p90
g71
NtRp91
(dp92
g74
(dp93
S'_style'
p94
S'font-weight:bold;vertical-align:top'
p95
ssg83
g86
sg76
(lp96
S'ajax'
p97
asbag69
(g90
g71
NtRp98
(dp99
g74
(dp100
S'_valign'
p101
S'top'
p102
ssg83
g86
sg76
(lp103
S':'
asbag69
(g90
g71
NtRp104
(dp105
g74
(dp106
sg83
g86
sg76
(lp107
g69
(g70
g71
NtRp108
(dp109
g74
(dp110
g82
I5
ssg83
g104
sg76
(lp111
S'False'
p112
asbasbasbag69
(g85
g71
NtRp113
(dp114
g74
(dp115
sg83
g79
sg76
(lp116
g69
(g90
g71
NtRp117
(dp118
g74
(dp119
g94
g95
ssg83
g113
sg76
(lp120
S'application'
p121
asbag69
(g90
g71
NtRp122
(dp123
g74
(dp124
g101
g102
ssg83
g113
sg76
(lp125
S':'
asbag69
(g90
g71
NtRp126
(dp127
g74
(dp128
sg83
g113
sg76
(lp129
g69
(g70
g71
NtRp130
(dp131
g74
(dp132
g82
I5
ssg83
g126
sg76
(lp133
S'BuySell'
p134
asbasbasbag69
(g85
g71
NtRp135
(dp136
g74
(dp137
sg83
g79
sg76
(lp138
g69
(g90
g71
NtRp139
(dp140
g74
(dp141
g94
g95
ssg83
g135
sg76
(lp142
g52
asbag69
(g90
g71
NtRp143
(dp144
g74
(dp145
g101
g102
ssg83
g135
sg76
(lp146
S':'
asbag69
(g90
g71
NtRp147
(dp148
g74
(dp149
sg83
g135
sg76
(lp150
g69
(g70
g71
NtRp151
(dp152
g74
(dp153
g82
I5
ssg83
g147
sg76
(lp154
g69
(g78
g71
NtRp155
(dp156
g74
(dp157
g82
I4
ssg83
Nsg76
(lp158
g69
(g85
g71
NtRp159
(dp160
g74
(dp161
sg83
g155
sg76
(lp162
g69
(g90
g71
NtRp163
(dp164
g74
(dp165
sg83
g159
sg76
(lp166
g69
(g70
g71
NtRp167
(dp168
g74
(dp169
g82
I4
ssg83
g163
sg76
(lp170
S'8'
asbasbasbasbasbasbasbag69
(g85
g71
NtRp171
(dp172
g74
(dp173
sg83
g79
sg76
(lp174
g69
(g90
g71
NtRp175
(dp176
g74
(dp177
g94
g95
ssg83
g171
sg76
(lp178
S'body'
p179
asbag69
(g90
g71
NtRp180
(dp181
g74
(dp182
g101
g102
ssg83
g171
sg76
(lp183
S':'
asbag69
(g90
g71
NtRp184
(dp185
g74
(dp186
sg83
g171
sg76
(lp187
g69
(g70
g71
NtRp188
(dp189
g74
(dp190
g82
I5
ssg83
g184
sg76
(lp191
S'<cStringIO.StringO object at 0xb05bec0>'
p192
asbasbasbag69
(g85
g71
NtRp193
(dp194
g74
(dp195
sg83
g79
sg76
(lp196
g69
(g90
g71
NtRp197
(dp198
g74
(dp199
g94
g95
ssg83
g193
sg76
(lp200
S'cid'
p201
asbag69
(g90
g71
NtRp202
(dp203
g74
(dp204
g101
g102
ssg83
g193
sg76
(lp205
S':'
asbag69
(g90
g71
NtRp206
(dp207
g74
(dp208
sg83
g193
sg76
(lp209
g69
(g70
g71
NtRp210
(dp211
g74
(dp212
g82
I5
ssg83
g206
sg76
(lp213
S'None'
p214
asbasbasbag69
(g85
g71
NtRp215
(dp216
g74
(dp217
sg83
g79
sg76
(lp218
g69
(g90
g71
NtRp219
(dp220
g74
(dp221
g94
g95
ssg83
g215
sg76
(lp222
S'client'
p223
asbag69
(g90
g71
NtRp224
(dp225
g74
(dp226
g101
g102
ssg83
g215
sg76
(lp227
S':'
asbag69
(g90
g71
NtRp228
(dp229
g74
(dp230
sg83
g215
sg76
(lp231
g69
(g70
g71
NtRp232
(dp233
g74
(dp234
g82
I5
ssg83
g228
sg76
(lp235
S'127.0.0.1'
p236
asbasbasbag69
(g85
g71
NtRp237
(dp238
g74
(dp239
sg83
g79
sg76
(lp240
g69
(g90
g71
NtRp241
(dp242
g74
(dp243
g94
g95
ssg83
g237
sg76
(lp244
S'controller'
p245
asbag69
(g90
g71
NtRp246
(dp247
g74
(dp248
g101
g102
ssg83
g237
sg76
(lp249
S':'
asbag69
(g90
g71
NtRp250
(dp251
g74
(dp252
sg83
g237
sg76
(lp253
g69
(g70
g71
NtRp254
(dp255
g74
(dp256
g82
I5
ssg83
g250
sg76
(lp257
S'default'
p258
asbasbasbag69
(g85
g71
NtRp259
(dp260
g74
(dp261
sg83
g79
sg76
(lp262
g69
(g90
g71
NtRp263
(dp264
g74
(dp265
g94
g95
ssg83
g259
sg76
(lp266
S'cookies'
p267
asbag69
(g90
g71
NtRp268
(dp269
g74
(dp270
g101
g102
ssg83
g259
sg76
(lp271
S':'
asbag69
(g90
g71
NtRp272
(dp273
g74
(dp274
sg83
g259
sg76
(lp275
g69
(g70
g71
NtRp276
(dp277
g74
(dp278
g82
I5
ssg83
g272
sg76
(lp279
g69
(g78
g71
NtRp280
(dp281
g74
(dp282
g82
I4
ssg83
Nsg76
(lp283
g69
(g85
g71
NtRp284
(dp285
g74
(dp286
sg83
g280
sg76
(lp287
g69
(g90
g71
NtRp288
(dp289
g74
(dp290
g94
g95
ssg83
g284
sg76
(lp291
S'registered'
p292
asbag69
(g90
g71
NtRp293
(dp294
g74
(dp295
g101
g102
ssg83
g284
sg76
(lp296
S':'
asbag69
(g90
g71
NtRp297
(dp298
g74
(dp299
sg83
g284
sg76
(lp300
g69
(g70
g71
NtRp301
(dp302
g74
(dp303
g82
I4
ssg83
g297
sg76
(lp304
S'yes'
p305
ag69
(g78
g71
NtRp306
(dp307
g74
(dp308
g82
I3
ssg83
Nsg76
(lp309
g69
(g85
g71
NtRp310
(dp311
g74
(dp312
sg83
g306
sg76
(lp313
g69
(g90
g71
NtRp314
(dp315
g74
(dp316
g94
g95
ssg83
g310
sg76
(lp317
S'comment'
p318
asbag69
(g90
g71
NtRp319
(dp320
g74
(dp321
g101
g102
ssg83
g310
sg76
(lp322
S':'
asbag69
(g90
g71
NtRp323
(dp324
g74
(dp325
sg83
g310
sg76
(lp326
g69
(g70
g71
NtRp327
(dp328
g74
(dp329
g82
I3
ssg83
g323
sg76
(lp330
S''
asbasbasbag69
(g85
g71
NtRp331
(dp332
g74
(dp333
sg83
g306
sg76
(lp334
g69
(g90
g71
NtRp335
(dp336
g74
(dp337
g94
g95
ssg83
g331
sg76
(lp338
S'domain'
p339
asbag69
(g90
g71
NtRp340
(dp341
g74
(dp342
g101
g102
ssg83
g331
sg76
(lp343
S':'
asbag69
(g90
g71
NtRp344
(dp345
g74
(dp346
sg83
g331
sg76
(lp347
g69
(g70
g71
NtRp348
(dp349
g74
(dp350
g82
I3
ssg83
g344
sg76
(lp351
S''
asbasbasbag69
(g85
g71
NtRp352
(dp353
g74
(dp354
sg83
g306
sg76
(lp355
g69
(g90
g71
NtRp356
(dp357
g74
(dp358
g94
g95
ssg83
g352
sg76
(lp359
S'expires'
p360
asbag69
(g90
g71
NtRp361
(dp362
g74
(dp363
g101
g102
ssg83
g352
sg76
(lp364
S':'
asbag69
(g90
g71
NtRp365
(dp366
g74
(dp367
sg83
g352
sg76
(lp368
g69
(g70
g71
NtRp369
(dp370
g74
(dp371
g82
I3
ssg83
g365
sg76
(lp372
S''
asbasbasbag69
(g85
g71
NtRp373
(dp374
g74
(dp375
sg83
g306
sg76
(lp376
g69
(g90
g71
NtRp377
(dp378
g74
(dp379
g94
g95
ssg83
g373
sg76
(lp380
S'httponly'
p381
asbag69
(g90
g71
NtRp382
(dp383
g74
(dp384
g101
g102
ssg83
g373
sg76
(lp385
S':'
asbag69
(g90
g71
NtRp386
(dp387
g74
(dp388
sg83
g373
sg76
(lp389
g69
(g70
g71
NtRp390
(dp391
g74
(dp392
g82
I3
ssg83
g386
sg76
(lp393
S''
asbasbasbag69
(g85
g71
NtRp394
(dp395
g74
(dp396
sg83
g306
sg76
(lp397
g69
(g90
g71
NtRp398
(dp399
g74
(dp400
g94
g95
ssg83
g394
sg76
(lp401
S'max-age'
p402
asbag69
(g90
g71
NtRp403
(dp404
g74
(dp405
g101
g102
ssg83
g394
sg76
(lp406
S':'
asbag69
(g90
g71
NtRp407
(dp408
g74
(dp409
sg83
g394
sg76
(lp410
g69
(g70
g71
NtRp411
(dp412
g74
(dp413
g82
I3
ssg83
g407
sg76
(lp414
S''
asbasbasbag69
(g85
g71
NtRp415
(dp416
g74
(dp417
sg83
g306
sg76
(lp418
g69
(g90
g71
NtRp419
(dp420
g74
(dp421
g94
g95
ssg83
g415
sg76
(lp422
S'path'
p423
asbag69
(g90
g71
NtRp424
(dp425
g74
(dp426
g101
g102
ssg83
g415
sg76
(lp427
S':'
asbag69
(g90
g71
NtRp428
(dp429
g74
(dp430
sg83
g415
sg76
(lp431
g69
(g70
g71
NtRp432
(dp433
g74
(dp434
g82
I3
ssg83
g428
sg76
(lp435
S''
asbasbasbag69
(g85
g71
NtRp436
(dp437
g74
(dp438
sg83
g306
sg76
(lp439
g69
(g90
g71
NtRp440
(dp441
g74
(dp442
g94
g95
ssg83
g436
sg76
(lp443
S'secure'
p444
asbag69
(g90
g71
NtRp445
(dp446
g74
(dp447
g101
g102
ssg83
g436
sg76
(lp448
S':'
asbag69
(g90
g71
NtRp449
(dp450
g74
(dp451
sg83
g436
sg76
(lp452
g69
(g70
g71
NtRp453
(dp454
g74
(dp455
g82
I3
ssg83
g449
sg76
(lp456
S''
asbasbasbag69
(g85
g71
NtRp457
(dp458
g74
(dp459
sg83
g306
sg76
(lp460
g69
(g90
g71
NtRp461
(dp462
g74
(dp463
g94
g95
ssg83
g457
sg76
(lp464
S'version'
p465
asbag69
(g90
g71
NtRp466
(dp467
g74
(dp468
g101
g102
ssg83
g457
sg76
(lp469
S':'
asbag69
(g90
g71
NtRp470
(dp471
g74
(dp472
sg83
g457
sg76
(lp473
g69
(g70
g71
NtRp474
(dp475
g74
(dp476
g82
I3
ssg83
g470
sg76
(lp477
S''
asbasbasbasbasbasbasbag69
(g85
g71
NtRp478
(dp479
g74
(dp480
sg83
g280
sg76
(lp481
g69
(g90
g71
NtRp482
(dp483
g74
(dp484
g94
g95
ssg83
g478
sg76
(lp485
S'session_id_admin'
p486
asbag69
(g90
g71
NtRp487
(dp488
g74
(dp489
g101
g102
ssg83
g478
sg76
(lp490
S':'
asbag69
(g90
g71
NtRp491
(dp492
g74
(dp493
sg83
g478
sg76
(lp494
g69
(g70
g71
NtRp495
(dp496
g74
(dp497
g82
I4
ssg83
g491
sg76
(lp498
S'127.0.0.1-5c3e6318-3a14-4ff1-97a6-1063e44c4cd9'
p499
ag69
(g78
g71
NtRp500
(dp501
g74
(dp502
g82
I3
ssg83
Nsg76
(lp503
g69
(g85
g71
NtRp504
(dp505
g74
(dp506
sg83
g500
sg76
(lp507
g69
(g90
g71
NtRp508
(dp509
g74
(dp510
g94
g95
ssg83
g504
sg76
(lp511
g318
asbag69
(g90
g71
NtRp512
(dp513
g74
(dp514
g101
g102
ssg83
g504
sg76
(lp515
S':'
asbag69
(g90
g71
NtRp516
(dp517
g74
(dp518
sg83
g504
sg76
(lp519
g69
(g70
g71
NtRp520
(dp521
g74
(dp522
g82
I3
ssg83
g516
sg76
(lp523
S''
asbasbasbag69
(g85
g71
NtRp524
(dp525
g74
(dp526
sg83
g500
sg76
(lp527
g69
(g90
g71
NtRp528
(dp529
g74
(dp530
g94
g95
ssg83
g524
sg76
(lp531
g339
asbag69
(g90
g71
NtRp532
(dp533
g74
(dp534
g101
g102
ssg83
g524
sg76
(lp535
S':'
asbag69
(g90
g71
NtRp536
(dp537
g74
(dp538
sg83
g524
sg76
(lp539
g69
(g70
g71
NtRp540
(dp541
g74
(dp542
g82
I3
ssg83
g536
sg76
(lp543
S''
asbasbasbag69
(g85
g71
NtRp544
(dp545
g74
(dp546
sg83
g500
sg76
(lp547
g69
(g90
g71
NtRp548
(dp549
g74
(dp550
g94
g95
ssg83
g544
sg76
(lp551
g360
asbag69
(g90
g71
NtRp552
(dp553
g74
(dp554
g101
g102
ssg83
g544
sg76
(lp555
S':'
asbag69
(g90
g71
NtRp556
(dp557
g74
(dp558
sg83
g544
sg76
(lp559
g69
(g70
g71
NtRp560
(dp561
g74
(dp562
g82
I3
ssg83
g556
sg76
(lp563
S''
asbasbasbag69
(g85
g71
NtRp564
(dp565
g74
(dp566
sg83
g500
sg76
(lp567
g69
(g90
g71
NtRp568
(dp569
g74
(dp570
g94
g95
ssg83
g564
sg76
(lp571
g381
asbag69
(g90
g71
NtRp572
(dp573
g74
(dp574
g101
g102
ssg83
g564
sg76
(lp575
S':'
asbag69
(g90
g71
NtRp576
(dp577
g74
(dp578
sg83
g564
sg76
(lp579
g69
(g70
g71
NtRp580
(dp581
g74
(dp582
g82
I3
ssg83
g576
sg76
(lp583
S''
asbasbasbag69
(g85
g71
NtRp584
(dp585
g74
(dp586
sg83
g500
sg76
(lp587
g69
(g90
g71
NtRp588
(dp589
g74
(dp590
g94
g95
ssg83
g584
sg76
(lp591
g402
asbag69
(g90
g71
NtRp592
(dp593
g74
(dp594
g101
g102
ssg83
g584
sg76
(lp595
S':'
asbag69
(g90
g71
NtRp596
(dp597
g74
(dp598
sg83
g584
sg76
(lp599
g69
(g70
g71
NtRp600
(dp601
g74
(dp602
g82
I3
ssg83
g596
sg76
(lp603
S''
asbasbasbag69
(g85
g71
NtRp604
(dp605
g74
(dp606
sg83
g500
sg76
(lp607
g69
(g90
g71
NtRp608
(dp609
g74
(dp610
g94
g95
ssg83
g604
sg76
(lp611
g423
asbag69
(g90
g71
NtRp612
(dp613
g74
(dp614
g101
g102
ssg83
g604
sg76
(lp615
S':'
asbag69
(g90
g71
NtRp616
(dp617
g74
(dp618
sg83
g604
sg76
(lp619
g69
(g70
g71
NtRp620
(dp621
g74
(dp622
g82
I3
ssg83
g616
sg76
(lp623
S''
asbasbasbag69
(g85
g71
NtRp624
(dp625
g74
(dp626
sg83
g500
sg76
(lp627
g69
(g90
g71
NtRp628
(dp629
g74
(dp630
g94
g95
ssg83
g624
sg76
(lp631
g444
asbag69
(g90
g71
NtRp632
(dp633
g74
(dp634
g101
g102
ssg83
g624
sg76
(lp635
S':'
asbag69
(g90
g71
NtRp636
(dp637
g74
(dp638
sg83
g624
sg76
(lp639
g69
(g70
g71
NtRp640
(dp641
g74
(dp642
g82
I3
ssg83
g636
sg76
(lp643
S''
asbasbasbag69
(g85
g71
NtRp644
(dp645
g74
(dp646
sg83
g500
sg76
(lp647
g69
(g90
g71
NtRp648
(dp649
g74
(dp650
g94
g95
ssg83
g644
sg76
(lp651
g465
asbag69
(g90
g71
NtRp652
(dp653
g74
(dp654
g101
g102
ssg83
g644
sg76
(lp655
S':'
asbag69
(g90
g71
NtRp656
(dp657
g74
(dp658
sg83
g644
sg76
(lp659
g69
(g70
g71
NtRp660
(dp661
g74
(dp662
g82
I3
ssg83
g656
sg76
(lp663
S''
asbasbasbasbasbasbasbag69
(g85
g71
NtRp664
(dp665
g74
(dp666
sg83
g280
sg76
(lp667
g69
(g90
g71
NtRp668
(dp669
g74
(dp670
g94
g95
ssg83
g664
sg76
(lp671
S'session_id_buysell'
p672
asbag69
(g90
g71
NtRp673
(dp674
g74
(dp675
g101
g102
ssg83
g664
sg76
(lp676
S':'
asbag69
(g90
g71
NtRp677
(dp678
g74
(dp679
sg83
g664
sg76
(lp680
g69
(g70
g71
NtRp681
(dp682
g74
(dp683
g82
I4
ssg83
g677
sg76
(lp684
S'127.0.0.1-d5a07803-4f5c-44c8-b05d-2876d30ca822'
p685
ag69
(g78
g71
NtRp686
(dp687
g74
(dp688
g82
I3
ssg83
Nsg76
(lp689
g69
(g85
g71
NtRp690
(dp691
g74
(dp692
sg83
g686
sg76
(lp693
g69
(g90
g71
NtRp694
(dp695
g74
(dp696
g94
g95
ssg83
g690
sg76
(lp697
g318
asbag69
(g90
g71
NtRp698
(dp699
g74
(dp700
g101
g102
ssg83
g690
sg76
(lp701
S':'
asbag69
(g90
g71
NtRp702
(dp703
g74
(dp704
sg83
g690
sg76
(lp705
g69
(g70
g71
NtRp706
(dp707
g74
(dp708
g82
I3
ssg83
g702
sg76
(lp709
S''
asbasbasbag69
(g85
g71
NtRp710
(dp711
g74
(dp712
sg83
g686
sg76
(lp713
g69
(g90
g71
NtRp714
(dp715
g74
(dp716
g94
g95
ssg83
g710
sg76
(lp717
g339
asbag69
(g90
g71
NtRp718
(dp719
g74
(dp720
g101
g102
ssg83
g710
sg76
(lp721
S':'
asbag69
(g90
g71
NtRp722
(dp723
g74
(dp724
sg83
g710
sg76
(lp725
g69
(g70
g71
NtRp726
(dp727
g74
(dp728
g82
I3
ssg83
g722
sg76
(lp729
S''
asbasbasbag69
(g85
g71
NtRp730
(dp731
g74
(dp732
sg83
g686
sg76
(lp733
g69
(g90
g71
NtRp734
(dp735
g74
(dp736
g94
g95
ssg83
g730
sg76
(lp737
g360
asbag69
(g90
g71
NtRp738
(dp739
g74
(dp740
g101
g102
ssg83
g730
sg76
(lp741
S':'
asbag69
(g90
g71
NtRp742
(dp743
g74
(dp744
sg83
g730
sg76
(lp745
g69
(g70
g71
NtRp746
(dp747
g74
(dp748
g82
I3
ssg83
g742
sg76
(lp749
S''
asbasbasbag69
(g85
g71
NtRp750
(dp751
g74
(dp752
sg83
g686
sg76
(lp753
g69
(g90
g71
NtRp754
(dp755
g74
(dp756
g94
g95
ssg83
g750
sg76
(lp757
g381
asbag69
(g90
g71
NtRp758
(dp759
g74
(dp760
g101
g102
ssg83
g750
sg76
(lp761
S':'
asbag69
(g90
g71
NtRp762
(dp763
g74
(dp764
sg83
g750
sg76
(lp765
g69
(g70
g71
NtRp766
(dp767
g74
(dp768
g82
I3
ssg83
g762
sg76
(lp769
S''
asbasbasbag69
(g85
g71
NtRp770
(dp771
g74
(dp772
sg83
g686
sg76
(lp773
g69
(g90
g71
NtRp774
(dp775
g74
(dp776
g94
g95
ssg83
g770
sg76
(lp777
g402
asbag69
(g90
g71
NtRp778
(dp779
g74
(dp780
g101
g102
ssg83
g770
sg76
(lp781
S':'
asbag69
(g90
g71
NtRp782
(dp783
g74
(dp784
sg83
g770
sg76
(lp785
g69
(g70
g71
NtRp786
(dp787
g74
(dp788
g82
I3
ssg83
g782
sg76
(lp789
S''
asbasbasbag69
(g85
g71
NtRp790
(dp791
g74
(dp792
sg83
g686
sg76
(lp793
g69
(g90
g71
NtRp794
(dp795
g74
(dp796
g94
g95
ssg83
g790
sg76
(lp797
g423
asbag69
(g90
g71
NtRp798
(dp799
g74
(dp800
g101
g102
ssg83
g790
sg76
(lp801
S':'
asbag69
(g90
g71
NtRp802
(dp803
g74
(dp804
sg83
g790
sg76
(lp805
g69
(g70
g71
NtRp806
(dp807
g74
(dp808
g82
I3
ssg83
g802
sg76
(lp809
S''
asbasbasbag69
(g85
g71
NtRp810
(dp811
g74
(dp812
sg83
g686
sg76
(lp813
g69
(g90
g71
NtRp814
(dp815
g74
(dp816
g94
g95
ssg83
g810
sg76
(lp817
g444
asbag69
(g90
g71
NtRp818
(dp819
g74
(dp820
g101
g102
ssg83
g810
sg76
(lp821
S':'
asbag69
(g90
g71
NtRp822
(dp823
g74
(dp824
sg83
g810
sg76
(lp825
g69
(g70
g71
NtRp826
(dp827
g74
(dp828
g82
I3
ssg83
g822
sg76
(lp829
S''
asbasbasbag69
(g85
g71
NtRp830
(dp831
g74
(dp832
sg83
g686
sg76
(lp833
g69
(g90
g71
NtRp834
(dp835
g74
(dp836
g94
g95
ssg83
g830
sg76
(lp837
g465
asbag69
(g90
g71
NtRp838
(dp839
g74
(dp840
g101
g102
ssg83
g830
sg76
(lp841
S':'
asbag69
(g90
g71
NtRp842
(dp843
g74
(dp844
sg83
g830
sg76
(lp845
g69
(g70
g71
NtRp846
(dp847
g74
(dp848
g82
I3
ssg83
g842
sg76
(lp849
S''
asbasbasbasbasbasbasbag69
(g85
g71
NtRp850
(dp851
g74
(dp852
sg83
g280
sg76
(lp853
g69
(g90
g71
NtRp854
(dp855
g74
(dp856
g94
g95
ssg83
g850
sg76
(lp857
S'session_id_music_library'
p858
asbag69
(g90
g71
NtRp859
(dp860
g74
(dp861
g101
g102
ssg83
g850
sg76
(lp862
S':'
asbag69
(g90
g71
NtRp863
(dp864
g74
(dp865
sg83
g850
sg76
(lp866
g69
(g70
g71
NtRp867
(dp868
g74
(dp869
g82
I4
ssg83
g863
sg76
(lp870
S'127.0.0.1-dd9b4880-33cf-4894-a8a9-2640c5c78a01'
p871
ag69
(g78
g71
NtRp872
(dp873
g74
(dp874
g82
I3
ssg83
Nsg76
(lp875
g69
(g85
g71
NtRp876
(dp877
g74
(dp878
sg83
g872
sg76
(lp879
g69
(g90
g71
NtRp880
(dp881
g74
(dp882
g94
g95
ssg83
g876
sg76
(lp883
g318
asbag69
(g90
g71
NtRp884
(dp885
g74
(dp886
g101
g102
ssg83
g876
sg76
(lp887
S':'
asbag69
(g90
g71
NtRp888
(dp889
g74
(dp890
sg83
g876
sg76
(lp891
g69
(g70
g71
NtRp892
(dp893
g74
(dp894
g82
I3
ssg83
g888
sg76
(lp895
S''
asbasbasbag69
(g85
g71
NtRp896
(dp897
g74
(dp898
sg83
g872
sg76
(lp899
g69
(g90
g71
NtRp900
(dp901
g74
(dp902
g94
g95
ssg83
g896
sg76
(lp903
g339
asbag69
(g90
g71
NtRp904
(dp905
g74
(dp906
g101
g102
ssg83
g896
sg76
(lp907
S':'
asbag69
(g90
g71
NtRp908
(dp909
g74
(dp910
sg83
g896
sg76
(lp911
g69
(g70
g71
NtRp912
(dp913
g74
(dp914
g82
I3
ssg83
g908
sg76
(lp915
S''
asbasbasbag69
(g85
g71
NtRp916
(dp917
g74
(dp918
sg83
g872
sg76
(lp919
g69
(g90
g71
NtRp920
(dp921
g74
(dp922
g94
g95
ssg83
g916
sg76
(lp923
g360
asbag69
(g90
g71
NtRp924
(dp925
g74
(dp926
g101
g102
ssg83
g916
sg76
(lp927
S':'
asbag69
(g90
g71
NtRp928
(dp929
g74
(dp930
sg83
g916
sg76
(lp931
g69
(g70
g71
NtRp932
(dp933
g74
(dp934
g82
I3
ssg83
g928
sg76
(lp935
S''
asbasbasbag69
(g85
g71
NtRp936
(dp937
g74
(dp938
sg83
g872
sg76
(lp939
g69
(g90
g71
NtRp940
(dp941
g74
(dp942
g94
g95
ssg83
g936
sg76
(lp943
g381
asbag69
(g90
g71
NtRp944
(dp945
g74
(dp946
g101
g102
ssg83
g936
sg76
(lp947
S':'
asbag69
(g90
g71
NtRp948
(dp949
g74
(dp950
sg83
g936
sg76
(lp951
g69
(g70
g71
NtRp952
(dp953
g74
(dp954
g82
I3
ssg83
g948
sg76
(lp955
S''
asbasbasbag69
(g85
g71
NtRp956
(dp957
g74
(dp958
sg83
g872
sg76
(lp959
g69
(g90
g71
NtRp960
(dp961
g74
(dp962
g94
g95
ssg83
g956
sg76
(lp963
g402
asbag69
(g90
g71
NtRp964
(dp965
g74
(dp966
g101
g102
ssg83
g956
sg76
(lp967
S':'
asbag69
(g90
g71
NtRp968
(dp969
g74
(dp970
sg83
g956
sg76
(lp971
g69
(g70
g71
NtRp972
(dp973
g74
(dp974
g82
I3
ssg83
g968
sg76
(lp975
S''
asbasbasbag69
(g85
g71
NtRp976
(dp977
g74
(dp978
sg83
g872
sg76
(lp979
g69
(g90
g71
NtRp980
(dp981
g74
(dp982
g94
g95
ssg83
g976
sg76
(lp983
g423
asbag69
(g90
g71
NtRp984
(dp985
g74
(dp986
g101
g102
ssg83
g976
sg76
(lp987
S':'
asbag69
(g90
g71
NtRp988
(dp989
g74
(dp990
sg83
g976
sg76
(lp991
g69
(g70
g71
NtRp992
(dp993
g74
(dp994
g82
I3
ssg83
g988
sg76
(lp995
S''
asbasbasbag69
(g85
g71
NtRp996
(dp997
g74
(dp998
sg83
g872
sg76
(lp999
g69
(g90
g71
NtRp1000
(dp1001
g74
(dp1002
g94
g95
ssg83
g996
sg76
(lp1003
g444
asbag69
(g90
g71
NtRp1004
(dp1005
g74
(dp1006
g101
g102
ssg83
g996
sg76
(lp1007
S':'
asbag69
(g90
g71
NtRp1008
(dp1009
g74
(dp1010
sg83
g996
sg76
(lp1011
g69
(g70
g71
NtRp1012
(dp1013
g74
(dp1014
g82
I3
ssg83
g1008
sg76
(lp1015
S''
asbasbasbag69
(g85
g71
NtRp1016
(dp1017
g74
(dp1018
sg83
g872
sg76
(lp1019
g69
(g90
g71
NtRp1020
(dp1021
g74
(dp1022
g94
g95
ssg83
g1016
sg76
(lp1023
g465
asbag69
(g90
g71
NtRp1024
(dp1025
g74
(dp1026
g101
g102
ssg83
g1016
sg76
(lp1027
S':'
asbag69
(g90
g71
NtRp1028
(dp1029
g74
(dp1030
sg83
g1016
sg76
(lp1031
g69
(g70
g71
NtRp1032
(dp1033
g74
(dp1034
g82
I3
ssg83
g1028
sg76
(lp1035
S''
asbasbasbasbasbasbasbag69
(g85
g71
NtRp1036
(dp1037
g74
(dp1038
sg83
g280
sg76
(lp1039
g69
(g90
g71
NtRp1040
(dp1041
g74
(dp1042
g94
g95
ssg83
g1036
sg76
(lp1043
S'session_id_outreach'
p1044
asbag69
(g90
g71
NtRp1045
(dp1046
g74
(dp1047
g101
g102
ssg83
g1036
sg76
(lp1048
S':'
asbag69
(g90
g71
NtRp1049
(dp1050
g74
(dp1051
sg83
g1036
sg76
(lp1052
g69
(g70
g71
NtRp1053
(dp1054
g74
(dp1055
g82
I4
ssg83
g1049
sg76
(lp1056
S'127.0.0.1-00c3bb02-539e-4bc1-ab10-e3c500bd1248'
p1057
ag69
(g78
g71
NtRp1058
(dp1059
g74
(dp1060
g82
I3
ssg83
Nsg76
(lp1061
g69
(g85
g71
NtRp1062
(dp1063
g74
(dp1064
sg83
g1058
sg76
(lp1065
g69
(g90
g71
NtRp1066
(dp1067
g74
(dp1068
g94
g95
ssg83
g1062
sg76
(lp1069
g318
asbag69
(g90
g71
NtRp1070
(dp1071
g74
(dp1072
g101
g102
ssg83
g1062
sg76
(lp1073
S':'
asbag69
(g90
g71
NtRp1074
(dp1075
g74
(dp1076
sg83
g1062
sg76
(lp1077
g69
(g70
g71
NtRp1078
(dp1079
g74
(dp1080
g82
I3
ssg83
g1074
sg76
(lp1081
S''
asbasbasbag69
(g85
g71
NtRp1082
(dp1083
g74
(dp1084
sg83
g1058
sg76
(lp1085
g69
(g90
g71
NtRp1086
(dp1087
g74
(dp1088
g94
g95
ssg83
g1082
sg76
(lp1089
g339
asbag69
(g90
g71
NtRp1090
(dp1091
g74
(dp1092
g101
g102
ssg83
g1082
sg76
(lp1093
S':'
asbag69
(g90
g71
NtRp1094
(dp1095
g74
(dp1096
sg83
g1082
sg76
(lp1097
g69
(g70
g71
NtRp1098
(dp1099
g74
(dp1100
g82
I3
ssg83
g1094
sg76
(lp1101
S''
asbasbasbag69
(g85
g71
NtRp1102
(dp1103
g74
(dp1104
sg83
g1058
sg76
(lp1105
g69
(g90
g71
NtRp1106
(dp1107
g74
(dp1108
g94
g95
ssg83
g1102
sg76
(lp1109
g360
asbag69
(g90
g71
NtRp1110
(dp1111
g74
(dp1112
g101
g102
ssg83
g1102
sg76
(lp1113
S':'
asbag69
(g90
g71
NtRp1114
(dp1115
g74
(dp1116
sg83
g1102
sg76
(lp1117
g69
(g70
g71
NtRp1118
(dp1119
g74
(dp1120
g82
I3
ssg83
g1114
sg76
(lp1121
S''
asbasbasbag69
(g85
g71
NtRp1122
(dp1123
g74
(dp1124
sg83
g1058
sg76
(lp1125
g69
(g90
g71
NtRp1126
(dp1127
g74
(dp1128
g94
g95
ssg83
g1122
sg76
(lp1129
g381
asbag69
(g90
g71
NtRp1130
(dp1131
g74
(dp1132
g101
g102
ssg83
g1122
sg76
(lp1133
S':'
asbag69
(g90
g71
NtRp1134
(dp1135
g74
(dp1136
sg83
g1122
sg76
(lp1137
g69
(g70
g71
NtRp1138
(dp1139
g74
(dp1140
g82
I3
ssg83
g1134
sg76
(lp1141
S''
asbasbasbag69
(g85
g71
NtRp1142
(dp1143
g74
(dp1144
sg83
g1058
sg76
(lp1145
g69
(g90
g71
NtRp1146
(dp1147
g74
(dp1148
g94
g95
ssg83
g1142
sg76
(lp1149
g402
asbag69
(g90
g71
NtRp1150
(dp1151
g74
(dp1152
g101
g102
ssg83
g1142
sg76
(lp1153
S':'
asbag69
(g90
g71
NtRp1154
(dp1155
g74
(dp1156
sg83
g1142
sg76
(lp1157
g69
(g70
g71
NtRp1158
(dp1159
g74
(dp1160
g82
I3
ssg83
g1154
sg76
(lp1161
S''
asbasbasbag69
(g85
g71
NtRp1162
(dp1163
g74
(dp1164
sg83
g1058
sg76
(lp1165
g69
(g90
g71
NtRp1166
(dp1167
g74
(dp1168
g94
g95
ssg83
g1162
sg76
(lp1169
g423
asbag69
(g90
g71
NtRp1170
(dp1171
g74
(dp1172
g101
g102
ssg83
g1162
sg76
(lp1173
S':'
asbag69
(g90
g71
NtRp1174
(dp1175
g74
(dp1176
sg83
g1162
sg76
(lp1177
g69
(g70
g71
NtRp1178
(dp1179
g74
(dp1180
g82
I3
ssg83
g1174
sg76
(lp1181
S''
asbasbasbag69
(g85
g71
NtRp1182
(dp1183
g74
(dp1184
sg83
g1058
sg76
(lp1185
g69
(g90
g71
NtRp1186
(dp1187
g74
(dp1188
g94
g95
ssg83
g1182
sg76
(lp1189
g444
asbag69
(g90
g71
NtRp1190
(dp1191
g74
(dp1192
g101
g102
ssg83
g1182
sg76
(lp1193
S':'
asbag69
(g90
g71
NtRp1194
(dp1195
g74
(dp1196
sg83
g1182
sg76
(lp1197
g69
(g70
g71
NtRp1198
(dp1199
g74
(dp1200
g82
I3
ssg83
g1194
sg76
(lp1201
S''
asbasbasbag69
(g85
g71
NtRp1202
(dp1203
g74
(dp1204
sg83
g1058
sg76
(lp1205
g69
(g90
g71
NtRp1206
(dp1207
g74
(dp1208
g94
g95
ssg83
g1202
sg76
(lp1209
g465
asbag69
(g90
g71
NtRp1210
(dp1211
g74
(dp1212
g101
g102
ssg83
g1202
sg76
(lp1213
S':'
asbag69
(g90
g71
NtRp1214
(dp1215
g74
(dp1216
sg83
g1202
sg76
(lp1217
g69
(g70
g71
NtRp1218
(dp1219
g74
(dp1220
g82
I3
ssg83
g1214
sg76
(lp1221
S''
asbasbasbasbasbasbasbag69
(g85
g71
NtRp1222
(dp1223
g74
(dp1224
sg83
g280
sg76
(lp1225
g69
(g90
g71
NtRp1226
(dp1227
g74
(dp1228
g94
g95
ssg83
g1222
sg76
(lp1229
S'session_id_welcome'
p1230
asbag69
(g90
g71
NtRp1231
(dp1232
g74
(dp1233
g101
g102
ssg83
g1222
sg76
(lp1234
S':'
asbag69
(g90
g71
NtRp1235
(dp1236
g74
(dp1237
sg83
g1222
sg76
(lp1238
g69
(g70
g71
NtRp1239
(dp1240
g74
(dp1241
g82
I4
ssg83
g1235
sg76
(lp1242
S'127.0.0.1-9c7bb553-b7cb-4343-8d32-a78739900983'
p1243
ag69
(g78
g71
NtRp1244
(dp1245
g74
(dp1246
g82
I3
ssg83
Nsg76
(lp1247
g69
(g85
g71
NtRp1248
(dp1249
g74
(dp1250
sg83
g1244
sg76
(lp1251
g69
(g90
g71
NtRp1252
(dp1253
g74
(dp1254
g94
g95
ssg83
g1248
sg76
(lp1255
g318
asbag69
(g90
g71
NtRp1256
(dp1257
g74
(dp1258
g101
g102
ssg83
g1248
sg76
(lp1259
S':'
asbag69
(g90
g71
NtRp1260
(dp1261
g74
(dp1262
sg83
g1248
sg76
(lp1263
g69
(g70
g71
NtRp1264
(dp1265
g74
(dp1266
g82
I3
ssg83
g1260
sg76
(lp1267
S''
asbasbasbag69
(g85
g71
NtRp1268
(dp1269
g74
(dp1270
sg83
g1244
sg76
(lp1271
g69
(g90
g71
NtRp1272
(dp1273
g74
(dp1274
g94
g95
ssg83
g1268
sg76
(lp1275
g339
asbag69
(g90
g71
NtRp1276
(dp1277
g74
(dp1278
g101
g102
ssg83
g1268
sg76
(lp1279
S':'
asbag69
(g90
g71
NtRp1280
(dp1281
g74
(dp1282
sg83
g1268
sg76
(lp1283
g69
(g70
g71
NtRp1284
(dp1285
g74
(dp1286
g82
I3
ssg83
g1280
sg76
(lp1287
S''
asbasbasbag69
(g85
g71
NtRp1288
(dp1289
g74
(dp1290
sg83
g1244
sg76
(lp1291
g69
(g90
g71
NtRp1292
(dp1293
g74
(dp1294
g94
g95
ssg83
g1288
sg76
(lp1295
g360
asbag69
(g90
g71
NtRp1296
(dp1297
g74
(dp1298
g101
g102
ssg83
g1288
sg76
(lp1299
S':'
asbag69
(g90
g71
NtRp1300
(dp1301
g74
(dp1302
sg83
g1288
sg76
(lp1303
g69
(g70
g71
NtRp1304
(dp1305
g74
(dp1306
g82
I3
ssg83
g1300
sg76
(lp1307
S''
asbasbasbag69
(g85
g71
NtRp1308
(dp1309
g74
(dp1310
sg83
g1244
sg76
(lp1311
g69
(g90
g71
NtRp1312
(dp1313
g74
(dp1314
g94
g95
ssg83
g1308
sg76
(lp1315
g381
asbag69
(g90
g71
NtRp1316
(dp1317
g74
(dp1318
g101
g102
ssg83
g1308
sg76
(lp1319
S':'
asbag69
(g90
g71
NtRp1320
(dp1321
g74
(dp1322
sg83
g1308
sg76
(lp1323
g69
(g70
g71
NtRp1324
(dp1325
g74
(dp1326
g82
I3
ssg83
g1320
sg76
(lp1327
S''
asbasbasbag69
(g85
g71
NtRp1328
(dp1329
g74
(dp1330
sg83
g1244
sg76
(lp1331
g69
(g90
g71
NtRp1332
(dp1333
g74
(dp1334
g94
g95
ssg83
g1328
sg76
(lp1335
g402
asbag69
(g90
g71
NtRp1336
(dp1337
g74
(dp1338
g101
g102
ssg83
g1328
sg76
(lp1339
S':'
asbag69
(g90
g71
NtRp1340
(dp1341
g74
(dp1342
sg83
g1328
sg76
(lp1343
g69
(g70
g71
NtRp1344
(dp1345
g74
(dp1346
g82
I3
ssg83
g1340
sg76
(lp1347
S''
asbasbasbag69
(g85
g71
NtRp1348
(dp1349
g74
(dp1350
sg83
g1244
sg76
(lp1351
g69
(g90
g71
NtRp1352
(dp1353
g74
(dp1354
g94
g95
ssg83
g1348
sg76
(lp1355
g423
asbag69
(g90
g71
NtRp1356
(dp1357
g74
(dp1358
g101
g102
ssg83
g1348
sg76
(lp1359
S':'
asbag69
(g90
g71
NtRp1360
(dp1361
g74
(dp1362
sg83
g1348
sg76
(lp1363
g69
(g70
g71
NtRp1364
(dp1365
g74
(dp1366
g82
I3
ssg83
g1360
sg76
(lp1367
S''
asbasbasbag69
(g85
g71
NtRp1368
(dp1369
g74
(dp1370
sg83
g1244
sg76
(lp1371
g69
(g90
g71
NtRp1372
(dp1373
g74
(dp1374
g94
g95
ssg83
g1368
sg76
(lp1375
g444
asbag69
(g90
g71
NtRp1376
(dp1377
g74
(dp1378
g101
g102
ssg83
g1368
sg76
(lp1379
S':'
asbag69
(g90
g71
NtRp1380
(dp1381
g74
(dp1382
sg83
g1368
sg76
(lp1383
g69
(g70
g71
NtRp1384
(dp1385
g74
(dp1386
g82
I3
ssg83
g1380
sg76
(lp1387
S''
asbasbasbag69
(g85
g71
NtRp1388
(dp1389
g74
(dp1390
sg83
g1244
sg76
(lp1391
g69
(g90
g71
NtRp1392
(dp1393
g74
(dp1394
g94
g95
ssg83
g1388
sg76
(lp1395
g465
asbag69
(g90
g71
NtRp1396
(dp1397
g74
(dp1398
g101
g102
ssg83
g1388
sg76
(lp1399
S':'
asbag69
(g90
g71
NtRp1400
(dp1401
g74
(dp1402
sg83
g1388
sg76
(lp1403
g69
(g70
g71
NtRp1404
(dp1405
g74
(dp1406
g82
I3
ssg83
g1400
sg76
(lp1407
S''
asbasbasbasbasbasbasbasbasbasbasbag69
(g85
g71
NtRp1408
(dp1409
g74
(dp1410
sg83
g79
sg76
(lp1411
g69
(g90
g71
NtRp1412
(dp1413
g74
(dp1414
g94
g95
ssg83
g1408
sg76
(lp1415
S'env'
p1416
asbag69
(g90
g71
NtRp1417
(dp1418
g74
(dp1419
g101
g102
ssg83
g1408
sg76
(lp1420
S':'
asbag69
(g90
g71
NtRp1421
(dp1422
g74
(dp1423
sg83
g1408
sg76
(lp1424
g69
(g70
g71
NtRp1425
(dp1426
g74
(dp1427
g82
I5
ssg83
g1421
sg76
(lp1428
g69
(g78
g71
NtRp1429
(dp1430
g74
(dp1431
g82
I4
ssg83
Nsg76
(lp1432
g69
(g85
g71
NtRp1433
(dp1434
g74
(dp1435
sg83
g1429
sg76
(lp1436
g69
(g90
g71
NtRp1437
(dp1438
g74
(dp1439
g94
g95
ssg83
g1433
sg76
(lp1440
S'app_folders'
p1441
asbag69
(g90
g71
NtRp1442
(dp1443
g74
(dp1444
g101
g102
ssg83
g1433
sg76
(lp1445
S':'
asbag69
(g90
g71
NtRp1446
(dp1447
g74
(dp1448
sg83
g1433
sg76
(lp1449
g69
(g70
g71
NtRp1450
(dp1451
g74
(dp1452
g82
I4
ssg83
g1446
sg76
(lp1453
S"set(['/home/pratyush/web2py/applications/welcome/', '/home/pratyush/web2py/applications/BuySell/', '/home/pratyush/web2py/applications/admin/'])"
p1454
asbasbasbag69
(g85
g71
NtRp1455
(dp1456
g74
(dp1457
sg83
g1429
sg76
(lp1458
g69
(g90
g71
NtRp1459
(dp1460
g74
(dp1461
g94
g95
ssg83
g1455
sg76
(lp1462
S'applications_parent'
p1463
asbag69
(g90
g71
NtRp1464
(dp1465
g74
(dp1466
g101
g102
ssg83
g1455
sg76
(lp1467
S':'
asbag69
(g90
g71
NtRp1468
(dp1469
g74
(dp1470
sg83
g1455
sg76
(lp1471
g69
(g70
g71
NtRp1472
(dp1473
g74
(dp1474
g82
I4
ssg83
g1468
sg76
(lp1475
S'/home/pratyush/web2py'
p1476
asbasbasbag69
(g85
g71
NtRp1477
(dp1478
g74
(dp1479
sg83
g1429
sg76
(lp1480
g69
(g90
g71
NtRp1481
(dp1482
g74
(dp1483
g94
g95
ssg83
g1477
sg76
(lp1484
S'cmd_args'
p1485
asbag69
(g90
g71
NtRp1486
(dp1487
g74
(dp1488
g101
g102
ssg83
g1477
sg76
(lp1489
S':'
asbag69
(g90
g71
NtRp1490
(dp1491
g74
(dp1492
sg83
g1477
sg76
(lp1493
g69
(g70
g71
NtRp1494
(dp1495
g74
(dp1496
g82
I4
ssg83
g1490
sg76
(lp1497
g69
(g78
g71
NtRp1498
(dp1499
g74
(dp1500
g82
I3
ssg83
Nsg76
(lp1501
sbasbasbasbag69
(g85
g71
NtRp1502
(dp1503
g74
(dp1504
sg83
g1429
sg76
(lp1505
g69
(g90
g71
NtRp1506
(dp1507
g74
(dp1508
g94
g95
ssg83
g1502
sg76
(lp1509
S'cmd_options'
p1510
asbag69
(g90
g71
NtRp1511
(dp1512
g74
(dp1513
g101
g102
ssg83
g1502
sg76
(lp1514
S':'
asbag69
(g90
g71
NtRp1515
(dp1516
g74
(dp1517
sg83
g1502
sg76
(lp1518
g69
(g70
g71
NtRp1519
(dp1520
g74
(dp1521
g82
I4
ssg83
g1515
sg76
(lp1522
S"<Values at 0x990602c: {'verbose': False, 'ip': '127.0.0.1', 'with_scheduler': False, 'ips': [], 'shutdown_timeout': 5, 'taskbar': False, 'port': 8001, 'maxthreads': None, 'softcron': False, 'server_name': 'alanzak', 'bpython': False, 'nogui': False, 'pid_filename': 'httpserver.pid', 'extcron': False, 'runcron': False, 'run_system_tests': False, 'test': None, 'folder': '/home/pratyush/web2py', 'config': '', 'import_models': False, 'winservice': '', 'shell': None, 'run': '', 'log_filename': 'httpserver.log', 'debuglevel': 30, 'args': [''], 'socket_timeout': 5, 'ssl_ca_certificate': None, 'scheduler': None, 'profiler_filename': None, 'ssl_private_key': '', 'scheduler_groups': None, 'password': '1', 'request_queue_size': 5, 'ssl_certificate': '', 'cronjob': False, 'numthreads': None, 'quiet': False, 'interfaces': None, 'minthreads': None, 'timeout': 10, 'plain': False, 'nobanner': False}>"
p1523
asbasbasbag69
(g85
g71
NtRp1524
(dp1525
g74
(dp1526
sg83
g1429
sg76
(lp1527
g69
(g90
g71
NtRp1528
(dp1529
g74
(dp1530
g94
g95
ssg83
g1524
sg76
(lp1531
S'db_sessions'
p1532
asbag69
(g90
g71
NtRp1533
(dp1534
g74
(dp1535
g101
g102
ssg83
g1524
sg76
(lp1536
S':'
asbag69
(g90
g71
NtRp1537
(dp1538
g74
(dp1539
sg83
g1524
sg76
(lp1540
g69
(g70
g71
NtRp1541
(dp1542
g74
(dp1543
g82
I4
ssg83
g1537
sg76
(lp1544
S'set([])'
p1545
asbasbasbag69
(g85
g71
NtRp1546
(dp1547
g74
(dp1548
sg83
g1429
sg76
(lp1549
g69
(g90
g71
NtRp1550
(dp1551
g74
(dp1552
g94
g95
ssg83
g1546
sg76
(lp1553
S'debugging'
p1554
asbag69
(g90
g71
NtRp1555
(dp1556
g74
(dp1557
g101
g102
ssg83
g1546
sg76
(lp1558
S':'
asbag69
(g90
g71
NtRp1559
(dp1560
g74
(dp1561
sg83
g1546
sg76
(lp1562
g69
(g70
g71
NtRp1563
(dp1564
g74
(dp1565
g82
I4
ssg83
g1559
sg76
(lp1566
g112
asbasbasbag69
(g85
g71
NtRp1567
(dp1568
g74
(dp1569
sg83
g1429
sg76
(lp1570
g69
(g90
g71
NtRp1571
(dp1572
g74
(dp1573
g94
g95
ssg83
g1567
sg76
(lp1574
S'gluon_parent'
p1575
asbag69
(g90
g71
NtRp1576
(dp1577
g74
(dp1578
g101
g102
ssg83
g1567
sg76
(lp1579
S':'
asbag69
(g90
g71
NtRp1580
(dp1581
g74
(dp1582
sg83
g1567
sg76
(lp1583
g69
(g70
g71
NtRp1584
(dp1585
g74
(dp1586
g82
I4
ssg83
g1580
sg76
(lp1587
S'/home/pratyush/web2py'
p1588
asbasbasbag69
(g85
g71
NtRp1589
(dp1590
g74
(dp1591
sg83
g1429
sg76
(lp1592
g69
(g90
g71
NtRp1593
(dp1594
g74
(dp1595
g94
g95
ssg83
g1589
sg76
(lp1596
S'http_accept'
p1597
asbag69
(g90
g71
NtRp1598
(dp1599
g74
(dp1600
g101
g102
ssg83
g1589
sg76
(lp1601
S':'
asbag69
(g90
g71
NtRp1602
(dp1603
g74
(dp1604
sg83
g1589
sg76
(lp1605
g69
(g70
g71
NtRp1606
(dp1607
g74
(dp1608
g82
I4
ssg83
g1602
sg76
(lp1609
S'text/html,application/xhtml+xml,application/xml;q=0.9,*/*;q=0.8'
p1610
asbasbasbag69
(g85
g71
NtRp1611
(dp1612
g74
(dp1613
sg83
g1429
sg76
(lp1614
g69
(g90
g71
NtRp1615
(dp1616
g74
(dp1617
g94
g95
ssg83
g1611
sg76
(lp1618
S'http_accept_charset'
p1619
asbag69
(g90
g71
NtRp1620
(dp1621
g74
(dp1622
g101
g102
ssg83
g1611
sg76
(lp1623
S':'
asbag69
(g90
g71
NtRp1624
(dp1625
g74
(dp1626
sg83
g1611
sg76
(lp1627
g69
(g70
g71
NtRp1628
(dp1629
g74
(dp1630
g82
I4
ssg83
g1624
sg76
(lp1631
S'ISO-8859-1,utf-8;q=0.7,*;q=0.3'
p1632
asbasbasbag69
(g85
g71
NtRp1633
(dp1634
g74
(dp1635
sg83
g1429
sg76
(lp1636
g69
(g90
g71
NtRp1637
(dp1638
g74
(dp1639
g94
g95
ssg83
g1633
sg76
(lp1640
S'http_accept_encoding'
p1641
asbag69
(g90
g71
NtRp1642
(dp1643
g74
(dp1644
g101
g102
ssg83
g1633
sg76
(lp1645
S':'
asbag69
(g90
g71
NtRp1646
(dp1647
g74
(dp1648
sg83
g1633
sg76
(lp1649
g69
(g70
g71
NtRp1650
(dp1651
g74
(dp1652
g82
I4
ssg83
g1646
sg76
(lp1653
S'gzip,deflate,sdch'
p1654
asbasbasbag69
(g85
g71
NtRp1655
(dp1656
g74
(dp1657
sg83
g1429
sg76
(lp1658
g69
(g90
g71
NtRp1659
(dp1660
g74
(dp1661
g94
g95
ssg83
g1655
sg76
(lp1662
S'http_accept_language'
p1663
asbag69
(g90
g71
NtRp1664
(dp1665
g74
(dp1666
g101
g102
ssg83
g1655
sg76
(lp1667
S':'
asbag69
(g90
g71
NtRp1668
(dp1669
g74
(dp1670
sg83
g1655
sg76
(lp1671
g69
(g70
g71
NtRp1672
(dp1673
g74
(dp1674
g82
I4
ssg83
g1668
sg76
(lp1675
S'en-US,en;q=0.8'
p1676
asbasbasbag69
(g85
g71
NtRp1677
(dp1678
g74
(dp1679
sg83
g1429
sg76
(lp1680
g69
(g90
g71
NtRp1681
(dp1682
g74
(dp1683
g94
g95
ssg83
g1677
sg76
(lp1684
S'http_cache_control'
p1685
asbag69
(g90
g71
NtRp1686
(dp1687
g74
(dp1688
g101
g102
ssg83
g1677
sg76
(lp1689
S':'
asbag69
(g90
g71
NtRp1690
(dp1691
g74
(dp1692
sg83
g1677
sg76
(lp1693
g69
(g70
g71
NtRp1694
(dp1695
g74
(dp1696
g82
I4
ssg83
g1690
sg76
(lp1697
S'max-age=0'
p1698
asbasbasbag69
(g85
g71
NtRp1699
(dp1700
g74
(dp1701
sg83
g1429
sg76
(lp1702
g69
(g90
g71
NtRp1703
(dp1704
g74
(dp1705
g94
g95
ssg83
g1699
sg76
(lp1706
S'http_connection'
p1707
asbag69
(g90
g71
NtRp1708
(dp1709
g74
(dp1710
g101
g102
ssg83
g1699
sg76
(lp1711
S':'
asbag69
(g90
g71
NtRp1712
(dp1713
g74
(dp1714
sg83
g1699
sg76
(lp1715
g69
(g70
g71
NtRp1716
(dp1717
g74
(dp1718
g82
I4
ssg83
g1712
sg76
(lp1719
S'keep-alive'
p1720
asbasbasbag69
(g85
g71
NtRp1721
(dp1722
g74
(dp1723
sg83
g1429
sg76
(lp1724
g69
(g90
g71
NtRp1725
(dp1726
g74
(dp1727
g94
g95
ssg83
g1721
sg76
(lp1728
S'http_cookie'
p1729
asbag69
(g90
g71
NtRp1730
(dp1731
g74
(dp1732
g101
g102
ssg83
g1721
sg76
(lp1733
S':'
asbag69
(g90
g71
NtRp1734
(dp1735
g74
(dp1736
sg83
g1721
sg76
(lp1737
g69
(g70
g71
NtRp1738
(dp1739
g74
(dp1740
g82
I4
ssg83
g1734
sg76
(lp1741
S'registered=yes; session_id_outreach=127.0.0.1-00c3bb02-539e-4bc1-ab10-e3c500bd1248; session_id_music_library=127.0.0.1-dd9b4880-33cf-4894-a8a9-2640c5c78a01; session_id_welcome=127.0.0.1-9c7bb553-b7cb-4343-8d32-a78739900983; session_id_admin=127.0.0.1-5c3e6318-3a14-4ff1-97a6-1063e44c4cd9; session_id_buysell=127.0.0.1-d5a07803-4f5c-44c8-b05d-2876d30ca822'
p1742
asbasbasbag69
(g85
g71
NtRp1743
(dp1744
g74
(dp1745
sg83
g1429
sg76
(lp1746
g69
(g90
g71
NtRp1747
(dp1748
g74
(dp1749
g94
g95
ssg83
g1743
sg76
(lp1750
S'http_host'
p1751
asbag69
(g90
g71
NtRp1752
(dp1753
g74
(dp1754
g101
g102
ssg83
g1743
sg76
(lp1755
S':'
asbag69
(g90
g71
NtRp1756
(dp1757
g74
(dp1758
sg83
g1743
sg76
(lp1759
g69
(g70
g71
NtRp1760
(dp1761
g74
(dp1762
g82
I4
ssg83
g1756
sg76
(lp1763
S'127.0.0.1:8001'
p1764
asbasbasbag69
(g85
g71
NtRp1765
(dp1766
g74
(dp1767
sg83
g1429
sg76
(lp1768
g69
(g90
g71
NtRp1769
(dp1770
g74
(dp1771
g94
g95
ssg83
g1765
sg76
(lp1772
S'http_referer'
p1773
asbag69
(g90
g71
NtRp1774
(dp1775
g74
(dp1776
g101
g102
ssg83
g1765
sg76
(lp1777
S':'
asbag69
(g90
g71
NtRp1778
(dp1779
g74
(dp1780
sg83
g1765
sg76
(lp1781
g69
(g70
g71
NtRp1782
(dp1783
g74
(dp1784
g82
I4
ssg83
g1778
sg76
(lp1785
S'http://127.0.0.1:8001/BuySell/default/item_d/8'
p1786
asbasbasbag69
(g85
g71
NtRp1787
(dp1788
g74
(dp1789
sg83
g1429
sg76
(lp1790
g69
(g90
g71
NtRp1791
(dp1792
g74
(dp1793
g94
g95
ssg83
g1787
sg76
(lp1794
S'http_user_agent'
p1795
asbag69
(g90
g71
NtRp1796
(dp1797
g74
(dp1798
g101
g102
ssg83
g1787
sg76
(lp1799
S':'
asbag69
(g90
g71
NtRp1800
(dp1801
g74
(dp1802
sg83
g1787
sg76
(lp1803
g69
(g70
g71
NtRp1804
(dp1805
g74
(dp1806
g82
I4
ssg83
g1800
sg76
(lp1807
S'Mozilla/5.0 (X11; Linux i686) AppleWebKit/537.4 (KHTML, like Gecko) Chrome/22.0.1229.79 Safari/537.4'
p1808
asbasbasbag69
(g85
g71
NtRp1809
(dp1810
g74
(dp1811
sg83
g1429
sg76
(lp1812
g69
(g90
g71
NtRp1813
(dp1814
g74
(dp1815
g94
g95
ssg83
g1809
sg76
(lp1816
S'is_jython'
p1817
asbag69
(g90
g71
NtRp1818
(dp1819
g74
(dp1820
g101
g102
ssg83
g1809
sg76
(lp1821
S':'
asbag69
(g90
g71
NtRp1822
(dp1823
g74
(dp1824
sg83
g1809
sg76
(lp1825
g69
(g70
g71
NtRp1826
(dp1827
g74
(dp1828
g82
I4
ssg83
g1822
sg76
(lp1829
g112
asbasbasbag69
(g85
g71
NtRp1830
(dp1831
g74
(dp1832
sg83
g1429
sg76
(lp1833
g69
(g90
g71
NtRp1834
(dp1835
g74
(dp1836
g94
g95
ssg83
g1830
sg76
(lp1837
S'is_pypy'
p1838
asbag69
(g90
g71
NtRp1839
(dp1840
g74
(dp1841
g101
g102
ssg83
g1830
sg76
(lp1842
S':'
asbag69
(g90
g71
NtRp1843
(dp1844
g74
(dp1845
sg83
g1830
sg76
(lp1846
g69
(g70
g71
NtRp1847
(dp1848
g74
(dp1849
g82
I4
ssg83
g1843
sg76
(lp1850
g112
asbasbasbag69
(g85
g71
NtRp1851
(dp1852
g74
(dp1853
sg83
g1429
sg76
(lp1854
g69
(g90
g71
NtRp1855
(dp1856
g74
(dp1857
g94
g95
ssg83
g1851
sg76
(lp1858
S'local_hosts'
p1859
asbag69
(g90
g71
NtRp1860
(dp1861
g74
(dp1862
g101
g102
ssg83
g1851
sg76
(lp1863
S':'
asbag69
(g90
g71
NtRp1864
(dp1865
g74
(dp1866
sg83
g1851
sg76
(lp1867
g69
(g70
g71
NtRp1868
(dp1869
g74
(dp1870
g82
I4
ssg83
g1864
sg76
(lp1871
g69
(g78
g71
NtRp1872
(dp1873
g74
(dp1874
g82
I3
ssg83
Nsg76
(lp1875
g69
(g85
g71
NtRp1876
(dp1877
g74
(dp1878
sg83
g1872
sg76
(lp1879
g69
(g90
g71
NtRp1880
(dp1881
g74
(dp1882
sg83
g1876
sg76
(lp1883
g69
(g70
g71
NtRp1884
(dp1885
g74
(dp1886
g82
I3
ssg83
g1880
sg76
(lp1887
S'127.0.1.1'
p1888
asbasbasbag69
(g85
g71
NtRp1889
(dp1890
g74
(dp1891
sg83
g1872
sg76
(lp1892
g69
(g90
g71
NtRp1893
(dp1894
g74
(dp1895
sg83
g1889
sg76
(lp1896
g69
(g70
g71
NtRp1897
(dp1898
g74
(dp1899
g82
I3
ssg83
g1893
sg76
(lp1900
S'::1'
p1901
asbasbasbag69
(g85
g71
NtRp1902
(dp1903
g74
(dp1904
sg83
g1872
sg76
(lp1905
g69
(g90
g71
NtRp1906
(dp1907
g74
(dp1908
sg83
g1902
sg76
(lp1909
g69
(g70
g71
NtRp1910
(dp1911
g74
(dp1912
g82
I3
ssg83
g1906
sg76
(lp1913
S'alanzak'
p1914
asbasbasbag69
(g85
g71
NtRp1915
(dp1916
g74
(dp1917
sg83
g1872
sg76
(lp1918
g69
(g90
g71
NtRp1919
(dp1920
g74
(dp1921
sg83
g1915
sg76
(lp1922
g69
(g70
g71
NtRp1923
(dp1924
g74
(dp1925
g82
I3
ssg83
g1919
sg76
(lp1926
S'::ffff:127.0.0.1'
p1927
asbasbasbag69
(g85
g71
NtRp1928
(dp1929
g74
(dp1930
sg83
g1872
sg76
(lp1931
g69
(g90
g71
NtRp1932
(dp1933
g74
(dp1934
sg83
g1928
sg76
(lp1935
g69
(g70
g71
NtRp1936
(dp1937
g74
(dp1938
g82
I3
ssg83
g1932
sg76
(lp1939
S'127.0.0.1'
p1940
asbasbasbasbasbasbasbag69
(g85
g71
NtRp1941
(dp1942
g74
(dp1943
sg83
g1429
sg76
(lp1944
g69
(g90
g71
NtRp1945
(dp1946
g74
(dp1947
g94
g95
ssg83
g1941
sg76
(lp1948
S'path_info'
p1949
asbag69
(g90
g71
NtRp1950
(dp1951
g74
(dp1952
g101
g102
ssg83
g1941
sg76
(lp1953
S':'
asbag69
(g90
g71
NtRp1954
(dp1955
g74
(dp1956
sg83
g1941
sg76
(lp1957
g69
(g70
g71
NtRp1958
(dp1959
g74
(dp1960
g82
I4
ssg83
g1954
sg76
(lp1961
S'/BuySell/default/item_d/8'
p1962
asbasbasbag69
(g85
g71
NtRp1963
(dp1964
g74
(dp1965
sg83
g1429
sg76
(lp1966
g69
(g90
g71
NtRp1967
(dp1968
g74
(dp1969
g94
g95
ssg83
g1963
sg76
(lp1970
S'query_string'
p1971
asbag69
(g90
g71
NtRp1972
(dp1973
g74
(dp1974
g101
g102
ssg83
g1963
sg76
(lp1975
S':'
asbag69
(g90
g71
NtRp1976
(dp1977
g74
(dp1978
sg83
g1963
sg76
(lp1979
g69
(g70
g71
NtRp1980
(dp1981
g74
(dp1982
g82
I4
ssg83
g1976
sg76
(lp1983
S''
asbasbasbag69
(g85
g71
NtRp1984
(dp1985
g74
(dp1986
sg83
g1429
sg76
(lp1987
g69
(g90
g71
NtRp1988
(dp1989
g74
(dp1990
g94
g95
ssg83
g1984
sg76
(lp1991
S'remote_addr'
p1992
asbag69
(g90
g71
NtRp1993
(dp1994
g74
(dp1995
g101
g102
ssg83
g1984
sg76
(lp1996
S':'
asbag69
(g90
g71
NtRp1997
(dp1998
g74
(dp1999
sg83
g1984
sg76
(lp2000
g69
(g70
g71
NtRp2001
(dp2002
g74
(dp2003
g82
I4
ssg83
g1997
sg76
(lp2004
g236
asbasbasbag69
(g85
g71
NtRp2005
(dp2006
g74
(dp2007
sg83
g1429
sg76
(lp2008
g69
(g90
g71
NtRp2009
(dp2010
g74
(dp2011
g94
g95
ssg83
g2005
sg76
(lp2012
S'remote_port'
p2013
asbag69
(g90
g71
NtRp2014
(dp2015
g74
(dp2016
g101
g102
ssg83
g2005
sg76
(lp2017
S':'
asbag69
(g90
g71
NtRp2018
(dp2019
g74
(dp2020
sg83
g2005
sg76
(lp2021
g69
(g70
g71
NtRp2022
(dp2023
g74
(dp2024
g82
I4
ssg83
g2018
sg76
(lp2025
S'45638'
p2026
asbasbasbag69
(g85
g71
NtRp2027
(dp2028
g74
(dp2029
sg83
g1429
sg76
(lp2030
g69
(g90
g71
NtRp2031
(dp2032
g74
(dp2033
g94
g95
ssg83
g2027
sg76
(lp2034
S'request_method'
p2035
asbag69
(g90
g71
NtRp2036
(dp2037
g74
(dp2038
g101
g102
ssg83
g2027
sg76
(lp2039
S':'
asbag69
(g90
g71
NtRp2040
(dp2041
g74
(dp2042
sg83
g2027
sg76
(lp2043
g69
(g70
g71
NtRp2044
(dp2045
g74
(dp2046
g82
I4
ssg83
g2040
sg76
(lp2047
S'GET'
p2048
asbasbasbag69
(g85
g71
NtRp2049
(dp2050
g74
(dp2051
sg83
g1429
sg76
(lp2052
g69
(g90
g71
NtRp2053
(dp2054
g74
(dp2055
g94
g95
ssg83
g2049
sg76
(lp2056
S'request_uri'
p2057
asbag69
(g90
g71
NtRp2058
(dp2059
g74
(dp2060
g101
g102
ssg83
g2049
sg76
(lp2061
S':'
asbag69
(g90
g71
NtRp2062
(dp2063
g74
(dp2064
sg83
g2049
sg76
(lp2065
g69
(g70
g71
NtRp2066
(dp2067
g74
(dp2068
g82
I4
ssg83
g2062
sg76
(lp2069
g1962
asbasbasbag69
(g85
g71
NtRp2070
(dp2071
g74
(dp2072
sg83
g1429
sg76
(lp2073
g69
(g90
g71
NtRp2074
(dp2075
g74
(dp2076
g94
g95
ssg83
g2070
sg76
(lp2077
S'script_name'
p2078
asbag69
(g90
g71
NtRp2079
(dp2080
g74
(dp2081
g101
g102
ssg83
g2070
sg76
(lp2082
S':'
asbag69
(g90
g71
NtRp2083
(dp2084
g74
(dp2085
sg83
g2070
sg76
(lp2086
g69
(g70
g71
NtRp2087
(dp2088
g74
(dp2089
g82
I4
ssg83
g2083
sg76
(lp2090
S''
asbasbasbag69
(g85
g71
NtRp2091
(dp2092
g74
(dp2093
sg83
g1429
sg76
(lp2094
g69
(g90
g71
NtRp2095
(dp2096
g74
(dp2097
g94
g95
ssg83
g2091
sg76
(lp2098
S'server_name'
p2099
asbag69
(g90
g71
NtRp2100
(dp2101
g74
(dp2102
g101
g102
ssg83
g2091
sg76
(lp2103
S':'
asbag69
(g90
g71
NtRp2104
(dp2105
g74
(dp2106
sg83
g2091
sg76
(lp2107
g69
(g70
g71
NtRp2108
(dp2109
g74
(dp2110
g82
I4
ssg83
g2104
sg76
(lp2111
S'alanzak'
p2112
asbasbasbag69
(g85
g71
NtRp2113
(dp2114
g74
(dp2115
sg83
g1429
sg76
(lp2116
g69
(g90
g71
NtRp2117
(dp2118
g74
(dp2119
g94
g95
ssg83
g2113
sg76
(lp2120
S'server_port'
p2121
asbag69
(g90
g71
NtRp2122
(dp2123
g74
(dp2124
g101
g102
ssg83
g2113
sg76
(lp2125
S':'
asbag69
(g90
g71
NtRp2126
(dp2127
g74
(dp2128
sg83
g2113
sg76
(lp2129
g69
(g70
g71
NtRp2130
(dp2131
g74
(dp2132
g82
I4
ssg83
g2126
sg76
(lp2133
S'8001'
p2134
asbasbasbag69
(g85
g71
NtRp2135
(dp2136
g74
(dp2137
sg83
g1429
sg76
(lp2138
g69
(g90
g71
NtRp2139
(dp2140
g74
(dp2141
g94
g95
ssg83
g2135
sg76
(lp2142
S'server_protocol'
p2143
asbag69
(g90
g71
NtRp2144
(dp2145
g74
(dp2146
g101
g102
ssg83
g2135
sg76
(lp2147
S':'
asbag69
(g90
g71
NtRp2148
(dp2149
g74
(dp2150
sg83
g2135
sg76
(lp2151
g69
(g70
g71
NtRp2152
(dp2153
g74
(dp2154
g82
I4
ssg83
g2148
sg76
(lp2155
S'HTTP/1.1'
p2156
asbasbasbag69
(g85
g71
NtRp2157
(dp2158
g74
(dp2159
sg83
g1429
sg76
(lp2160
g69
(g90
g71
NtRp2161
(dp2162
g74
(dp2163
g94
g95
ssg83
g2157
sg76
(lp2164
S'server_software'
p2165
asbag69
(g90
g71
NtRp2166
(dp2167
g74
(dp2168
g101
g102
ssg83
g2157
sg76
(lp2169
S':'
asbag69
(g90
g71
NtRp2170
(dp2171
g74
(dp2172
sg83
g2157
sg76
(lp2173
g69
(g70
g71
NtRp2174
(dp2175
g74
(dp2176
g82
I4
ssg83
g2170
sg76
(lp2177
S'Rocket 1.2.6'
p2178
asbasbasbag69
(g85
g71
NtRp2179
(dp2180
g74
(dp2181
sg83
g1429
sg76
(lp2182
g69
(g90
g71
NtRp2183
(dp2184
g74
(dp2185
g94
g95
ssg83
g2179
sg76
(lp2186
S'web2py_path'
p2187
asbag69
(g90
g71
NtRp2188
(dp2189
g74
(dp2190
g101
g102
ssg83
g2179
sg76
(lp2191
S':'
asbag69
(g90
g71
NtRp2192
(dp2193
g74
(dp2194
sg83
g2179
sg76
(lp2195
g69
(g70
g71
NtRp2196
(dp2197
g74
(dp2198
g82
I4
ssg83
g2192
sg76
(lp2199
g1476
asbasbasbag69
(g85
g71
NtRp2200
(dp2201
g74
(dp2202
sg83
g1429
sg76
(lp2203
g69
(g90
g71
NtRp2204
(dp2205
g74
(dp2206
g94
g95
ssg83
g2200
sg76
(lp2207
S'web2py_version'
p2208
asbag69
(g90
g71
NtRp2209
(dp2210
g74
(dp2211
g101
g102
ssg83
g2200
sg76
(lp2212
S':'
asbag69
(g90
g71
NtRp2213
(dp2214
g74
(dp2215
sg83
g2200
sg76
(lp2216
g69
(g70
g71
NtRp2217
(dp2218
g74
(dp2219
g82
I4
ssg83
g2213
sg76
(lp2220
g69
(g78
g71
NtRp2221
(dp2222
g74
(dp2223
g82
I3
ssg83
Nsg76
(lp2224
g69
(g85
g71
NtRp2225
(dp2226
g74
(dp2227
sg83
g2221
sg76
(lp2228
g69
(g90
g71
NtRp2229
(dp2230
g74
(dp2231
sg83
g2225
sg76
(lp2232
g69
(g70
g71
NtRp2233
(dp2234
g74
(dp2235
g82
I3
ssg83
g2229
sg76
(lp2236
S'2'
asbasbasbag69
(g85
g71
NtRp2237
(dp2238
g74
(dp2239
sg83
g2221
sg76
(lp2240
g69
(g90
g71
NtRp2241
(dp2242
g74
(dp2243
sg83
g2237
sg76
(lp2244
g69
(g70
g71
NtRp2245
(dp2246
g74
(dp2247
g82
I3
ssg83
g2241
sg76
(lp2248
S'3'
asbasbasbag69
(g85
g71
NtRp2249
(dp2250
g74
(dp2251
sg83
g2221
sg76
(lp2252
g69
(g90
g71
NtRp2253
(dp2254
g74
(dp2255
sg83
g2249
sg76
(lp2256
g69
(g70
g71
NtRp2257
(dp2258
g74
(dp2259
g82
I3
ssg83
g2253
sg76
(lp2260
S'2'
asbasbasbag69
(g85
g71
NtRp2261
(dp2262
g74
(dp2263
sg83
g2221
sg76
(lp2264
g69
(g90
g71
NtRp2265
(dp2266
g74
(dp2267
sg83
g2261
sg76
(lp2268
g69
(g70
g71
NtRp2269
(dp2270
g74
(dp2271
g82
I3
ssg83
g2265
sg76
(lp2272
S'datetime.datetime(2012, 12, 17, 15, 3, 30)'
p2273
asbasbasbag69
(g85
g71
NtRp2274
(dp2275
g74
(dp2276
sg83
g2221
sg76
(lp2277
g69
(g90
g71
NtRp2278
(dp2279
g74
(dp2280
sg83
g2274
sg76
(lp2281
g69
(g70
g71
NtRp2282
(dp2283
g74
(dp2284
g82
I3
ssg83
g2278
sg76
(lp2285
S'stable'
p2286
asbasbasbasbasbasbasbag69
(g85
g71
NtRp2287
(dp2288
g74
(dp2289
sg83
g1429
sg76
(lp2290
g69
(g90
g71
NtRp2291
(dp2292
g74
(dp2293
g94
g95
ssg83
g2287
sg76
(lp2294
S'wsgi_errors'
p2295
asbag69
(g90
g71
NtRp2296
(dp2297
g74
(dp2298
g101
g102
ssg83
g2287
sg76
(lp2299
S':'
asbag69
(g90
g71
NtRp2300
(dp2301
g74
(dp2302
sg83
g2287
sg76
(lp2303
g69
(g70
g71
NtRp2304
(dp2305
g74
(dp2306
g82
I4
ssg83
g2300
sg76
(lp2307
S"<open file '<stderr>', mode 'w' at 0xb77260d0>"
p2308
asbasbasbag69
(g85
g71
NtRp2309
(dp2310
g74
(dp2311
sg83
g1429
sg76
(lp2312
g69
(g90
g71
NtRp2313
(dp2314
g74
(dp2315
g94
g95
ssg83
g2309
sg76
(lp2316
S'wsgi_file_wrapper'
p2317
asbag69
(g90
g71
NtRp2318
(dp2319
g74
(dp2320
g101
g102
ssg83
g2309
sg76
(lp2321
S':'
asbag69
(g90
g71
NtRp2322
(dp2323
g74
(dp2324
sg83
g2309
sg76
(lp2325
g69
(g70
g71
NtRp2326
(dp2327
g74
(dp2328
g82
I4
ssg83
g2322
sg76
(lp2329
S'<class wsgiref.util.FileWrapper at 0x98b2cbc>'
p2330
asbasbasbag69
(g85
g71
NtRp2331
(dp2332
g74
(dp2333
sg83
g1429
sg76
(lp2334
g69
(g90
g71
NtRp2335
(dp2336
g74
(dp2337
g94
g95
ssg83
g2331
sg76
(lp2338
S'wsgi_input'
p2339
asbag69
(g90
g71
NtRp2340
(dp2341
g74
(dp2342
g101
g102
ssg83
g2331
sg76
(lp2343
S':'
asbag69
(g90
g71
NtRp2344
(dp2345
g74
(dp2346
sg83
g2331
sg76
(lp2347
g69
(g70
g71
NtRp2348
(dp2349
g74
(dp2350
g82
I4
ssg83
g2344
sg76
(lp2351
S'<socket._fileobject object at 0xadca16c>'
p2352
asbasbasbag69
(g85
g71
NtRp2353
(dp2354
g74
(dp2355
sg83
g1429
sg76
(lp2356
g69
(g90
g71
NtRp2357
(dp2358
g74
(dp2359
g94
g95
ssg83
g2353
sg76
(lp2360
S'wsgi_multiprocess'
p2361
asbag69
(g90
g71
NtRp2362
(dp2363
g74
(dp2364
g101
g102
ssg83
g2353
sg76
(lp2365
S':'
asbag69
(g90
g71
NtRp2366
(dp2367
g74
(dp2368
sg83
g2353
sg76
(lp2369
g69
(g70
g71
NtRp2370
(dp2371
g74
(dp2372
g82
I4
ssg83
g2366
sg76
(lp2373
g112
asbasbasbag69
(g85
g71
NtRp2374
(dp2375
g74
(dp2376
sg83
g1429
sg76
(lp2377
g69
(g90
g71
NtRp2378
(dp2379
g74
(dp2380
g94
g95
ssg83
g2374
sg76
(lp2381
S'wsgi_multithread'
p2382
asbag69
(g90
g71
NtRp2383
(dp2384
g74
(dp2385
g101
g102
ssg83
g2374
sg76
(lp2386
S':'
asbag69
(g90
g71
NtRp2387
(dp2388
g74
(dp2389
sg83
g2374
sg76
(lp2390
g69
(g70
g71
NtRp2391
(dp2392
g74
(dp2393
g82
I4
ssg83
g2387
sg76
(lp2394
S'True'
p2395
asbasbasbag69
(g85
g71
NtRp2396
(dp2397
g74
(dp2398
sg83
g1429
sg76
(lp2399
g69
(g90
g71
NtRp2400
(dp2401
g74
(dp2402
g94
g95
ssg83
g2396
sg76
(lp2403
S'wsgi_run_once'
p2404
asbag69
(g90
g71
NtRp2405
(dp2406
g74
(dp2407
g101
g102
ssg83
g2396
sg76
(lp2408
S':'
asbag69
(g90
g71
NtRp2409
(dp2410
g74
(dp2411
sg83
g2396
sg76
(lp2412
g69
(g70
g71
NtRp2413
(dp2414
g74
(dp2415
g82
I4
ssg83
g2409
sg76
(lp2416
g112
asbasbasbag69
(g85
g71
NtRp2417
(dp2418
g74
(dp2419
sg83
g1429
sg76
(lp2420
g69
(g90
g71
NtRp2421
(dp2422
g74
(dp2423
g94
g95
ssg83
g2417
sg76
(lp2424
S'wsgi_url_scheme'
p2425
asbag69
(g90
g71
NtRp2426
(dp2427
g74
(dp2428
g101
g102
ssg83
g2417
sg76
(lp2429
S':'
asbag69
(g90
g71
NtRp2430
(dp2431
g74
(dp2432
sg83
g2417
sg76
(lp2433
g69
(g70
g71
NtRp2434
(dp2435
g74
(dp2436
g82
I4
ssg83
g2430
sg76
(lp2437
S'http'
p2438
asbasbasbag69
(g85
g71
NtRp2439
(dp2440
g74
(dp2441
sg83
g1429
sg76
(lp2442
g69
(g90
g71
NtRp2443
(dp2444
g74
(dp2445
g94
g95
ssg83
g2439
sg76
(lp2446
S'wsgi_version'
p2447
asbag69
(g90
g71
NtRp2448
(dp2449
g74
(dp2450
g101
g102
ssg83
g2439
sg76
(lp2451
S':'
asbag69
(g90
g71
NtRp2452
(dp2453
g74
(dp2454
sg83
g2439
sg76
(lp2455
g69
(g70
g71
NtRp2456
(dp2457
g74
(dp2458
g82
I4
ssg83
g2452
sg76
(lp2459
g69
(g78
g71
NtRp2460
(dp2461
g74
(dp2462
g82
I3
ssg83
Nsg76
(lp2463
g69
(g85
g71
NtRp2464
(dp2465
g74
(dp2466
sg83
g2460
sg76
(lp2467
g69
(g90
g71
NtRp2468
(dp2469
g74
(dp2470
sg83
g2464
sg76
(lp2471
g69
(g70
g71
NtRp2472
(dp2473
g74
(dp2474
g82
I3
ssg83
g2468
sg76
(lp2475
S'1'
asbasbasbag69
(g85
g71
NtRp2476
(dp2477
g74
(dp2478
sg83
g2460
sg76
(lp2479
g69
(g90
g71
NtRp2480
(dp2481
g74
(dp2482
sg83
g2476
sg76
(lp2483
g69
(g70
g71
NtRp2484
(dp2485
g74
(dp2486
g82
I3
ssg83
g2480
sg76
(lp2487
S'0'
asbasbasbasbasbasbasbasbasbasbasbag69
(g85
g71
NtRp2488
(dp2489
g74
(dp2490
sg83
g79
sg76
(lp2491
g69
(g90
g71
NtRp2492
(dp2493
g74
(dp2494
g94
g95
ssg83
g2488
sg76
(lp2495
S'extension'
p2496
asbag69
(g90
g71
NtRp2497
(dp2498
g74
(dp2499
g101
g102
ssg83
g2488
sg76
(lp2500
S':'
asbag69
(g90
g71
NtRp2501
(dp2502
g74
(dp2503
sg83
g2488
sg76
(lp2504
g69
(g70
g71
NtRp2505
(dp2506
g74
(dp2507
g82
I5
ssg83
g2501
sg76
(lp2508
S'html'
p2509
asbasbasbag69
(g85
g71
NtRp2510
(dp2511
g74
(dp2512
sg83
g79
sg76
(lp2513
g69
(g90
g71
NtRp2514
(dp2515
g74
(dp2516
g94
g95
ssg83
g2510
sg76
(lp2517
S'folder'
p2518
asbag69
(g90
g71
NtRp2519
(dp2520
g74
(dp2521
g101
g102
ssg83
g2510
sg76
(lp2522
S':'
asbag69
(g90
g71
NtRp2523
(dp2524
g74
(dp2525
sg83
g2510
sg76
(lp2526
g69
(g70
g71
NtRp2527
(dp2528
g74
(dp2529
g82
I5
ssg83
g2523
sg76
(lp2530
S'/home/pratyush/web2py/applications/BuySell/'
p2531
asbasbasbag69
(g85
g71
NtRp2532
(dp2533
g74
(dp2534
sg83
g79
sg76
(lp2535
g69
(g90
g71
NtRp2536
(dp2537
g74
(dp2538
g94
g95
ssg83
g2532
sg76
(lp2539
S'function'
p2540
asbag69
(g90
g71
NtRp2541
(dp2542
g74
(dp2543
g101
g102
ssg83
g2532
sg76
(lp2544
S':'
asbag69
(g90
g71
NtRp2545
(dp2546
g74
(dp2547
sg83
g2532
sg76
(lp2548
g69
(g70
g71
NtRp2549
(dp2550
g74
(dp2551
g82
I5
ssg83
g2545
sg76
(lp2552
S'item_d'
p2553
asbasbasbag69
(g85
g71
NtRp2554
(dp2555
g74
(dp2556
sg83
g79
sg76
(lp2557
g69
(g90
g71
NtRp2558
(dp2559
g74
(dp2560
g94
g95
ssg83
g2554
sg76
(lp2561
S'get_vars'
p2562
asbag69
(g90
g71
NtRp2563
(dp2564
g74
(dp2565
g101
g102
ssg83
g2554
sg76
(lp2566
S':'
asbag69
(g90
g71
NtRp2567
(dp2568
g74
(dp2569
sg83
g2554
sg76
(lp2570
g69
(g70
g71
NtRp2571
(dp2572
g74
(dp2573
g82
I5
ssg83
g2567
sg76
(lp2574
g69
(g78
g71
NtRp2575
(dp2576
g74
(dp2577
g82
I4
ssg83
Nsg76
(lp2578
sbasbasbasbag69
(g85
g71
NtRp2579
(dp2580
g74
(dp2581
sg83
g79
sg76
(lp2582
g69
(g90
g71
NtRp2583
(dp2584
g74
(dp2585
g94
g95
ssg83
g2579
sg76
(lp2586
S'global_settings'
p2587
asbag69
(g90
g71
NtRp2588
(dp2589
g74
(dp2590
g101
g102
ssg83
g2579
sg76
(lp2591
S':'
asbag69
(g90
g71
NtRp2592
(dp2593
g74
(dp2594
sg83
g2579
sg76
(lp2595
g69
(g70
g71
NtRp2596
(dp2597
g74
(dp2598
g82
I5
ssg83
g2592
sg76
(lp2599
g69
(g78
g71
NtRp2600
(dp2601
g74
(dp2602
g82
I4
ssg83
Nsg76
(lp2603
g69
(g85
g71
NtRp2604
(dp2605
g74
(dp2606
sg83
g2600
sg76
(lp2607
g69
(g90
g71
NtRp2608
(dp2609
g74
(dp2610
g94
g95
ssg83
g2604
sg76
(lp2611
g1441
asbag69
(g90
g71
NtRp2612
(dp2613
g74
(dp2614
g101
g102
ssg83
g2604
sg76
(lp2615
S':'
asbag69
(g90
g71
NtRp2616
(dp2617
g74
(dp2618
sg83
g2604
sg76
(lp2619
g69
(g70
g71
NtRp2620
(dp2621
g74
(dp2622
g82
I4
ssg83
g2616
sg76
(lp2623
S"set(['/home/pratyush/web2py/applications/welcome/', '/home/pratyush/web2py/applications/BuySell/', '/home/pratyush/web2py/applications/admin/'])"
p2624
asbasbasbag69
(g85
g71
NtRp2625
(dp2626
g74
(dp2627
sg83
g2600
sg76
(lp2628
g69
(g90
g71
NtRp2629
(dp2630
g74
(dp2631
g94
g95
ssg83
g2625
sg76
(lp2632
g1463
asbag69
(g90
g71
NtRp2633
(dp2634
g74
(dp2635
g101
g102
ssg83
g2625
sg76
(lp2636
S':'
asbag69
(g90
g71
NtRp2637
(dp2638
g74
(dp2639
sg83
g2625
sg76
(lp2640
g69
(g70
g71
NtRp2641
(dp2642
g74
(dp2643
g82
I4
ssg83
g2637
sg76
(lp2644
g1476
asbasbasbag69
(g85
g71
NtRp2645
(dp2646
g74
(dp2647
sg83
g2600
sg76
(lp2648
g69
(g90
g71
NtRp2649
(dp2650
g74
(dp2651
g94
g95
ssg83
g2645
sg76
(lp2652
g1485
asbag69
(g90
g71
NtRp2653
(dp2654
g74
(dp2655
g101
g102
ssg83
g2645
sg76
(lp2656
S':'
asbag69
(g90
g71
NtRp2657
(dp2658
g74
(dp2659
sg83
g2645
sg76
(lp2660
g69
(g70
g71
NtRp2661
(dp2662
g74
(dp2663
g82
I4
ssg83
g2657
sg76
(lp2664
g69
(g78
g71
NtRp2665
(dp2666
g74
(dp2667
g82
I3
ssg83
Nsg76
(lp2668
sbasbasbasbag69
(g85
g71
NtRp2669
(dp2670
g74
(dp2671
sg83
g2600
sg76
(lp2672
g69
(g90
g71
NtRp2673
(dp2674
g74
(dp2675
g94
g95
ssg83
g2669
sg76
(lp2676
g1510
asbag69
(g90
g71
NtRp2677
(dp2678
g74
(dp2679
g101
g102
ssg83
g2669
sg76
(lp2680
S':'
asbag69
(g90
g71
NtRp2681
(dp2682
g74
(dp2683
sg83
g2669
sg76
(lp2684
g69
(g70
g71
NtRp2685
(dp2686
g74
(dp2687
g82
I4
ssg83
g2681
sg76
(lp2688
S"<Values at 0x990602c: {'verbose': False, 'ip': '127.0.0.1', 'with_scheduler': False, 'ips': [], 'shutdown_timeout': 5, 'taskbar': False, 'port': 8001, 'maxthreads': None, 'softcron': False, 'server_name': 'alanzak', 'bpython': False, 'nogui': False, 'pid_filename': 'httpserver.pid', 'extcron': False, 'runcron': False, 'run_system_tests': False, 'test': None, 'folder': '/home/pratyush/web2py', 'config': '', 'import_models': False, 'winservice': '', 'shell': None, 'run': '', 'log_filename': 'httpserver.log', 'debuglevel': 30, 'args': [''], 'socket_timeout': 5, 'ssl_ca_certificate': None, 'scheduler': None, 'profiler_filename': None, 'ssl_private_key': '', 'scheduler_groups': None, 'password': '1', 'request_queue_size': 5, 'ssl_certificate': '', 'cronjob': False, 'numthreads': None, 'quiet': False, 'interfaces': None, 'minthreads': None, 'timeout': 10, 'plain': False, 'nobanner': False}>"
p2689
asbasbasbag69
(g85
g71
NtRp2690
(dp2691
g74
(dp2692
sg83
g2600
sg76
(lp2693
g69
(g90
g71
NtRp2694
(dp2695
g74
(dp2696
g94
g95
ssg83
g2690
sg76
(lp2697
g1532
asbag69
(g90
g71
NtRp2698
(dp2699
g74
(dp2700
g101
g102
ssg83
g2690
sg76
(lp2701
S':'
asbag69
(g90
g71
NtRp2702
(dp2703
g74
(dp2704
sg83
g2690
sg76
(lp2705
g69
(g70
g71
NtRp2706
(dp2707
g74
(dp2708
g82
I4
ssg83
g2702
sg76
(lp2709
S'set([])'
p2710
asbasbasbag69
(g85
g71
NtRp2711
(dp2712
g74
(dp2713
sg83
g2600
sg76
(lp2714
g69
(g90
g71
NtRp2715
(dp2716
g74
(dp2717
g94
g95
ssg83
g2711
sg76
(lp2718
g1554
asbag69
(g90
g71
NtRp2719
(dp2720
g74
(dp2721
g101
g102
ssg83
g2711
sg76
(lp2722
S':'
asbag69
(g90
g71
NtRp2723
(dp2724
g74
(dp2725
sg83
g2711
sg76
(lp2726
g69
(g70
g71
NtRp2727
(dp2728
g74
(dp2729
g82
I4
ssg83
g2723
sg76
(lp2730
g112
asbasbasbag69
(g85
g71
NtRp2731
(dp2732
g74
(dp2733
sg83
g2600
sg76
(lp2734
g69
(g90
g71
NtRp2735
(dp2736
g74
(dp2737
g94
g95
ssg83
g2731
sg76
(lp2738
g1575
asbag69
(g90
g71
NtRp2739
(dp2740
g74
(dp2741
g101
g102
ssg83
g2731
sg76
(lp2742
S':'
asbag69
(g90
g71
NtRp2743
(dp2744
g74
(dp2745
sg83
g2731
sg76
(lp2746
g69
(g70
g71
NtRp2747
(dp2748
g74
(dp2749
g82
I4
ssg83
g2743
sg76
(lp2750
g1588
asbasbasbag69
(g85
g71
NtRp2751
(dp2752
g74
(dp2753
sg83
g2600
sg76
(lp2754
g69
(g90
g71
NtRp2755
(dp2756
g74
(dp2757
g94
g95
ssg83
g2751
sg76
(lp2758
g1817
asbag69
(g90
g71
NtRp2759
(dp2760
g74
(dp2761
g101
g102
ssg83
g2751
sg76
(lp2762
S':'
asbag69
(g90
g71
NtRp2763
(dp2764
g74
(dp2765
sg83
g2751
sg76
(lp2766
g69
(g70
g71
NtRp2767
(dp2768
g74
(dp2769
g82
I4
ssg83
g2763
sg76
(lp2770
g112
asbasbasbag69
(g85
g71
NtRp2771
(dp2772
g74
(dp2773
sg83
g2600
sg76
(lp2774
g69
(g90
g71
NtRp2775
(dp2776
g74
(dp2777
g94
g95
ssg83
g2771
sg76
(lp2778
g1838
asbag69
(g90
g71
NtRp2779
(dp2780
g74
(dp2781
g101
g102
ssg83
g2771
sg76
(lp2782
S':'
asbag69
(g90
g71
NtRp2783
(dp2784
g74
(dp2785
sg83
g2771
sg76
(lp2786
g69
(g70
g71
NtRp2787
(dp2788
g74
(dp2789
g82
I4
ssg83
g2783
sg76
(lp2790
g112
asbasbasbag69
(g85
g71
NtRp2791
(dp2792
g74
(dp2793
sg83
g2600
sg76
(lp2794
g69
(g90
g71
NtRp2795
(dp2796
g74
(dp2797
g94
g95
ssg83
g2791
sg76
(lp2798
g1859
asbag69
(g90
g71
NtRp2799
(dp2800
g74
(dp2801
g101
g102
ssg83
g2791
sg76
(lp2802
S':'
asbag69
(g90
g71
NtRp2803
(dp2804
g74
(dp2805
sg83
g2791
sg76
(lp2806
g69
(g70
g71
NtRp2807
(dp2808
g74
(dp2809
g82
I4
ssg83
g2803
sg76
(lp2810
g69
(g78
g71
NtRp2811
(dp2812
g74
(dp2813
g82
I3
ssg83
Nsg76
(lp2814
g69
(g85
g71
NtRp2815
(dp2816
g74
(dp2817
sg83
g2811
sg76
(lp2818
g69
(g90
g71
NtRp2819
(dp2820
g74
(dp2821
sg83
g2815
sg76
(lp2822
g69
(g70
g71
NtRp2823
(dp2824
g74
(dp2825
g82
I3
ssg83
g2819
sg76
(lp2826
g1888
asbasbasbag69
(g85
g71
NtRp2827
(dp2828
g74
(dp2829
sg83
g2811
sg76
(lp2830
g69
(g90
g71
NtRp2831
(dp2832
g74
(dp2833
sg83
g2827
sg76
(lp2834
g69
(g70
g71
NtRp2835
(dp2836
g74
(dp2837
g82
I3
ssg83
g2831
sg76
(lp2838
g1901
asbasbasbag69
(g85
g71
NtRp2839
(dp2840
g74
(dp2841
sg83
g2811
sg76
(lp2842
g69
(g90
g71
NtRp2843
(dp2844
g74
(dp2845
sg83
g2839
sg76
(lp2846
g69
(g70
g71
NtRp2847
(dp2848
g74
(dp2849
g82
I3
ssg83
g2843
sg76
(lp2850
g1914
asbasbasbag69
(g85
g71
NtRp2851
(dp2852
g74
(dp2853
sg83
g2811
sg76
(lp2854
g69
(g90
g71
NtRp2855
(dp2856
g74
(dp2857
sg83
g2851
sg76
(lp2858
g69
(g70
g71
NtRp2859
(dp2860
g74
(dp2861
g82
I3
ssg83
g2855
sg76
(lp2862
g1927
asbasbasbag69
(g85
g71
NtRp2863
(dp2864
g74
(dp2865
sg83
g2811
sg76
(lp2866
g69
(g90
g71
NtRp2867
(dp2868
g74
(dp2869
sg83
g2863
sg76
(lp2870
g69
(g70
g71
NtRp2871
(dp2872
g74
(dp2873
g82
I3
ssg83
g2867
sg76
(lp2874
g1940
asbasbasbasbasbasbasbag69
(g85
g71
NtRp2875
(dp2876
g74
(dp2877
sg83
g2600
sg76
(lp2878
g69
(g90
g71
NtRp2879
(dp2880
g74
(dp2881
g94
g95
ssg83
g2875
sg76
(lp2882
g2208
asbag69
(g90
g71
NtRp2883
(dp2884
g74
(dp2885
g101
g102
ssg83
g2875
sg76
(lp2886
S':'
asbag69
(g90
g71
NtRp2887
(dp2888
g74
(dp2889
sg83
g2875
sg76
(lp2890
g69
(g70
g71
NtRp2891
(dp2892
g74
(dp2893
g82
I4
ssg83
g2887
sg76
(lp2894
g69
(g78
g71
NtRp2895
(dp2896
g74
(dp2897
g82
I3
ssg83
Nsg76
(lp2898
g69
(g85
g71
NtRp2899
(dp2900
g74
(dp2901
sg83
g2895
sg76
(lp2902
g69
(g90
g71
NtRp2903
(dp2904
g74
(dp2905
sg83
g2899
sg76
(lp2906
g69
(g70
g71
NtRp2907
(dp2908
g74
(dp2909
g82
I3
ssg83
g2903
sg76
(lp2910
S'2'
asbasbasbag69
(g85
g71
NtRp2911
(dp2912
g74
(dp2913
sg83
g2895
sg76
(lp2914
g69
(g90
g71
NtRp2915
(dp2916
g74
(dp2917
sg83
g2911
sg76
(lp2918
g69
(g70
g71
NtRp2919
(dp2920
g74
(dp2921
g82
I3
ssg83
g2915
sg76
(lp2922
S'3'
asbasbasbag69
(g85
g71
NtRp2923
(dp2924
g74
(dp2925
sg83
g2895
sg76
(lp2926
g69
(g90
g71
NtRp2927
(dp2928
g74
(dp2929
sg83
g2923
sg76
(lp2930
g69
(g70
g71
NtRp2931
(dp2932
g74
(dp2933
g82
I3
ssg83
g2927
sg76
(lp2934
S'2'
asbasbasbag69
(g85
g71
NtRp2935
(dp2936
g74
(dp2937
sg83
g2895
sg76
(lp2938
g69
(g90
g71
NtRp2939
(dp2940
g74
(dp2941
sg83
g2935
sg76
(lp2942
g69
(g70
g71
NtRp2943
(dp2944
g74
(dp2945
g82
I3
ssg83
g2939
sg76
(lp2946
S'datetime.datetime(2012, 12, 17, 15, 3, 30)'
p2947
asbasbasbag69
(g85
g71
NtRp2948
(dp2949
g74
(dp2950
sg83
g2895
sg76
(lp2951
g69
(g90
g71
NtRp2952
(dp2953
g74
(dp2954
sg83
g2948
sg76
(lp2955
g69
(g70
g71
NtRp2956
(dp2957
g74
(dp2958
g82
I3
ssg83
g2952
sg76
(lp2959
g2286
asbasbasbasbasbasbasbasbasbasbasbag69
(g85
g71
NtRp2960
(dp2961
g74
(dp2962
sg83
g79
sg76
(lp2963
g69
(g90
g71
NtRp2964
(dp2965
g74
(dp2966
g94
g95
ssg83
g2960
sg76
(lp2967
S'is_https'
p2968
asbag69
(g90
g71
NtRp2969
(dp2970
g74
(dp2971
g101
g102
ssg83
g2960
sg76
(lp2972
S':'
asbag69
(g90
g71
NtRp2973
(dp2974
g74
(dp2975
sg83
g2960
sg76
(lp2976
g69
(g70
g71
NtRp2977
(dp2978
g74
(dp2979
g82
I5
ssg83
g2973
sg76
(lp2980
g112
asbasbasbag69
(g85
g71
NtRp2981
(dp2982
g74
(dp2983
sg83
g79
sg76
(lp2984
g69
(g90
g71
NtRp2985
(dp2986
g74
(dp2987
g94
g95
ssg83
g2981
sg76
(lp2988
S'is_local'
p2989
asbag69
(g90
g71
NtRp2990
(dp2991
g74
(dp2992
g101
g102
ssg83
g2981
sg76
(lp2993
S':'
asbag69
(g90
g71
NtRp2994
(dp2995
g74
(dp2996
sg83
g2981
sg76
(lp2997
g69
(g70
g71
NtRp2998
(dp2999
g74
(dp3000
g82
I5
ssg83
g2994
sg76
(lp3001
g2395
asbasbasbag69
(g85
g71
NtRp3002
(dp3003
g74
(dp3004
sg83
g79
sg76
(lp3005
g69
(g90
g71
NtRp3006
(dp3007
g74
(dp3008
g94
g95
ssg83
g3002
sg76
(lp3009
S'is_restful'
p3010
asbag69
(g90
g71
NtRp3011
(dp3012
g74
(dp3013
g101
g102
ssg83
g3002
sg76
(lp3014
S':'
asbag69
(g90
g71
NtRp3015
(dp3016
g74
(dp3017
sg83
g3002
sg76
(lp3018
g69
(g70
g71
NtRp3019
(dp3020
g74
(dp3021
g82
I5
ssg83
g3015
sg76
(lp3022
g112
asbasbasbag69
(g85
g71
NtRp3023
(dp3024
g74
(dp3025
sg83
g79
sg76
(lp3026
g69
(g90
g71
NtRp3027
(dp3028
g74
(dp3029
g94
g95
ssg83
g3023
sg76
(lp3030
S'now'
p3031
asbag69
(g90
g71
NtRp3032
(dp3033
g74
(dp3034
g101
g102
ssg83
g3023
sg76
(lp3035
S':'
asbag69
(g90
g71
NtRp3036
(dp3037
g74
(dp3038
sg83
g3023
sg76
(lp3039
g69
(g70
g71
NtRp3040
(dp3041
g74
(dp3042
g82
I5
ssg83
g3036
sg76
(lp3043
S'datetime.datetime(2013, 4, 22, 23, 52, 37, 695802)'
p3044
asbasbasbag69
(g85
g71
NtRp3045
(dp3046
g74
(dp3047
sg83
g79
sg76
(lp3048
g69
(g90
g71
NtRp3049
(dp3050
g74
(dp3051
g94
g95
ssg83
g3045
sg76
(lp3052
S'post_vars'
p3053
asbag69
(g90
g71
NtRp3054
(dp3055
g74
(dp3056
g101
g102
ssg83
g3045
sg76
(lp3057
S':'
asbag69
(g90
g71
NtRp3058
(dp3059
g74
(dp3060
sg83
g3045
sg76
(lp3061
g69
(g70
g71
NtRp3062
(dp3063
g74
(dp3064
g82
I5
ssg83
g3058
sg76
(lp3065
g69
(g78
g71
NtRp3066
(dp3067
g74
(dp3068
g82
I4
ssg83
Nsg76
(lp3069
sbasbasbasbag69
(g85
g71
NtRp3070
(dp3071
g74
(dp3072
sg83
g79
sg76
(lp3073
g69
(g90
g71
NtRp3074
(dp3075
g74
(dp3076
g94
g95
ssg83
g3070
sg76
(lp3077
S'raw_args'
p3078
asbag69
(g90
g71
NtRp3079
(dp3080
g74
(dp3081
g101
g102
ssg83
g3070
sg76
(lp3082
S':'
asbag69
(g90
g71
NtRp3083
(dp3084
g74
(dp3085
sg83
g3070
sg76
(lp3086
g69
(g70
g71
NtRp3087
(dp3088
g74
(dp3089
g82
I5
ssg83
g3083
sg76
(lp3090
S'8'
asbasbasbag69
(g85
g71
NtRp3091
(dp3092
g74
(dp3093
sg83
g79
sg76
(lp3094
g69
(g90
g71
NtRp3095
(dp3096
g74
(dp3097
g94
g95
ssg83
g3091
sg76
(lp3098
S'raw_extension'
p3099
asbag69
(g90
g71
NtRp3100
(dp3101
g74
(dp3102
g101
g102
ssg83
g3091
sg76
(lp3103
S':'
asbag69
(g90
g71
NtRp3104
(dp3105
g74
(dp3106
sg83
g3091
sg76
(lp3107
g69
(g70
g71
NtRp3108
(dp3109
g74
(dp3110
g82
I5
ssg83
g3104
sg76
(lp3111
S'None'
p3112
asbasbasbag69
(g85
g71
NtRp3113
(dp3114
g74
(dp3115
sg83
g79
sg76
(lp3116
g69
(g90
g71
NtRp3117
(dp3118
g74
(dp3119
g94
g95
ssg83
g3113
sg76
(lp3120
S'url'
p3121
asbag69
(g90
g71
NtRp3122
(dp3123
g74
(dp3124
g101
g102
ssg83
g3113
sg76
(lp3125
S':'
asbag69
(g90
g71
NtRp3126
(dp3127
g74
(dp3128
sg83
g3113
sg76
(lp3129
g69
(g70
g71
NtRp3130
(dp3131
g74
(dp3132
g82
I5
ssg83
g3126
sg76
(lp3133
g1962
asbasbasbag69
(g85
g71
NtRp3134
(dp3135
g74
(dp3136
sg83
g79
sg76
(lp3137
g69
(g90
g71
NtRp3138
(dp3139
g74
(dp3140
g94
g95
ssg83
g3134
sg76
(lp3141
S'utcnow'
p3142
asbag69
(g90
g71
NtRp3143
(dp3144
g74
(dp3145
g101
g102
ssg83
g3134
sg76
(lp3146
S':'
asbag69
(g90
g71
NtRp3147
(dp3148
g74
(dp3149
sg83
g3134
sg76
(lp3150
g69
(g70
g71
NtRp3151
(dp3152
g74
(dp3153
g82
I5
ssg83
g3147
sg76
(lp3154
S'datetime.datetime(2013, 4, 22, 18, 22, 37, 695829)'
p3155
asbasbasbag69
(g85
g71
NtRp3156
(dp3157
g74
(dp3158
sg83
g79
sg76
(lp3159
g69
(g90
g71
NtRp3160
(dp3161
g74
(dp3162
g94
g95
ssg83
g3156
sg76
(lp3163
S'uuid'
p3164
asbag69
(g90
g71
NtRp3165
(dp3166
g74
(dp3167
g101
g102
ssg83
g3156
sg76
(lp3168
S':'
asbag69
(g90
g71
NtRp3169
(dp3170
g74
(dp3171
sg83
g3156
sg76
(lp3172
g69
(g70
g71
NtRp3173
(dp3174
g74
(dp3175
g82
I5
ssg83
g3169
sg76
(lp3176
S'BuySell/127.0.0.1.2013-04-22.23-52-37.22333eac-5fbc-4fd2-8d1e-9573a799c650'
p3177
asbasbasbag69
(g85
g71
NtRp3178
(dp3179
g74
(dp3180
sg83
g79
sg76
(lp3181
g69
(g90
g71
NtRp3182
(dp3183
g74
(dp3184
g94
g95
ssg83
g3178
sg76
(lp3185
S'vars'
p3186
asbag69
(g90
g71
NtRp3187
(dp3188
g74
(dp3189
g101
g102
ssg83
g3178
sg76
(lp3190
S':'
asbag69
(g90
g71
NtRp3191
(dp3192
g74
(dp3193
sg83
g3178
sg76
(lp3194
g69
(g70
g71
NtRp3195
(dp3196
g74
(dp3197
g82
I5
ssg83
g3191
sg76
(lp3198
g69
(g78
g71
NtRp3199
(dp3200
g74
(dp3201
g82
I4
ssg83
Nsg76
(lp3202
sbasbasbasbag69
(g85
g71
NtRp3203
(dp3204
g74
(dp3205
sg83
g79
sg76
(lp3206
g69
(g90
g71
NtRp3207
(dp3208
g74
(dp3209
g94
g95
ssg83
g3203
sg76
(lp3210
S'wsgi'
p3211
asbag69
(g90
g71
NtRp3212
(dp3213
g74
(dp3214
g101
g102
ssg83
g3203
sg76
(lp3215
S':'
asbag69
(g90
g71
NtRp3216
(dp3217
g74
(dp3218
sg83
g3203
sg76
(lp3219
g69
(g70
g71
NtRp3220
(dp3221
g74
(dp3222
g82
I5
ssg83
g3216
sg76
(lp3223
g69
(g78
g71
NtRp3224
(dp3225
g74
(dp3226
g82
I4
ssg83
Nsg76
(lp3227
g69
(g85
g71
NtRp3228
(dp3229
g74
(dp3230
sg83
g3224
sg76
(lp3231
g69
(g90
g71
NtRp3232
(dp3233
g74
(dp3234
g94
g95
ssg83
g3228
sg76
(lp3235
S'environ'
p3236
asbag69
(g90
g71
NtRp3237
(dp3238
g74
(dp3239
g101
g102
ssg83
g3228
sg76
(lp3240
S':'
asbag69
(g90
g71
NtRp3241
(dp3242
g74
(dp3243
sg83
g3228
sg76
(lp3244
g69
(g70
g71
NtRp3245
(dp3246
g74
(dp3247
g82
I4
ssg83
g3241
sg76
(lp3248
g69
(g78
g71
NtRp3249
(dp3250
g74
(dp3251
g82
I3
ssg83
Nsg76
(lp3252
g69
(g85
g71
NtRp3253
(dp3254
g74
(dp3255
sg83
g3249
sg76
(lp3256
g69
(g90
g71
NtRp3257
(dp3258
g74
(dp3259
g94
g95
ssg83
g3253
sg76
(lp3260
S'HTTP_ACCEPT'
p3261
asbag69
(g90
g71
NtRp3262
(dp3263
g74
(dp3264
g101
g102
ssg83
g3253
sg76
(lp3265
S':'
asbag69
(g90
g71
NtRp3266
(dp3267
g74
(dp3268
sg83
g3253
sg76
(lp3269
g69
(g70
g71
NtRp3270
(dp3271
g74
(dp3272
g82
I3
ssg83
g3266
sg76
(lp3273
g1610
asbasbasbag69
(g85
g71
NtRp3274
(dp3275
g74
(dp3276
sg83
g3249
sg76
(lp3277
g69
(g90
g71
NtRp3278
(dp3279
g74
(dp3280
g94
g95
ssg83
g3274
sg76
(lp3281
S'HTTP_ACCEPT_CHARSET'
p3282
asbag69
(g90
g71
NtRp3283
(dp3284
g74
(dp3285
g101
g102
ssg83
g3274
sg76
(lp3286
S':'
asbag69
(g90
g71
NtRp3287
(dp3288
g74
(dp3289
sg83
g3274
sg76
(lp3290
g69
(g70
g71
NtRp3291
(dp3292
g74
(dp3293
g82
I3
ssg83
g3287
sg76
(lp3294
g1632
asbasbasbag69
(g85
g71
NtRp3295
(dp3296
g74
(dp3297
sg83
g3249
sg76
(lp3298
g69
(g90
g71
NtRp3299
(dp3300
g74
(dp3301
g94
g95
ssg83
g3295
sg76
(lp3302
S'HTTP_ACCEPT_ENCODING'
p3303
asbag69
(g90
g71
NtRp3304
(dp3305
g74
(dp3306
g101
g102
ssg83
g3295
sg76
(lp3307
S':'
asbag69
(g90
g71
NtRp3308
(dp3309
g74
(dp3310
sg83
g3295
sg76
(lp3311
g69
(g70
g71
NtRp3312
(dp3313
g74
(dp3314
g82
I3
ssg83
g3308
sg76
(lp3315
g1654
asbasbasbag69
(g85
g71
NtRp3316
(dp3317
g74
(dp3318
sg83
g3249
sg76
(lp3319
g69
(g90
g71
NtRp3320
(dp3321
g74
(dp3322
g94
g95
ssg83
g3316
sg76
(lp3323
S'HTTP_ACCEPT_LANGUAGE'
p3324
asbag69
(g90
g71
NtRp3325
(dp3326
g74
(dp3327
g101
g102
ssg83
g3316
sg76
(lp3328
S':'
asbag69
(g90
g71
NtRp3329
(dp3330
g74
(dp3331
sg83
g3316
sg76
(lp3332
g69
(g70
g71
NtRp3333
(dp3334
g74
(dp3335
g82
I3
ssg83
g3329
sg76
(lp3336
g1676
asbasbasbag69
(g85
g71
NtRp3337
(dp3338
g74
(dp3339
sg83
g3249
sg76
(lp3340
g69
(g90
g71
NtRp3341
(dp3342
g74
(dp3343
g94
g95
ssg83
g3337
sg76
(lp3344
S'HTTP_CACHE_CONTROL'
p3345
asbag69
(g90
g71
NtRp3346
(dp3347
g74
(dp3348
g101
g102
ssg83
g3337
sg76
(lp3349
S':'
asbag69
(g90
g71
NtRp3350
(dp3351
g74
(dp3352
sg83
g3337
sg76
(lp3353
g69
(g70
g71
NtRp3354
(dp3355
g74
(dp3356
g82
I3
ssg83
g3350
sg76
(lp3357
g1698
asbasbasbag69
(g85
g71
NtRp3358
(dp3359
g74
(dp3360
sg83
g3249
sg76
(lp3361
g69
(g90
g71
NtRp3362
(dp3363
g74
(dp3364
g94
g95
ssg83
g3358
sg76
(lp3365
S'HTTP_CONNECTION'
p3366
asbag69
(g90
g71
NtRp3367
(dp3368
g74
(dp3369
g101
g102
ssg83
g3358
sg76
(lp3370
S':'
asbag69
(g90
g71
NtRp3371
(dp3372
g74
(dp3373
sg83
g3358
sg76
(lp3374
g69
(g70
g71
NtRp3375
(dp3376
g74
(dp3377
g82
I3
ssg83
g3371
sg76
(lp3378
g1720
asbasbasbag69
(g85
g71
NtRp3379
(dp3380
g74
(dp3381
sg83
g3249
sg76
(lp3382
g69
(g90
g71
NtRp3383
(dp3384
g74
(dp3385
g94
g95
ssg83
g3379
sg76
(lp3386
S'HTTP_COOKIE'
p3387
asbag69
(g90
g71
NtRp3388
(dp3389
g74
(dp3390
g101
g102
ssg83
g3379
sg76
(lp3391
S':'
asbag69
(g90
g71
NtRp3392
(dp3393
g74
(dp3394
sg83
g3379
sg76
(lp3395
g69
(g70
g71
NtRp3396
(dp3397
g74
(dp3398
g82
I3
ssg83
g3392
sg76
(lp3399
g1742
asbasbasbag69
(g85
g71
NtRp3400
(dp3401
g74
(dp3402
sg83
g3249
sg76
(lp3403
g69
(g90
g71
NtRp3404
(dp3405
g74
(dp3406
g94
g95
ssg83
g3400
sg76
(lp3407
S'HTTP_HOST'
p3408
asbag69
(g90
g71
NtRp3409
(dp3410
g74
(dp3411
g101
g102
ssg83
g3400
sg76
(lp3412
S':'
asbag69
(g90
g71
NtRp3413
(dp3414
g74
(dp3415
sg83
g3400
sg76
(lp3416
g69
(g70
g71
NtRp3417
(dp3418
g74
(dp3419
g82
I3
ssg83
g3413
sg76
(lp3420
g1764
asbasbasbag69
(g85
g71
NtRp3421
(dp3422
g74
(dp3423
sg83
g3249
sg76
(lp3424
g69
(g90
g71
NtRp3425
(dp3426
g74
(dp3427
g94
g95
ssg83
g3421
sg76
(lp3428
S'HTTP_REFERER'
p3429
asbag69
(g90
g71
NtRp3430
(dp3431
g74
(dp3432
g101
g102
ssg83
g3421
sg76
(lp3433
S':'
asbag69
(g90
g71
NtRp3434
(dp3435
g74
(dp3436
sg83
g3421
sg76
(lp3437
g69
(g70
g71
NtRp3438
(dp3439
g74
(dp3440
g82
I3
ssg83
g3434
sg76
(lp3441
g1786
asbasbasbag69
(g85
g71
NtRp3442
(dp3443
g74
(dp3444
sg83
g3249
sg76
(lp3445
g69
(g90
g71
NtRp3446
(dp3447
g74
(dp3448
g94
g95
ssg83
g3442
sg76
(lp3449
S'HTTP_USER_AGENT'
p3450
asbag69
(g90
g71
NtRp3451
(dp3452
g74
(dp3453
g101
g102
ssg83
g3442
sg76
(lp3454
S':'
asbag69
(g90
g71
NtRp3455
(dp3456
g74
(dp3457
sg83
g3442
sg76
(lp3458
g69
(g70
g71
NtRp3459
(dp3460
g74
(dp3461
g82
I3
ssg83
g3455
sg76
(lp3462
g1808
asbasbasbag69
(g85
g71
NtRp3463
(dp3464
g74
(dp3465
sg83
g3249
sg76
(lp3466
g69
(g90
g71
NtRp3467
(dp3468
g74
(dp3469
g94
g95
ssg83
g3463
sg76
(lp3470
S'PATH_INFO'
p3471
asbag69
(g90
g71
NtRp3472
(dp3473
g74
(dp3474
g101
g102
ssg83
g3463
sg76
(lp3475
S':'
asbag69
(g90
g71
NtRp3476
(dp3477
g74
(dp3478
sg83
g3463
sg76
(lp3479
g69
(g70
g71
NtRp3480
(dp3481
g74
(dp3482
g82
I3
ssg83
g3476
sg76
(lp3483
g1962
asbasbasbag69
(g85
g71
NtRp3484
(dp3485
g74
(dp3486
sg83
g3249
sg76
(lp3487
g69
(g90
g71
NtRp3488
(dp3489
g74
(dp3490
g94
g95
ssg83
g3484
sg76
(lp3491
S'QUERY_STRING'
p3492
asbag69
(g90
g71
NtRp3493
(dp3494
g74
(dp3495
g101
g102
ssg83
g3484
sg76
(lp3496
S':'
asbag69
(g90
g71
NtRp3497
(dp3498
g74
(dp3499
sg83
g3484
sg76
(lp3500
g69
(g70
g71
NtRp3501
(dp3502
g74
(dp3503
g82
I3
ssg83
g3497
sg76
(lp3504
S''
asbasbasbag69
(g85
g71
NtRp3505
(dp3506
g74
(dp3507
sg83
g3249
sg76
(lp3508
g69
(g90
g71
NtRp3509
(dp3510
g74
(dp3511
g94
g95
ssg83
g3505
sg76
(lp3512
S'REMOTE_ADDR'
p3513
asbag69
(g90
g71
NtRp3514
(dp3515
g74
(dp3516
g101
g102
ssg83
g3505
sg76
(lp3517
S':'
asbag69
(g90
g71
NtRp3518
(dp3519
g74
(dp3520
sg83
g3505
sg76
(lp3521
g69
(g70
g71
NtRp3522
(dp3523
g74
(dp3524
g82
I3
ssg83
g3518
sg76
(lp3525
g236
asbasbasbag69
(g85
g71
NtRp3526
(dp3527
g74
(dp3528
sg83
g3249
sg76
(lp3529
g69
(g90
g71
NtRp3530
(dp3531
g74
(dp3532
g94
g95
ssg83
g3526
sg76
(lp3533
S'REMOTE_PORT'
p3534
asbag69
(g90
g71
NtRp3535
(dp3536
g74
(dp3537
g101
g102
ssg83
g3526
sg76
(lp3538
S':'
asbag69
(g90
g71
NtRp3539
(dp3540
g74
(dp3541
sg83
g3526
sg76
(lp3542
g69
(g70
g71
NtRp3543
(dp3544
g74
(dp3545
g82
I3
ssg83
g3539
sg76
(lp3546
g2026
asbasbasbag69
(g85
g71
NtRp3547
(dp3548
g74
(dp3549
sg83
g3249
sg76
(lp3550
g69
(g90
g71
NtRp3551
(dp3552
g74
(dp3553
g94
g95
ssg83
g3547
sg76
(lp3554
S'REQUEST_METHOD'
p3555
asbag69
(g90
g71
NtRp3556
(dp3557
g74
(dp3558
g101
g102
ssg83
g3547
sg76
(lp3559
S':'
asbag69
(g90
g71
NtRp3560
(dp3561
g74
(dp3562
sg83
g3547
sg76
(lp3563
g69
(g70
g71
NtRp3564
(dp3565
g74
(dp3566
g82
I3
ssg83
g3560
sg76
(lp3567
g2048
asbasbasbag69
(g85
g71
NtRp3568
(dp3569
g74
(dp3570
sg83
g3249
sg76
(lp3571
g69
(g90
g71
NtRp3572
(dp3573
g74
(dp3574
g94
g95
ssg83
g3568
sg76
(lp3575
S'REQUEST_URI'
p3576
asbag69
(g90
g71
NtRp3577
(dp3578
g74
(dp3579
g101
g102
ssg83
g3568
sg76
(lp3580
S':'
asbag69
(g90
g71
NtRp3581
(dp3582
g74
(dp3583
sg83
g3568
sg76
(lp3584
g69
(g70
g71
NtRp3585
(dp3586
g74
(dp3587
g82
I3
ssg83
g3581
sg76
(lp3588
g1962
asbasbasbag69
(g85
g71
NtRp3589
(dp3590
g74
(dp3591
sg83
g3249
sg76
(lp3592
g69
(g90
g71
NtRp3593
(dp3594
g74
(dp3595
g94
g95
ssg83
g3589
sg76
(lp3596
S'SCRIPT_NAME'
p3597
asbag69
(g90
g71
NtRp3598
(dp3599
g74
(dp3600
g101
g102
ssg83
g3589
sg76
(lp3601
S':'
asbag69
(g90
g71
NtRp3602
(dp3603
g74
(dp3604
sg83
g3589
sg76
(lp3605
g69
(g70
g71
NtRp3606
(dp3607
g74
(dp3608
g82
I3
ssg83
g3602
sg76
(lp3609
S''
asbasbasbag69
(g85
g71
NtRp3610
(dp3611
g74
(dp3612
sg83
g3249
sg76
(lp3613
g69
(g90
g71
NtRp3614
(dp3615
g74
(dp3616
g94
g95
ssg83
g3610
sg76
(lp3617
S'SERVER_NAME'
p3618
asbag69
(g90
g71
NtRp3619
(dp3620
g74
(dp3621
g101
g102
ssg83
g3610
sg76
(lp3622
S':'
asbag69
(g90
g71
NtRp3623
(dp3624
g74
(dp3625
sg83
g3610
sg76
(lp3626
g69
(g70
g71
NtRp3627
(dp3628
g74
(dp3629
g82
I3
ssg83
g3623
sg76
(lp3630
g2112
asbasbasbag69
(g85
g71
NtRp3631
(dp3632
g74
(dp3633
sg83
g3249
sg76
(lp3634
g69
(g90
g71
NtRp3635
(dp3636
g74
(dp3637
g94
g95
ssg83
g3631
sg76
(lp3638
S'SERVER_PORT'
p3639
asbag69
(g90
g71
NtRp3640
(dp3641
g74
(dp3642
g101
g102
ssg83
g3631
sg76
(lp3643
S':'
asbag69
(g90
g71
NtRp3644
(dp3645
g74
(dp3646
sg83
g3631
sg76
(lp3647
g69
(g70
g71
NtRp3648
(dp3649
g74
(dp3650
g82
I3
ssg83
g3644
sg76
(lp3651
g2134
asbasbasbag69
(g85
g71
NtRp3652
(dp3653
g74
(dp3654
sg83
g3249
sg76
(lp3655
g69
(g90
g71
NtRp3656
(dp3657
g74
(dp3658
g94
g95
ssg83
g3652
sg76
(lp3659
S'SERVER_PROTOCOL'
p3660
asbag69
(g90
g71
NtRp3661
(dp3662
g74
(dp3663
g101
g102
ssg83
g3652
sg76
(lp3664
S':'
asbag69
(g90
g71
NtRp3665
(dp3666
g74
(dp3667
sg83
g3652
sg76
(lp3668
g69
(g70
g71
NtRp3669
(dp3670
g74
(dp3671
g82
I3
ssg83
g3665
sg76
(lp3672
g2156
asbasbasbag69
(g85
g71
NtRp3673
(dp3674
g74
(dp3675
sg83
g3249
sg76
(lp3676
g69
(g90
g71
NtRp3677
(dp3678
g74
(dp3679
g94
g95
ssg83
g3673
sg76
(lp3680
S'SERVER_SOFTWARE'
p3681
asbag69
(g90
g71
NtRp3682
(dp3683
g74
(dp3684
g101
g102
ssg83
g3673
sg76
(lp3685
S':'
asbag69
(g90
g71
NtRp3686
(dp3687
g74
(dp3688
sg83
g3673
sg76
(lp3689
g69
(g70
g71
NtRp3690
(dp3691
g74
(dp3692
g82
I3
ssg83
g3686
sg76
(lp3693
g2178
asbasbasbag69
(g85
g71
NtRp3694
(dp3695
g74
(dp3696
sg83
g3249
sg76
(lp3697
g69
(g90
g71
NtRp3698
(dp3699
g74
(dp3700
g94
g95
ssg83
g3694
sg76
(lp3701
S'wsgi.errors'
p3702
asbag69
(g90
g71
NtRp3703
(dp3704
g74
(dp3705
g101
g102
ssg83
g3694
sg76
(lp3706
S':'
asbag69
(g90
g71
NtRp3707
(dp3708
g74
(dp3709
sg83
g3694
sg76
(lp3710
g69
(g70
g71
NtRp3711
(dp3712
g74
(dp3713
g82
I3
ssg83
g3707
sg76
(lp3714
S"<open file '<stderr>', mode 'w' at 0xb77260d0>"
p3715
asbasbasbag69
(g85
g71
NtRp3716
(dp3717
g74
(dp3718
sg83
g3249
sg76
(lp3719
g69
(g90
g71
NtRp3720
(dp3721
g74
(dp3722
g94
g95
ssg83
g3716
sg76
(lp3723
S'wsgi.file_wrapper'
p3724
asbag69
(g90
g71
NtRp3725
(dp3726
g74
(dp3727
g101
g102
ssg83
g3716
sg76
(lp3728
S':'
asbag69
(g90
g71
NtRp3729
(dp3730
g74
(dp3731
sg83
g3716
sg76
(lp3732
g69
(g70
g71
NtRp3733
(dp3734
g74
(dp3735
g82
I3
ssg83
g3729
sg76
(lp3736
S'<class wsgiref.util.FileWrapper at 0x98b2cbc>'
p3737
asbasbasbag69
(g85
g71
NtRp3738
(dp3739
g74
(dp3740
sg83
g3249
sg76
(lp3741
g69
(g90
g71
NtRp3742
(dp3743
g74
(dp3744
g94
g95
ssg83
g3738
sg76
(lp3745
S'wsgi.input'
p3746
asbag69
(g90
g71
NtRp3747
(dp3748
g74
(dp3749
g101
g102
ssg83
g3738
sg76
(lp3750
S':'
asbag69
(g90
g71
NtRp3751
(dp3752
g74
(dp3753
sg83
g3738
sg76
(lp3754
g69
(g70
g71
NtRp3755
(dp3756
g74
(dp3757
g82
I3
ssg83
g3751
sg76
(lp3758
S'<cStringIO.StringO object at 0xb05bec0>'
p3759
asbasbasbag69
(g85
g71
NtRp3760
(dp3761
g74
(dp3762
sg83
g3249
sg76
(lp3763
g69
(g90
g71
NtRp3764
(dp3765
g74
(dp3766
g94
g95
ssg83
g3760
sg76
(lp3767
S'wsgi.multiprocess'
p3768
asbag69
(g90
g71
NtRp3769
(dp3770
g74
(dp3771
g101
g102
ssg83
g3760
sg76
(lp3772
S':'
asbag69
(g90
g71
NtRp3773
(dp3774
g74
(dp3775
sg83
g3760
sg76
(lp3776
g69
(g70
g71
NtRp3777
(dp3778
g74
(dp3779
g82
I3
ssg83
g3773
sg76
(lp3780
g112
asbasbasbag69
(g85
g71
NtRp3781
(dp3782
g74
(dp3783
sg83
g3249
sg76
(lp3784
g69
(g90
g71
NtRp3785
(dp3786
g74
(dp3787
g94
g95
ssg83
g3781
sg76
(lp3788
S'wsgi.multithread'
p3789
asbag69
(g90
g71
NtRp3790
(dp3791
g74
(dp3792
g101
g102
ssg83
g3781
sg76
(lp3793
S':'
asbag69
(g90
g71
NtRp3794
(dp3795
g74
(dp3796
sg83
g3781
sg76
(lp3797
g69
(g70
g71
NtRp3798
(dp3799
g74
(dp3800
g82
I3
ssg83
g3794
sg76
(lp3801
g2395
asbasbasbag69
(g85
g71
NtRp3802
(dp3803
g74
(dp3804
sg83
g3249
sg76
(lp3805
g69
(g90
g71
NtRp3806
(dp3807
g74
(dp3808
g94
g95
ssg83
g3802
sg76
(lp3809
S'wsgi.run_once'
p3810
asbag69
(g90
g71
NtRp3811
(dp3812
g74
(dp3813
g101
g102
ssg83
g3802
sg76
(lp3814
S':'
asbag69
(g90
g71
NtRp3815
(dp3816
g74
(dp3817
sg83
g3802
sg76
(lp3818
g69
(g70
g71
NtRp3819
(dp3820
g74
(dp3821
g82
I3
ssg83
g3815
sg76
(lp3822
g112
asbasbasbag69
(g85
g71
NtRp3823
(dp3824
g74
(dp3825
sg83
g3249
sg76
(lp3826
g69
(g90
g71
NtRp3827
(dp3828
g74
(dp3829
g94
g95
ssg83
g3823
sg76
(lp3830
S'wsgi.url_scheme'
p3831
asbag69
(g90
g71
NtRp3832
(dp3833
g74
(dp3834
g101
g102
ssg83
g3823
sg76
(lp3835
S':'
asbag69
(g90
g71
NtRp3836
(dp3837
g74
(dp3838
sg83
g3823
sg76
(lp3839
g69
(g70
g71
NtRp3840
(dp3841
g74
(dp3842
g82
I3
ssg83
g3836
sg76
(lp3843
g2438
asbasbasbag69
(g85
g71
NtRp3844
(dp3845
g74
(dp3846
sg83
g3249
sg76
(lp3847
g69
(g90
g71
NtRp3848
(dp3849
g74
(dp3850
g94
g95
ssg83
g3844
sg76
(lp3851
S'wsgi.version'
p3852
asbag69
(g90
g71
NtRp3853
(dp3854
g74
(dp3855
g101
g102
ssg83
g3844
sg76
(lp3856
S':'
asbag69
(g90
g71
NtRp3857
(dp3858
g74
(dp3859
sg83
g3844
sg76
(lp3860
g69
(g70
g71
NtRp3861
(dp3862
g74
(dp3863
g82
I3
ssg83
g3857
sg76
(lp3864
S'1'
asbasbasbasbasbasbasbasbasbasbasbasbasbsS'frames'
p3865
(lp3866
(dp3867
S'file'
p3868
S'/home/pratyush/web2py/gluon/restricted.py'
p3869
sS'dump'
p3870
(dp3871
S'code'
p3872
S'\'response.write(\\\'<!DOCTYPE html>\\\\n<!-- paulirish...."></script>\\\\n</body>\\\\n</html>\\\\n\\\\n\\\', escape=False)\''
p3873
sS'layer'
p3874
S"'/home/pratyush/web2py/applications/BuySell/views/default/item_d.html'"
p3875
sS'global compile2'
p3876
S'<function compile2>'
p3877
sS'ccode'
p3878
S'undefined'
p3879
ssS'lnum'
p3880
I211
sS'lines'
p3881
(dp3882
I206
S"    environment['__name__'] = '__restricted__'"
p3883
sI207
S'    try:'
p3884
sI208
S'        if isinstance(code, types.CodeType):'
p3885
sI209
S'            ccode = code'
p3886
sI210
S'        else:'
p3887
sI211
S'            ccode = compile2(code, layer)'
p3888
sI212
S'        exec ccode in environment'
p3889
sI213
S'    except HTTP:'
p3890
sI214
S'        raise'
p3891
sI215
S'    except RestrictedError:'
p3892
ssS'call'
p3893
S'(code=\'response.write(\\\'<!DOCTYPE html>\\\\n<!-- paulirish...."></script>\\\\n</body>\\\\n</html>\\\\n\\\\n\\\', escape=False)\', environment={\'A\': <class \'gluon.html.A\'>, \'Auth\': <class \'gluon.tools.Auth\'>, \'B\': <class \'gluon.html.B\'>, \'BEAUTIFY\': <class \'gluon.html.BEAUTIFY\'>, \'BODY\': <class \'gluon.html.BODY\'>, \'BR\': <class \'gluon.html.BR\'>, \'BUTTON\': <class \'gluon.html.BUTTON\'>, \'CAT\': <class \'gluon.html.CAT\'>, \'CENTER\': <class \'gluon.html.CENTER\'>, \'CLEANUP\': <class \'gluon.validators.CLEANUP\'>, ...}, layer=\'/home/pratyush/web2py/applications/BuySell/views/default/item_d.html\')'
p3894
sS'func'
p3895
S'restricted'
p3896
sa(dp3897
g3868
S'/home/pratyush/web2py/gluon/restricted.py'
p3898
sg3870
(dp3899
S'builtincompile'
p3900
S'<built-in function compile>'
p3901
sS'code'
p3902
S'\'response.write(\\\'<!DOCTYPE html>\\\\n<!-- paulirish...."></script>\\\\n</body>\\\\n</html>\\\\n\\\\n\\\', escape=False)\''
p3903
sS'code.rstrip'
p3904
S'<built-in method rstrip of str object>'
p3905
sS').replace'
p3906
g3879
sS'layer'
p3907
S"'/home/pratyush/web2py/applications/BuySell/views/default/item_d.html'"
p3908
ssg3880
I194
sg3881
(dp3909
I192
S"    The +'\\n' is necessary else compile fails when code ends in a comment."
p3910
sI193
S'    """'
p3911
sI194
S"    return compile(code.rstrip().replace('\\r\\n', '\\n') + '\\n', layer, 'exec')"
p3912
sI195
S''
sI196
S''
sI197
S"def restricted(code, environment=None, layer='Unknown'):"
p3913
sI198
S'    """'
p3914
sI189
S''
sI190
S'def compile2(code, layer):'
p3915
sI191
S'    """'
p3916
ssg3893
S'(code=\'response.write(\\\'<!DOCTYPE html>\\\\n<!-- paulirish...."></script>\\\\n</body>\\\\n</html>\\\\n\\\\n\\\', escape=False)\', layer=\'/home/pratyush/web2py/applications/BuySell/views/default/item_d.html\')'
p3917
sg3895
S'compile2'
p3918
sasS'pyver'
p3919
S'Python 2.7.2+: /usr/bin/python2.7'
p3920
sS'session'
p3921
g69
(g70
g71
NtRp3922
(dp3923
g74
(dp3924
sg76
(lp3925
g69
(g78
g71
NtRp3926
(dp3927
g74
(dp3928
g82
I5
ssg83
Nsg76
(lp3929
g69
(g85
g71
NtRp3930
(dp3931
g74
(dp3932
sg83
g3926
sg76
(lp3933
g69
(g90
g71
NtRp3934
(dp3935
g74
(dp3936
g94
g95
ssg83
g3930
sg76
(lp3937
S'auth'
p3938
asbag69
(g90
g71
NtRp3939
(dp3940
g74
(dp3941
g101
g102
ssg83
g3930
sg76
(lp3942
S':'
asbag69
(g90
g71
NtRp3943
(dp3944
g74
(dp3945
sg83
g3930
sg76
(lp3946
g69
(g70
g71
NtRp3947
(dp3948
g74
(dp3949
g82
I5
ssg83
g3943
sg76
(lp3950
g69
(g78
g71
NtRp3951
(dp3952
g74
(dp3953
g82
I4
ssg83
Nsg76
(lp3954
g69
(g85
g71
NtRp3955
(dp3956
g74
(dp3957
sg83
g3951
sg76
(lp3958
g69
(g90
g71
NtRp3959
(dp3960
g74
(dp3961
g94
g95
ssg83
g3955
sg76
(lp3962
S'expiration'
p3963
asbag69
(g90
g71
NtRp3964
(dp3965
g74
(dp3966
g101
g102
ssg83
g3955
sg76
(lp3967
S':'
asbag69
(g90
g71
NtRp3968
(dp3969
g74
(dp3970
sg83
g3955
sg76
(lp3971
g69
(g70
g71
NtRp3972
(dp3973
g74
(dp3974
g82
I4
ssg83
g3968
sg76
(lp3975
S'3600'
p3976
asbasbasbag69
(g85
g71
NtRp3977
(dp3978
g74
(dp3979
sg83
g3951
sg76
(lp3980
g69
(g90
g71
NtRp3981
(dp3982
g74
(dp3983
g94
g95
ssg83
g3977
sg76
(lp3984
S'hmac_key'
p3985
asbag69
(g90
g71
NtRp3986
(dp3987
g74
(dp3988
g101
g102
ssg83
g3977
sg76
(lp3989
S':'
asbag69
(g90
g71
NtRp3990
(dp3991
g74
(dp3992
sg83
g3977
sg76
(lp3993
g69
(g70
g71
NtRp3994
(dp3995
g74
(dp3996
g82
I4
ssg83
g3990
sg76
(lp3997
S'997d33dd-3159-44cc-8104-5600eb09acdc'
p3998
asbasbasbag69
(g85
g71
NtRp3999
(dp4000
g74
(dp4001
sg83
g3951
sg76
(lp4002
g69
(g90
g71
NtRp4003
(dp4004
g74
(dp4005
g94
g95
ssg83
g3999
sg76
(lp4006
S'last_visit'
p4007
asbag69
(g90
g71
NtRp4008
(dp4009
g74
(dp4010
g101
g102
ssg83
g3999
sg76
(lp4011
S':'
asbag69
(g90
g71
NtRp4012
(dp4013
g74
(dp4014
sg83
g3999
sg76
(lp4015
g69
(g70
g71
NtRp4016
(dp4017
g74
(dp4018
g82
I4
ssg83
g4012
sg76
(lp4019
S'datetime.datetime(2013, 4, 22, 23, 52, 37, 695802)'
p4020
asbasbasbag69
(g85
g71
NtRp4021
(dp4022
g74
(dp4023
sg83
g3951
sg76
(lp4024
g69
(g90
g71
NtRp4025
(dp4026
g74
(dp4027
g94
g95
ssg83
g4021
sg76
(lp4028
S'remember'
p4029
asbag69
(g90
g71
NtRp4030
(dp4031
g74
(dp4032
g101
g102
ssg83
g4021
sg76
(lp4033
S':'
asbag69
(g90
g71
NtRp4034
(dp4035
g74
(dp4036
sg83
g4021
sg76
(lp4037
g69
(g70
g71
NtRp4038
(dp4039
g74
(dp4040
g82
I4
ssg83
g4034
sg76
(lp4041
g112
asbasbasbag69
(g85
g71
NtRp4042
(dp4043
g74
(dp4044
sg83
g3951
sg76
(lp4045
g69
(g90
g71
NtRp4046
(dp4047
g74
(dp4048
g94
g95
ssg83
g4042
sg76
(lp4049
S'user'
p4050
asbag69
(g90
g71
NtRp4051
(dp4052
g74
(dp4053
g101
g102
ssg83
g4042
sg76
(lp4054
S':'
asbag69
(g90
g71
NtRp4055
(dp4056
g74
(dp4057
sg83
g4042
sg76
(lp4058
g69
(g70
g71
NtRp4059
(dp4060
g74
(dp4061
g82
I4
ssg83
g4055
sg76
(lp4062
g69
(g78
g71
NtRp4063
(dp4064
g74
(dp4065
g82
I3
ssg83
Nsg76
(lp4066
g69
(g85
g71
NtRp4067
(dp4068
g74
(dp4069
sg83
g4063
sg76
(lp4070
g69
(g90
g71
NtRp4071
(dp4072
g74
(dp4073
g94
g95
ssg83
g4067
sg76
(lp4074
S'email'
p4075
asbag69
(g90
g71
NtRp4076
(dp4077
g74
(dp4078
g101
g102
ssg83
g4067
sg76
(lp4079
S':'
asbag69
(g90
g71
NtRp4080
(dp4081
g74
(dp4082
sg83
g4067
sg76
(lp4083
g69
(g70
g71
NtRp4084
(dp4085
g74
(dp4086
g82
I3
ssg83
g4080
sg76
(lp4087
S'pratyush.nigam@gmail.com'
p4088
asbasbasbag69
(g85
g71
NtRp4089
(dp4090
g74
(dp4091
sg83
g4063
sg76
(lp4092
g69
(g90
g71
NtRp4093
(dp4094
g74
(dp4095
g94
g95
ssg83
g4089
sg76
(lp4096
S'first_name'
p4097
asbag69
(g90
g71
NtRp4098
(dp4099
g74
(dp4100
g101
g102
ssg83
g4089
sg76
(lp4101
S':'
asbag69
(g90
g71
NtRp4102
(dp4103
g74
(dp4104
sg83
g4089
sg76
(lp4105
g69
(g70
g71
NtRp4106
(dp4107
g74
(dp4108
g82
I3
ssg83
g4102
sg76
(lp4109
S'Pratyush'
p4110
asbasbasbag69
(g85
g71
NtRp4111
(dp4112
g74
(dp4113
sg83
g4063
sg76
(lp4114
g69
(g90
g71
NtRp4115
(dp4116
g74
(dp4117
g94
g95
ssg83
g4111
sg76
(lp4118
S'id'
p4119
asbag69
(g90
g71
NtRp4120
(dp4121
g74
(dp4122
g101
g102
ssg83
g4111
sg76
(lp4123
S':'
asbag69
(g90
g71
NtRp4124
(dp4125
g74
(dp4126
sg83
g4111
sg76
(lp4127
g69
(g70
g71
NtRp4128
(dp4129
g74
(dp4130
g82
I3
ssg83
g4124
sg76
(lp4131
S'1'
asbasbasbag69
(g85
g71
NtRp4132
(dp4133
g74
(dp4134
sg83
g4063
sg76
(lp4135
g69
(g90
g71
NtRp4136
(dp4137
g74
(dp4138
g94
g95
ssg83
g4132
sg76
(lp4139
S'last_name'
p4140
asbag69
(g90
g71
NtRp4141
(dp4142
g74
(dp4143
g101
g102
ssg83
g4132
sg76
(lp4144
S':'
asbag69
(g90
g71
NtRp4145
(dp4146
g74
(dp4147
sg83
g4132
sg76
(lp4148
g69
(g70
g71
NtRp4149
(dp4150
g74
(dp4151
g82
I3
ssg83
g4145
sg76
(lp4152
S'Nigam'
p4153
asbasbasbag69
(g85
g71
NtRp4154
(dp4155
g74
(dp4156
sg83
g4063
sg76
(lp4157
g69
(g90
g71
NtRp4158
(dp4159
g74
(dp4160
g94
g95
ssg83
g4154
sg76
(lp4161
S'registration_id'
p4162
asbag69
(g90
g71
NtRp4163
(dp4164
g74
(dp4165
g101
g102
ssg83
g4154
sg76
(lp4166
S':'
asbag69
(g90
g71
NtRp4167
(dp4168
g74
(dp4169
sg83
g4154
sg76
(lp4170
g69
(g70
g71
NtRp4171
(dp4172
g74
(dp4173
g82
I3
ssg83
g4167
sg76
(lp4174
S''
asbasbasbag69
(g85
g71
NtRp4175
(dp4176
g74
(dp4177
sg83
g4063
sg76
(lp4178
g69
(g90
g71
NtRp4179
(dp4180
g74
(dp4181
g94
g95
ssg83
g4175
sg76
(lp4182
S'registration_key'
p4183
asbag69
(g90
g71
NtRp4184
(dp4185
g74
(dp4186
g101
g102
ssg83
g4175
sg76
(lp4187
S':'
asbag69
(g90
g71
NtRp4188
(dp4189
g74
(dp4190
sg83
g4175
sg76
(lp4191
g69
(g70
g71
NtRp4192
(dp4193
g74
(dp4194
g82
I3
ssg83
g4188
sg76
(lp4195
S''
asbasbasbag69
(g85
g71
NtRp4196
(dp4197
g74
(dp4198
sg83
g4063
sg76
(lp4199
g69
(g90
g71
NtRp4200
(dp4201
g74
(dp4202
g94
g95
ssg83
g4196
sg76
(lp4203
S'reset_password_key'
p4204
asbag69
(g90
g71
NtRp4205
(dp4206
g74
(dp4207
g101
g102
ssg83
g4196
sg76
(lp4208
S':'
asbag69
(g90
g71
NtRp4209
(dp4210
g74
(dp4211
sg83
g4196
sg76
(lp4212
g69
(g70
g71
NtRp4213
(dp4214
g74
(dp4215
g82
I3
ssg83
g4209
sg76
(lp4216
S''
asbasbasbasbasbasbasbag69
(g85
g71
NtRp4217
(dp4218
g74
(dp4219
sg83
g3951
sg76
(lp4220
g69
(g90
g71
NtRp4221
(dp4222
g74
(dp4223
g94
g95
ssg83
g4217
sg76
(lp4224
S'user_groups'
p4225
asbag69
(g90
g71
NtRp4226
(dp4227
g74
(dp4228
g101
g102
ssg83
g4217
sg76
(lp4229
S':'
asbag69
(g90
g71
NtRp4230
(dp4231
g74
(dp4232
sg83
g4217
sg76
(lp4233
g69
(g70
g71
NtRp4234
(dp4235
g74
(dp4236
g82
I4
ssg83
g4230
sg76
(lp4237
g69
(g78
g71
NtRp4238
(dp4239
g74
(dp4240
g82
I3
ssg83
Nsg76
(lp4241
g69
(g85
g71
NtRp4242
(dp4243
g74
(dp4244
sg83
g4238
sg76
(lp4245
g69
(g90
g71
NtRp4246
(dp4247
g74
(dp4248
g94
g95
ssg83
g4242
sg76
(lp4249
S'1'
asbag69
(g90
g71
NtRp4250
(dp4251
g74
(dp4252
g101
g102
ssg83
g4242
sg76
(lp4253
S':'
asbag69
(g90
g71
NtRp4254
(dp4255
g74
(dp4256
sg83
g4242
sg76
(lp4257
g69
(g70
g71
NtRp4258
(dp4259
g74
(dp4260
g82
I3
ssg83
g4254
sg76
(lp4261
S'user_1'
p4262
asbasbasbasbasbasbasbasbasbasbasbag69
(g85
g71
NtRp4263
(dp4264
g74
(dp4265
sg83
g3926
sg76
(lp4266
g69
(g90
g71
NtRp4267
(dp4268
g74
(dp4269
g94
g95
ssg83
g4263
sg76
(lp4270
S'flash'
p4271
asbag69
(g90
g71
NtRp4272
(dp4273
g74
(dp4274
g101
g102
ssg83
g4263
sg76
(lp4275
S':'
asbag69
(g90
g71
NtRp4276
(dp4277
g74
(dp4278
sg83
g4263
sg76
(lp4279
g69
(g70
g71
NtRp4280
(dp4281
g74
(dp4282
g82
I5
ssg83
g4276
sg76
(lp4283
S'None'
p4284
asbasbasbag69
(g85
g71
NtRp4285
(dp4286
g74
(dp4287
sg83
g3926
sg76
(lp4288
g69
(g90
g71
NtRp4289
(dp4290
g74
(dp4291
g94
g95
ssg83
g4285
sg76
(lp4292
S'last_orderby'
p4293
asbag69
(g90
g71
NtRp4294
(dp4295
g74
(dp4296
g101
g102
ssg83
g4285
sg76
(lp4297
S':'
asbag69
(g90
g71
NtRp4298
(dp4299
g74
(dp4300
sg83
g4285
sg76
(lp4301
g69
(g70
g71
NtRp4302
(dp4303
g74
(dp4304
g82
I5
ssg83
g4298
sg76
(lp4305
S'None'
p4306
asbasbasbag69
(g85
g71
NtRp4307
(dp4308
g74
(dp4309
sg83
g3926
sg76
(lp4310
g69
(g90
g71
NtRp4311
(dp4312
g74
(dp4313
g94
g95
ssg83
g4307
sg76
(lp4314
S'last_query'
p4315
asbag69
(g90
g71
NtRp4316
(dp4317
g74
(dp4318
g101
g102
ssg83
g4307
sg76
(lp4319
S':'
asbag69
(g90
g71
NtRp4320
(dp4321
g74
(dp4322
sg83
g4307
sg76
(lp4323
g69
(g70
g71
NtRp4324
(dp4325
g74
(dp4326
g82
I5
ssg83
g4320
sg76
(lp4327
S'db.item.id>0'
p4328
asbasbasbasbasbsS'etype'
p4329
S"<type 'exceptions.SyntaxError'>"
p4330
sS'date'
p4331
S'Mon Apr 22 23:52:37 2013'
p4332
sS'response'
p4333
g69
(g70
g71
NtRp4334
(dp4335
g74
(dp4336
sg76
(lp4337
g69
(g78
g71
NtRp4338
(dp4339
g74
(dp4340
g82
I5
ssg83
Nsg76
(lp4341
g69
(g85
g71
NtRp4342
(dp4343
g74
(dp4344
sg83
g4338
sg76
(lp4345
g69
(g90
g71
NtRp4346
(dp4347
g74
(dp4348
g94
g95
ssg83
g4342
sg76
(lp4349
g179
asbag69
(g90
g71
NtRp4350
(dp4351
g74
(dp4352
g101
g102
ssg83
g4342
sg76
(lp4353
S':'
asbag69
(g90
g71
NtRp4354
(dp4355
g74
(dp4356
sg83
g4342
sg76
(lp4357
g69
(g70
g71
NtRp4358
(dp4359
g74
(dp4360
g82
I5
ssg83
g4354
sg76
(lp4361
S'<cStringIO.StringO object at 0xa8a79a0>'
p4362
asbasbasbag69
(g85
g71
NtRp4363
(dp4364
g74
(dp4365
sg83
g4338
sg76
(lp4366
g69
(g90
g71
NtRp4367
(dp4368
g74
(dp4369
g94
g95
ssg83
g4363
sg76
(lp4370
g267
asbag69
(g90
g71
NtRp4371
(dp4372
g74
(dp4373
g101
g102
ssg83
g4363
sg76
(lp4374
S':'
asbag69
(g90
g71
NtRp4375
(dp4376
g74
(dp4377
sg83
g4363
sg76
(lp4378
g69
(g70
g71
NtRp4379
(dp4380
g74
(dp4381
g82
I5
ssg83
g4375
sg76
(lp4382
g69
(g78
g71
NtRp4383
(dp4384
g74
(dp4385
g82
I4
ssg83
Nsg76
(lp4386
g69
(g85
g71
NtRp4387
(dp4388
g74
(dp4389
sg83
g4383
sg76
(lp4390
g69
(g90
g71
NtRp4391
(dp4392
g74
(dp4393
g94
g95
ssg83
g4387
sg76
(lp4394
S'session_id_buysell'
p4395
asbag69
(g90
g71
NtRp4396
(dp4397
g74
(dp4398
g101
g102
ssg83
g4387
sg76
(lp4399
S':'
asbag69
(g90
g71
NtRp4400
(dp4401
g74
(dp4402
sg83
g4387
sg76
(lp4403
g69
(g70
g71
NtRp4404
(dp4405
g74
(dp4406
g82
I4
ssg83
g4400
sg76
(lp4407
g685
ag69
(g78
g71
NtRp4408
(dp4409
g74
(dp4410
g82
I3
ssg83
Nsg76
(lp4411
g69
(g85
g71
NtRp4412
(dp4413
g74
(dp4414
sg83
g4408
sg76
(lp4415
g69
(g90
g71
NtRp4416
(dp4417
g74
(dp4418
g94
g95
ssg83
g4412
sg76
(lp4419
g318
asbag69
(g90
g71
NtRp4420
(dp4421
g74
(dp4422
g101
g102
ssg83
g4412
sg76
(lp4423
S':'
asbag69
(g90
g71
NtRp4424
(dp4425
g74
(dp4426
sg83
g4412
sg76
(lp4427
g69
(g70
g71
NtRp4428
(dp4429
g74
(dp4430
g82
I3
ssg83
g4424
sg76
(lp4431
S''
asbasbasbag69
(g85
g71
NtRp4432
(dp4433
g74
(dp4434
sg83
g4408
sg76
(lp4435
g69
(g90
g71
NtRp4436
(dp4437
g74
(dp4438
g94
g95
ssg83
g4432
sg76
(lp4439
g339
asbag69
(g90
g71
NtRp4440
(dp4441
g74
(dp4442
g101
g102
ssg83
g4432
sg76
(lp4443
S':'
asbag69
(g90
g71
NtRp4444
(dp4445
g74
(dp4446
sg83
g4432
sg76
(lp4447
g69
(g70
g71
NtRp4448
(dp4449
g74
(dp4450
g82
I3
ssg83
g4444
sg76
(lp4451
S''
asbasbasbag69
(g85
g71
NtRp4452
(dp4453
g74
(dp4454
sg83
g4408
sg76
(lp4455
g69
(g90
g71
NtRp4456
(dp4457
g74
(dp4458
g94
g95
ssg83
g4452
sg76
(lp4459
g360
asbag69
(g90
g71
NtRp4460
(dp4461
g74
(dp4462
g101
g102
ssg83
g4452
sg76
(lp4463
S':'
asbag69
(g90
g71
NtRp4464
(dp4465
g74
(dp4466
sg83
g4452
sg76
(lp4467
g69
(g70
g71
NtRp4468
(dp4469
g74
(dp4470
g82
I3
ssg83
g4464
sg76
(lp4471
S''
asbasbasbag69
(g85
g71
NtRp4472
(dp4473
g74
(dp4474
sg83
g4408
sg76
(lp4475
g69
(g90
g71
NtRp4476
(dp4477
g74
(dp4478
g94
g95
ssg83
g4472
sg76
(lp4479
g381
asbag69
(g90
g71
NtRp4480
(dp4481
g74
(dp4482
g101
g102
ssg83
g4472
sg76
(lp4483
S':'
asbag69
(g90
g71
NtRp4484
(dp4485
g74
(dp4486
sg83
g4472
sg76
(lp4487
g69
(g70
g71
NtRp4488
(dp4489
g74
(dp4490
g82
I3
ssg83
g4484
sg76
(lp4491
S''
asbasbasbag69
(g85
g71
NtRp4492
(dp4493
g74
(dp4494
sg83
g4408
sg76
(lp4495
g69
(g90
g71
NtRp4496
(dp4497
g74
(dp4498
g94
g95
ssg83
g4492
sg76
(lp4499
g402
asbag69
(g90
g71
NtRp4500
(dp4501
g74
(dp4502
g101
g102
ssg83
g4492
sg76
(lp4503
S':'
asbag69
(g90
g71
NtRp4504
(dp4505
g74
(dp4506
sg83
g4492
sg76
(lp4507
g69
(g70
g71
NtRp4508
(dp4509
g74
(dp4510
g82
I3
ssg83
g4504
sg76
(lp4511
S''
asbasbasbag69
(g85
g71
NtRp4512
(dp4513
g74
(dp4514
sg83
g4408
sg76
(lp4515
g69
(g90
g71
NtRp4516
(dp4517
g74
(dp4518
g94
g95
ssg83
g4512
sg76
(lp4519
g423
asbag69
(g90
g71
NtRp4520
(dp4521
g74
(dp4522
g101
g102
ssg83
g4512
sg76
(lp4523
S':'
asbag69
(g90
g71
NtRp4524
(dp4525
g74
(dp4526
sg83
g4512
sg76
(lp4527
g69
(g70
g71
NtRp4528
(dp4529
g74
(dp4530
g82
I3
ssg83
g4524
sg76
(lp4531
S'/'
asbasbasbag69
(g85
g71
NtRp4532
(dp4533
g74
(dp4534
sg83
g4408
sg76
(lp4535
g69
(g90
g71
NtRp4536
(dp4537
g74
(dp4538
g94
g95
ssg83
g4532
sg76
(lp4539
g444
asbag69
(g90
g71
NtRp4540
(dp4541
g74
(dp4542
g101
g102
ssg83
g4532
sg76
(lp4543
S':'
asbag69
(g90
g71
NtRp4544
(dp4545
g74
(dp4546
sg83
g4532
sg76
(lp4547
g69
(g70
g71
NtRp4548
(dp4549
g74
(dp4550
g82
I3
ssg83
g4544
sg76
(lp4551
S''
asbasbasbag69
(g85
g71
NtRp4552
(dp4553
g74
(dp4554
sg83
g4408
sg76
(lp4555
g69
(g90
g71
NtRp4556
(dp4557
g74
(dp4558
g94
g95
ssg83
g4552
sg76
(lp4559
g465
asbag69
(g90
g71
NtRp4560
(dp4561
g74
(dp4562
g101
g102
ssg83
g4552
sg76
(lp4563
S':'
asbag69
(g90
g71
NtRp4564
(dp4565
g74
(dp4566
sg83
g4552
sg76
(lp4567
g69
(g70
g71
NtRp4568
(dp4569
g74
(dp4570
g82
I3
ssg83
g4564
sg76
(lp4571
S''
asbasbasbasbasbasbasbasbasbasbasbag69
(g85
g71
NtRp4572
(dp4573
g74
(dp4574
sg83
g4338
sg76
(lp4575
g69
(g90
g71
NtRp4576
(dp4577
g74
(dp4578
g94
g95
ssg83
g4572
sg76
(lp4579
S'delimiters'
p4580
asbag69
(g90
g71
NtRp4581
(dp4582
g74
(dp4583
g101
g102
ssg83
g4572
sg76
(lp4584
S':'
asbag69
(g90
g71
NtRp4585
(dp4586
g74
(dp4587
sg83
g4572
sg76
(lp4588
g69
(g70
g71
NtRp4589
(dp4590
g74
(dp4591
g82
I5
ssg83
g4585
sg76
(lp4592
g69
(g78
g71
NtRp4593
(dp4594
g74
(dp4595
g82
I4
ssg83
Nsg76
(lp4596
g69
(g85
g71
NtRp4597
(dp4598
g74
(dp4599
sg83
g4593
sg76
(lp4600
g69
(g90
g71
NtRp4601
(dp4602
g74
(dp4603
sg83
g4597
sg76
(lp4604
g69
(g70
g71
NtRp4605
(dp4606
g74
(dp4607
g82
I4
ssg83
g4601
sg76
(lp4608
S'{{'
p4609
asbasbasbag69
(g85
g71
NtRp4610
(dp4611
g74
(dp4612
sg83
g4593
sg76
(lp4613
g69
(g90
g71
NtRp4614
(dp4615
g74
(dp4616
sg83
g4610
sg76
(lp4617
g69
(g70
g71
NtRp4618
(dp4619
g74
(dp4620
g82
I4
ssg83
g4614
sg76
(lp4621
S'}}'
p4622
asbasbasbasbasbasbasbag69
(g85
g71
NtRp4623
(dp4624
g74
(dp4625
sg83
g4338
sg76
(lp4626
g69
(g90
g71
NtRp4627
(dp4628
g74
(dp4629
g94
g95
ssg83
g4623
sg76
(lp4630
S'files'
p4631
asbag69
(g90
g71
NtRp4632
(dp4633
g74
(dp4634
g101
g102
ssg83
g4623
sg76
(lp4635
S':'
asbag69
(g90
g71
NtRp4636
(dp4637
g74
(dp4638
sg83
g4623
sg76
(lp4639
g69
(g70
g71
NtRp4640
(dp4641
g74
(dp4642
g82
I5
ssg83
g4636
sg76
(lp4643
g69
(g78
g71
NtRp4644
(dp4645
g74
(dp4646
g82
I4
ssg83
Nsg76
(lp4647
sbasbasbasbag69
(g85
g71
NtRp4648
(dp4649
g74
(dp4650
sg83
g4338
sg76
(lp4651
g69
(g90
g71
NtRp4652
(dp4653
g74
(dp4654
g94
g95
ssg83
g4648
sg76
(lp4655
S'flash'
p4656
asbag69
(g90
g71
NtRp4657
(dp4658
g74
(dp4659
g101
g102
ssg83
g4648
sg76
(lp4660
S':'
asbag69
(g90
g71
NtRp4661
(dp4662
g74
(dp4663
sg83
g4648
sg76
(lp4664
g69
(g70
g71
NtRp4665
(dp4666
g74
(dp4667
g82
I5
ssg83
g4661
sg76
(lp4668
S''
asbasbasbag69
(g85
g71
NtRp4669
(dp4670
g74
(dp4671
sg83
g4338
sg76
(lp4672
g69
(g90
g71
NtRp4673
(dp4674
g74
(dp4675
g94
g95
ssg83
g4669
sg76
(lp4676
S'generic_patterns'
p4677
asbag69
(g90
g71
NtRp4678
(dp4679
g74
(dp4680
g101
g102
ssg83
g4669
sg76
(lp4681
S':'
asbag69
(g90
g71
NtRp4682
(dp4683
g74
(dp4684
sg83
g4669
sg76
(lp4685
g69
(g70
g71
NtRp4686
(dp4687
g74
(dp4688
g82
I5
ssg83
g4682
sg76
(lp4689
g69
(g78
g71
NtRp4690
(dp4691
g74
(dp4692
g82
I4
ssg83
Nsg76
(lp4693
g69
(g85
g71
NtRp4694
(dp4695
g74
(dp4696
sg83
g4690
sg76
(lp4697
g69
(g90
g71
NtRp4698
(dp4699
g74
(dp4700
sg83
g4694
sg76
(lp4701
g69
(g70
g71
NtRp4702
(dp4703
g74
(dp4704
g82
I4
ssg83
g4698
sg76
(lp4705
S'*'
asbasbasbasbasbasbasbag69
(g85
g71
NtRp4706
(dp4707
g74
(dp4708
sg83
g4338
sg76
(lp4709
g69
(g90
g71
NtRp4710
(dp4711
g74
(dp4712
g94
g95
ssg83
g4706
sg76
(lp4713
S'google_analytics_id'
p4714
asbag69
(g90
g71
NtRp4715
(dp4716
g74
(dp4717
g101
g102
ssg83
g4706
sg76
(lp4718
S':'
asbag69
(g90
g71
NtRp4719
(dp4720
g74
(dp4721
sg83
g4706
sg76
(lp4722
g69
(g70
g71
NtRp4723
(dp4724
g74
(dp4725
g82
I5
ssg83
g4719
sg76
(lp4726
S'None'
p4727
asbasbasbag69
(g85
g71
NtRp4728
(dp4729
g74
(dp4730
sg83
g4338
sg76
(lp4731
g69
(g90
g71
NtRp4732
(dp4733
g74
(dp4734
g94
g95
ssg83
g4728
sg76
(lp4735
S'headers'
p4736
asbag69
(g90
g71
NtRp4737
(dp4738
g74
(dp4739
g101
g102
ssg83
g4728
sg76
(lp4740
S':'
asbag69
(g90
g71
NtRp4741
(dp4742
g74
(dp4743
sg83
g4728
sg76
(lp4744
g69
(g70
g71
NtRp4745
(dp4746
g74
(dp4747
g82
I5
ssg83
g4741
sg76
(lp4748
g69
(g78
g71
NtRp4749
(dp4750
g74
(dp4751
g82
I4
ssg83
Nsg76
(lp4752
g69
(g85
g71
NtRp4753
(dp4754
g74
(dp4755
sg83
g4749
sg76
(lp4756
g69
(g90
g71
NtRp4757
(dp4758
g74
(dp4759
g94
g95
ssg83
g4753
sg76
(lp4760
S'X-Powered-By'
p4761
asbag69
(g90
g71
NtRp4762
(dp4763
g74
(dp4764
g101
g102
ssg83
g4753
sg76
(lp4765
S':'
asbag69
(g90
g71
NtRp4766
(dp4767
g74
(dp4768
sg83
g4753
sg76
(lp4769
g69
(g70
g71
NtRp4770
(dp4771
g74
(dp4772
g82
I4
ssg83
g4766
sg76
(lp4773
S'web2py'
p4774
asbasbasbasbasbasbasbag69
(g85
g71
NtRp4775
(dp4776
g74
(dp4777
sg83
g4338
sg76
(lp4778
g69
(g90
g71
NtRp4779
(dp4780
g74
(dp4781
g94
g95
ssg83
g4775
sg76
(lp4782
S'logo'
p4783
asbag69
(g90
g71
NtRp4784
(dp4785
g74
(dp4786
g101
g102
ssg83
g4775
sg76
(lp4787
S':'
asbag69
(g90
g71
NtRp4788
(dp4789
g74
(dp4790
sg83
g4775
sg76
(lp4791
g69
(g70
g71
NtRp4792
(dp4793
g74
(dp4794
g82
I5
ssg83
g4788
sg76
(lp4795
g69
(cgluon.html
A
p4796
g71
NtRp4797
(dp4798
g74
(dp4799
S'_class'
p4800
S'brand'
p4801
sS'_href'
p4802
S''
ssg83
Nsg76
(lp4803
g69
(cgluon.html
B
p4804
g71
NtRp4805
(dp4806
g74
(dp4807
sg83
g4797
sg76
(lp4808
S'Buy/Sell'
p4809
asbacgluon.html
XML_unpickle
p4810
(S's\r\x00\x00\x00&trade;&nbsp;'
tRp4811
asbasbasbasbag69
(g85
g71
NtRp4812
(dp4813
g74
(dp4814
sg83
g4338
sg76
(lp4815
g69
(g90
g71
NtRp4816
(dp4817
g74
(dp4818
g94
g95
ssg83
g4812
sg76
(lp4819
S'menu'
p4820
asbag69
(g90
g71
NtRp4821
(dp4822
g74
(dp4823
g101
g102
ssg83
g4812
sg76
(lp4824
S':'
asbag69
(g90
g71
NtRp4825
(dp4826
g74
(dp4827
sg83
g4812
sg76
(lp4828
g69
(g70
g71
NtRp4829
(dp4830
g74
(dp4831
g82
I5
ssg83
g4825
sg76
(lp4832
g69
(g78
g71
NtRp4833
(dp4834
g74
(dp4835
g82
I4
ssg83
Nsg76
(lp4836
g69
(g85
g71
NtRp4837
(dp4838
g74
(dp4839
sg83
g4833
sg76
(lp4840
g69
(g90
g71
NtRp4841
(dp4842
g74
(dp4843
sg83
g4837
sg76
(lp4844
g69
(g70
g71
NtRp4845
(dp4846
g74
(dp4847
g82
I4
ssg83
g4841
sg76
(lp4848
g69
(g78
g71
NtRp4849
(dp4850
g74
(dp4851
g82
I3
ssg83
Nsg76
(lp4852
g69
(g85
g71
NtRp4853
(dp4854
g74
(dp4855
sg83
g4849
sg76
(lp4856
g69
(g90
g71
NtRp4857
(dp4858
g74
(dp4859
sg83
g4853
sg76
(lp4860
g69
(g70
g71
NtRp4861
(dp4862
g74
(dp4863
g82
I3
ssg83
g4857
sg76
(lp4864
cgluon.languages
lazyT_unpickle
p4865
(S's\x04\x00\x00\x00Home'
tRp4866
asbasbasbag69
(g85
g71
NtRp4867
(dp4868
g74
(dp4869
sg83
g4849
sg76
(lp4870
g69
(g90
g71
NtRp4871
(dp4872
g74
(dp4873
sg83
g4867
sg76
(lp4874
g69
(g70
g71
NtRp4875
(dp4876
g74
(dp4877
g82
I3
ssg83
g4871
sg76
(lp4878
g112
asbasbasbag69
(g85
g71
NtRp4879
(dp4880
g74
(dp4881
sg83
g4849
sg76
(lp4882
g69
(g90
g71
NtRp4883
(dp4884
g74
(dp4885
sg83
g4879
sg76
(lp4886
g69
(g70
g71
NtRp4887
(dp4888
g74
(dp4889
g82
I3
ssg83
g4883
sg76
(lp4890
S'/BuySell/default/index'
p4891
asbasbasbag69
(g85
g71
NtRp4892
(dp4893
g74
(dp4894
sg83
g4849
sg76
(lp4895
g69
(g90
g71
NtRp4896
(dp4897
g74
(dp4898
sg83
g4892
sg76
(lp4899
g69
(g70
g71
NtRp4900
(dp4901
g74
(dp4902
g82
I3
ssg83
g4896
sg76
(lp4903
g69
(g78
g71
NtRp4904
(dp4905
g74
(dp4906
g82
I2
ssg83
Nsg76
(lp4907
sbasbasbasbasbasbasbasbag69
(g85
g71
NtRp4908
(dp4909
g74
(dp4910
sg83
g4833
sg76
(lp4911
g69
(g90
g71
NtRp4912
(dp4913
g74
(dp4914
sg83
g4908
sg76
(lp4915
g69
(g70
g71
NtRp4916
(dp4917
g74
(dp4918
g82
I4
ssg83
g4912
sg76
(lp4919
g69
(g78
g71
NtRp4920
(dp4921
g74
(dp4922
g82
I3
ssg83
Nsg76
(lp4923
g69
(g85
g71
NtRp4924
(dp4925
g74
(dp4926
sg83
g4920
sg76
(lp4927
g69
(g90
g71
NtRp4928
(dp4929
g74
(dp4930
sg83
g4924
sg76
(lp4931
g69
(g70
g71
NtRp4932
(dp4933
g74
(dp4934
g82
I3
ssg83
g4928
sg76
(lp4935
g69
(cgluon.html
SPAN
p4936
g71
NtRp4937
(dp4938
g74
(dp4939
g4800
S'highlighted'
p4940
ssg83
Nsg76
(lp4941
S'Navigate'
p4942
asbasbasbasbag69
(g85
g71
NtRp4943
(dp4944
g74
(dp4945
sg83
g4920
sg76
(lp4946
g69
(g90
g71
NtRp4947
(dp4948
g74
(dp4949
sg83
g4943
sg76
(lp4950
g69
(g70
g71
NtRp4951
(dp4952
g74
(dp4953
g82
I3
ssg83
g4947
sg76
(lp4954
g112
asbasbasbag69
(g85
g71
NtRp4955
(dp4956
g74
(dp4957
sg83
g4920
sg76
(lp4958
g69
(g90
g71
NtRp4959
(dp4960
g74
(dp4961
sg83
g4955
sg76
(lp4962
g69
(g70
g71
NtRp4963
(dp4964
g74
(dp4965
g82
I3
ssg83
g4959
sg76
(lp4966
S''
asbasbasbag69
(g85
g71
NtRp4967
(dp4968
g74
(dp4969
sg83
g4920
sg76
(lp4970
g69
(g90
g71
NtRp4971
(dp4972
g74
(dp4973
sg83
g4967
sg76
(lp4974
g69
(g70
g71
NtRp4975
(dp4976
g74
(dp4977
g82
I3
ssg83
g4971
sg76
(lp4978
g69
(g78
g71
NtRp4979
(dp4980
g74
(dp4981
g82
I2
ssg83
Nsg76
(lp4982
g69
(g85
g71
NtRp4983
(dp4984
g74
(dp4985
sg83
g4979
sg76
(lp4986
g69
(g90
g71
NtRp4987
(dp4988
g74
(dp4989
sg83
g4983
sg76
(lp4990
g69
(g70
g71
NtRp4991
(dp4992
g74
(dp4993
g82
I2
ssg83
g4987
sg76
(lp4994
g69
(g78
g71
NtRp4995
(dp4996
g74
(dp4997
g82
I1
ssg83
Nsg76
(lp4998
g69
(g85
g71
NtRp4999
(dp5000
g74
(dp5001
sg83
g4995
sg76
(lp5002
g69
(g90
g71
NtRp5003
(dp5004
g74
(dp5005
sg83
g4999
sg76
(lp5006
g69
(g70
g71
NtRp5007
(dp5008
g74
(dp5009
g82
I1
ssg83
g5003
sg76
(lp5010
g4865
(S's\r\x00\x00\x00List of items'
tRp5011
asbasbasbag69
(g85
g71
NtRp5012
(dp5013
g74
(dp5014
sg83
g4995
sg76
(lp5015
g69
(g90
g71
NtRp5016
(dp5017
g74
(dp5018
sg83
g5012
sg76
(lp5019
g69
(g70
g71
NtRp5020
(dp5021
g74
(dp5022
g82
I1
ssg83
g5016
sg76
(lp5023
I00
asbasbasbag69
(g85
g71
NtRp5024
(dp5025
g74
(dp5026
sg83
g4995
sg76
(lp5027
g69
(g90
g71
NtRp5028
(dp5029
g74
(dp5030
sg83
g5024
sg76
(lp5031
g69
(g70
g71
NtRp5032
(dp5033
g74
(dp5034
g82
I1
ssg83
g5028
sg76
(lp5035
S'/BuySell/default/list_items'
p5036
asbasbasbasbasbasbasbag69
(g85
g71
NtRp5037
(dp5038
g74
(dp5039
sg83
g4979
sg76
(lp5040
g69
(g90
g71
NtRp5041
(dp5042
g74
(dp5043
sg83
g5037
sg76
(lp5044
g69
(g70
g71
NtRp5045
(dp5046
g74
(dp5047
g82
I2
ssg83
g5041
sg76
(lp5048
g69
(g78
g71
NtRp5049
(dp5050
g74
(dp5051
g82
I1
ssg83
Nsg76
(lp5052
g69
(g85
g71
NtRp5053
(dp5054
g74
(dp5055
sg83
g5049
sg76
(lp5056
g69
(g90
g71
NtRp5057
(dp5058
g74
(dp5059
sg83
g5053
sg76
(lp5060
g69
(g70
g71
NtRp5061
(dp5062
g74
(dp5063
g82
I1
ssg83
g5057
sg76
(lp5064
g4865
(S't\x04\x00\x00\x00Sell'
tRp5065
asbasbasbag69
(g85
g71
NtRp5066
(dp5067
g74
(dp5068
sg83
g5049
sg76
(lp5069
g69
(g90
g71
NtRp5070
(dp5071
g74
(dp5072
sg83
g5066
sg76
(lp5073
g69
(g70
g71
NtRp5074
(dp5075
g74
(dp5076
g82
I1
ssg83
g5070
sg76
(lp5077
I00
asbasbasbag69
(g85
g71
NtRp5078
(dp5079
g74
(dp5080
sg83
g5049
sg76
(lp5081
g69
(g90
g71
NtRp5082
(dp5083
g74
(dp5084
sg83
g5078
sg76
(lp5085
g69
(g70
g71
NtRp5086
(dp5087
g74
(dp5088
g82
I1
ssg83
g5082
sg76
(lp5089
S''
asbasbasbag69
(g85
g71
NtRp5090
(dp5091
g74
(dp5092
sg83
g5049
sg76
(lp5093
g69
(g90
g71
NtRp5094
(dp5095
g74
(dp5096
sg83
g5090
sg76
(lp5097
g69
(g70
g71
NtRp5098
(dp5099
g74
(dp5100
g82
I1
ssg83
g5094
sg76
(lp5101
(lp5102
(g4865
(S's\x08\x00\x00\x00Add Item'
tRp5103
I00
S'/BuySell/default/add_item'
tp5104
a(g4865
(S's\x11\x00\x00\x00Your Listed Items'
tRp5105
I00
S'/BuySell/default/listed_items'
tp5106
a(g4865
(S's\n\x00\x00\x00Items Sold'
tRp5107
I00
S'/BuySell/default/item_sold'
tp5108
a(g4865
(S's\r\x00\x00\x00Fulfil Wishes'
tRp5109
I00
S'/BuySell/default/fulfil_wishes'
tp5110
aasbasbasbasbasbasbasbag69
(g85
g71
NtRp5111
(dp5112
g74
(dp5113
sg83
g4979
sg76
(lp5114
g69
(g90
g71
NtRp5115
(dp5116
g74
(dp5117
sg83
g5111
sg76
(lp5118
g69
(g70
g71
NtRp5119
(dp5120
g74
(dp5121
g82
I2
ssg83
g5115
sg76
(lp5122
g69
(g78
g71
NtRp5123
(dp5124
g74
(dp5125
g82
I1
ssg83
Nsg76
(lp5126
g69
(g85
g71
NtRp5127
(dp5128
g74
(dp5129
sg83
g5123
sg76
(lp5130
g69
(g90
g71
NtRp5131
(dp5132
g74
(dp5133
sg83
g5127
sg76
(lp5134
g69
(g70
g71
NtRp5135
(dp5136
g74
(dp5137
g82
I1
ssg83
g5131
sg76
(lp5138
S'Buy'
p5139
asbasbasbag69
(g85
g71
NtRp5140
(dp5141
g74
(dp5142
sg83
g5123
sg76
(lp5143
g69
(g90
g71
NtRp5144
(dp5145
g74
(dp5146
sg83
g5140
sg76
(lp5147
g69
(g70
g71
NtRp5148
(dp5149
g74
(dp5150
g82
I1
ssg83
g5144
sg76
(lp5151
I00
asbasbasbag69
(g85
g71
NtRp5152
(dp5153
g74
(dp5154
sg83
g5123
sg76
(lp5155
g69
(g90
g71
NtRp5156
(dp5157
g74
(dp5158
sg83
g5152
sg76
(lp5159
g69
(g70
g71
NtRp5160
(dp5161
g74
(dp5162
g82
I1
ssg83
g5156
sg76
(lp5163
S''
asbasbasbag69
(g85
g71
NtRp5164
(dp5165
g74
(dp5166
sg83
g5123
sg76
(lp5167
g69
(g90
g71
NtRp5168
(dp5169
g74
(dp5170
sg83
g5164
sg76
(lp5171
g69
(g70
g71
NtRp5172
(dp5173
g74
(dp5174
g82
I1
ssg83
g5168
sg76
(lp5175
(lp5176
(g4865
(S's\x0b\x00\x00\x00Make a wish'
tRp5177
I00
S'/BuySell/default/add_wish'
tp5178
a(g4865
(S's\x0e\x00\x00\x00Your Wish List'
tRp5179
I00
S'/BuySell/default/wish_list'
tp5180
a(g4865
(S's\x10\x00\x00\x00Fulfilled Wishes'
tRp5181
I00
S'/BuySell/default/fulfilled'
tp5182
a(g4865
(S's\x15\x00\x00\x00Items Bought/Bids Won'
tRp5183
I00
S'/BuySell/default/item_bought'
tp5184
aasbasbasbasbasbasbasbag69
(g85
g71
NtRp5185
(dp5186
g74
(dp5187
sg83
g4979
sg76
(lp5188
g69
(g90
g71
NtRp5189
(dp5190
g74
(dp5191
sg83
g5185
sg76
(lp5192
g69
(g70
g71
NtRp5193
(dp5194
g74
(dp5195
g82
I2
ssg83
g5189
sg76
(lp5196
g69
(g78
g71
NtRp5197
(dp5198
g74
(dp5199
g82
I1
ssg83
Nsg76
(lp5200
g69
(g85
g71
NtRp5201
(dp5202
g74
(dp5203
sg83
g5197
sg76
(lp5204
g69
(g90
g71
NtRp5205
(dp5206
g74
(dp5207
sg83
g5201
sg76
(lp5208
g69
(g70
g71
NtRp5209
(dp5210
g74
(dp5211
g82
I1
ssg83
g5205
sg76
(lp5212
g4865
(S's\x0e\x00\x00\x00All Categories'
tRp5213
asbasbasbag69
(g85
g71
NtRp5214
(dp5215
g74
(dp5216
sg83
g5197
sg76
(lp5217
g69
(g90
g71
NtRp5218
(dp5219
g74
(dp5220
sg83
g5214
sg76
(lp5221
g69
(g70
g71
NtRp5222
(dp5223
g74
(dp5224
g82
I1
ssg83
g5218
sg76
(lp5225
I00
asbasbasbag69
(g85
g71
NtRp5226
(dp5227
g74
(dp5228
sg83
g5197
sg76
(lp5229
g69
(g90
g71
NtRp5230
(dp5231
g74
(dp5232
sg83
g5226
sg76
(lp5233
g69
(g70
g71
NtRp5234
(dp5235
g74
(dp5236
g82
I1
ssg83
g5230
sg76
(lp5237
S'http://www.web2py.com/book'
p5238
asbasbasbag69
(g85
g71
NtRp5239
(dp5240
g74
(dp5241
sg83
g5197
sg76
(lp5242
g69
(g90
g71
NtRp5243
(dp5244
g74
(dp5245
sg83
g5239
sg76
(lp5246
g69
(g70
g71
NtRp5247
(dp5248
g74
(dp5249
g82
I1
ssg83
g5243
sg76
(lp5250
(lp5251
(g4865
(S's\x0f\x00\x00\x00Arts and Crafts'
tRp5252
I00
S'/BuySell/default/categories/1'
tp5253
a(g4865
(S't\x08\x00\x00\x00Clothing'
tRp5254
I00
S'/BuySell/default/categories/2'
tp5255
a(g4865
(S't\x08\x00\x00\x00Footwear'
tRp5256
I00
S'/BuySell/default/categories/3'
tp5257
a(g4865
(S't\x05\x00\x00\x00Gifts'
tRp5258
I00
S'/BuySell/default/categories/4'
tp5259
aasbasbasbasbasbasbasbag69
(g85
g71
NtRp5260
(dp5261
g74
(dp5262
sg83
g4979
sg76
(lp5263
g69
(g90
g71
NtRp5264
(dp5265
g74
(dp5266
sg83
g5260
sg76
(lp5267
g69
(g70
g71
NtRp5268
(dp5269
g74
(dp5270
g82
I2
ssg83
g5264
sg76
(lp5271
g69
(g78
g71
NtRp5272
(dp5273
g74
(dp5274
g82
I1
ssg83
Nsg76
(lp5275
g69
(g85
g71
NtRp5276
(dp5277
g74
(dp5278
sg83
g5272
sg76
(lp5279
g69
(g90
g71
NtRp5280
(dp5281
g74
(dp5282
sg83
g5276
sg76
(lp5283
g69
(g70
g71
NtRp5284
(dp5285
g74
(dp5286
g82
I1
ssg83
g5280
sg76
(lp5287
g4865
(S's\t\x00\x00\x00Community'
tRp5288
asbasbasbag69
(g85
g71
NtRp5289
(dp5290
g74
(dp5291
sg83
g5272
sg76
(lp5292
g69
(g90
g71
NtRp5293
(dp5294
g74
(dp5295
sg83
g5289
sg76
(lp5296
g69
(g70
g71
NtRp5297
(dp5298
g74
(dp5299
g82
I1
ssg83
g5293
sg76
(lp5300
I00
asbasbasbag69
(g85
g71
NtRp5301
(dp5302
g74
(dp5303
sg83
g5272
sg76
(lp5304
g69
(g90
g71
NtRp5305
(dp5306
g74
(dp5307
sg83
g5301
sg76
(lp5308
g69
(g70
g71
NtRp5309
(dp5310
g74
(dp5311
g82
I1
ssg83
g5305
sg76
(lp5312
Nasbasbasbag69
(g85
g71
NtRp5313
(dp5314
g74
(dp5315
sg83
g5272
sg76
(lp5316
g69
(g90
g71
NtRp5317
(dp5318
g74
(dp5319
sg83
g5313
sg76
(lp5320
g69
(g70
g71
NtRp5321
(dp5322
g74
(dp5323
g82
I1
ssg83
g5317
sg76
(lp5324
(lp5325
(g4865
(S's\t\x00\x00\x00Community'
tRp5326
I00
S'/BuySell/default/form'
tp5327
a(g4865
(S's\x07\x00\x00\x00Twitter'
tRp5328
I00
S'http://twitter.com/buy_sell'
p5329
tp5330
a(g4865
(S's\t\x00\x00\x00Live Chat'
tRp5331
I00
S'http://webchat.freenode.net/?channels=buysell'
p5332
tp5333
aasbasbasbasbasbasbasbag69
(g85
g71
NtRp5334
(dp5335
g74
(dp5336
sg83
g4979
sg76
(lp5337
g69
(g90
g71
NtRp5338
(dp5339
g74
(dp5340
sg83
g5334
sg76
(lp5341
g69
(g70
g71
NtRp5342
(dp5343
g74
(dp5344
g82
I2
ssg83
g5338
sg76
(lp5345
g69
(g78
g71
NtRp5346
(dp5347
g74
(dp5348
g82
I1
ssg83
Nsg76
(lp5349
g69
(g85
g71
NtRp5350
(dp5351
g74
(dp5352
sg83
g5346
sg76
(lp5353
g69
(g90
g71
NtRp5354
(dp5355
g74
(dp5356
sg83
g5350
sg76
(lp5357
g69
(g70
g71
NtRp5358
(dp5359
g74
(dp5360
g82
I1
ssg83
g5354
sg76
(lp5361
g4865
(S't\x04\x00\x00\x00Help'
tRp5362
asbasbasbag69
(g85
g71
NtRp5363
(dp5364
g74
(dp5365
sg83
g5346
sg76
(lp5366
g69
(g90
g71
NtRp5367
(dp5368
g74
(dp5369
sg83
g5363
sg76
(lp5370
g69
(g70
g71
NtRp5371
(dp5372
g74
(dp5373
g82
I1
ssg83
g5367
sg76
(lp5374
I00
asbasbasbag69
(g85
g71
NtRp5375
(dp5376
g74
(dp5377
sg83
g5346
sg76
(lp5378
g69
(g90
g71
NtRp5379
(dp5380
g74
(dp5381
sg83
g5375
sg76
(lp5382
g69
(g70
g71
NtRp5383
(dp5384
g74
(dp5385
g82
I1
ssg83
g5379
sg76
(lp5386
Nasbasbasbag69
(g85
g71
NtRp5387
(dp5388
g74
(dp5389
sg83
g5346
sg76
(lp5390
g69
(g90
g71
NtRp5391
(dp5392
g74
(dp5393
sg83
g5387
sg76
(lp5394
g69
(g70
g71
NtRp5395
(dp5396
g74
(dp5397
g82
I1
ssg83
g5391
sg76
(lp5398
(lp5399
(S'FAQ'
p5400
I00
S'/BuySell/default/sell'
tp5401
aasbasbasbasbasbasbasbasbasbasbasbasbasbasbasbasbasbasbasbag69
(g85
g71
NtRp5402
(dp5403
g74
(dp5404
sg83
g4338
sg76
(lp5405
g69
(g90
g71
NtRp5406
(dp5407
g74
(dp5408
g94
g95
ssg83
g5402
sg76
(lp5409
S'meta'
p5410
asbag69
(g90
g71
NtRp5411
(dp5412
g74
(dp5413
g101
g102
ssg83
g5402
sg76
(lp5414
S':'
asbag69
(g90
g71
NtRp5415
(dp5416
g74
(dp5417
sg83
g5402
sg76
(lp5418
g69
(g70
g71
NtRp5419
(dp5420
g74
(dp5421
g82
I5
ssg83
g5415
sg76
(lp5422
g69
(g78
g71
NtRp5423
(dp5424
g74
(dp5425
g82
I4
ssg83
Nsg76
(lp5426
g69
(g85
g71
NtRp5427
(dp5428
g74
(dp5429
sg83
g5423
sg76
(lp5430
g69
(g90
g71
NtRp5431
(dp5432
g74
(dp5433
g94
g95
ssg83
g5427
sg76
(lp5434
S'author'
p5435
asbag69
(g90
g71
NtRp5436
(dp5437
g74
(dp5438
g101
g102
ssg83
g5427
sg76
(lp5439
S':'
asbag69
(g90
g71
NtRp5440
(dp5441
g74
(dp5442
sg83
g5427
sg76
(lp5443
g69
(g70
g71
NtRp5444
(dp5445
g74
(dp5446
g82
I4
ssg83
g5440
sg76
(lp5447
S'Your Name <you@example.com>'
p5448
asbasbasbag69
(g85
g71
NtRp5449
(dp5450
g74
(dp5451
sg83
g5423
sg76
(lp5452
g69
(g90
g71
NtRp5453
(dp5454
g74
(dp5455
g94
g95
ssg83
g5449
sg76
(lp5456
S'description'
p5457
asbag69
(g90
g71
NtRp5458
(dp5459
g74
(dp5460
g101
g102
ssg83
g5449
sg76
(lp5461
S':'
asbag69
(g90
g71
NtRp5462
(dp5463
g74
(dp5464
sg83
g5449
sg76
(lp5465
g69
(g70
g71
NtRp5466
(dp5467
g74
(dp5468
g82
I4
ssg83
g5462
sg76
(lp5469
S'a cool new app'
p5470
asbasbasbag69
(g85
g71
NtRp5471
(dp5472
g74
(dp5473
sg83
g5423
sg76
(lp5474
g69
(g90
g71
NtRp5475
(dp5476
g74
(dp5477
g94
g95
ssg83
g5471
sg76
(lp5478
S'generator'
p5479
asbag69
(g90
g71
NtRp5480
(dp5481
g74
(dp5482
g101
g102
ssg83
g5471
sg76
(lp5483
S':'
asbag69
(g90
g71
NtRp5484
(dp5485
g74
(dp5486
sg83
g5471
sg76
(lp5487
g69
(g70
g71
NtRp5488
(dp5489
g74
(dp5490
g82
I4
ssg83
g5484
sg76
(lp5491
S'Web2py Web Framework'
p5492
asbasbasbag69
(g85
g71
NtRp5493
(dp5494
g74
(dp5495
sg83
g5423
sg76
(lp5496
g69
(g90
g71
NtRp5497
(dp5498
g74
(dp5499
g94
g95
ssg83
g5493
sg76
(lp5500
S'keywords'
p5501
asbag69
(g90
g71
NtRp5502
(dp5503
g74
(dp5504
g101
g102
ssg83
g5493
sg76
(lp5505
S':'
asbag69
(g90
g71
NtRp5506
(dp5507
g74
(dp5508
sg83
g5493
sg76
(lp5509
g69
(g70
g71
NtRp5510
(dp5511
g74
(dp5512
g82
I4
ssg83
g5506
sg76
(lp5513
S'web2py, python, framework'
p5514
asbasbasbasbasbasbasbag69
(g85
g71
NtRp5515
(dp5516
g74
(dp5517
sg83
g4338
sg76
(lp5518
g69
(g90
g71
NtRp5519
(dp5520
g74
(dp5521
g94
g95
ssg83
g5515
sg76
(lp5522
S'models_to_run'
p5523
asbag69
(g90
g71
NtRp5524
(dp5525
g74
(dp5526
g101
g102
ssg83
g5515
sg76
(lp5527
S':'
asbag69
(g90
g71
NtRp5528
(dp5529
g74
(dp5530
sg83
g5515
sg76
(lp5531
g69
(g70
g71
NtRp5532
(dp5533
g74
(dp5534
g82
I5
ssg83
g5528
sg76
(lp5535
g69
(g78
g71
NtRp5536
(dp5537
g74
(dp5538
g82
I4
ssg83
Nsg76
(lp5539
g69
(g85
g71
NtRp5540
(dp5541
g74
(dp5542
sg83
g5536
sg76
(lp5543
g69
(g90
g71
NtRp5544
(dp5545
g74
(dp5546
sg83
g5540
sg76
(lp5547
g69
(g70
g71
NtRp5548
(dp5549
g74
(dp5550
g82
I4
ssg83
g5544
sg76
(lp5551
S'^\\w+\\.py$'
p5552
asbasbasbag69
(g85
g71
NtRp5553
(dp5554
g74
(dp5555
sg83
g5536
sg76
(lp5556
g69
(g90
g71
NtRp5557
(dp5558
g74
(dp5559
sg83
g5553
sg76
(lp5560
g69
(g70
g71
NtRp5561
(dp5562
g74
(dp5563
g82
I4
ssg83
g5557
sg76
(lp5564
S'^default/\\w+\\.py$'
p5565
asbasbasbag69
(g85
g71
NtRp5566
(dp5567
g74
(dp5568
sg83
g5536
sg76
(lp5569
g69
(g90
g71
NtRp5570
(dp5571
g74
(dp5572
sg83
g5566
sg76
(lp5573
g69
(g70
g71
NtRp5574
(dp5575
g74
(dp5576
g82
I4
ssg83
g5570
sg76
(lp5577
S'^default/item_d/\\w+\\.py$'
p5578
asbasbasbasbasbasbasbag69
(g85
g71
NtRp5579
(dp5580
g74
(dp5581
sg83
g4338
sg76
(lp5582
g69
(g90
g71
NtRp5583
(dp5584
g74
(dp5585
g94
g95
ssg83
g5579
sg76
(lp5586
S'postprocessing'
p5587
asbag69
(g90
g71
NtRp5588
(dp5589
g74
(dp5590
g101
g102
ssg83
g5579
sg76
(lp5591
S':'
asbag69
(g90
g71
NtRp5592
(dp5593
g74
(dp5594
sg83
g5579
sg76
(lp5595
g69
(g70
g71
NtRp5596
(dp5597
g74
(dp5598
g82
I5
ssg83
g5592
sg76
(lp5599
g69
(g78
g71
NtRp5600
(dp5601
g74
(dp5602
g82
I4
ssg83
Nsg76
(lp5603
sbasbasbasbag69
(g85
g71
NtRp5604
(dp5605
g74
(dp5606
sg83
g4338
sg76
(lp5607
g69
(g90
g71
NtRp5608
(dp5609
g74
(dp5610
g94
g95
ssg83
g5604
sg76
(lp5611
S'session_cookie_expires'
p5612
asbag69
(g90
g71
NtRp5613
(dp5614
g74
(dp5615
g101
g102
ssg83
g5604
sg76
(lp5616
S':'
asbag69
(g90
g71
NtRp5617
(dp5618
g74
(dp5619
sg83
g5604
sg76
(lp5620
g69
(g70
g71
NtRp5621
(dp5622
g74
(dp5623
g82
I5
ssg83
g5617
sg76
(lp5624
S'None'
p5625
asbasbasbag69
(g85
g71
NtRp5626
(dp5627
g74
(dp5628
sg83
g4338
sg76
(lp5629
g69
(g90
g71
NtRp5630
(dp5631
g74
(dp5632
g94
g95
ssg83
g5626
sg76
(lp5633
S'session_data_name'
p5634
asbag69
(g90
g71
NtRp5635
(dp5636
g74
(dp5637
g101
g102
ssg83
g5626
sg76
(lp5638
S':'
asbag69
(g90
g71
NtRp5639
(dp5640
g74
(dp5641
sg83
g5626
sg76
(lp5642
g69
(g70
g71
NtRp5643
(dp5644
g74
(dp5645
g82
I5
ssg83
g5639
sg76
(lp5646
S'session_data_buysell'
p5647
asbasbasbag69
(g85
g71
NtRp5648
(dp5649
g74
(dp5650
sg83
g4338
sg76
(lp5651
g69
(g90
g71
NtRp5652
(dp5653
g74
(dp5654
g94
g95
ssg83
g5648
sg76
(lp5655
S'session_file'
p5656
asbag69
(g90
g71
NtRp5657
(dp5658
g74
(dp5659
g101
g102
ssg83
g5648
sg76
(lp5660
S':'
asbag69
(g90
g71
NtRp5661
(dp5662
g74
(dp5663
sg83
g5648
sg76
(lp5664
g69
(g70
g71
NtRp5665
(dp5666
g74
(dp5667
g82
I5
ssg83
g5661
sg76
(lp5668
S"<open file '/home/pratyush/web2py/applications/BuySell/sessions/127.0.0.1-d5a07803-4f5c-44c8-b05d-2876d30ca822', mode 'rb+' at 0xa2bd440>"
p5669
asbasbasbag69
(g85
g71
NtRp5670
(dp5671
g74
(dp5672
sg83
g4338
sg76
(lp5673
g69
(g90
g71
NtRp5674
(dp5675
g74
(dp5676
g94
g95
ssg83
g5670
sg76
(lp5677
S'session_filename'
p5678
asbag69
(g90
g71
NtRp5679
(dp5680
g74
(dp5681
g101
g102
ssg83
g5670
sg76
(lp5682
S':'
asbag69
(g90
g71
NtRp5683
(dp5684
g74
(dp5685
sg83
g5670
sg76
(lp5686
g69
(g70
g71
NtRp5687
(dp5688
g74
(dp5689
g82
I5
ssg83
g5683
sg76
(lp5690
S'/home/pratyush/web2py/applications/BuySell/sessions/127.0.0.1-d5a07803-4f5c-44c8-b05d-2876d30ca822'
p5691
asbasbasbag69
(g85
g71
NtRp5692
(dp5693
g74
(dp5694
sg83
g4338
sg76
(lp5695
g69
(g90
g71
NtRp5696
(dp5697
g74
(dp5698
g94
g95
ssg83
g5692
sg76
(lp5699
S'session_id'
p5700
asbag69
(g90
g71
NtRp5701
(dp5702
g74
(dp5703
g101
g102
ssg83
g5692
sg76
(lp5704
S':'
asbag69
(g90
g71
NtRp5705
(dp5706
g74
(dp5707
sg83
g5692
sg76
(lp5708
g69
(g70
g71
NtRp5709
(dp5710
g74
(dp5711
g82
I5
ssg83
g5705
sg76
(lp5712
g685
asbasbasbag69
(g85
g71
NtRp5713
(dp5714
g74
(dp5715
sg83
g4338
sg76
(lp5716
g69
(g90
g71
NtRp5717
(dp5718
g74
(dp5719
g94
g95
ssg83
g5713
sg76
(lp5720
S'session_id_name'
p5721
asbag69
(g90
g71
NtRp5722
(dp5723
g74
(dp5724
g101
g102
ssg83
g5713
sg76
(lp5725
S':'
asbag69
(g90
g71
NtRp5726
(dp5727
g74
(dp5728
sg83
g5713
sg76
(lp5729
g69
(g70
g71
NtRp5730
(dp5731
g74
(dp5732
g82
I5
ssg83
g5726
sg76
(lp5733
g4395
asbasbasbag69
(g85
g71
NtRp5734
(dp5735
g74
(dp5736
sg83
g4338
sg76
(lp5737
g69
(g90
g71
NtRp5738
(dp5739
g74
(dp5740
g94
g95
ssg83
g5734
sg76
(lp5741
S'session_locked'
p5742
asbag69
(g90
g71
NtRp5743
(dp5744
g74
(dp5745
g101
g102
ssg83
g5734
sg76
(lp5746
S':'
asbag69
(g90
g71
NtRp5747
(dp5748
g74
(dp5749
sg83
g5734
sg76
(lp5750
g69
(g70
g71
NtRp5751
(dp5752
g74
(dp5753
g82
I5
ssg83
g5747
sg76
(lp5754
g2395
asbasbasbag69
(g85
g71
NtRp5755
(dp5756
g74
(dp5757
sg83
g4338
sg76
(lp5758
g69
(g90
g71
NtRp5759
(dp5760
g74
(dp5761
g94
g95
ssg83
g5755
sg76
(lp5762
S'session_new'
p5763
asbag69
(g90
g71
NtRp5764
(dp5765
g74
(dp5766
g101
g102
ssg83
g5755
sg76
(lp5767
S':'
asbag69
(g90
g71
NtRp5768
(dp5769
g74
(dp5770
sg83
g5755
sg76
(lp5771
g69
(g70
g71
NtRp5772
(dp5773
g74
(dp5774
g82
I5
ssg83
g5768
sg76
(lp5775
g112
asbasbasbag69
(g85
g71
NtRp5776
(dp5777
g74
(dp5778
sg83
g4338
sg76
(lp5779
g69
(g90
g71
NtRp5780
(dp5781
g74
(dp5782
g94
g95
ssg83
g5776
sg76
(lp5783
S'session_storage_type'
p5784
asbag69
(g90
g71
NtRp5785
(dp5786
g74
(dp5787
g101
g102
ssg83
g5776
sg76
(lp5788
S':'
asbag69
(g90
g71
NtRp5789
(dp5790
g74
(dp5791
sg83
g5776
sg76
(lp5792
g69
(g70
g71
NtRp5793
(dp5794
g74
(dp5795
g82
I5
ssg83
g5789
sg76
(lp5796
g3868
asbasbasbag69
(g85
g71
NtRp5797
(dp5798
g74
(dp5799
sg83
g4338
sg76
(lp5800
g69
(g90
g71
NtRp5801
(dp5802
g74
(dp5803
g94
g95
ssg83
g5797
sg76
(lp5804
S'status'
p5805
asbag69
(g90
g71
NtRp5806
(dp5807
g74
(dp5808
g101
g102
ssg83
g5797
sg76
(lp5809
S':'
asbag69
(g90
g71
NtRp5810
(dp5811
g74
(dp5812
sg83
g5797
sg76
(lp5813
g69
(g70
g71
NtRp5814
(dp5815
g74
(dp5816
g82
I5
ssg83
g5810
sg76
(lp5817
S'200'
p5818
asbasbasbag69
(g85
g71
NtRp5819
(dp5820
g74
(dp5821
sg83
g4338
sg76
(lp5822
g69
(g90
g71
NtRp5823
(dp5824
g74
(dp5825
g94
g95
ssg83
g5819
sg76
(lp5826
S'subtitle'
p5827
asbag69
(g90
g71
NtRp5828
(dp5829
g74
(dp5830
g101
g102
ssg83
g5819
sg76
(lp5831
S':'
asbag69
(g90
g71
NtRp5832
(dp5833
g74
(dp5834
sg83
g5819
sg76
(lp5835
g69
(g70
g71
NtRp5836
(dp5837
g74
(dp5838
g82
I5
ssg83
g5832
sg76
(lp5839
g4865
(S's\r\x00\x00\x00customize me!'
tRp5840
asbasbasbag69
(g85
g71
NtRp5841
(dp5842
g74
(dp5843
sg83
g4338
sg76
(lp5844
g69
(g90
g71
NtRp5845
(dp5846
g74
(dp5847
g94
g95
ssg83
g5841
sg76
(lp5848
S'title'
p5849
asbag69
(g90
g71
NtRp5850
(dp5851
g74
(dp5852
g101
g102
ssg83
g5841
sg76
(lp5853
S':'
asbag69
(g90
g71
NtRp5854
(dp5855
g74
(dp5856
sg83
g5841
sg76
(lp5857
g69
(g70
g71
NtRp5858
(dp5859
g74
(dp5860
g82
I5
ssg83
g5854
sg76
(lp5861
S'Buysell'
p5862
asbasbasbag69
(g85
g71
NtRp5863
(dp5864
g74
(dp5865
sg83
g4338
sg76
(lp5866
g69
(g90
g71
NtRp5867
(dp5868
g74
(dp5869
g94
g95
ssg83
g5863
sg76
(lp5870
S'view'
p5871
asbag69
(g90
g71
NtRp5872
(dp5873
g74
(dp5874
g101
g102
ssg83
g5863
sg76
(lp5875
S':'
asbag69
(g90
g71
NtRp5876
(dp5877
g74
(dp5878
sg83
g5863
sg76
(lp5879
g69
(g70
g71
NtRp5880
(dp5881
g74
(dp5882
g82
I5
ssg83
g5876
sg76
(lp5883
S'default/item_d.html'
p5884
asbasbasbasbasbsS'locals'
p5885
(dp5886
g4
S"'/home/pratyush/web2py/applications/BuySell/views/default/item_d.html'"
p5887
sg6
S'\'response.write(\\\'<!DOCTYPE html>\\\\n<!-- paulirish...."></script>\\\\n</body>\\\\n</html>\\\\n\\\\n\\\', escape=False)\''
p5888
sssS'traceback'
p5889
S'Traceback (most recent call last):\n  File "/home/pratyush/web2py/gluon/restricted.py", line 211, in restricted\n    ccode = compile2(code, layer)\n  File "/home/pratyush/web2py/gluon/restricted.py", line 194, in compile2\n    return compile(code.rstrip().replace(\'\\r\\n\', \'\\n\') + \'\\n\', layer, \'exec\')\n  File "/home/pratyush/web2py/applications/BuySell/views/default/item_d.html", line 101\n    if i.id == item.seller\n                         ^\nSyntaxError: invalid syntax\n'
p5890
s.