(dp1
S'output'
p2
S"<type 'exceptions.TypeError'> 'NoneType' object is not iterable"
p3
sS'layer'
p4
S'/home/pratyush/web2py/applications/BuySell/views/default/categories.html'
p5
sS'code'
p6
S'response.write(\'<!DOCTYPE html>\\n<!-- paulirish.com/2008/conditional-stylesheets-vs-css-hacks-answer-neither/ -->\\n<!--[if lt IE 7]><html class="ie ie6 ie-lte9 ie-lte8 ie-lte7 no-js" lang="\', escape=False)\nresponse.write(T.accepted_language or \'en\')\nresponse.write(\'"> <![endif]-->\\n<!--[if IE 7]><html class="ie ie7 ie-lte9 ie-lte8 ie-lte7 no-js" lang="\', escape=False)\nresponse.write(T.accepted_language or \'en\')\nresponse.write(\'"> <![endif]-->\\n<!--[if IE 8]><html class="ie ie8 ie-lte9 ie-lte8 no-js" lang="\', escape=False)\nresponse.write(T.accepted_language or \'en\')\nresponse.write(\'"> <![endif]-->\\n<!--[if IE 9]><html class="ie9 ie-lte9 no-js" lang="\', escape=False)\nresponse.write(T.accepted_language or \'en\')\nresponse.write(\'"> <![endif]-->\\n<!--[if (gt IE 9)|!(IE)]><!--> <html class="no-js" lang="\', escape=False)\nresponse.write(T.accepted_language or \'en\')\nresponse.write(\'"> <!--<![endif]-->\\n<head>\\n  <meta charset="utf-8" />\\n  <!-- www.phpied.com/conditional-comments-block-downloads/ -->\\n  <!-- Always force latest IE rendering engine\\n       (even in intranet) & Chrome Frame\\n       Remove this if you use the .htaccess -->\\n  <!--[if IE]>\\n      <meta http-equiv="X-UA-Compatible" content="IE=edge\', escape=False)\nresponse.write(not request.is_local and \',chrome=1\' or \'\')\nresponse.write(\'">\\n      <![endif]-->\\n\\n  <title>Buy/Sell</title>\\n\\n  <!-- http://dev.w3.org/html5/markup/meta.name.html -->\\n  <meta name="application-name" content="\', escape=False)\nresponse.write(request.application)\nresponse.write(\'" />\\n\\n  <!-- Speaking of Google, don\\\'t forget to set your site up:\\n       http://google.com/webmasters -->\\n  <meta name="google-site-verification" content="" />\\n\\n  <!--  Mobile Viewport Fix\\n        j.mp/mobileviewport & davidbcalhoun.com/2010/viewport-metatag\\n        device-width: Occupy full width of the screen in its current orientation\\n        initial-scale = 1.0 retains dimensions instead of zooming out if page height > device height\\n        user-scalable = yes allows the user to zoom in -->\\n  <meta name="viewport" content="width=device-width, initial-scale=1.0" />\\n\\n  <link rel="shortcut icon" href="\', escape=False)\nresponse.write(URL(\'static\',\'images/favicon.ico\'))\nresponse.write(\'" type="image/x-icon">\\n  <link rel="apple-touch-icon" href="\', escape=False)\nresponse.write(URL(\'static\',\'images/favicon.png\'))\nresponse.write(\'">\\n\\n  <!-- All JavaScript at the bottom, except for Modernizr which enables\\n       HTML5 elements & feature detects -->\\n  <script src="\', escape=False)\nresponse.write(URL(\'static\',\'js/modernizr.custom.js\'))\nresponse.write(\'"></script>\\n\\n  <!-- include stylesheets -->\\n  \', escape=False)\nresponse.files.append(URL(\'static\',\'css/web2py.css\'))\nresponse.files.append(URL(\'static\',\'css/bootstrap.min.css\'))\nresponse.files.append(URL(\'static\',\'css/bootstrap-responsive.min.css\'))\nresponse.files.append(URL(\'static\',\'css/web2py_bootstrap.css\'))\nresponse.write(\'\\n\\n  \', escape=False)\nresponse.write(\'<script type="text/javascript"><!--\\n    // These variables are used by the web2py_ajax_init function in web2py_ajax.js (which is loaded below).\\n    var w2p_ajax_confirm_message = "\', escape=False)\nresponse.write(T(\'Are you sure you want to delete this object?\'))\nresponse.write(\'";\\n    var w2p_ajax_date_format = "\', escape=False)\nresponse.write(T(\'%Y-%m-%d\'))\nresponse.write(\'";\\n    var w2p_ajax_datetime_format = "\', escape=False)\nresponse.write(T(\'%Y-%m-%d %H:%M:%S\'))\nresponse.write(\'";\\n    //--></script>\\n\', escape=False)\nresponse.files.insert(0,URL(\'static\',\'js/jquery.js\'))\nresponse.files.insert(1,URL(\'static\',\'css/calendar.css\'))\nresponse.files.insert(2,URL(\'static\',\'js/calendar.js\'))\nresponse.files.insert(3,URL(\'static\',\'js/web2py.js\'))\nresponse.include_meta()\nresponse.include_files()\nresponse.write(\'\\n\', escape=False)\nresponse.write(\'\\n\\n  \', escape=False)\n# using sidebars need to know what sidebar you want to use\nleft_sidebar_enabled = globals().get(\'left_sidebar_enabled\',False)\nright_sidebar_enabled = globals().get(\'right_sidebar_enabled\',False)\nmiddle_columns = {0:\'span12\',1:\'span9\',2:\'span6\'}[\n(left_sidebar_enabled and 1 or 0)+(right_sidebar_enabled and 1 or 0)]\nresponse.write(\'\\n\\n  <!-- uncomment here to load jquery-ui\\n       <link rel="stylesheet" href="http://ajax.googleapis.com/ajax/libs/jqueryui/1.8.16/themes/base/jquery-ui.css" type="text/css" media="all" />\\n       <script src="http://ajax.googleapis.com/ajax/libs/jqueryui/1.8.16/jquery-ui.min.js" type="text/javascript"></script>\\n       uncomment to load jquery-ui //-->\\n  <noscript><link href="\', escape=False)\nresponse.write(URL(\'static\', \'css/web2py_bootstrap_nojs.css\'))\nresponse.write(\'" rel="stylesheet" type="text/css" /></noscript>\\n  \', escape=False)\nresponse.write(\'\\n</head>\\n\\n<body>\\n  <!-- Navbar ================================================== -->\\n  <div class="navbar navbar-inverse navbar-fixed-top">\\n    <div class="flash">\', escape=False)\nresponse.write(response.flash or \'\')\nresponse.write(\'</div>\\n    <div class="navbar-inner">\\n      <div class="container">\\n        <!-- the next tag is necessary for bootstrap menus, do not remove -->\\n        <button type="button" class="btn btn-navbar" data-toggle="collapse" data-target=".nav-collapse">\\n          <span class="icon-bar"></span>\\n          <span class="icon-bar"></span>\\n          <span class="icon-bar"></span>\\n        </button>\\n\\t\', escape=False)\nresponse.write(response.logo or \'\')\nresponse.write(\'\\n        <ul id="navbar" class="nav pull-right">\', escape=False)\nresponse.write(\'auth\' in globals() and auth.navbar(mode="dropdown") or \'\')\nresponse.write(\'</ul>\\n        <div class="nav-collapse">\\n          \', escape=False)\nis_mobile=request.user_agent().is_mobile\nresponse.write(\'\\n          \', escape=False)\nif response.menu:\n    response.write(\'\\n          \', escape=False)\n    response.write(MENU(response.menu, _class=\'mobile-menu nav\' if is_mobile else \'nav\',mobile=is_mobile,li_class=\'dropdown\',ul_class=\'dropdown-menu\'))\n    response.write(\'\\n          \', escape=False)\n    pass\nresponse.write(\'\\n        </div><!--/.nav-collapse -->\\n      </div>\\n    </div>\\n  </div><!--/top navbar -->\\n\\n  <div class="container">\\n  <br /><br />\\n    <!-- Masthead ================================================== -->\\n    <!--<header class="mastheader row" id="header">\\n        <div class="span12">\\n            <div class="page-header">\\n                <h1>\\n                   Buy/Sell \\n                    <small>Your one stop to buy and sell customizable products</small>\\n                </h1>\\n            </div>\\n        </div>\\n    </header>-->\\n\\n    <section id="main" class="main row">\\n        \', escape=False)\nif left_sidebar_enabled:\n    response.write(\'\\n        <div class="span3 left-sidebar">\\n            \', escape=False)\n    response.write(\'\\n            <h3>Left Sidebar</h3>\\n            <p></p>\\n            \', escape=False)\n    response.write(\'\\n        </div>\\n        \', escape=False)\n    pass\nresponse.write(\'\\n\\n        <div class="\', escape=False)\nresponse.write(middle_columns)\nresponse.write(\'">\\n            \', escape=False)\nresponse.write(\'\\n            \', escape=False)\nresponse.write(\'\\n\', escape=False)\nresponse.write(form1)\nresponse.write(\'\\n\\n    <table>\\n    \\n    \', escape=False)\nfor i in items:\n    response.write(\'\\n        <tr>    \\n        <td><img src="\', escape=False)\n    response.write(URL(\'download\',args=i.image ))\n    response.write(\'" width=200px height=auto/></td>\\n        <td>\', escape=False)\n    response.write(A(i.name,_href=URL(r=request, f=\'item_d\', args=i.id)))\n    response.write(\' </td>\\n        <td><span>Rs. </span>\', escape=False)\n    response.write(i.price)\n    response.write(\'</td>\\n        </tr>\\n    \', escape=False)\n    pass\nresponse.write(\'\\n    \\n    </table>\\n        \', escape=False)\npass\nresponse.write(\'        \\n    <br />\', escape=False)\nresponse.write(\'\\n            \', escape=False)\nresponse.write(\'\\n        </div>\\n\\n        \', escape=False)\nif right_sidebar_enabled:\n    response.write(\'\\n        <div class="span3">\\n            \', escape=False)\n    response.write(\'\\n            <h3>Right Sidebar</h3>\\n            <p></p>\\n            \', escape=False)\n    response.write(\'\\n        </div>\\n        \', escape=False)\n    pass\nresponse.write(\'\\n    </section><!--/main-->\\n\\n    <!-- Footer ================================================== -->\\n    <div class="row">\\n        <footer class="footer span12" id="footer">\\n            <div class="footer-content">\\n                \', escape=False)\nresponse.write(\' <!-- this is default footer -->\\n                <div class="copyright pull-left">\', escape=False)\nresponse.write(T(\'Copyright\'))\nresponse.write(\' &#169; \', escape=False)\nresponse.write(request.now.year)\nresponse.write(\'</div>\\n                <div id="poweredBy" class="pull-right">\\n                    \', escape=False)\nresponse.write(T(\'Powered by\'))\nresponse.write(\'\\n                    <a href="http://www.web2py.com/">web2py</a>\\n                </div>\\n                \', escape=False)\nresponse.write(\'\\n            </div>\\n        </footer>\\n    </div>\\n\\n  </div> <!-- /container -->\\n\\n  <!-- The javascript =============================================\\n       (Placed at the end of the document so the pages load faster) -->\\n  <script src="\', escape=False)\nresponse.write(URL(\'static\',\'js/bootstrap.min.js\'))\nresponse.write(\'"></script>\\n  <script src="\', escape=False)\nresponse.write(URL(\'static\',\'js/web2py_bootstrap.js\'))\nresponse.write(\'"></script>\\n  <!--[if lt IE 7 ]>\\n      <script src="\', escape=False)\nresponse.write(URL(\'static\',\'js/dd_belatedpng.js\'))\nresponse.write(\'"></script>\\n      <script> DD_belatedPNG.fix(\\\'img, .png_bg\\\'); //fix any <img> or .png_bg background-images </script>\\n      <![endif]-->\\n  \\n  \', escape=False)\nif response.google_analytics_id:\n    response.write(\'\\n  <script src="\', escape=False)\n    response.write(URL(\'static\',\'js/analytics.js\'))\n    response.write(\'"></script>\\n  <script type="text/javascript">\\n  analytics.initialize({\\n    \\\'Google Analytics\\\':{trackingId:\\\'\', escape=False)\n    response.write(response.google_analytics_id)\n    response.write("\'} \\n  });</script>\\n  ", escape=False)\n    pass\nresponse.write(\'\\n  <script src="\', escape=False)\nresponse.write(URL(\'static\',\'js/share.js\',vars=dict(static=URL(\'static\',\'images\'))))\nresponse.write(\'"></script>\\n</body>\\n</html>\\n\\n\', escape=False)'
p7
sS'snapshot'
p8
(dp9
S'exception'
p10
(dp11
S'__hash__'
p12
S"<method-wrapper '__hash__' of exceptions.TypeError object>"
p13
sS'__setattr__'
p14
S"<method-wrapper '__setattr__' of exceptions.TypeError object>"
p15
sS'__reduce_ex__'
p16
S'<built-in method __reduce_ex__ of exceptions.TypeError object>'
p17
sS'__getslice__'
p18
S"<method-wrapper '__getslice__' of exceptions.TypeError object>"
p19
sS'__getitem__'
p20
S"<method-wrapper '__getitem__' of exceptions.TypeError object>"
p21
sS'__setstate__'
p22
S'<built-in method __setstate__ of exceptions.TypeError object>'
p23
sS'__reduce__'
p24
S'<built-in method __reduce__ of exceptions.TypeError object>'
p25
sS'__str__'
p26
S"<method-wrapper '__str__' of exceptions.TypeError object>"
p27
sS'__format__'
p28
S'<built-in method __format__ of exceptions.TypeError object>'
p29
sS'__getattribute__'
p30
S"<method-wrapper '__getattribute__' of exceptions.TypeError object>"
p31
sS'__class__'
p32
S"<type 'exceptions.TypeError'>"
p33
sS'__unicode__'
p34
S'<built-in method __unicode__ of exceptions.TypeError object>'
p35
sS'__delattr__'
p36
S"<method-wrapper '__delattr__' of exceptions.TypeError object>"
p37
sS'__subclasshook__'
p38
S'<built-in method __subclasshook__ of type object>'
p39
sS'__repr__'
p40
S"<method-wrapper '__repr__' of exceptions.TypeError object>"
p41
sS'args'
p42
S'("\'NoneType\' object is not iterable",)'
p43
sS'__dict__'
p44
S'{}'
p45
sS'__sizeof__'
p46
S'<built-in method __sizeof__ of exceptions.TypeError object>'
p47
sS'__doc__'
p48
S"'Inappropriate argument type.'"
p49
sS'__init__'
p50
S"<method-wrapper '__init__' of exceptions.TypeError object>"
p51
sS'__new__'
p52
S'<built-in method __new__ of type object>'
p53
ssS'evalue'
p54
S"'NoneType' object is not iterable"
p55
sS'request'
p56
ccopy_reg
_reconstructor
p57
(cgluon.html
BEAUTIFY
p58
c__builtin__
object
p59
NtRp60
(dp61
S'attributes'
p62
(dp63
sS'components'
p64
(lp65
g57
(cgluon.html
TABLE
p66
g59
NtRp67
(dp68
g62
(dp69
S'level'
p70
I5
ssS'parent'
p71
Nsg64
(lp72
g57
(cgluon.html
TR
p73
g59
NtRp74
(dp75
g62
(dp76
sg71
g67
sg64
(lp77
g57
(cgluon.html
TD
p78
g59
NtRp79
(dp80
g62
(dp81
S'_style'
p82
S'font-weight:bold;vertical-align:top'
p83
ssg71
g74
sg64
(lp84
S'ajax'
p85
asbag57
(g78
g59
NtRp86
(dp87
g62
(dp88
S'_valign'
p89
S'top'
p90
ssg71
g74
sg64
(lp91
S':'
asbag57
(g78
g59
NtRp92
(dp93
g62
(dp94
sg71
g74
sg64
(lp95
g57
(g58
g59
NtRp96
(dp97
g62
(dp98
g70
I5
ssg71
g92
sg64
(lp99
S'False'
p100
asbasbasbag57
(g73
g59
NtRp101
(dp102
g62
(dp103
sg71
g67
sg64
(lp104
g57
(g78
g59
NtRp105
(dp106
g62
(dp107
g82
g83
ssg71
g101
sg64
(lp108
S'application'
p109
asbag57
(g78
g59
NtRp110
(dp111
g62
(dp112
g89
g90
ssg71
g101
sg64
(lp113
S':'
asbag57
(g78
g59
NtRp114
(dp115
g62
(dp116
sg71
g101
sg64
(lp117
g57
(g58
g59
NtRp118
(dp119
g62
(dp120
g70
I5
ssg71
g114
sg64
(lp121
S'BuySell'
p122
asbasbasbag57
(g73
g59
NtRp123
(dp124
g62
(dp125
sg71
g67
sg64
(lp126
g57
(g78
g59
NtRp127
(dp128
g62
(dp129
g82
g83
ssg71
g123
sg64
(lp130
g42
asbag57
(g78
g59
NtRp131
(dp132
g62
(dp133
g89
g90
ssg71
g123
sg64
(lp134
S':'
asbag57
(g78
g59
NtRp135
(dp136
g62
(dp137
sg71
g123
sg64
(lp138
g57
(g58
g59
NtRp139
(dp140
g62
(dp141
g70
I5
ssg71
g135
sg64
(lp142
g57
(g66
g59
NtRp143
(dp144
g62
(dp145
g70
I4
ssg71
Nsg64
(lp146
g57
(g73
g59
NtRp147
(dp148
g62
(dp149
sg71
g143
sg64
(lp150
g57
(g78
g59
NtRp151
(dp152
g62
(dp153
sg71
g147
sg64
(lp154
g57
(g58
g59
NtRp155
(dp156
g62
(dp157
g70
I4
ssg71
g151
sg64
(lp158
S'4'
asbasbasbasbasbasbasbag57
(g73
g59
NtRp159
(dp160
g62
(dp161
sg71
g67
sg64
(lp162
g57
(g78
g59
NtRp163
(dp164
g62
(dp165
g82
g83
ssg71
g159
sg64
(lp166
S'body'
p167
asbag57
(g78
g59
NtRp168
(dp169
g62
(dp170
g89
g90
ssg71
g159
sg64
(lp171
S':'
asbag57
(g78
g59
NtRp172
(dp173
g62
(dp174
sg71
g159
sg64
(lp175
g57
(g58
g59
NtRp176
(dp177
g62
(dp178
g70
I5
ssg71
g172
sg64
(lp179
S'<cStringIO.StringO object at 0xaad6c80>'
p180
asbasbasbag57
(g73
g59
NtRp181
(dp182
g62
(dp183
sg71
g67
sg64
(lp184
g57
(g78
g59
NtRp185
(dp186
g62
(dp187
g82
g83
ssg71
g181
sg64
(lp188
S'cid'
p189
asbag57
(g78
g59
NtRp190
(dp191
g62
(dp192
g89
g90
ssg71
g181
sg64
(lp193
S':'
asbag57
(g78
g59
NtRp194
(dp195
g62
(dp196
sg71
g181
sg64
(lp197
g57
(g58
g59
NtRp198
(dp199
g62
(dp200
g70
I5
ssg71
g194
sg64
(lp201
S'None'
p202
asbasbasbag57
(g73
g59
NtRp203
(dp204
g62
(dp205
sg71
g67
sg64
(lp206
g57
(g78
g59
NtRp207
(dp208
g62
(dp209
g82
g83
ssg71
g203
sg64
(lp210
S'client'
p211
asbag57
(g78
g59
NtRp212
(dp213
g62
(dp214
g89
g90
ssg71
g203
sg64
(lp215
S':'
asbag57
(g78
g59
NtRp216
(dp217
g62
(dp218
sg71
g203
sg64
(lp219
g57
(g58
g59
NtRp220
(dp221
g62
(dp222
g70
I5
ssg71
g216
sg64
(lp223
S'127.0.0.1'
p224
asbasbasbag57
(g73
g59
NtRp225
(dp226
g62
(dp227
sg71
g67
sg64
(lp228
g57
(g78
g59
NtRp229
(dp230
g62
(dp231
g82
g83
ssg71
g225
sg64
(lp232
S'controller'
p233
asbag57
(g78
g59
NtRp234
(dp235
g62
(dp236
g89
g90
ssg71
g225
sg64
(lp237
S':'
asbag57
(g78
g59
NtRp238
(dp239
g62
(dp240
sg71
g225
sg64
(lp241
g57
(g58
g59
NtRp242
(dp243
g62
(dp244
g70
I5
ssg71
g238
sg64
(lp245
S'default'
p246
asbasbasbag57
(g73
g59
NtRp247
(dp248
g62
(dp249
sg71
g67
sg64
(lp250
g57
(g78
g59
NtRp251
(dp252
g62
(dp253
g82
g83
ssg71
g247
sg64
(lp254
S'cookies'
p255
asbag57
(g78
g59
NtRp256
(dp257
g62
(dp258
g89
g90
ssg71
g247
sg64
(lp259
S':'
asbag57
(g78
g59
NtRp260
(dp261
g62
(dp262
sg71
g247
sg64
(lp263
g57
(g58
g59
NtRp264
(dp265
g62
(dp266
g70
I5
ssg71
g260
sg64
(lp267
g57
(g66
g59
NtRp268
(dp269
g62
(dp270
g70
I4
ssg71
Nsg64
(lp271
g57
(g73
g59
NtRp272
(dp273
g62
(dp274
sg71
g268
sg64
(lp275
g57
(g78
g59
NtRp276
(dp277
g62
(dp278
g82
g83
ssg71
g272
sg64
(lp279
S'registered'
p280
asbag57
(g78
g59
NtRp281
(dp282
g62
(dp283
g89
g90
ssg71
g272
sg64
(lp284
S':'
asbag57
(g78
g59
NtRp285
(dp286
g62
(dp287
sg71
g272
sg64
(lp288
g57
(g58
g59
NtRp289
(dp290
g62
(dp291
g70
I4
ssg71
g285
sg64
(lp292
S'yes'
p293
ag57
(g66
g59
NtRp294
(dp295
g62
(dp296
g70
I3
ssg71
Nsg64
(lp297
g57
(g73
g59
NtRp298
(dp299
g62
(dp300
sg71
g294
sg64
(lp301
g57
(g78
g59
NtRp302
(dp303
g62
(dp304
g82
g83
ssg71
g298
sg64
(lp305
S'comment'
p306
asbag57
(g78
g59
NtRp307
(dp308
g62
(dp309
g89
g90
ssg71
g298
sg64
(lp310
S':'
asbag57
(g78
g59
NtRp311
(dp312
g62
(dp313
sg71
g298
sg64
(lp314
g57
(g58
g59
NtRp315
(dp316
g62
(dp317
g70
I3
ssg71
g311
sg64
(lp318
S''
asbasbasbag57
(g73
g59
NtRp319
(dp320
g62
(dp321
sg71
g294
sg64
(lp322
g57
(g78
g59
NtRp323
(dp324
g62
(dp325
g82
g83
ssg71
g319
sg64
(lp326
S'domain'
p327
asbag57
(g78
g59
NtRp328
(dp329
g62
(dp330
g89
g90
ssg71
g319
sg64
(lp331
S':'
asbag57
(g78
g59
NtRp332
(dp333
g62
(dp334
sg71
g319
sg64
(lp335
g57
(g58
g59
NtRp336
(dp337
g62
(dp338
g70
I3
ssg71
g332
sg64
(lp339
S''
asbasbasbag57
(g73
g59
NtRp340
(dp341
g62
(dp342
sg71
g294
sg64
(lp343
g57
(g78
g59
NtRp344
(dp345
g62
(dp346
g82
g83
ssg71
g340
sg64
(lp347
S'expires'
p348
asbag57
(g78
g59
NtRp349
(dp350
g62
(dp351
g89
g90
ssg71
g340
sg64
(lp352
S':'
asbag57
(g78
g59
NtRp353
(dp354
g62
(dp355
sg71
g340
sg64
(lp356
g57
(g58
g59
NtRp357
(dp358
g62
(dp359
g70
I3
ssg71
g353
sg64
(lp360
S''
asbasbasbag57
(g73
g59
NtRp361
(dp362
g62
(dp363
sg71
g294
sg64
(lp364
g57
(g78
g59
NtRp365
(dp366
g62
(dp367
g82
g83
ssg71
g361
sg64
(lp368
S'httponly'
p369
asbag57
(g78
g59
NtRp370
(dp371
g62
(dp372
g89
g90
ssg71
g361
sg64
(lp373
S':'
asbag57
(g78
g59
NtRp374
(dp375
g62
(dp376
sg71
g361
sg64
(lp377
g57
(g58
g59
NtRp378
(dp379
g62
(dp380
g70
I3
ssg71
g374
sg64
(lp381
S''
asbasbasbag57
(g73
g59
NtRp382
(dp383
g62
(dp384
sg71
g294
sg64
(lp385
g57
(g78
g59
NtRp386
(dp387
g62
(dp388
g82
g83
ssg71
g382
sg64
(lp389
S'max-age'
p390
asbag57
(g78
g59
NtRp391
(dp392
g62
(dp393
g89
g90
ssg71
g382
sg64
(lp394
S':'
asbag57
(g78
g59
NtRp395
(dp396
g62
(dp397
sg71
g382
sg64
(lp398
g57
(g58
g59
NtRp399
(dp400
g62
(dp401
g70
I3
ssg71
g395
sg64
(lp402
S''
asbasbasbag57
(g73
g59
NtRp403
(dp404
g62
(dp405
sg71
g294
sg64
(lp406
g57
(g78
g59
NtRp407
(dp408
g62
(dp409
g82
g83
ssg71
g403
sg64
(lp410
S'path'
p411
asbag57
(g78
g59
NtRp412
(dp413
g62
(dp414
g89
g90
ssg71
g403
sg64
(lp415
S':'
asbag57
(g78
g59
NtRp416
(dp417
g62
(dp418
sg71
g403
sg64
(lp419
g57
(g58
g59
NtRp420
(dp421
g62
(dp422
g70
I3
ssg71
g416
sg64
(lp423
S''
asbasbasbag57
(g73
g59
NtRp424
(dp425
g62
(dp426
sg71
g294
sg64
(lp427
g57
(g78
g59
NtRp428
(dp429
g62
(dp430
g82
g83
ssg71
g424
sg64
(lp431
S'secure'
p432
asbag57
(g78
g59
NtRp433
(dp434
g62
(dp435
g89
g90
ssg71
g424
sg64
(lp436
S':'
asbag57
(g78
g59
NtRp437
(dp438
g62
(dp439
sg71
g424
sg64
(lp440
g57
(g58
g59
NtRp441
(dp442
g62
(dp443
g70
I3
ssg71
g437
sg64
(lp444
S''
asbasbasbag57
(g73
g59
NtRp445
(dp446
g62
(dp447
sg71
g294
sg64
(lp448
g57
(g78
g59
NtRp449
(dp450
g62
(dp451
g82
g83
ssg71
g445
sg64
(lp452
S'version'
p453
asbag57
(g78
g59
NtRp454
(dp455
g62
(dp456
g89
g90
ssg71
g445
sg64
(lp457
S':'
asbag57
(g78
g59
NtRp458
(dp459
g62
(dp460
sg71
g445
sg64
(lp461
g57
(g58
g59
NtRp462
(dp463
g62
(dp464
g70
I3
ssg71
g458
sg64
(lp465
S''
asbasbasbasbasbasbasbag57
(g73
g59
NtRp466
(dp467
g62
(dp468
sg71
g268
sg64
(lp469
g57
(g78
g59
NtRp470
(dp471
g62
(dp472
g82
g83
ssg71
g466
sg64
(lp473
S'session_id_admin'
p474
asbag57
(g78
g59
NtRp475
(dp476
g62
(dp477
g89
g90
ssg71
g466
sg64
(lp478
S':'
asbag57
(g78
g59
NtRp479
(dp480
g62
(dp481
sg71
g466
sg64
(lp482
g57
(g58
g59
NtRp483
(dp484
g62
(dp485
g70
I4
ssg71
g479
sg64
(lp486
S'127.0.0.1-9ed8b734-ef8d-434e-9a7b-79af6eec8abb'
p487
ag57
(g66
g59
NtRp488
(dp489
g62
(dp490
g70
I3
ssg71
Nsg64
(lp491
g57
(g73
g59
NtRp492
(dp493
g62
(dp494
sg71
g488
sg64
(lp495
g57
(g78
g59
NtRp496
(dp497
g62
(dp498
g82
g83
ssg71
g492
sg64
(lp499
g306
asbag57
(g78
g59
NtRp500
(dp501
g62
(dp502
g89
g90
ssg71
g492
sg64
(lp503
S':'
asbag57
(g78
g59
NtRp504
(dp505
g62
(dp506
sg71
g492
sg64
(lp507
g57
(g58
g59
NtRp508
(dp509
g62
(dp510
g70
I3
ssg71
g504
sg64
(lp511
S''
asbasbasbag57
(g73
g59
NtRp512
(dp513
g62
(dp514
sg71
g488
sg64
(lp515
g57
(g78
g59
NtRp516
(dp517
g62
(dp518
g82
g83
ssg71
g512
sg64
(lp519
g327
asbag57
(g78
g59
NtRp520
(dp521
g62
(dp522
g89
g90
ssg71
g512
sg64
(lp523
S':'
asbag57
(g78
g59
NtRp524
(dp525
g62
(dp526
sg71
g512
sg64
(lp527
g57
(g58
g59
NtRp528
(dp529
g62
(dp530
g70
I3
ssg71
g524
sg64
(lp531
S''
asbasbasbag57
(g73
g59
NtRp532
(dp533
g62
(dp534
sg71
g488
sg64
(lp535
g57
(g78
g59
NtRp536
(dp537
g62
(dp538
g82
g83
ssg71
g532
sg64
(lp539
g348
asbag57
(g78
g59
NtRp540
(dp541
g62
(dp542
g89
g90
ssg71
g532
sg64
(lp543
S':'
asbag57
(g78
g59
NtRp544
(dp545
g62
(dp546
sg71
g532
sg64
(lp547
g57
(g58
g59
NtRp548
(dp549
g62
(dp550
g70
I3
ssg71
g544
sg64
(lp551
S''
asbasbasbag57
(g73
g59
NtRp552
(dp553
g62
(dp554
sg71
g488
sg64
(lp555
g57
(g78
g59
NtRp556
(dp557
g62
(dp558
g82
g83
ssg71
g552
sg64
(lp559
g369
asbag57
(g78
g59
NtRp560
(dp561
g62
(dp562
g89
g90
ssg71
g552
sg64
(lp563
S':'
asbag57
(g78
g59
NtRp564
(dp565
g62
(dp566
sg71
g552
sg64
(lp567
g57
(g58
g59
NtRp568
(dp569
g62
(dp570
g70
I3
ssg71
g564
sg64
(lp571
S''
asbasbasbag57
(g73
g59
NtRp572
(dp573
g62
(dp574
sg71
g488
sg64
(lp575
g57
(g78
g59
NtRp576
(dp577
g62
(dp578
g82
g83
ssg71
g572
sg64
(lp579
g390
asbag57
(g78
g59
NtRp580
(dp581
g62
(dp582
g89
g90
ssg71
g572
sg64
(lp583
S':'
asbag57
(g78
g59
NtRp584
(dp585
g62
(dp586
sg71
g572
sg64
(lp587
g57
(g58
g59
NtRp588
(dp589
g62
(dp590
g70
I3
ssg71
g584
sg64
(lp591
S''
asbasbasbag57
(g73
g59
NtRp592
(dp593
g62
(dp594
sg71
g488
sg64
(lp595
g57
(g78
g59
NtRp596
(dp597
g62
(dp598
g82
g83
ssg71
g592
sg64
(lp599
g411
asbag57
(g78
g59
NtRp600
(dp601
g62
(dp602
g89
g90
ssg71
g592
sg64
(lp603
S':'
asbag57
(g78
g59
NtRp604
(dp605
g62
(dp606
sg71
g592
sg64
(lp607
g57
(g58
g59
NtRp608
(dp609
g62
(dp610
g70
I3
ssg71
g604
sg64
(lp611
S''
asbasbasbag57
(g73
g59
NtRp612
(dp613
g62
(dp614
sg71
g488
sg64
(lp615
g57
(g78
g59
NtRp616
(dp617
g62
(dp618
g82
g83
ssg71
g612
sg64
(lp619
g432
asbag57
(g78
g59
NtRp620
(dp621
g62
(dp622
g89
g90
ssg71
g612
sg64
(lp623
S':'
asbag57
(g78
g59
NtRp624
(dp625
g62
(dp626
sg71
g612
sg64
(lp627
g57
(g58
g59
NtRp628
(dp629
g62
(dp630
g70
I3
ssg71
g624
sg64
(lp631
S''
asbasbasbag57
(g73
g59
NtRp632
(dp633
g62
(dp634
sg71
g488
sg64
(lp635
g57
(g78
g59
NtRp636
(dp637
g62
(dp638
g82
g83
ssg71
g632
sg64
(lp639
g453
asbag57
(g78
g59
NtRp640
(dp641
g62
(dp642
g89
g90
ssg71
g632
sg64
(lp643
S':'
asbag57
(g78
g59
NtRp644
(dp645
g62
(dp646
sg71
g632
sg64
(lp647
g57
(g58
g59
NtRp648
(dp649
g62
(dp650
g70
I3
ssg71
g644
sg64
(lp651
S''
asbasbasbasbasbasbasbag57
(g73
g59
NtRp652
(dp653
g62
(dp654
sg71
g268
sg64
(lp655
g57
(g78
g59
NtRp656
(dp657
g62
(dp658
g82
g83
ssg71
g652
sg64
(lp659
S'session_id_buysell'
p660
asbag57
(g78
g59
NtRp661
(dp662
g62
(dp663
g89
g90
ssg71
g652
sg64
(lp664
S':'
asbag57
(g78
g59
NtRp665
(dp666
g62
(dp667
sg71
g652
sg64
(lp668
g57
(g58
g59
NtRp669
(dp670
g62
(dp671
g70
I4
ssg71
g665
sg64
(lp672
S'127.0.0.1-f42b8fb6-bce7-404a-b975-99002423340f'
p673
ag57
(g66
g59
NtRp674
(dp675
g62
(dp676
g70
I3
ssg71
Nsg64
(lp677
g57
(g73
g59
NtRp678
(dp679
g62
(dp680
sg71
g674
sg64
(lp681
g57
(g78
g59
NtRp682
(dp683
g62
(dp684
g82
g83
ssg71
g678
sg64
(lp685
g306
asbag57
(g78
g59
NtRp686
(dp687
g62
(dp688
g89
g90
ssg71
g678
sg64
(lp689
S':'
asbag57
(g78
g59
NtRp690
(dp691
g62
(dp692
sg71
g678
sg64
(lp693
g57
(g58
g59
NtRp694
(dp695
g62
(dp696
g70
I3
ssg71
g690
sg64
(lp697
S''
asbasbasbag57
(g73
g59
NtRp698
(dp699
g62
(dp700
sg71
g674
sg64
(lp701
g57
(g78
g59
NtRp702
(dp703
g62
(dp704
g82
g83
ssg71
g698
sg64
(lp705
g327
asbag57
(g78
g59
NtRp706
(dp707
g62
(dp708
g89
g90
ssg71
g698
sg64
(lp709
S':'
asbag57
(g78
g59
NtRp710
(dp711
g62
(dp712
sg71
g698
sg64
(lp713
g57
(g58
g59
NtRp714
(dp715
g62
(dp716
g70
I3
ssg71
g710
sg64
(lp717
S''
asbasbasbag57
(g73
g59
NtRp718
(dp719
g62
(dp720
sg71
g674
sg64
(lp721
g57
(g78
g59
NtRp722
(dp723
g62
(dp724
g82
g83
ssg71
g718
sg64
(lp725
g348
asbag57
(g78
g59
NtRp726
(dp727
g62
(dp728
g89
g90
ssg71
g718
sg64
(lp729
S':'
asbag57
(g78
g59
NtRp730
(dp731
g62
(dp732
sg71
g718
sg64
(lp733
g57
(g58
g59
NtRp734
(dp735
g62
(dp736
g70
I3
ssg71
g730
sg64
(lp737
S''
asbasbasbag57
(g73
g59
NtRp738
(dp739
g62
(dp740
sg71
g674
sg64
(lp741
g57
(g78
g59
NtRp742
(dp743
g62
(dp744
g82
g83
ssg71
g738
sg64
(lp745
g369
asbag57
(g78
g59
NtRp746
(dp747
g62
(dp748
g89
g90
ssg71
g738
sg64
(lp749
S':'
asbag57
(g78
g59
NtRp750
(dp751
g62
(dp752
sg71
g738
sg64
(lp753
g57
(g58
g59
NtRp754
(dp755
g62
(dp756
g70
I3
ssg71
g750
sg64
(lp757
S''
asbasbasbag57
(g73
g59
NtRp758
(dp759
g62
(dp760
sg71
g674
sg64
(lp761
g57
(g78
g59
NtRp762
(dp763
g62
(dp764
g82
g83
ssg71
g758
sg64
(lp765
g390
asbag57
(g78
g59
NtRp766
(dp767
g62
(dp768
g89
g90
ssg71
g758
sg64
(lp769
S':'
asbag57
(g78
g59
NtRp770
(dp771
g62
(dp772
sg71
g758
sg64
(lp773
g57
(g58
g59
NtRp774
(dp775
g62
(dp776
g70
I3
ssg71
g770
sg64
(lp777
S''
asbasbasbag57
(g73
g59
NtRp778
(dp779
g62
(dp780
sg71
g674
sg64
(lp781
g57
(g78
g59
NtRp782
(dp783
g62
(dp784
g82
g83
ssg71
g778
sg64
(lp785
g411
asbag57
(g78
g59
NtRp786
(dp787
g62
(dp788
g89
g90
ssg71
g778
sg64
(lp789
S':'
asbag57
(g78
g59
NtRp790
(dp791
g62
(dp792
sg71
g778
sg64
(lp793
g57
(g58
g59
NtRp794
(dp795
g62
(dp796
g70
I3
ssg71
g790
sg64
(lp797
S''
asbasbasbag57
(g73
g59
NtRp798
(dp799
g62
(dp800
sg71
g674
sg64
(lp801
g57
(g78
g59
NtRp802
(dp803
g62
(dp804
g82
g83
ssg71
g798
sg64
(lp805
g432
asbag57
(g78
g59
NtRp806
(dp807
g62
(dp808
g89
g90
ssg71
g798
sg64
(lp809
S':'
asbag57
(g78
g59
NtRp810
(dp811
g62
(dp812
sg71
g798
sg64
(lp813
g57
(g58
g59
NtRp814
(dp815
g62
(dp816
g70
I3
ssg71
g810
sg64
(lp817
S''
asbasbasbag57
(g73
g59
NtRp818
(dp819
g62
(dp820
sg71
g674
sg64
(lp821
g57
(g78
g59
NtRp822
(dp823
g62
(dp824
g82
g83
ssg71
g818
sg64
(lp825
g453
asbag57
(g78
g59
NtRp826
(dp827
g62
(dp828
g89
g90
ssg71
g818
sg64
(lp829
S':'
asbag57
(g78
g59
NtRp830
(dp831
g62
(dp832
sg71
g818
sg64
(lp833
g57
(g58
g59
NtRp834
(dp835
g62
(dp836
g70
I3
ssg71
g830
sg64
(lp837
S''
asbasbasbasbasbasbasbag57
(g73
g59
NtRp838
(dp839
g62
(dp840
sg71
g268
sg64
(lp841
g57
(g78
g59
NtRp842
(dp843
g62
(dp844
g82
g83
ssg71
g838
sg64
(lp845
S'session_id_welcome'
p846
asbag57
(g78
g59
NtRp847
(dp848
g62
(dp849
g89
g90
ssg71
g838
sg64
(lp850
S':'
asbag57
(g78
g59
NtRp851
(dp852
g62
(dp853
sg71
g838
sg64
(lp854
g57
(g58
g59
NtRp855
(dp856
g62
(dp857
g70
I4
ssg71
g851
sg64
(lp858
S'127.0.0.1-7f7cc58f-84a5-4666-8759-30cfd1f98bc1'
p859
ag57
(g66
g59
NtRp860
(dp861
g62
(dp862
g70
I3
ssg71
Nsg64
(lp863
g57
(g73
g59
NtRp864
(dp865
g62
(dp866
sg71
g860
sg64
(lp867
g57
(g78
g59
NtRp868
(dp869
g62
(dp870
g82
g83
ssg71
g864
sg64
(lp871
g306
asbag57
(g78
g59
NtRp872
(dp873
g62
(dp874
g89
g90
ssg71
g864
sg64
(lp875
S':'
asbag57
(g78
g59
NtRp876
(dp877
g62
(dp878
sg71
g864
sg64
(lp879
g57
(g58
g59
NtRp880
(dp881
g62
(dp882
g70
I3
ssg71
g876
sg64
(lp883
S''
asbasbasbag57
(g73
g59
NtRp884
(dp885
g62
(dp886
sg71
g860
sg64
(lp887
g57
(g78
g59
NtRp888
(dp889
g62
(dp890
g82
g83
ssg71
g884
sg64
(lp891
g327
asbag57
(g78
g59
NtRp892
(dp893
g62
(dp894
g89
g90
ssg71
g884
sg64
(lp895
S':'
asbag57
(g78
g59
NtRp896
(dp897
g62
(dp898
sg71
g884
sg64
(lp899
g57
(g58
g59
NtRp900
(dp901
g62
(dp902
g70
I3
ssg71
g896
sg64
(lp903
S''
asbasbasbag57
(g73
g59
NtRp904
(dp905
g62
(dp906
sg71
g860
sg64
(lp907
g57
(g78
g59
NtRp908
(dp909
g62
(dp910
g82
g83
ssg71
g904
sg64
(lp911
g348
asbag57
(g78
g59
NtRp912
(dp913
g62
(dp914
g89
g90
ssg71
g904
sg64
(lp915
S':'
asbag57
(g78
g59
NtRp916
(dp917
g62
(dp918
sg71
g904
sg64
(lp919
g57
(g58
g59
NtRp920
(dp921
g62
(dp922
g70
I3
ssg71
g916
sg64
(lp923
S''
asbasbasbag57
(g73
g59
NtRp924
(dp925
g62
(dp926
sg71
g860
sg64
(lp927
g57
(g78
g59
NtRp928
(dp929
g62
(dp930
g82
g83
ssg71
g924
sg64
(lp931
g369
asbag57
(g78
g59
NtRp932
(dp933
g62
(dp934
g89
g90
ssg71
g924
sg64
(lp935
S':'
asbag57
(g78
g59
NtRp936
(dp937
g62
(dp938
sg71
g924
sg64
(lp939
g57
(g58
g59
NtRp940
(dp941
g62
(dp942
g70
I3
ssg71
g936
sg64
(lp943
S''
asbasbasbag57
(g73
g59
NtRp944
(dp945
g62
(dp946
sg71
g860
sg64
(lp947
g57
(g78
g59
NtRp948
(dp949
g62
(dp950
g82
g83
ssg71
g944
sg64
(lp951
g390
asbag57
(g78
g59
NtRp952
(dp953
g62
(dp954
g89
g90
ssg71
g944
sg64
(lp955
S':'
asbag57
(g78
g59
NtRp956
(dp957
g62
(dp958
sg71
g944
sg64
(lp959
g57
(g58
g59
NtRp960
(dp961
g62
(dp962
g70
I3
ssg71
g956
sg64
(lp963
S''
asbasbasbag57
(g73
g59
NtRp964
(dp965
g62
(dp966
sg71
g860
sg64
(lp967
g57
(g78
g59
NtRp968
(dp969
g62
(dp970
g82
g83
ssg71
g964
sg64
(lp971
g411
asbag57
(g78
g59
NtRp972
(dp973
g62
(dp974
g89
g90
ssg71
g964
sg64
(lp975
S':'
asbag57
(g78
g59
NtRp976
(dp977
g62
(dp978
sg71
g964
sg64
(lp979
g57
(g58
g59
NtRp980
(dp981
g62
(dp982
g70
I3
ssg71
g976
sg64
(lp983
S''
asbasbasbag57
(g73
g59
NtRp984
(dp985
g62
(dp986
sg71
g860
sg64
(lp987
g57
(g78
g59
NtRp988
(dp989
g62
(dp990
g82
g83
ssg71
g984
sg64
(lp991
g432
asbag57
(g78
g59
NtRp992
(dp993
g62
(dp994
g89
g90
ssg71
g984
sg64
(lp995
S':'
asbag57
(g78
g59
NtRp996
(dp997
g62
(dp998
sg71
g984
sg64
(lp999
g57
(g58
g59
NtRp1000
(dp1001
g62
(dp1002
g70
I3
ssg71
g996
sg64
(lp1003
S''
asbasbasbag57
(g73
g59
NtRp1004
(dp1005
g62
(dp1006
sg71
g860
sg64
(lp1007
g57
(g78
g59
NtRp1008
(dp1009
g62
(dp1010
g82
g83
ssg71
g1004
sg64
(lp1011
g453
asbag57
(g78
g59
NtRp1012
(dp1013
g62
(dp1014
g89
g90
ssg71
g1004
sg64
(lp1015
S':'
asbag57
(g78
g59
NtRp1016
(dp1017
g62
(dp1018
sg71
g1004
sg64
(lp1019
g57
(g58
g59
NtRp1020
(dp1021
g62
(dp1022
g70
I3
ssg71
g1016
sg64
(lp1023
S''
asbasbasbasbasbasbasbasbasbasbasbag57
(g73
g59
NtRp1024
(dp1025
g62
(dp1026
sg71
g67
sg64
(lp1027
g57
(g78
g59
NtRp1028
(dp1029
g62
(dp1030
g82
g83
ssg71
g1024
sg64
(lp1031
S'env'
p1032
asbag57
(g78
g59
NtRp1033
(dp1034
g62
(dp1035
g89
g90
ssg71
g1024
sg64
(lp1036
S':'
asbag57
(g78
g59
NtRp1037
(dp1038
g62
(dp1039
sg71
g1024
sg64
(lp1040
g57
(g58
g59
NtRp1041
(dp1042
g62
(dp1043
g70
I5
ssg71
g1037
sg64
(lp1044
g57
(g66
g59
NtRp1045
(dp1046
g62
(dp1047
g70
I4
ssg71
Nsg64
(lp1048
g57
(g73
g59
NtRp1049
(dp1050
g62
(dp1051
sg71
g1045
sg64
(lp1052
g57
(g78
g59
NtRp1053
(dp1054
g62
(dp1055
g82
g83
ssg71
g1049
sg64
(lp1056
S'app_folders'
p1057
asbag57
(g78
g59
NtRp1058
(dp1059
g62
(dp1060
g89
g90
ssg71
g1049
sg64
(lp1061
S':'
asbag57
(g78
g59
NtRp1062
(dp1063
g62
(dp1064
sg71
g1049
sg64
(lp1065
g57
(g58
g59
NtRp1066
(dp1067
g62
(dp1068
g70
I4
ssg71
g1062
sg64
(lp1069
S"set(['/home/pratyush/web2py/applications/welcome/', '/home/pratyush/web2py/applications/BuySell/', '/home/pratyush/web2py/applications/admin/'])"
p1070
asbasbasbag57
(g73
g59
NtRp1071
(dp1072
g62
(dp1073
sg71
g1045
sg64
(lp1074
g57
(g78
g59
NtRp1075
(dp1076
g62
(dp1077
g82
g83
ssg71
g1071
sg64
(lp1078
S'applications_parent'
p1079
asbag57
(g78
g59
NtRp1080
(dp1081
g62
(dp1082
g89
g90
ssg71
g1071
sg64
(lp1083
S':'
asbag57
(g78
g59
NtRp1084
(dp1085
g62
(dp1086
sg71
g1071
sg64
(lp1087
g57
(g58
g59
NtRp1088
(dp1089
g62
(dp1090
g70
I4
ssg71
g1084
sg64
(lp1091
S'/home/pratyush/web2py'
p1092
asbasbasbag57
(g73
g59
NtRp1093
(dp1094
g62
(dp1095
sg71
g1045
sg64
(lp1096
g57
(g78
g59
NtRp1097
(dp1098
g62
(dp1099
g82
g83
ssg71
g1093
sg64
(lp1100
S'cmd_args'
p1101
asbag57
(g78
g59
NtRp1102
(dp1103
g62
(dp1104
g89
g90
ssg71
g1093
sg64
(lp1105
S':'
asbag57
(g78
g59
NtRp1106
(dp1107
g62
(dp1108
sg71
g1093
sg64
(lp1109
g57
(g58
g59
NtRp1110
(dp1111
g62
(dp1112
g70
I4
ssg71
g1106
sg64
(lp1113
g57
(g66
g59
NtRp1114
(dp1115
g62
(dp1116
g70
I3
ssg71
Nsg64
(lp1117
sbasbasbasbag57
(g73
g59
NtRp1118
(dp1119
g62
(dp1120
sg71
g1045
sg64
(lp1121
g57
(g78
g59
NtRp1122
(dp1123
g62
(dp1124
g82
g83
ssg71
g1118
sg64
(lp1125
S'cmd_options'
p1126
asbag57
(g78
g59
NtRp1127
(dp1128
g62
(dp1129
g89
g90
ssg71
g1118
sg64
(lp1130
S':'
asbag57
(g78
g59
NtRp1131
(dp1132
g62
(dp1133
sg71
g1118
sg64
(lp1134
g57
(g58
g59
NtRp1135
(dp1136
g62
(dp1137
g70
I4
ssg71
g1131
sg64
(lp1138
S"<Values at 0x9a8004c: {'verbose': False, 'ip': '127.0.0.1', 'with_scheduler': False, 'ips': [], 'shutdown_timeout': 5, 'taskbar': False, 'port': 8001, 'maxthreads': None, 'softcron': False, 'server_name': 'alanzak', 'bpython': False, 'nogui': False, 'pid_filename': 'httpserver.pid', 'extcron': False, 'runcron': False, 'run_system_tests': False, 'test': None, 'folder': '/home/pratyush/web2py', 'config': '', 'import_models': False, 'winservice': '', 'shell': None, 'run': '', 'log_filename': 'httpserver.log', 'debuglevel': 30, 'args': [''], 'socket_timeout': 5, 'ssl_ca_certificate': None, 'scheduler': None, 'profiler_filename': None, 'ssl_private_key': '', 'scheduler_groups': None, 'password': '1', 'request_queue_size': 5, 'ssl_certificate': '', 'cronjob': False, 'numthreads': None, 'quiet': False, 'interfaces': None, 'minthreads': None, 'timeout': 10, 'plain': False, 'nobanner': False}>"
p1139
asbasbasbag57
(g73
g59
NtRp1140
(dp1141
g62
(dp1142
sg71
g1045
sg64
(lp1143
g57
(g78
g59
NtRp1144
(dp1145
g62
(dp1146
g82
g83
ssg71
g1140
sg64
(lp1147
S'db_sessions'
p1148
asbag57
(g78
g59
NtRp1149
(dp1150
g62
(dp1151
g89
g90
ssg71
g1140
sg64
(lp1152
S':'
asbag57
(g78
g59
NtRp1153
(dp1154
g62
(dp1155
sg71
g1140
sg64
(lp1156
g57
(g58
g59
NtRp1157
(dp1158
g62
(dp1159
g70
I4
ssg71
g1153
sg64
(lp1160
S'set([])'
p1161
asbasbasbag57
(g73
g59
NtRp1162
(dp1163
g62
(dp1164
sg71
g1045
sg64
(lp1165
g57
(g78
g59
NtRp1166
(dp1167
g62
(dp1168
g82
g83
ssg71
g1162
sg64
(lp1169
S'debugging'
p1170
asbag57
(g78
g59
NtRp1171
(dp1172
g62
(dp1173
g89
g90
ssg71
g1162
sg64
(lp1174
S':'
asbag57
(g78
g59
NtRp1175
(dp1176
g62
(dp1177
sg71
g1162
sg64
(lp1178
g57
(g58
g59
NtRp1179
(dp1180
g62
(dp1181
g70
I4
ssg71
g1175
sg64
(lp1182
g100
asbasbasbag57
(g73
g59
NtRp1183
(dp1184
g62
(dp1185
sg71
g1045
sg64
(lp1186
g57
(g78
g59
NtRp1187
(dp1188
g62
(dp1189
g82
g83
ssg71
g1183
sg64
(lp1190
S'gluon_parent'
p1191
asbag57
(g78
g59
NtRp1192
(dp1193
g62
(dp1194
g89
g90
ssg71
g1183
sg64
(lp1195
S':'
asbag57
(g78
g59
NtRp1196
(dp1197
g62
(dp1198
sg71
g1183
sg64
(lp1199
g57
(g58
g59
NtRp1200
(dp1201
g62
(dp1202
g70
I4
ssg71
g1196
sg64
(lp1203
S'/home/pratyush/web2py'
p1204
asbasbasbag57
(g73
g59
NtRp1205
(dp1206
g62
(dp1207
sg71
g1045
sg64
(lp1208
g57
(g78
g59
NtRp1209
(dp1210
g62
(dp1211
g82
g83
ssg71
g1205
sg64
(lp1212
S'http_accept'
p1213
asbag57
(g78
g59
NtRp1214
(dp1215
g62
(dp1216
g89
g90
ssg71
g1205
sg64
(lp1217
S':'
asbag57
(g78
g59
NtRp1218
(dp1219
g62
(dp1220
sg71
g1205
sg64
(lp1221
g57
(g58
g59
NtRp1222
(dp1223
g62
(dp1224
g70
I4
ssg71
g1218
sg64
(lp1225
S'text/html,application/xhtml+xml,application/xml;q=0.9,*/*;q=0.8'
p1226
asbasbasbag57
(g73
g59
NtRp1227
(dp1228
g62
(dp1229
sg71
g1045
sg64
(lp1230
g57
(g78
g59
NtRp1231
(dp1232
g62
(dp1233
g82
g83
ssg71
g1227
sg64
(lp1234
S'http_accept_charset'
p1235
asbag57
(g78
g59
NtRp1236
(dp1237
g62
(dp1238
g89
g90
ssg71
g1227
sg64
(lp1239
S':'
asbag57
(g78
g59
NtRp1240
(dp1241
g62
(dp1242
sg71
g1227
sg64
(lp1243
g57
(g58
g59
NtRp1244
(dp1245
g62
(dp1246
g70
I4
ssg71
g1240
sg64
(lp1247
S'ISO-8859-1,utf-8;q=0.7,*;q=0.3'
p1248
asbasbasbag57
(g73
g59
NtRp1249
(dp1250
g62
(dp1251
sg71
g1045
sg64
(lp1252
g57
(g78
g59
NtRp1253
(dp1254
g62
(dp1255
g82
g83
ssg71
g1249
sg64
(lp1256
S'http_accept_encoding'
p1257
asbag57
(g78
g59
NtRp1258
(dp1259
g62
(dp1260
g89
g90
ssg71
g1249
sg64
(lp1261
S':'
asbag57
(g78
g59
NtRp1262
(dp1263
g62
(dp1264
sg71
g1249
sg64
(lp1265
g57
(g58
g59
NtRp1266
(dp1267
g62
(dp1268
g70
I4
ssg71
g1262
sg64
(lp1269
S'gzip,deflate,sdch'
p1270
asbasbasbag57
(g73
g59
NtRp1271
(dp1272
g62
(dp1273
sg71
g1045
sg64
(lp1274
g57
(g78
g59
NtRp1275
(dp1276
g62
(dp1277
g82
g83
ssg71
g1271
sg64
(lp1278
S'http_accept_language'
p1279
asbag57
(g78
g59
NtRp1280
(dp1281
g62
(dp1282
g89
g90
ssg71
g1271
sg64
(lp1283
S':'
asbag57
(g78
g59
NtRp1284
(dp1285
g62
(dp1286
sg71
g1271
sg64
(lp1287
g57
(g58
g59
NtRp1288
(dp1289
g62
(dp1290
g70
I4
ssg71
g1284
sg64
(lp1291
S'en-US,en;q=0.8'
p1292
asbasbasbag57
(g73
g59
NtRp1293
(dp1294
g62
(dp1295
sg71
g1045
sg64
(lp1296
g57
(g78
g59
NtRp1297
(dp1298
g62
(dp1299
g82
g83
ssg71
g1293
sg64
(lp1300
S'http_cache_control'
p1301
asbag57
(g78
g59
NtRp1302
(dp1303
g62
(dp1304
g89
g90
ssg71
g1293
sg64
(lp1305
S':'
asbag57
(g78
g59
NtRp1306
(dp1307
g62
(dp1308
sg71
g1293
sg64
(lp1309
g57
(g58
g59
NtRp1310
(dp1311
g62
(dp1312
g70
I4
ssg71
g1306
sg64
(lp1313
S'max-age=0'
p1314
asbasbasbag57
(g73
g59
NtRp1315
(dp1316
g62
(dp1317
sg71
g1045
sg64
(lp1318
g57
(g78
g59
NtRp1319
(dp1320
g62
(dp1321
g82
g83
ssg71
g1315
sg64
(lp1322
S'http_connection'
p1323
asbag57
(g78
g59
NtRp1324
(dp1325
g62
(dp1326
g89
g90
ssg71
g1315
sg64
(lp1327
S':'
asbag57
(g78
g59
NtRp1328
(dp1329
g62
(dp1330
sg71
g1315
sg64
(lp1331
g57
(g58
g59
NtRp1332
(dp1333
g62
(dp1334
g70
I4
ssg71
g1328
sg64
(lp1335
S'keep-alive'
p1336
asbasbasbag57
(g73
g59
NtRp1337
(dp1338
g62
(dp1339
sg71
g1045
sg64
(lp1340
g57
(g78
g59
NtRp1341
(dp1342
g62
(dp1343
g82
g83
ssg71
g1337
sg64
(lp1344
S'http_cookie'
p1345
asbag57
(g78
g59
NtRp1346
(dp1347
g62
(dp1348
g89
g90
ssg71
g1337
sg64
(lp1349
S':'
asbag57
(g78
g59
NtRp1350
(dp1351
g62
(dp1352
sg71
g1337
sg64
(lp1353
g57
(g58
g59
NtRp1354
(dp1355
g62
(dp1356
g70
I4
ssg71
g1350
sg64
(lp1357
S'registered=yes; session_id_welcome=127.0.0.1-7f7cc58f-84a5-4666-8759-30cfd1f98bc1; session_id_admin=127.0.0.1-9ed8b734-ef8d-434e-9a7b-79af6eec8abb; session_id_buysell=127.0.0.1-f42b8fb6-bce7-404a-b975-99002423340f'
p1358
asbasbasbag57
(g73
g59
NtRp1359
(dp1360
g62
(dp1361
sg71
g1045
sg64
(lp1362
g57
(g78
g59
NtRp1363
(dp1364
g62
(dp1365
g82
g83
ssg71
g1359
sg64
(lp1366
S'http_host'
p1367
asbag57
(g78
g59
NtRp1368
(dp1369
g62
(dp1370
g89
g90
ssg71
g1359
sg64
(lp1371
S':'
asbag57
(g78
g59
NtRp1372
(dp1373
g62
(dp1374
sg71
g1359
sg64
(lp1375
g57
(g58
g59
NtRp1376
(dp1377
g62
(dp1378
g70
I4
ssg71
g1372
sg64
(lp1379
S'127.0.0.1:8001'
p1380
asbasbasbag57
(g73
g59
NtRp1381
(dp1382
g62
(dp1383
sg71
g1045
sg64
(lp1384
g57
(g78
g59
NtRp1385
(dp1386
g62
(dp1387
g82
g83
ssg71
g1381
sg64
(lp1388
S'http_referer'
p1389
asbag57
(g78
g59
NtRp1390
(dp1391
g62
(dp1392
g89
g90
ssg71
g1381
sg64
(lp1393
S':'
asbag57
(g78
g59
NtRp1394
(dp1395
g62
(dp1396
sg71
g1381
sg64
(lp1397
g57
(g58
g59
NtRp1398
(dp1399
g62
(dp1400
g70
I4
ssg71
g1394
sg64
(lp1401
S'http://127.0.0.1:8001/BuySell/default/fulfilled'
p1402
asbasbasbag57
(g73
g59
NtRp1403
(dp1404
g62
(dp1405
sg71
g1045
sg64
(lp1406
g57
(g78
g59
NtRp1407
(dp1408
g62
(dp1409
g82
g83
ssg71
g1403
sg64
(lp1410
S'http_user_agent'
p1411
asbag57
(g78
g59
NtRp1412
(dp1413
g62
(dp1414
g89
g90
ssg71
g1403
sg64
(lp1415
S':'
asbag57
(g78
g59
NtRp1416
(dp1417
g62
(dp1418
sg71
g1403
sg64
(lp1419
g57
(g58
g59
NtRp1420
(dp1421
g62
(dp1422
g70
I4
ssg71
g1416
sg64
(lp1423
S'Mozilla/5.0 (X11; Linux i686) AppleWebKit/537.4 (KHTML, like Gecko) Chrome/22.0.1229.79 Safari/537.4'
p1424
asbasbasbag57
(g73
g59
NtRp1425
(dp1426
g62
(dp1427
sg71
g1045
sg64
(lp1428
g57
(g78
g59
NtRp1429
(dp1430
g62
(dp1431
g82
g83
ssg71
g1425
sg64
(lp1432
S'is_jython'
p1433
asbag57
(g78
g59
NtRp1434
(dp1435
g62
(dp1436
g89
g90
ssg71
g1425
sg64
(lp1437
S':'
asbag57
(g78
g59
NtRp1438
(dp1439
g62
(dp1440
sg71
g1425
sg64
(lp1441
g57
(g58
g59
NtRp1442
(dp1443
g62
(dp1444
g70
I4
ssg71
g1438
sg64
(lp1445
g100
asbasbasbag57
(g73
g59
NtRp1446
(dp1447
g62
(dp1448
sg71
g1045
sg64
(lp1449
g57
(g78
g59
NtRp1450
(dp1451
g62
(dp1452
g82
g83
ssg71
g1446
sg64
(lp1453
S'is_pypy'
p1454
asbag57
(g78
g59
NtRp1455
(dp1456
g62
(dp1457
g89
g90
ssg71
g1446
sg64
(lp1458
S':'
asbag57
(g78
g59
NtRp1459
(dp1460
g62
(dp1461
sg71
g1446
sg64
(lp1462
g57
(g58
g59
NtRp1463
(dp1464
g62
(dp1465
g70
I4
ssg71
g1459
sg64
(lp1466
g100
asbasbasbag57
(g73
g59
NtRp1467
(dp1468
g62
(dp1469
sg71
g1045
sg64
(lp1470
g57
(g78
g59
NtRp1471
(dp1472
g62
(dp1473
g82
g83
ssg71
g1467
sg64
(lp1474
S'local_hosts'
p1475
asbag57
(g78
g59
NtRp1476
(dp1477
g62
(dp1478
g89
g90
ssg71
g1467
sg64
(lp1479
S':'
asbag57
(g78
g59
NtRp1480
(dp1481
g62
(dp1482
sg71
g1467
sg64
(lp1483
g57
(g58
g59
NtRp1484
(dp1485
g62
(dp1486
g70
I4
ssg71
g1480
sg64
(lp1487
g57
(g66
g59
NtRp1488
(dp1489
g62
(dp1490
g70
I3
ssg71
Nsg64
(lp1491
g57
(g73
g59
NtRp1492
(dp1493
g62
(dp1494
sg71
g1488
sg64
(lp1495
g57
(g78
g59
NtRp1496
(dp1497
g62
(dp1498
sg71
g1492
sg64
(lp1499
g57
(g58
g59
NtRp1500
(dp1501
g62
(dp1502
g70
I3
ssg71
g1496
sg64
(lp1503
S'127.0.1.1'
p1504
asbasbasbag57
(g73
g59
NtRp1505
(dp1506
g62
(dp1507
sg71
g1488
sg64
(lp1508
g57
(g78
g59
NtRp1509
(dp1510
g62
(dp1511
sg71
g1505
sg64
(lp1512
g57
(g58
g59
NtRp1513
(dp1514
g62
(dp1515
g70
I3
ssg71
g1509
sg64
(lp1516
S'::1'
p1517
asbasbasbag57
(g73
g59
NtRp1518
(dp1519
g62
(dp1520
sg71
g1488
sg64
(lp1521
g57
(g78
g59
NtRp1522
(dp1523
g62
(dp1524
sg71
g1518
sg64
(lp1525
g57
(g58
g59
NtRp1526
(dp1527
g62
(dp1528
g70
I3
ssg71
g1522
sg64
(lp1529
S'alanzak'
p1530
asbasbasbag57
(g73
g59
NtRp1531
(dp1532
g62
(dp1533
sg71
g1488
sg64
(lp1534
g57
(g78
g59
NtRp1535
(dp1536
g62
(dp1537
sg71
g1531
sg64
(lp1538
g57
(g58
g59
NtRp1539
(dp1540
g62
(dp1541
g70
I3
ssg71
g1535
sg64
(lp1542
S'::ffff:127.0.0.1'
p1543
asbasbasbag57
(g73
g59
NtRp1544
(dp1545
g62
(dp1546
sg71
g1488
sg64
(lp1547
g57
(g78
g59
NtRp1548
(dp1549
g62
(dp1550
sg71
g1544
sg64
(lp1551
g57
(g58
g59
NtRp1552
(dp1553
g62
(dp1554
g70
I3
ssg71
g1548
sg64
(lp1555
S'127.0.0.1'
p1556
asbasbasbasbasbasbasbag57
(g73
g59
NtRp1557
(dp1558
g62
(dp1559
sg71
g1045
sg64
(lp1560
g57
(g78
g59
NtRp1561
(dp1562
g62
(dp1563
g82
g83
ssg71
g1557
sg64
(lp1564
S'path_info'
p1565
asbag57
(g78
g59
NtRp1566
(dp1567
g62
(dp1568
g89
g90
ssg71
g1557
sg64
(lp1569
S':'
asbag57
(g78
g59
NtRp1570
(dp1571
g62
(dp1572
sg71
g1557
sg64
(lp1573
g57
(g58
g59
NtRp1574
(dp1575
g62
(dp1576
g70
I4
ssg71
g1570
sg64
(lp1577
S'/BuySell/default/categories/4'
p1578
asbasbasbag57
(g73
g59
NtRp1579
(dp1580
g62
(dp1581
sg71
g1045
sg64
(lp1582
g57
(g78
g59
NtRp1583
(dp1584
g62
(dp1585
g82
g83
ssg71
g1579
sg64
(lp1586
S'query_string'
p1587
asbag57
(g78
g59
NtRp1588
(dp1589
g62
(dp1590
g89
g90
ssg71
g1579
sg64
(lp1591
S':'
asbag57
(g78
g59
NtRp1592
(dp1593
g62
(dp1594
sg71
g1579
sg64
(lp1595
g57
(g58
g59
NtRp1596
(dp1597
g62
(dp1598
g70
I4
ssg71
g1592
sg64
(lp1599
S''
asbasbasbag57
(g73
g59
NtRp1600
(dp1601
g62
(dp1602
sg71
g1045
sg64
(lp1603
g57
(g78
g59
NtRp1604
(dp1605
g62
(dp1606
g82
g83
ssg71
g1600
sg64
(lp1607
S'remote_addr'
p1608
asbag57
(g78
g59
NtRp1609
(dp1610
g62
(dp1611
g89
g90
ssg71
g1600
sg64
(lp1612
S':'
asbag57
(g78
g59
NtRp1613
(dp1614
g62
(dp1615
sg71
g1600
sg64
(lp1616
g57
(g58
g59
NtRp1617
(dp1618
g62
(dp1619
g70
I4
ssg71
g1613
sg64
(lp1620
g224
asbasbasbag57
(g73
g59
NtRp1621
(dp1622
g62
(dp1623
sg71
g1045
sg64
(lp1624
g57
(g78
g59
NtRp1625
(dp1626
g62
(dp1627
g82
g83
ssg71
g1621
sg64
(lp1628
S'remote_port'
p1629
asbag57
(g78
g59
NtRp1630
(dp1631
g62
(dp1632
g89
g90
ssg71
g1621
sg64
(lp1633
S':'
asbag57
(g78
g59
NtRp1634
(dp1635
g62
(dp1636
sg71
g1621
sg64
(lp1637
g57
(g58
g59
NtRp1638
(dp1639
g62
(dp1640
g70
I4
ssg71
g1634
sg64
(lp1641
S'55283'
p1642
asbasbasbag57
(g73
g59
NtRp1643
(dp1644
g62
(dp1645
sg71
g1045
sg64
(lp1646
g57
(g78
g59
NtRp1647
(dp1648
g62
(dp1649
g82
g83
ssg71
g1643
sg64
(lp1650
S'request_method'
p1651
asbag57
(g78
g59
NtRp1652
(dp1653
g62
(dp1654
g89
g90
ssg71
g1643
sg64
(lp1655
S':'
asbag57
(g78
g59
NtRp1656
(dp1657
g62
(dp1658
sg71
g1643
sg64
(lp1659
g57
(g58
g59
NtRp1660
(dp1661
g62
(dp1662
g70
I4
ssg71
g1656
sg64
(lp1663
S'GET'
p1664
asbasbasbag57
(g73
g59
NtRp1665
(dp1666
g62
(dp1667
sg71
g1045
sg64
(lp1668
g57
(g78
g59
NtRp1669
(dp1670
g62
(dp1671
g82
g83
ssg71
g1665
sg64
(lp1672
S'request_uri'
p1673
asbag57
(g78
g59
NtRp1674
(dp1675
g62
(dp1676
g89
g90
ssg71
g1665
sg64
(lp1677
S':'
asbag57
(g78
g59
NtRp1678
(dp1679
g62
(dp1680
sg71
g1665
sg64
(lp1681
g57
(g58
g59
NtRp1682
(dp1683
g62
(dp1684
g70
I4
ssg71
g1678
sg64
(lp1685
g1578
asbasbasbag57
(g73
g59
NtRp1686
(dp1687
g62
(dp1688
sg71
g1045
sg64
(lp1689
g57
(g78
g59
NtRp1690
(dp1691
g62
(dp1692
g82
g83
ssg71
g1686
sg64
(lp1693
S'script_name'
p1694
asbag57
(g78
g59
NtRp1695
(dp1696
g62
(dp1697
g89
g90
ssg71
g1686
sg64
(lp1698
S':'
asbag57
(g78
g59
NtRp1699
(dp1700
g62
(dp1701
sg71
g1686
sg64
(lp1702
g57
(g58
g59
NtRp1703
(dp1704
g62
(dp1705
g70
I4
ssg71
g1699
sg64
(lp1706
S''
asbasbasbag57
(g73
g59
NtRp1707
(dp1708
g62
(dp1709
sg71
g1045
sg64
(lp1710
g57
(g78
g59
NtRp1711
(dp1712
g62
(dp1713
g82
g83
ssg71
g1707
sg64
(lp1714
S'server_name'
p1715
asbag57
(g78
g59
NtRp1716
(dp1717
g62
(dp1718
g89
g90
ssg71
g1707
sg64
(lp1719
S':'
asbag57
(g78
g59
NtRp1720
(dp1721
g62
(dp1722
sg71
g1707
sg64
(lp1723
g57
(g58
g59
NtRp1724
(dp1725
g62
(dp1726
g70
I4
ssg71
g1720
sg64
(lp1727
S'alanzak'
p1728
asbasbasbag57
(g73
g59
NtRp1729
(dp1730
g62
(dp1731
sg71
g1045
sg64
(lp1732
g57
(g78
g59
NtRp1733
(dp1734
g62
(dp1735
g82
g83
ssg71
g1729
sg64
(lp1736
S'server_port'
p1737
asbag57
(g78
g59
NtRp1738
(dp1739
g62
(dp1740
g89
g90
ssg71
g1729
sg64
(lp1741
S':'
asbag57
(g78
g59
NtRp1742
(dp1743
g62
(dp1744
sg71
g1729
sg64
(lp1745
g57
(g58
g59
NtRp1746
(dp1747
g62
(dp1748
g70
I4
ssg71
g1742
sg64
(lp1749
S'8001'
p1750
asbasbasbag57
(g73
g59
NtRp1751
(dp1752
g62
(dp1753
sg71
g1045
sg64
(lp1754
g57
(g78
g59
NtRp1755
(dp1756
g62
(dp1757
g82
g83
ssg71
g1751
sg64
(lp1758
S'server_protocol'
p1759
asbag57
(g78
g59
NtRp1760
(dp1761
g62
(dp1762
g89
g90
ssg71
g1751
sg64
(lp1763
S':'
asbag57
(g78
g59
NtRp1764
(dp1765
g62
(dp1766
sg71
g1751
sg64
(lp1767
g57
(g58
g59
NtRp1768
(dp1769
g62
(dp1770
g70
I4
ssg71
g1764
sg64
(lp1771
S'HTTP/1.1'
p1772
asbasbasbag57
(g73
g59
NtRp1773
(dp1774
g62
(dp1775
sg71
g1045
sg64
(lp1776
g57
(g78
g59
NtRp1777
(dp1778
g62
(dp1779
g82
g83
ssg71
g1773
sg64
(lp1780
S'server_software'
p1781
asbag57
(g78
g59
NtRp1782
(dp1783
g62
(dp1784
g89
g90
ssg71
g1773
sg64
(lp1785
S':'
asbag57
(g78
g59
NtRp1786
(dp1787
g62
(dp1788
sg71
g1773
sg64
(lp1789
g57
(g58
g59
NtRp1790
(dp1791
g62
(dp1792
g70
I4
ssg71
g1786
sg64
(lp1793
S'Rocket 1.2.6'
p1794
asbasbasbag57
(g73
g59
NtRp1795
(dp1796
g62
(dp1797
sg71
g1045
sg64
(lp1798
g57
(g78
g59
NtRp1799
(dp1800
g62
(dp1801
g82
g83
ssg71
g1795
sg64
(lp1802
S'web2py_path'
p1803
asbag57
(g78
g59
NtRp1804
(dp1805
g62
(dp1806
g89
g90
ssg71
g1795
sg64
(lp1807
S':'
asbag57
(g78
g59
NtRp1808
(dp1809
g62
(dp1810
sg71
g1795
sg64
(lp1811
g57
(g58
g59
NtRp1812
(dp1813
g62
(dp1814
g70
I4
ssg71
g1808
sg64
(lp1815
g1092
asbasbasbag57
(g73
g59
NtRp1816
(dp1817
g62
(dp1818
sg71
g1045
sg64
(lp1819
g57
(g78
g59
NtRp1820
(dp1821
g62
(dp1822
g82
g83
ssg71
g1816
sg64
(lp1823
S'web2py_version'
p1824
asbag57
(g78
g59
NtRp1825
(dp1826
g62
(dp1827
g89
g90
ssg71
g1816
sg64
(lp1828
S':'
asbag57
(g78
g59
NtRp1829
(dp1830
g62
(dp1831
sg71
g1816
sg64
(lp1832
g57
(g58
g59
NtRp1833
(dp1834
g62
(dp1835
g70
I4
ssg71
g1829
sg64
(lp1836
g57
(g66
g59
NtRp1837
(dp1838
g62
(dp1839
g70
I3
ssg71
Nsg64
(lp1840
g57
(g73
g59
NtRp1841
(dp1842
g62
(dp1843
sg71
g1837
sg64
(lp1844
g57
(g78
g59
NtRp1845
(dp1846
g62
(dp1847
sg71
g1841
sg64
(lp1848
g57
(g58
g59
NtRp1849
(dp1850
g62
(dp1851
g70
I3
ssg71
g1845
sg64
(lp1852
S'2'
asbasbasbag57
(g73
g59
NtRp1853
(dp1854
g62
(dp1855
sg71
g1837
sg64
(lp1856
g57
(g78
g59
NtRp1857
(dp1858
g62
(dp1859
sg71
g1853
sg64
(lp1860
g57
(g58
g59
NtRp1861
(dp1862
g62
(dp1863
g70
I3
ssg71
g1857
sg64
(lp1864
S'3'
asbasbasbag57
(g73
g59
NtRp1865
(dp1866
g62
(dp1867
sg71
g1837
sg64
(lp1868
g57
(g78
g59
NtRp1869
(dp1870
g62
(dp1871
sg71
g1865
sg64
(lp1872
g57
(g58
g59
NtRp1873
(dp1874
g62
(dp1875
g70
I3
ssg71
g1869
sg64
(lp1876
S'2'
asbasbasbag57
(g73
g59
NtRp1877
(dp1878
g62
(dp1879
sg71
g1837
sg64
(lp1880
g57
(g78
g59
NtRp1881
(dp1882
g62
(dp1883
sg71
g1877
sg64
(lp1884
g57
(g58
g59
NtRp1885
(dp1886
g62
(dp1887
g70
I3
ssg71
g1881
sg64
(lp1888
S'datetime.datetime(2012, 12, 17, 15, 3, 30)'
p1889
asbasbasbag57
(g73
g59
NtRp1890
(dp1891
g62
(dp1892
sg71
g1837
sg64
(lp1893
g57
(g78
g59
NtRp1894
(dp1895
g62
(dp1896
sg71
g1890
sg64
(lp1897
g57
(g58
g59
NtRp1898
(dp1899
g62
(dp1900
g70
I3
ssg71
g1894
sg64
(lp1901
S'stable'
p1902
asbasbasbasbasbasbasbag57
(g73
g59
NtRp1903
(dp1904
g62
(dp1905
sg71
g1045
sg64
(lp1906
g57
(g78
g59
NtRp1907
(dp1908
g62
(dp1909
g82
g83
ssg71
g1903
sg64
(lp1910
S'wsgi_errors'
p1911
asbag57
(g78
g59
NtRp1912
(dp1913
g62
(dp1914
g89
g90
ssg71
g1903
sg64
(lp1915
S':'
asbag57
(g78
g59
NtRp1916
(dp1917
g62
(dp1918
sg71
g1903
sg64
(lp1919
g57
(g58
g59
NtRp1920
(dp1921
g62
(dp1922
g70
I4
ssg71
g1916
sg64
(lp1923
S"<open file '<stderr>', mode 'w' at 0xb78080d0>"
p1924
asbasbasbag57
(g73
g59
NtRp1925
(dp1926
g62
(dp1927
sg71
g1045
sg64
(lp1928
g57
(g78
g59
NtRp1929
(dp1930
g62
(dp1931
g82
g83
ssg71
g1925
sg64
(lp1932
S'wsgi_file_wrapper'
p1933
asbag57
(g78
g59
NtRp1934
(dp1935
g62
(dp1936
g89
g90
ssg71
g1925
sg64
(lp1937
S':'
asbag57
(g78
g59
NtRp1938
(dp1939
g62
(dp1940
sg71
g1925
sg64
(lp1941
g57
(g58
g59
NtRp1942
(dp1943
g62
(dp1944
g70
I4
ssg71
g1938
sg64
(lp1945
S'<class wsgiref.util.FileWrapper at 0x9a2dcbc>'
p1946
asbasbasbag57
(g73
g59
NtRp1947
(dp1948
g62
(dp1949
sg71
g1045
sg64
(lp1950
g57
(g78
g59
NtRp1951
(dp1952
g62
(dp1953
g82
g83
ssg71
g1947
sg64
(lp1954
S'wsgi_input'
p1955
asbag57
(g78
g59
NtRp1956
(dp1957
g62
(dp1958
g89
g90
ssg71
g1947
sg64
(lp1959
S':'
asbag57
(g78
g59
NtRp1960
(dp1961
g62
(dp1962
sg71
g1947
sg64
(lp1963
g57
(g58
g59
NtRp1964
(dp1965
g62
(dp1966
g70
I4
ssg71
g1960
sg64
(lp1967
S'<socket._fileobject object at 0xa0c2bac>'
p1968
asbasbasbag57
(g73
g59
NtRp1969
(dp1970
g62
(dp1971
sg71
g1045
sg64
(lp1972
g57
(g78
g59
NtRp1973
(dp1974
g62
(dp1975
g82
g83
ssg71
g1969
sg64
(lp1976
S'wsgi_multiprocess'
p1977
asbag57
(g78
g59
NtRp1978
(dp1979
g62
(dp1980
g89
g90
ssg71
g1969
sg64
(lp1981
S':'
asbag57
(g78
g59
NtRp1982
(dp1983
g62
(dp1984
sg71
g1969
sg64
(lp1985
g57
(g58
g59
NtRp1986
(dp1987
g62
(dp1988
g70
I4
ssg71
g1982
sg64
(lp1989
g100
asbasbasbag57
(g73
g59
NtRp1990
(dp1991
g62
(dp1992
sg71
g1045
sg64
(lp1993
g57
(g78
g59
NtRp1994
(dp1995
g62
(dp1996
g82
g83
ssg71
g1990
sg64
(lp1997
S'wsgi_multithread'
p1998
asbag57
(g78
g59
NtRp1999
(dp2000
g62
(dp2001
g89
g90
ssg71
g1990
sg64
(lp2002
S':'
asbag57
(g78
g59
NtRp2003
(dp2004
g62
(dp2005
sg71
g1990
sg64
(lp2006
g57
(g58
g59
NtRp2007
(dp2008
g62
(dp2009
g70
I4
ssg71
g2003
sg64
(lp2010
S'True'
p2011
asbasbasbag57
(g73
g59
NtRp2012
(dp2013
g62
(dp2014
sg71
g1045
sg64
(lp2015
g57
(g78
g59
NtRp2016
(dp2017
g62
(dp2018
g82
g83
ssg71
g2012
sg64
(lp2019
S'wsgi_run_once'
p2020
asbag57
(g78
g59
NtRp2021
(dp2022
g62
(dp2023
g89
g90
ssg71
g2012
sg64
(lp2024
S':'
asbag57
(g78
g59
NtRp2025
(dp2026
g62
(dp2027
sg71
g2012
sg64
(lp2028
g57
(g58
g59
NtRp2029
(dp2030
g62
(dp2031
g70
I4
ssg71
g2025
sg64
(lp2032
g100
asbasbasbag57
(g73
g59
NtRp2033
(dp2034
g62
(dp2035
sg71
g1045
sg64
(lp2036
g57
(g78
g59
NtRp2037
(dp2038
g62
(dp2039
g82
g83
ssg71
g2033
sg64
(lp2040
S'wsgi_url_scheme'
p2041
asbag57
(g78
g59
NtRp2042
(dp2043
g62
(dp2044
g89
g90
ssg71
g2033
sg64
(lp2045
S':'
asbag57
(g78
g59
NtRp2046
(dp2047
g62
(dp2048
sg71
g2033
sg64
(lp2049
g57
(g58
g59
NtRp2050
(dp2051
g62
(dp2052
g70
I4
ssg71
g2046
sg64
(lp2053
S'http'
p2054
asbasbasbag57
(g73
g59
NtRp2055
(dp2056
g62
(dp2057
sg71
g1045
sg64
(lp2058
g57
(g78
g59
NtRp2059
(dp2060
g62
(dp2061
g82
g83
ssg71
g2055
sg64
(lp2062
S'wsgi_version'
p2063
asbag57
(g78
g59
NtRp2064
(dp2065
g62
(dp2066
g89
g90
ssg71
g2055
sg64
(lp2067
S':'
asbag57
(g78
g59
NtRp2068
(dp2069
g62
(dp2070
sg71
g2055
sg64
(lp2071
g57
(g58
g59
NtRp2072
(dp2073
g62
(dp2074
g70
I4
ssg71
g2068
sg64
(lp2075
g57
(g66
g59
NtRp2076
(dp2077
g62
(dp2078
g70
I3
ssg71
Nsg64
(lp2079
g57
(g73
g59
NtRp2080
(dp2081
g62
(dp2082
sg71
g2076
sg64
(lp2083
g57
(g78
g59
NtRp2084
(dp2085
g62
(dp2086
sg71
g2080
sg64
(lp2087
g57
(g58
g59
NtRp2088
(dp2089
g62
(dp2090
g70
I3
ssg71
g2084
sg64
(lp2091
S'1'
asbasbasbag57
(g73
g59
NtRp2092
(dp2093
g62
(dp2094
sg71
g2076
sg64
(lp2095
g57
(g78
g59
NtRp2096
(dp2097
g62
(dp2098
sg71
g2092
sg64
(lp2099
g57
(g58
g59
NtRp2100
(dp2101
g62
(dp2102
g70
I3
ssg71
g2096
sg64
(lp2103
S'0'
asbasbasbasbasbasbasbasbasbasbasbag57
(g73
g59
NtRp2104
(dp2105
g62
(dp2106
sg71
g67
sg64
(lp2107
g57
(g78
g59
NtRp2108
(dp2109
g62
(dp2110
g82
g83
ssg71
g2104
sg64
(lp2111
S'extension'
p2112
asbag57
(g78
g59
NtRp2113
(dp2114
g62
(dp2115
g89
g90
ssg71
g2104
sg64
(lp2116
S':'
asbag57
(g78
g59
NtRp2117
(dp2118
g62
(dp2119
sg71
g2104
sg64
(lp2120
g57
(g58
g59
NtRp2121
(dp2122
g62
(dp2123
g70
I5
ssg71
g2117
sg64
(lp2124
S'html'
p2125
asbasbasbag57
(g73
g59
NtRp2126
(dp2127
g62
(dp2128
sg71
g67
sg64
(lp2129
g57
(g78
g59
NtRp2130
(dp2131
g62
(dp2132
g82
g83
ssg71
g2126
sg64
(lp2133
S'folder'
p2134
asbag57
(g78
g59
NtRp2135
(dp2136
g62
(dp2137
g89
g90
ssg71
g2126
sg64
(lp2138
S':'
asbag57
(g78
g59
NtRp2139
(dp2140
g62
(dp2141
sg71
g2126
sg64
(lp2142
g57
(g58
g59
NtRp2143
(dp2144
g62
(dp2145
g70
I5
ssg71
g2139
sg64
(lp2146
S'/home/pratyush/web2py/applications/BuySell/'
p2147
asbasbasbag57
(g73
g59
NtRp2148
(dp2149
g62
(dp2150
sg71
g67
sg64
(lp2151
g57
(g78
g59
NtRp2152
(dp2153
g62
(dp2154
g82
g83
ssg71
g2148
sg64
(lp2155
S'function'
p2156
asbag57
(g78
g59
NtRp2157
(dp2158
g62
(dp2159
g89
g90
ssg71
g2148
sg64
(lp2160
S':'
asbag57
(g78
g59
NtRp2161
(dp2162
g62
(dp2163
sg71
g2148
sg64
(lp2164
g57
(g58
g59
NtRp2165
(dp2166
g62
(dp2167
g70
I5
ssg71
g2161
sg64
(lp2168
S'categories'
p2169
asbasbasbag57
(g73
g59
NtRp2170
(dp2171
g62
(dp2172
sg71
g67
sg64
(lp2173
g57
(g78
g59
NtRp2174
(dp2175
g62
(dp2176
g82
g83
ssg71
g2170
sg64
(lp2177
S'get_vars'
p2178
asbag57
(g78
g59
NtRp2179
(dp2180
g62
(dp2181
g89
g90
ssg71
g2170
sg64
(lp2182
S':'
asbag57
(g78
g59
NtRp2183
(dp2184
g62
(dp2185
sg71
g2170
sg64
(lp2186
g57
(g58
g59
NtRp2187
(dp2188
g62
(dp2189
g70
I5
ssg71
g2183
sg64
(lp2190
g57
(g66
g59
NtRp2191
(dp2192
g62
(dp2193
g70
I4
ssg71
Nsg64
(lp2194
sbasbasbasbag57
(g73
g59
NtRp2195
(dp2196
g62
(dp2197
sg71
g67
sg64
(lp2198
g57
(g78
g59
NtRp2199
(dp2200
g62
(dp2201
g82
g83
ssg71
g2195
sg64
(lp2202
S'global_settings'
p2203
asbag57
(g78
g59
NtRp2204
(dp2205
g62
(dp2206
g89
g90
ssg71
g2195
sg64
(lp2207
S':'
asbag57
(g78
g59
NtRp2208
(dp2209
g62
(dp2210
sg71
g2195
sg64
(lp2211
g57
(g58
g59
NtRp2212
(dp2213
g62
(dp2214
g70
I5
ssg71
g2208
sg64
(lp2215
g57
(g66
g59
NtRp2216
(dp2217
g62
(dp2218
g70
I4
ssg71
Nsg64
(lp2219
g57
(g73
g59
NtRp2220
(dp2221
g62
(dp2222
sg71
g2216
sg64
(lp2223
g57
(g78
g59
NtRp2224
(dp2225
g62
(dp2226
g82
g83
ssg71
g2220
sg64
(lp2227
g1057
asbag57
(g78
g59
NtRp2228
(dp2229
g62
(dp2230
g89
g90
ssg71
g2220
sg64
(lp2231
S':'
asbag57
(g78
g59
NtRp2232
(dp2233
g62
(dp2234
sg71
g2220
sg64
(lp2235
g57
(g58
g59
NtRp2236
(dp2237
g62
(dp2238
g70
I4
ssg71
g2232
sg64
(lp2239
S"set(['/home/pratyush/web2py/applications/welcome/', '/home/pratyush/web2py/applications/BuySell/', '/home/pratyush/web2py/applications/admin/'])"
p2240
asbasbasbag57
(g73
g59
NtRp2241
(dp2242
g62
(dp2243
sg71
g2216
sg64
(lp2244
g57
(g78
g59
NtRp2245
(dp2246
g62
(dp2247
g82
g83
ssg71
g2241
sg64
(lp2248
g1079
asbag57
(g78
g59
NtRp2249
(dp2250
g62
(dp2251
g89
g90
ssg71
g2241
sg64
(lp2252
S':'
asbag57
(g78
g59
NtRp2253
(dp2254
g62
(dp2255
sg71
g2241
sg64
(lp2256
g57
(g58
g59
NtRp2257
(dp2258
g62
(dp2259
g70
I4
ssg71
g2253
sg64
(lp2260
g1092
asbasbasbag57
(g73
g59
NtRp2261
(dp2262
g62
(dp2263
sg71
g2216
sg64
(lp2264
g57
(g78
g59
NtRp2265
(dp2266
g62
(dp2267
g82
g83
ssg71
g2261
sg64
(lp2268
g1101
asbag57
(g78
g59
NtRp2269
(dp2270
g62
(dp2271
g89
g90
ssg71
g2261
sg64
(lp2272
S':'
asbag57
(g78
g59
NtRp2273
(dp2274
g62
(dp2275
sg71
g2261
sg64
(lp2276
g57
(g58
g59
NtRp2277
(dp2278
g62
(dp2279
g70
I4
ssg71
g2273
sg64
(lp2280
g57
(g66
g59
NtRp2281
(dp2282
g62
(dp2283
g70
I3
ssg71
Nsg64
(lp2284
sbasbasbasbag57
(g73
g59
NtRp2285
(dp2286
g62
(dp2287
sg71
g2216
sg64
(lp2288
g57
(g78
g59
NtRp2289
(dp2290
g62
(dp2291
g82
g83
ssg71
g2285
sg64
(lp2292
g1126
asbag57
(g78
g59
NtRp2293
(dp2294
g62
(dp2295
g89
g90
ssg71
g2285
sg64
(lp2296
S':'
asbag57
(g78
g59
NtRp2297
(dp2298
g62
(dp2299
sg71
g2285
sg64
(lp2300
g57
(g58
g59
NtRp2301
(dp2302
g62
(dp2303
g70
I4
ssg71
g2297
sg64
(lp2304
S"<Values at 0x9a8004c: {'verbose': False, 'ip': '127.0.0.1', 'with_scheduler': False, 'ips': [], 'shutdown_timeout': 5, 'taskbar': False, 'port': 8001, 'maxthreads': None, 'softcron': False, 'server_name': 'alanzak', 'bpython': False, 'nogui': False, 'pid_filename': 'httpserver.pid', 'extcron': False, 'runcron': False, 'run_system_tests': False, 'test': None, 'folder': '/home/pratyush/web2py', 'config': '', 'import_models': False, 'winservice': '', 'shell': None, 'run': '', 'log_filename': 'httpserver.log', 'debuglevel': 30, 'args': [''], 'socket_timeout': 5, 'ssl_ca_certificate': None, 'scheduler': None, 'profiler_filename': None, 'ssl_private_key': '', 'scheduler_groups': None, 'password': '1', 'request_queue_size': 5, 'ssl_certificate': '', 'cronjob': False, 'numthreads': None, 'quiet': False, 'interfaces': None, 'minthreads': None, 'timeout': 10, 'plain': False, 'nobanner': False}>"
p2305
asbasbasbag57
(g73
g59
NtRp2306
(dp2307
g62
(dp2308
sg71
g2216
sg64
(lp2309
g57
(g78
g59
NtRp2310
(dp2311
g62
(dp2312
g82
g83
ssg71
g2306
sg64
(lp2313
g1148
asbag57
(g78
g59
NtRp2314
(dp2315
g62
(dp2316
g89
g90
ssg71
g2306
sg64
(lp2317
S':'
asbag57
(g78
g59
NtRp2318
(dp2319
g62
(dp2320
sg71
g2306
sg64
(lp2321
g57
(g58
g59
NtRp2322
(dp2323
g62
(dp2324
g70
I4
ssg71
g2318
sg64
(lp2325
S'set([])'
p2326
asbasbasbag57
(g73
g59
NtRp2327
(dp2328
g62
(dp2329
sg71
g2216
sg64
(lp2330
g57
(g78
g59
NtRp2331
(dp2332
g62
(dp2333
g82
g83
ssg71
g2327
sg64
(lp2334
g1170
asbag57
(g78
g59
NtRp2335
(dp2336
g62
(dp2337
g89
g90
ssg71
g2327
sg64
(lp2338
S':'
asbag57
(g78
g59
NtRp2339
(dp2340
g62
(dp2341
sg71
g2327
sg64
(lp2342
g57
(g58
g59
NtRp2343
(dp2344
g62
(dp2345
g70
I4
ssg71
g2339
sg64
(lp2346
g100
asbasbasbag57
(g73
g59
NtRp2347
(dp2348
g62
(dp2349
sg71
g2216
sg64
(lp2350
g57
(g78
g59
NtRp2351
(dp2352
g62
(dp2353
g82
g83
ssg71
g2347
sg64
(lp2354
g1191
asbag57
(g78
g59
NtRp2355
(dp2356
g62
(dp2357
g89
g90
ssg71
g2347
sg64
(lp2358
S':'
asbag57
(g78
g59
NtRp2359
(dp2360
g62
(dp2361
sg71
g2347
sg64
(lp2362
g57
(g58
g59
NtRp2363
(dp2364
g62
(dp2365
g70
I4
ssg71
g2359
sg64
(lp2366
g1204
asbasbasbag57
(g73
g59
NtRp2367
(dp2368
g62
(dp2369
sg71
g2216
sg64
(lp2370
g57
(g78
g59
NtRp2371
(dp2372
g62
(dp2373
g82
g83
ssg71
g2367
sg64
(lp2374
g1433
asbag57
(g78
g59
NtRp2375
(dp2376
g62
(dp2377
g89
g90
ssg71
g2367
sg64
(lp2378
S':'
asbag57
(g78
g59
NtRp2379
(dp2380
g62
(dp2381
sg71
g2367
sg64
(lp2382
g57
(g58
g59
NtRp2383
(dp2384
g62
(dp2385
g70
I4
ssg71
g2379
sg64
(lp2386
g100
asbasbasbag57
(g73
g59
NtRp2387
(dp2388
g62
(dp2389
sg71
g2216
sg64
(lp2390
g57
(g78
g59
NtRp2391
(dp2392
g62
(dp2393
g82
g83
ssg71
g2387
sg64
(lp2394
g1454
asbag57
(g78
g59
NtRp2395
(dp2396
g62
(dp2397
g89
g90
ssg71
g2387
sg64
(lp2398
S':'
asbag57
(g78
g59
NtRp2399
(dp2400
g62
(dp2401
sg71
g2387
sg64
(lp2402
g57
(g58
g59
NtRp2403
(dp2404
g62
(dp2405
g70
I4
ssg71
g2399
sg64
(lp2406
g100
asbasbasbag57
(g73
g59
NtRp2407
(dp2408
g62
(dp2409
sg71
g2216
sg64
(lp2410
g57
(g78
g59
NtRp2411
(dp2412
g62
(dp2413
g82
g83
ssg71
g2407
sg64
(lp2414
g1475
asbag57
(g78
g59
NtRp2415
(dp2416
g62
(dp2417
g89
g90
ssg71
g2407
sg64
(lp2418
S':'
asbag57
(g78
g59
NtRp2419
(dp2420
g62
(dp2421
sg71
g2407
sg64
(lp2422
g57
(g58
g59
NtRp2423
(dp2424
g62
(dp2425
g70
I4
ssg71
g2419
sg64
(lp2426
g57
(g66
g59
NtRp2427
(dp2428
g62
(dp2429
g70
I3
ssg71
Nsg64
(lp2430
g57
(g73
g59
NtRp2431
(dp2432
g62
(dp2433
sg71
g2427
sg64
(lp2434
g57
(g78
g59
NtRp2435
(dp2436
g62
(dp2437
sg71
g2431
sg64
(lp2438
g57
(g58
g59
NtRp2439
(dp2440
g62
(dp2441
g70
I3
ssg71
g2435
sg64
(lp2442
g1504
asbasbasbag57
(g73
g59
NtRp2443
(dp2444
g62
(dp2445
sg71
g2427
sg64
(lp2446
g57
(g78
g59
NtRp2447
(dp2448
g62
(dp2449
sg71
g2443
sg64
(lp2450
g57
(g58
g59
NtRp2451
(dp2452
g62
(dp2453
g70
I3
ssg71
g2447
sg64
(lp2454
g1517
asbasbasbag57
(g73
g59
NtRp2455
(dp2456
g62
(dp2457
sg71
g2427
sg64
(lp2458
g57
(g78
g59
NtRp2459
(dp2460
g62
(dp2461
sg71
g2455
sg64
(lp2462
g57
(g58
g59
NtRp2463
(dp2464
g62
(dp2465
g70
I3
ssg71
g2459
sg64
(lp2466
g1530
asbasbasbag57
(g73
g59
NtRp2467
(dp2468
g62
(dp2469
sg71
g2427
sg64
(lp2470
g57
(g78
g59
NtRp2471
(dp2472
g62
(dp2473
sg71
g2467
sg64
(lp2474
g57
(g58
g59
NtRp2475
(dp2476
g62
(dp2477
g70
I3
ssg71
g2471
sg64
(lp2478
g1543
asbasbasbag57
(g73
g59
NtRp2479
(dp2480
g62
(dp2481
sg71
g2427
sg64
(lp2482
g57
(g78
g59
NtRp2483
(dp2484
g62
(dp2485
sg71
g2479
sg64
(lp2486
g57
(g58
g59
NtRp2487
(dp2488
g62
(dp2489
g70
I3
ssg71
g2483
sg64
(lp2490
g1556
asbasbasbasbasbasbasbag57
(g73
g59
NtRp2491
(dp2492
g62
(dp2493
sg71
g2216
sg64
(lp2494
g57
(g78
g59
NtRp2495
(dp2496
g62
(dp2497
g82
g83
ssg71
g2491
sg64
(lp2498
g1824
asbag57
(g78
g59
NtRp2499
(dp2500
g62
(dp2501
g89
g90
ssg71
g2491
sg64
(lp2502
S':'
asbag57
(g78
g59
NtRp2503
(dp2504
g62
(dp2505
sg71
g2491
sg64
(lp2506
g57
(g58
g59
NtRp2507
(dp2508
g62
(dp2509
g70
I4
ssg71
g2503
sg64
(lp2510
g57
(g66
g59
NtRp2511
(dp2512
g62
(dp2513
g70
I3
ssg71
Nsg64
(lp2514
g57
(g73
g59
NtRp2515
(dp2516
g62
(dp2517
sg71
g2511
sg64
(lp2518
g57
(g78
g59
NtRp2519
(dp2520
g62
(dp2521
sg71
g2515
sg64
(lp2522
g57
(g58
g59
NtRp2523
(dp2524
g62
(dp2525
g70
I3
ssg71
g2519
sg64
(lp2526
S'2'
asbasbasbag57
(g73
g59
NtRp2527
(dp2528
g62
(dp2529
sg71
g2511
sg64
(lp2530
g57
(g78
g59
NtRp2531
(dp2532
g62
(dp2533
sg71
g2527
sg64
(lp2534
g57
(g58
g59
NtRp2535
(dp2536
g62
(dp2537
g70
I3
ssg71
g2531
sg64
(lp2538
S'3'
asbasbasbag57
(g73
g59
NtRp2539
(dp2540
g62
(dp2541
sg71
g2511
sg64
(lp2542
g57
(g78
g59
NtRp2543
(dp2544
g62
(dp2545
sg71
g2539
sg64
(lp2546
g57
(g58
g59
NtRp2547
(dp2548
g62
(dp2549
g70
I3
ssg71
g2543
sg64
(lp2550
S'2'
asbasbasbag57
(g73
g59
NtRp2551
(dp2552
g62
(dp2553
sg71
g2511
sg64
(lp2554
g57
(g78
g59
NtRp2555
(dp2556
g62
(dp2557
sg71
g2551
sg64
(lp2558
g57
(g58
g59
NtRp2559
(dp2560
g62
(dp2561
g70
I3
ssg71
g2555
sg64
(lp2562
S'datetime.datetime(2012, 12, 17, 15, 3, 30)'
p2563
asbasbasbag57
(g73
g59
NtRp2564
(dp2565
g62
(dp2566
sg71
g2511
sg64
(lp2567
g57
(g78
g59
NtRp2568
(dp2569
g62
(dp2570
sg71
g2564
sg64
(lp2571
g57
(g58
g59
NtRp2572
(dp2573
g62
(dp2574
g70
I3
ssg71
g2568
sg64
(lp2575
g1902
asbasbasbasbasbasbasbasbasbasbasbag57
(g73
g59
NtRp2576
(dp2577
g62
(dp2578
sg71
g67
sg64
(lp2579
g57
(g78
g59
NtRp2580
(dp2581
g62
(dp2582
g82
g83
ssg71
g2576
sg64
(lp2583
S'is_https'
p2584
asbag57
(g78
g59
NtRp2585
(dp2586
g62
(dp2587
g89
g90
ssg71
g2576
sg64
(lp2588
S':'
asbag57
(g78
g59
NtRp2589
(dp2590
g62
(dp2591
sg71
g2576
sg64
(lp2592
g57
(g58
g59
NtRp2593
(dp2594
g62
(dp2595
g70
I5
ssg71
g2589
sg64
(lp2596
g100
asbasbasbag57
(g73
g59
NtRp2597
(dp2598
g62
(dp2599
sg71
g67
sg64
(lp2600
g57
(g78
g59
NtRp2601
(dp2602
g62
(dp2603
g82
g83
ssg71
g2597
sg64
(lp2604
S'is_local'
p2605
asbag57
(g78
g59
NtRp2606
(dp2607
g62
(dp2608
g89
g90
ssg71
g2597
sg64
(lp2609
S':'
asbag57
(g78
g59
NtRp2610
(dp2611
g62
(dp2612
sg71
g2597
sg64
(lp2613
g57
(g58
g59
NtRp2614
(dp2615
g62
(dp2616
g70
I5
ssg71
g2610
sg64
(lp2617
g2011
asbasbasbag57
(g73
g59
NtRp2618
(dp2619
g62
(dp2620
sg71
g67
sg64
(lp2621
g57
(g78
g59
NtRp2622
(dp2623
g62
(dp2624
g82
g83
ssg71
g2618
sg64
(lp2625
S'is_restful'
p2626
asbag57
(g78
g59
NtRp2627
(dp2628
g62
(dp2629
g89
g90
ssg71
g2618
sg64
(lp2630
S':'
asbag57
(g78
g59
NtRp2631
(dp2632
g62
(dp2633
sg71
g2618
sg64
(lp2634
g57
(g58
g59
NtRp2635
(dp2636
g62
(dp2637
g70
I5
ssg71
g2631
sg64
(lp2638
g100
asbasbasbag57
(g73
g59
NtRp2639
(dp2640
g62
(dp2641
sg71
g67
sg64
(lp2642
g57
(g78
g59
NtRp2643
(dp2644
g62
(dp2645
g82
g83
ssg71
g2639
sg64
(lp2646
S'now'
p2647
asbag57
(g78
g59
NtRp2648
(dp2649
g62
(dp2650
g89
g90
ssg71
g2639
sg64
(lp2651
S':'
asbag57
(g78
g59
NtRp2652
(dp2653
g62
(dp2654
sg71
g2639
sg64
(lp2655
g57
(g58
g59
NtRp2656
(dp2657
g62
(dp2658
g70
I5
ssg71
g2652
sg64
(lp2659
S'datetime.datetime(2013, 4, 23, 11, 5, 45, 242375)'
p2660
asbasbasbag57
(g73
g59
NtRp2661
(dp2662
g62
(dp2663
sg71
g67
sg64
(lp2664
g57
(g78
g59
NtRp2665
(dp2666
g62
(dp2667
g82
g83
ssg71
g2661
sg64
(lp2668
S'post_vars'
p2669
asbag57
(g78
g59
NtRp2670
(dp2671
g62
(dp2672
g89
g90
ssg71
g2661
sg64
(lp2673
S':'
asbag57
(g78
g59
NtRp2674
(dp2675
g62
(dp2676
sg71
g2661
sg64
(lp2677
g57
(g58
g59
NtRp2678
(dp2679
g62
(dp2680
g70
I5
ssg71
g2674
sg64
(lp2681
g57
(g66
g59
NtRp2682
(dp2683
g62
(dp2684
g70
I4
ssg71
Nsg64
(lp2685
sbasbasbasbag57
(g73
g59
NtRp2686
(dp2687
g62
(dp2688
sg71
g67
sg64
(lp2689
g57
(g78
g59
NtRp2690
(dp2691
g62
(dp2692
g82
g83
ssg71
g2686
sg64
(lp2693
S'raw_args'
p2694
asbag57
(g78
g59
NtRp2695
(dp2696
g62
(dp2697
g89
g90
ssg71
g2686
sg64
(lp2698
S':'
asbag57
(g78
g59
NtRp2699
(dp2700
g62
(dp2701
sg71
g2686
sg64
(lp2702
g57
(g58
g59
NtRp2703
(dp2704
g62
(dp2705
g70
I5
ssg71
g2699
sg64
(lp2706
S'4'
asbasbasbag57
(g73
g59
NtRp2707
(dp2708
g62
(dp2709
sg71
g67
sg64
(lp2710
g57
(g78
g59
NtRp2711
(dp2712
g62
(dp2713
g82
g83
ssg71
g2707
sg64
(lp2714
S'raw_extension'
p2715
asbag57
(g78
g59
NtRp2716
(dp2717
g62
(dp2718
g89
g90
ssg71
g2707
sg64
(lp2719
S':'
asbag57
(g78
g59
NtRp2720
(dp2721
g62
(dp2722
sg71
g2707
sg64
(lp2723
g57
(g58
g59
NtRp2724
(dp2725
g62
(dp2726
g70
I5
ssg71
g2720
sg64
(lp2727
S'None'
p2728
asbasbasbag57
(g73
g59
NtRp2729
(dp2730
g62
(dp2731
sg71
g67
sg64
(lp2732
g57
(g78
g59
NtRp2733
(dp2734
g62
(dp2735
g82
g83
ssg71
g2729
sg64
(lp2736
S'url'
p2737
asbag57
(g78
g59
NtRp2738
(dp2739
g62
(dp2740
g89
g90
ssg71
g2729
sg64
(lp2741
S':'
asbag57
(g78
g59
NtRp2742
(dp2743
g62
(dp2744
sg71
g2729
sg64
(lp2745
g57
(g58
g59
NtRp2746
(dp2747
g62
(dp2748
g70
I5
ssg71
g2742
sg64
(lp2749
g1578
asbasbasbag57
(g73
g59
NtRp2750
(dp2751
g62
(dp2752
sg71
g67
sg64
(lp2753
g57
(g78
g59
NtRp2754
(dp2755
g62
(dp2756
g82
g83
ssg71
g2750
sg64
(lp2757
S'utcnow'
p2758
asbag57
(g78
g59
NtRp2759
(dp2760
g62
(dp2761
g89
g90
ssg71
g2750
sg64
(lp2762
S':'
asbag57
(g78
g59
NtRp2763
(dp2764
g62
(dp2765
sg71
g2750
sg64
(lp2766
g57
(g58
g59
NtRp2767
(dp2768
g62
(dp2769
g70
I5
ssg71
g2763
sg64
(lp2770
S'datetime.datetime(2013, 4, 23, 5, 35, 45, 242405)'
p2771
asbasbasbag57
(g73
g59
NtRp2772
(dp2773
g62
(dp2774
sg71
g67
sg64
(lp2775
g57
(g78
g59
NtRp2776
(dp2777
g62
(dp2778
g82
g83
ssg71
g2772
sg64
(lp2779
S'uuid'
p2780
asbag57
(g78
g59
NtRp2781
(dp2782
g62
(dp2783
g89
g90
ssg71
g2772
sg64
(lp2784
S':'
asbag57
(g78
g59
NtRp2785
(dp2786
g62
(dp2787
sg71
g2772
sg64
(lp2788
g57
(g58
g59
NtRp2789
(dp2790
g62
(dp2791
g70
I5
ssg71
g2785
sg64
(lp2792
S'BuySell/127.0.0.1.2013-04-23.11-05-45.1e66ec7b-9bb7-438d-a9dd-793021d964e6'
p2793
asbasbasbag57
(g73
g59
NtRp2794
(dp2795
g62
(dp2796
sg71
g67
sg64
(lp2797
g57
(g78
g59
NtRp2798
(dp2799
g62
(dp2800
g82
g83
ssg71
g2794
sg64
(lp2801
S'vars'
p2802
asbag57
(g78
g59
NtRp2803
(dp2804
g62
(dp2805
g89
g90
ssg71
g2794
sg64
(lp2806
S':'
asbag57
(g78
g59
NtRp2807
(dp2808
g62
(dp2809
sg71
g2794
sg64
(lp2810
g57
(g58
g59
NtRp2811
(dp2812
g62
(dp2813
g70
I5
ssg71
g2807
sg64
(lp2814
g57
(g66
g59
NtRp2815
(dp2816
g62
(dp2817
g70
I4
ssg71
Nsg64
(lp2818
sbasbasbasbag57
(g73
g59
NtRp2819
(dp2820
g62
(dp2821
sg71
g67
sg64
(lp2822
g57
(g78
g59
NtRp2823
(dp2824
g62
(dp2825
g82
g83
ssg71
g2819
sg64
(lp2826
S'wsgi'
p2827
asbag57
(g78
g59
NtRp2828
(dp2829
g62
(dp2830
g89
g90
ssg71
g2819
sg64
(lp2831
S':'
asbag57
(g78
g59
NtRp2832
(dp2833
g62
(dp2834
sg71
g2819
sg64
(lp2835
g57
(g58
g59
NtRp2836
(dp2837
g62
(dp2838
g70
I5
ssg71
g2832
sg64
(lp2839
g57
(g66
g59
NtRp2840
(dp2841
g62
(dp2842
g70
I4
ssg71
Nsg64
(lp2843
g57
(g73
g59
NtRp2844
(dp2845
g62
(dp2846
sg71
g2840
sg64
(lp2847
g57
(g78
g59
NtRp2848
(dp2849
g62
(dp2850
g82
g83
ssg71
g2844
sg64
(lp2851
S'environ'
p2852
asbag57
(g78
g59
NtRp2853
(dp2854
g62
(dp2855
g89
g90
ssg71
g2844
sg64
(lp2856
S':'
asbag57
(g78
g59
NtRp2857
(dp2858
g62
(dp2859
sg71
g2844
sg64
(lp2860
g57
(g58
g59
NtRp2861
(dp2862
g62
(dp2863
g70
I4
ssg71
g2857
sg64
(lp2864
g57
(g66
g59
NtRp2865
(dp2866
g62
(dp2867
g70
I3
ssg71
Nsg64
(lp2868
g57
(g73
g59
NtRp2869
(dp2870
g62
(dp2871
sg71
g2865
sg64
(lp2872
g57
(g78
g59
NtRp2873
(dp2874
g62
(dp2875
g82
g83
ssg71
g2869
sg64
(lp2876
S'HTTP_ACCEPT'
p2877
asbag57
(g78
g59
NtRp2878
(dp2879
g62
(dp2880
g89
g90
ssg71
g2869
sg64
(lp2881
S':'
asbag57
(g78
g59
NtRp2882
(dp2883
g62
(dp2884
sg71
g2869
sg64
(lp2885
g57
(g58
g59
NtRp2886
(dp2887
g62
(dp2888
g70
I3
ssg71
g2882
sg64
(lp2889
g1226
asbasbasbag57
(g73
g59
NtRp2890
(dp2891
g62
(dp2892
sg71
g2865
sg64
(lp2893
g57
(g78
g59
NtRp2894
(dp2895
g62
(dp2896
g82
g83
ssg71
g2890
sg64
(lp2897
S'HTTP_ACCEPT_CHARSET'
p2898
asbag57
(g78
g59
NtRp2899
(dp2900
g62
(dp2901
g89
g90
ssg71
g2890
sg64
(lp2902
S':'
asbag57
(g78
g59
NtRp2903
(dp2904
g62
(dp2905
sg71
g2890
sg64
(lp2906
g57
(g58
g59
NtRp2907
(dp2908
g62
(dp2909
g70
I3
ssg71
g2903
sg64
(lp2910
g1248
asbasbasbag57
(g73
g59
NtRp2911
(dp2912
g62
(dp2913
sg71
g2865
sg64
(lp2914
g57
(g78
g59
NtRp2915
(dp2916
g62
(dp2917
g82
g83
ssg71
g2911
sg64
(lp2918
S'HTTP_ACCEPT_ENCODING'
p2919
asbag57
(g78
g59
NtRp2920
(dp2921
g62
(dp2922
g89
g90
ssg71
g2911
sg64
(lp2923
S':'
asbag57
(g78
g59
NtRp2924
(dp2925
g62
(dp2926
sg71
g2911
sg64
(lp2927
g57
(g58
g59
NtRp2928
(dp2929
g62
(dp2930
g70
I3
ssg71
g2924
sg64
(lp2931
g1270
asbasbasbag57
(g73
g59
NtRp2932
(dp2933
g62
(dp2934
sg71
g2865
sg64
(lp2935
g57
(g78
g59
NtRp2936
(dp2937
g62
(dp2938
g82
g83
ssg71
g2932
sg64
(lp2939
S'HTTP_ACCEPT_LANGUAGE'
p2940
asbag57
(g78
g59
NtRp2941
(dp2942
g62
(dp2943
g89
g90
ssg71
g2932
sg64
(lp2944
S':'
asbag57
(g78
g59
NtRp2945
(dp2946
g62
(dp2947
sg71
g2932
sg64
(lp2948
g57
(g58
g59
NtRp2949
(dp2950
g62
(dp2951
g70
I3
ssg71
g2945
sg64
(lp2952
g1292
asbasbasbag57
(g73
g59
NtRp2953
(dp2954
g62
(dp2955
sg71
g2865
sg64
(lp2956
g57
(g78
g59
NtRp2957
(dp2958
g62
(dp2959
g82
g83
ssg71
g2953
sg64
(lp2960
S'HTTP_CACHE_CONTROL'
p2961
asbag57
(g78
g59
NtRp2962
(dp2963
g62
(dp2964
g89
g90
ssg71
g2953
sg64
(lp2965
S':'
asbag57
(g78
g59
NtRp2966
(dp2967
g62
(dp2968
sg71
g2953
sg64
(lp2969
g57
(g58
g59
NtRp2970
(dp2971
g62
(dp2972
g70
I3
ssg71
g2966
sg64
(lp2973
g1314
asbasbasbag57
(g73
g59
NtRp2974
(dp2975
g62
(dp2976
sg71
g2865
sg64
(lp2977
g57
(g78
g59
NtRp2978
(dp2979
g62
(dp2980
g82
g83
ssg71
g2974
sg64
(lp2981
S'HTTP_CONNECTION'
p2982
asbag57
(g78
g59
NtRp2983
(dp2984
g62
(dp2985
g89
g90
ssg71
g2974
sg64
(lp2986
S':'
asbag57
(g78
g59
NtRp2987
(dp2988
g62
(dp2989
sg71
g2974
sg64
(lp2990
g57
(g58
g59
NtRp2991
(dp2992
g62
(dp2993
g70
I3
ssg71
g2987
sg64
(lp2994
g1336
asbasbasbag57
(g73
g59
NtRp2995
(dp2996
g62
(dp2997
sg71
g2865
sg64
(lp2998
g57
(g78
g59
NtRp2999
(dp3000
g62
(dp3001
g82
g83
ssg71
g2995
sg64
(lp3002
S'HTTP_COOKIE'
p3003
asbag57
(g78
g59
NtRp3004
(dp3005
g62
(dp3006
g89
g90
ssg71
g2995
sg64
(lp3007
S':'
asbag57
(g78
g59
NtRp3008
(dp3009
g62
(dp3010
sg71
g2995
sg64
(lp3011
g57
(g58
g59
NtRp3012
(dp3013
g62
(dp3014
g70
I3
ssg71
g3008
sg64
(lp3015
g1358
asbasbasbag57
(g73
g59
NtRp3016
(dp3017
g62
(dp3018
sg71
g2865
sg64
(lp3019
g57
(g78
g59
NtRp3020
(dp3021
g62
(dp3022
g82
g83
ssg71
g3016
sg64
(lp3023
S'HTTP_HOST'
p3024
asbag57
(g78
g59
NtRp3025
(dp3026
g62
(dp3027
g89
g90
ssg71
g3016
sg64
(lp3028
S':'
asbag57
(g78
g59
NtRp3029
(dp3030
g62
(dp3031
sg71
g3016
sg64
(lp3032
g57
(g58
g59
NtRp3033
(dp3034
g62
(dp3035
g70
I3
ssg71
g3029
sg64
(lp3036
g1380
asbasbasbag57
(g73
g59
NtRp3037
(dp3038
g62
(dp3039
sg71
g2865
sg64
(lp3040
g57
(g78
g59
NtRp3041
(dp3042
g62
(dp3043
g82
g83
ssg71
g3037
sg64
(lp3044
S'HTTP_REFERER'
p3045
asbag57
(g78
g59
NtRp3046
(dp3047
g62
(dp3048
g89
g90
ssg71
g3037
sg64
(lp3049
S':'
asbag57
(g78
g59
NtRp3050
(dp3051
g62
(dp3052
sg71
g3037
sg64
(lp3053
g57
(g58
g59
NtRp3054
(dp3055
g62
(dp3056
g70
I3
ssg71
g3050
sg64
(lp3057
g1402
asbasbasbag57
(g73
g59
NtRp3058
(dp3059
g62
(dp3060
sg71
g2865
sg64
(lp3061
g57
(g78
g59
NtRp3062
(dp3063
g62
(dp3064
g82
g83
ssg71
g3058
sg64
(lp3065
S'HTTP_USER_AGENT'
p3066
asbag57
(g78
g59
NtRp3067
(dp3068
g62
(dp3069
g89
g90
ssg71
g3058
sg64
(lp3070
S':'
asbag57
(g78
g59
NtRp3071
(dp3072
g62
(dp3073
sg71
g3058
sg64
(lp3074
g57
(g58
g59
NtRp3075
(dp3076
g62
(dp3077
g70
I3
ssg71
g3071
sg64
(lp3078
g1424
asbasbasbag57
(g73
g59
NtRp3079
(dp3080
g62
(dp3081
sg71
g2865
sg64
(lp3082
g57
(g78
g59
NtRp3083
(dp3084
g62
(dp3085
g82
g83
ssg71
g3079
sg64
(lp3086
S'PATH_INFO'
p3087
asbag57
(g78
g59
NtRp3088
(dp3089
g62
(dp3090
g89
g90
ssg71
g3079
sg64
(lp3091
S':'
asbag57
(g78
g59
NtRp3092
(dp3093
g62
(dp3094
sg71
g3079
sg64
(lp3095
g57
(g58
g59
NtRp3096
(dp3097
g62
(dp3098
g70
I3
ssg71
g3092
sg64
(lp3099
g1578
asbasbasbag57
(g73
g59
NtRp3100
(dp3101
g62
(dp3102
sg71
g2865
sg64
(lp3103
g57
(g78
g59
NtRp3104
(dp3105
g62
(dp3106
g82
g83
ssg71
g3100
sg64
(lp3107
S'QUERY_STRING'
p3108
asbag57
(g78
g59
NtRp3109
(dp3110
g62
(dp3111
g89
g90
ssg71
g3100
sg64
(lp3112
S':'
asbag57
(g78
g59
NtRp3113
(dp3114
g62
(dp3115
sg71
g3100
sg64
(lp3116
g57
(g58
g59
NtRp3117
(dp3118
g62
(dp3119
g70
I3
ssg71
g3113
sg64
(lp3120
S''
asbasbasbag57
(g73
g59
NtRp3121
(dp3122
g62
(dp3123
sg71
g2865
sg64
(lp3124
g57
(g78
g59
NtRp3125
(dp3126
g62
(dp3127
g82
g83
ssg71
g3121
sg64
(lp3128
S'REMOTE_ADDR'
p3129
asbag57
(g78
g59
NtRp3130
(dp3131
g62
(dp3132
g89
g90
ssg71
g3121
sg64
(lp3133
S':'
asbag57
(g78
g59
NtRp3134
(dp3135
g62
(dp3136
sg71
g3121
sg64
(lp3137
g57
(g58
g59
NtRp3138
(dp3139
g62
(dp3140
g70
I3
ssg71
g3134
sg64
(lp3141
g224
asbasbasbag57
(g73
g59
NtRp3142
(dp3143
g62
(dp3144
sg71
g2865
sg64
(lp3145
g57
(g78
g59
NtRp3146
(dp3147
g62
(dp3148
g82
g83
ssg71
g3142
sg64
(lp3149
S'REMOTE_PORT'
p3150
asbag57
(g78
g59
NtRp3151
(dp3152
g62
(dp3153
g89
g90
ssg71
g3142
sg64
(lp3154
S':'
asbag57
(g78
g59
NtRp3155
(dp3156
g62
(dp3157
sg71
g3142
sg64
(lp3158
g57
(g58
g59
NtRp3159
(dp3160
g62
(dp3161
g70
I3
ssg71
g3155
sg64
(lp3162
g1642
asbasbasbag57
(g73
g59
NtRp3163
(dp3164
g62
(dp3165
sg71
g2865
sg64
(lp3166
g57
(g78
g59
NtRp3167
(dp3168
g62
(dp3169
g82
g83
ssg71
g3163
sg64
(lp3170
S'REQUEST_METHOD'
p3171
asbag57
(g78
g59
NtRp3172
(dp3173
g62
(dp3174
g89
g90
ssg71
g3163
sg64
(lp3175
S':'
asbag57
(g78
g59
NtRp3176
(dp3177
g62
(dp3178
sg71
g3163
sg64
(lp3179
g57
(g58
g59
NtRp3180
(dp3181
g62
(dp3182
g70
I3
ssg71
g3176
sg64
(lp3183
g1664
asbasbasbag57
(g73
g59
NtRp3184
(dp3185
g62
(dp3186
sg71
g2865
sg64
(lp3187
g57
(g78
g59
NtRp3188
(dp3189
g62
(dp3190
g82
g83
ssg71
g3184
sg64
(lp3191
S'REQUEST_URI'
p3192
asbag57
(g78
g59
NtRp3193
(dp3194
g62
(dp3195
g89
g90
ssg71
g3184
sg64
(lp3196
S':'
asbag57
(g78
g59
NtRp3197
(dp3198
g62
(dp3199
sg71
g3184
sg64
(lp3200
g57
(g58
g59
NtRp3201
(dp3202
g62
(dp3203
g70
I3
ssg71
g3197
sg64
(lp3204
g1578
asbasbasbag57
(g73
g59
NtRp3205
(dp3206
g62
(dp3207
sg71
g2865
sg64
(lp3208
g57
(g78
g59
NtRp3209
(dp3210
g62
(dp3211
g82
g83
ssg71
g3205
sg64
(lp3212
S'SCRIPT_NAME'
p3213
asbag57
(g78
g59
NtRp3214
(dp3215
g62
(dp3216
g89
g90
ssg71
g3205
sg64
(lp3217
S':'
asbag57
(g78
g59
NtRp3218
(dp3219
g62
(dp3220
sg71
g3205
sg64
(lp3221
g57
(g58
g59
NtRp3222
(dp3223
g62
(dp3224
g70
I3
ssg71
g3218
sg64
(lp3225
S''
asbasbasbag57
(g73
g59
NtRp3226
(dp3227
g62
(dp3228
sg71
g2865
sg64
(lp3229
g57
(g78
g59
NtRp3230
(dp3231
g62
(dp3232
g82
g83
ssg71
g3226
sg64
(lp3233
S'SERVER_NAME'
p3234
asbag57
(g78
g59
NtRp3235
(dp3236
g62
(dp3237
g89
g90
ssg71
g3226
sg64
(lp3238
S':'
asbag57
(g78
g59
NtRp3239
(dp3240
g62
(dp3241
sg71
g3226
sg64
(lp3242
g57
(g58
g59
NtRp3243
(dp3244
g62
(dp3245
g70
I3
ssg71
g3239
sg64
(lp3246
g1728
asbasbasbag57
(g73
g59
NtRp3247
(dp3248
g62
(dp3249
sg71
g2865
sg64
(lp3250
g57
(g78
g59
NtRp3251
(dp3252
g62
(dp3253
g82
g83
ssg71
g3247
sg64
(lp3254
S'SERVER_PORT'
p3255
asbag57
(g78
g59
NtRp3256
(dp3257
g62
(dp3258
g89
g90
ssg71
g3247
sg64
(lp3259
S':'
asbag57
(g78
g59
NtRp3260
(dp3261
g62
(dp3262
sg71
g3247
sg64
(lp3263
g57
(g58
g59
NtRp3264
(dp3265
g62
(dp3266
g70
I3
ssg71
g3260
sg64
(lp3267
g1750
asbasbasbag57
(g73
g59
NtRp3268
(dp3269
g62
(dp3270
sg71
g2865
sg64
(lp3271
g57
(g78
g59
NtRp3272
(dp3273
g62
(dp3274
g82
g83
ssg71
g3268
sg64
(lp3275
S'SERVER_PROTOCOL'
p3276
asbag57
(g78
g59
NtRp3277
(dp3278
g62
(dp3279
g89
g90
ssg71
g3268
sg64
(lp3280
S':'
asbag57
(g78
g59
NtRp3281
(dp3282
g62
(dp3283
sg71
g3268
sg64
(lp3284
g57
(g58
g59
NtRp3285
(dp3286
g62
(dp3287
g70
I3
ssg71
g3281
sg64
(lp3288
g1772
asbasbasbag57
(g73
g59
NtRp3289
(dp3290
g62
(dp3291
sg71
g2865
sg64
(lp3292
g57
(g78
g59
NtRp3293
(dp3294
g62
(dp3295
g82
g83
ssg71
g3289
sg64
(lp3296
S'SERVER_SOFTWARE'
p3297
asbag57
(g78
g59
NtRp3298
(dp3299
g62
(dp3300
g89
g90
ssg71
g3289
sg64
(lp3301
S':'
asbag57
(g78
g59
NtRp3302
(dp3303
g62
(dp3304
sg71
g3289
sg64
(lp3305
g57
(g58
g59
NtRp3306
(dp3307
g62
(dp3308
g70
I3
ssg71
g3302
sg64
(lp3309
g1794
asbasbasbag57
(g73
g59
NtRp3310
(dp3311
g62
(dp3312
sg71
g2865
sg64
(lp3313
g57
(g78
g59
NtRp3314
(dp3315
g62
(dp3316
g82
g83
ssg71
g3310
sg64
(lp3317
S'wsgi.errors'
p3318
asbag57
(g78
g59
NtRp3319
(dp3320
g62
(dp3321
g89
g90
ssg71
g3310
sg64
(lp3322
S':'
asbag57
(g78
g59
NtRp3323
(dp3324
g62
(dp3325
sg71
g3310
sg64
(lp3326
g57
(g58
g59
NtRp3327
(dp3328
g62
(dp3329
g70
I3
ssg71
g3323
sg64
(lp3330
S"<open file '<stderr>', mode 'w' at 0xb78080d0>"
p3331
asbasbasbag57
(g73
g59
NtRp3332
(dp3333
g62
(dp3334
sg71
g2865
sg64
(lp3335
g57
(g78
g59
NtRp3336
(dp3337
g62
(dp3338
g82
g83
ssg71
g3332
sg64
(lp3339
S'wsgi.file_wrapper'
p3340
asbag57
(g78
g59
NtRp3341
(dp3342
g62
(dp3343
g89
g90
ssg71
g3332
sg64
(lp3344
S':'
asbag57
(g78
g59
NtRp3345
(dp3346
g62
(dp3347
sg71
g3332
sg64
(lp3348
g57
(g58
g59
NtRp3349
(dp3350
g62
(dp3351
g70
I3
ssg71
g3345
sg64
(lp3352
S'<class wsgiref.util.FileWrapper at 0x9a2dcbc>'
p3353
asbasbasbag57
(g73
g59
NtRp3354
(dp3355
g62
(dp3356
sg71
g2865
sg64
(lp3357
g57
(g78
g59
NtRp3358
(dp3359
g62
(dp3360
g82
g83
ssg71
g3354
sg64
(lp3361
S'wsgi.input'
p3362
asbag57
(g78
g59
NtRp3363
(dp3364
g62
(dp3365
g89
g90
ssg71
g3354
sg64
(lp3366
S':'
asbag57
(g78
g59
NtRp3367
(dp3368
g62
(dp3369
sg71
g3354
sg64
(lp3370
g57
(g58
g59
NtRp3371
(dp3372
g62
(dp3373
g70
I3
ssg71
g3367
sg64
(lp3374
S'<cStringIO.StringO object at 0xaad6c80>'
p3375
asbasbasbag57
(g73
g59
NtRp3376
(dp3377
g62
(dp3378
sg71
g2865
sg64
(lp3379
g57
(g78
g59
NtRp3380
(dp3381
g62
(dp3382
g82
g83
ssg71
g3376
sg64
(lp3383
S'wsgi.multiprocess'
p3384
asbag57
(g78
g59
NtRp3385
(dp3386
g62
(dp3387
g89
g90
ssg71
g3376
sg64
(lp3388
S':'
asbag57
(g78
g59
NtRp3389
(dp3390
g62
(dp3391
sg71
g3376
sg64
(lp3392
g57
(g58
g59
NtRp3393
(dp3394
g62
(dp3395
g70
I3
ssg71
g3389
sg64
(lp3396
g100
asbasbasbag57
(g73
g59
NtRp3397
(dp3398
g62
(dp3399
sg71
g2865
sg64
(lp3400
g57
(g78
g59
NtRp3401
(dp3402
g62
(dp3403
g82
g83
ssg71
g3397
sg64
(lp3404
S'wsgi.multithread'
p3405
asbag57
(g78
g59
NtRp3406
(dp3407
g62
(dp3408
g89
g90
ssg71
g3397
sg64
(lp3409
S':'
asbag57
(g78
g59
NtRp3410
(dp3411
g62
(dp3412
sg71
g3397
sg64
(lp3413
g57
(g58
g59
NtRp3414
(dp3415
g62
(dp3416
g70
I3
ssg71
g3410
sg64
(lp3417
g2011
asbasbasbag57
(g73
g59
NtRp3418
(dp3419
g62
(dp3420
sg71
g2865
sg64
(lp3421
g57
(g78
g59
NtRp3422
(dp3423
g62
(dp3424
g82
g83
ssg71
g3418
sg64
(lp3425
S'wsgi.run_once'
p3426
asbag57
(g78
g59
NtRp3427
(dp3428
g62
(dp3429
g89
g90
ssg71
g3418
sg64
(lp3430
S':'
asbag57
(g78
g59
NtRp3431
(dp3432
g62
(dp3433
sg71
g3418
sg64
(lp3434
g57
(g58
g59
NtRp3435
(dp3436
g62
(dp3437
g70
I3
ssg71
g3431
sg64
(lp3438
g100
asbasbasbag57
(g73
g59
NtRp3439
(dp3440
g62
(dp3441
sg71
g2865
sg64
(lp3442
g57
(g78
g59
NtRp3443
(dp3444
g62
(dp3445
g82
g83
ssg71
g3439
sg64
(lp3446
S'wsgi.url_scheme'
p3447
asbag57
(g78
g59
NtRp3448
(dp3449
g62
(dp3450
g89
g90
ssg71
g3439
sg64
(lp3451
S':'
asbag57
(g78
g59
NtRp3452
(dp3453
g62
(dp3454
sg71
g3439
sg64
(lp3455
g57
(g58
g59
NtRp3456
(dp3457
g62
(dp3458
g70
I3
ssg71
g3452
sg64
(lp3459
g2054
asbasbasbag57
(g73
g59
NtRp3460
(dp3461
g62
(dp3462
sg71
g2865
sg64
(lp3463
g57
(g78
g59
NtRp3464
(dp3465
g62
(dp3466
g82
g83
ssg71
g3460
sg64
(lp3467
S'wsgi.version'
p3468
asbag57
(g78
g59
NtRp3469
(dp3470
g62
(dp3471
g89
g90
ssg71
g3460
sg64
(lp3472
S':'
asbag57
(g78
g59
NtRp3473
(dp3474
g62
(dp3475
sg71
g3460
sg64
(lp3476
g57
(g58
g59
NtRp3477
(dp3478
g62
(dp3479
g70
I3
ssg71
g3473
sg64
(lp3480
S'1'
asbasbasbasbasbasbasbasbasbasbasbasbasbsS'frames'
p3481
(lp3482
(dp3483
S'file'
p3484
S'/home/pratyush/web2py/gluon/restricted.py'
p3485
sS'dump'
p3486
(dp3487
S'environment'
p3488
S"{'A': <class 'gluon.html.A'>, 'Auth': <class 'gluon.tools.Auth'>, 'B': <class 'gluon.html.B'>, 'BEAUTIFY': <class 'gluon.html.BEAUTIFY'>, 'BODY': <class 'gluon.html.BODY'>, 'BR': <class 'gluon.html.BR'>, 'BUTTON': <class 'gluon.html.BUTTON'>, 'CAT': <class 'gluon.html.CAT'>, 'CENTER': <class 'gluon.html.CENTER'>, 'CLEANUP': <class 'gluon.validators.CLEANUP'>, ...}"
p3489
sS'ccode'
p3490
S'<code object <module> at 0x9f3d4e8, file "/home/...s/BuySell/views/default/categories.html", line 1>'
p3491
ssS'lnum'
p3492
I212
sS'lines'
p3493
(dp3494
I207
S'    try:'
p3495
sI208
S'        if isinstance(code, types.CodeType):'
p3496
sI209
S'            ccode = code'
p3497
sI210
S'        else:'
p3498
sI211
S'            ccode = compile2(code, layer)'
p3499
sI212
S'        exec ccode in environment'
p3500
sI213
S'    except HTTP:'
p3501
sI214
S'        raise'
p3502
sI215
S'    except RestrictedError:'
p3503
sI216
S'        # do not encapsulate (obfuscate) the original RestrictedError'
p3504
ssS'call'
p3505
S'(code=\'response.write(\\\'<!DOCTYPE html>\\\\n<!-- paulirish...."></script>\\\\n</body>\\\\n</html>\\\\n\\\\n\\\', escape=False)\', environment={\'A\': <class \'gluon.html.A\'>, \'Auth\': <class \'gluon.tools.Auth\'>, \'B\': <class \'gluon.html.B\'>, \'BEAUTIFY\': <class \'gluon.html.BEAUTIFY\'>, \'BODY\': <class \'gluon.html.BODY\'>, \'BR\': <class \'gluon.html.BR\'>, \'BUTTON\': <class \'gluon.html.BUTTON\'>, \'CAT\': <class \'gluon.html.CAT\'>, \'CENTER\': <class \'gluon.html.CENTER\'>, \'CLEANUP\': <class \'gluon.validators.CLEANUP\'>, ...}, layer=\'/home/pratyush/web2py/applications/BuySell/views/default/categories.html\')'
p3506
sS'func'
p3507
S'restricted'
p3508
sa(dp3509
g3484
S'/home/pratyush/web2py/applications/BuySell/views/default/categories.html'
p3510
sg3486
(dp3511
sg3492
I77
sg3493
(dp3512
I68
S"    response.write('\\n        </div>\\n        ', escape=False)"
p3513
sI69
S'    pass'
p3514
sI70
S'response.write(\'\\n\\n        <div class="\', escape=False)'
p3515
sI71
S'response.write(middle_columns)'
p3516
sI72
S'response.write(\'">\\n            \', escape=False)'
p3517
sI73
S"response.write('\\n            ', escape=False)"
p3518
sI74
S"response.write('\\n', escape=False)"
p3519
sI75
S'response.write(form1)'
p3520
sI76
S"response.write('\\n\\n    <table>\\n    \\n    ', escape=False)"
p3521
sI77
S'for i in items:'
p3522
sI78
S'    response.write(\'\\n        <tr>    \\n        <td><img src="\', escape=False)'
p3523
sI79
S"    response.write(URL('download',args=i.image ))"
p3524
sI80
S'    response.write(\'" width=200px height=auto/></td>\\n        <td>\', escape=False)'
p3525
sI81
S"    response.write(A(i.name,_href=URL(r=request, f='item_d', args=i.id)))"
p3526
sI82
S"    response.write(' </td>\\n        <td><span>Rs. </span>', escape=False)"
p3527
sI83
S'    response.write(i.price)'
p3528
sI84
S"    response.write('</td>\\n        </tr>\\n    ', escape=False)"
p3529
sI85
S'    pass'
p3530
sI86
S"response.write('\\n    \\n    </table>\\n        ', escape=False)"
p3531
sI87
S'pass'
p3532
ssg3505
S'()'
p3533
sg3507
S'<module>'
p3534
sasS'pyver'
p3535
S'Python 2.7.2+: /usr/bin/python2.7'
p3536
sS'session'
p3537
g57
(g58
g59
NtRp3538
(dp3539
g62
(dp3540
sg64
(lp3541
g57
(g66
g59
NtRp3542
(dp3543
g62
(dp3544
g70
I5
ssg71
Nsg64
(lp3545
g57
(g73
g59
NtRp3546
(dp3547
g62
(dp3548
sg71
g3542
sg64
(lp3549
g57
(g78
g59
NtRp3550
(dp3551
g62
(dp3552
g82
g83
ssg71
g3546
sg64
(lp3553
S'auth'
p3554
asbag57
(g78
g59
NtRp3555
(dp3556
g62
(dp3557
g89
g90
ssg71
g3546
sg64
(lp3558
S':'
asbag57
(g78
g59
NtRp3559
(dp3560
g62
(dp3561
sg71
g3546
sg64
(lp3562
g57
(g58
g59
NtRp3563
(dp3564
g62
(dp3565
g70
I5
ssg71
g3559
sg64
(lp3566
g57
(g66
g59
NtRp3567
(dp3568
g62
(dp3569
g70
I4
ssg71
Nsg64
(lp3570
g57
(g73
g59
NtRp3571
(dp3572
g62
(dp3573
sg71
g3567
sg64
(lp3574
g57
(g78
g59
NtRp3575
(dp3576
g62
(dp3577
g82
g83
ssg71
g3571
sg64
(lp3578
S'expiration'
p3579
asbag57
(g78
g59
NtRp3580
(dp3581
g62
(dp3582
g89
g90
ssg71
g3571
sg64
(lp3583
S':'
asbag57
(g78
g59
NtRp3584
(dp3585
g62
(dp3586
sg71
g3571
sg64
(lp3587
g57
(g58
g59
NtRp3588
(dp3589
g62
(dp3590
g70
I4
ssg71
g3584
sg64
(lp3591
S'3600'
p3592
asbasbasbag57
(g73
g59
NtRp3593
(dp3594
g62
(dp3595
sg71
g3567
sg64
(lp3596
g57
(g78
g59
NtRp3597
(dp3598
g62
(dp3599
g82
g83
ssg71
g3593
sg64
(lp3600
S'hmac_key'
p3601
asbag57
(g78
g59
NtRp3602
(dp3603
g62
(dp3604
g89
g90
ssg71
g3593
sg64
(lp3605
S':'
asbag57
(g78
g59
NtRp3606
(dp3607
g62
(dp3608
sg71
g3593
sg64
(lp3609
g57
(g58
g59
NtRp3610
(dp3611
g62
(dp3612
g70
I4
ssg71
g3606
sg64
(lp3613
S'90ed2782-b33b-4249-8b8c-dcff0b943064'
p3614
asbasbasbag57
(g73
g59
NtRp3615
(dp3616
g62
(dp3617
sg71
g3567
sg64
(lp3618
g57
(g78
g59
NtRp3619
(dp3620
g62
(dp3621
g82
g83
ssg71
g3615
sg64
(lp3622
S'last_visit'
p3623
asbag57
(g78
g59
NtRp3624
(dp3625
g62
(dp3626
g89
g90
ssg71
g3615
sg64
(lp3627
S':'
asbag57
(g78
g59
NtRp3628
(dp3629
g62
(dp3630
sg71
g3615
sg64
(lp3631
g57
(g58
g59
NtRp3632
(dp3633
g62
(dp3634
g70
I4
ssg71
g3628
sg64
(lp3635
S'datetime.datetime(2013, 4, 23, 11, 1, 55, 68783)'
p3636
asbasbasbag57
(g73
g59
NtRp3637
(dp3638
g62
(dp3639
sg71
g3567
sg64
(lp3640
g57
(g78
g59
NtRp3641
(dp3642
g62
(dp3643
g82
g83
ssg71
g3637
sg64
(lp3644
S'remember'
p3645
asbag57
(g78
g59
NtRp3646
(dp3647
g62
(dp3648
g89
g90
ssg71
g3637
sg64
(lp3649
S':'
asbag57
(g78
g59
NtRp3650
(dp3651
g62
(dp3652
sg71
g3637
sg64
(lp3653
g57
(g58
g59
NtRp3654
(dp3655
g62
(dp3656
g70
I4
ssg71
g3650
sg64
(lp3657
g100
asbasbasbag57
(g73
g59
NtRp3658
(dp3659
g62
(dp3660
sg71
g3567
sg64
(lp3661
g57
(g78
g59
NtRp3662
(dp3663
g62
(dp3664
g82
g83
ssg71
g3658
sg64
(lp3665
S'user'
p3666
asbag57
(g78
g59
NtRp3667
(dp3668
g62
(dp3669
g89
g90
ssg71
g3658
sg64
(lp3670
S':'
asbag57
(g78
g59
NtRp3671
(dp3672
g62
(dp3673
sg71
g3658
sg64
(lp3674
g57
(g58
g59
NtRp3675
(dp3676
g62
(dp3677
g70
I4
ssg71
g3671
sg64
(lp3678
g57
(g66
g59
NtRp3679
(dp3680
g62
(dp3681
g70
I3
ssg71
Nsg64
(lp3682
g57
(g73
g59
NtRp3683
(dp3684
g62
(dp3685
sg71
g3679
sg64
(lp3686
g57
(g78
g59
NtRp3687
(dp3688
g62
(dp3689
g82
g83
ssg71
g3683
sg64
(lp3690
S'email'
p3691
asbag57
(g78
g59
NtRp3692
(dp3693
g62
(dp3694
g89
g90
ssg71
g3683
sg64
(lp3695
S':'
asbag57
(g78
g59
NtRp3696
(dp3697
g62
(dp3698
sg71
g3683
sg64
(lp3699
g57
(g58
g59
NtRp3700
(dp3701
g62
(dp3702
g70
I3
ssg71
g3696
sg64
(lp3703
S'pratyush.nigam@gmail.com'
p3704
asbasbasbag57
(g73
g59
NtRp3705
(dp3706
g62
(dp3707
sg71
g3679
sg64
(lp3708
g57
(g78
g59
NtRp3709
(dp3710
g62
(dp3711
g82
g83
ssg71
g3705
sg64
(lp3712
S'first_name'
p3713
asbag57
(g78
g59
NtRp3714
(dp3715
g62
(dp3716
g89
g90
ssg71
g3705
sg64
(lp3717
S':'
asbag57
(g78
g59
NtRp3718
(dp3719
g62
(dp3720
sg71
g3705
sg64
(lp3721
g57
(g58
g59
NtRp3722
(dp3723
g62
(dp3724
g70
I3
ssg71
g3718
sg64
(lp3725
S'Pratyush'
p3726
asbasbasbag57
(g73
g59
NtRp3727
(dp3728
g62
(dp3729
sg71
g3679
sg64
(lp3730
g57
(g78
g59
NtRp3731
(dp3732
g62
(dp3733
g82
g83
ssg71
g3727
sg64
(lp3734
S'id'
p3735
asbag57
(g78
g59
NtRp3736
(dp3737
g62
(dp3738
g89
g90
ssg71
g3727
sg64
(lp3739
S':'
asbag57
(g78
g59
NtRp3740
(dp3741
g62
(dp3742
sg71
g3727
sg64
(lp3743
g57
(g58
g59
NtRp3744
(dp3745
g62
(dp3746
g70
I3
ssg71
g3740
sg64
(lp3747
S'1'
asbasbasbag57
(g73
g59
NtRp3748
(dp3749
g62
(dp3750
sg71
g3679
sg64
(lp3751
g57
(g78
g59
NtRp3752
(dp3753
g62
(dp3754
g82
g83
ssg71
g3748
sg64
(lp3755
S'last_name'
p3756
asbag57
(g78
g59
NtRp3757
(dp3758
g62
(dp3759
g89
g90
ssg71
g3748
sg64
(lp3760
S':'
asbag57
(g78
g59
NtRp3761
(dp3762
g62
(dp3763
sg71
g3748
sg64
(lp3764
g57
(g58
g59
NtRp3765
(dp3766
g62
(dp3767
g70
I3
ssg71
g3761
sg64
(lp3768
S'Nigam'
p3769
asbasbasbag57
(g73
g59
NtRp3770
(dp3771
g62
(dp3772
sg71
g3679
sg64
(lp3773
g57
(g78
g59
NtRp3774
(dp3775
g62
(dp3776
g82
g83
ssg71
g3770
sg64
(lp3777
S'registration_id'
p3778
asbag57
(g78
g59
NtRp3779
(dp3780
g62
(dp3781
g89
g90
ssg71
g3770
sg64
(lp3782
S':'
asbag57
(g78
g59
NtRp3783
(dp3784
g62
(dp3785
sg71
g3770
sg64
(lp3786
g57
(g58
g59
NtRp3787
(dp3788
g62
(dp3789
g70
I3
ssg71
g3783
sg64
(lp3790
S''
asbasbasbag57
(g73
g59
NtRp3791
(dp3792
g62
(dp3793
sg71
g3679
sg64
(lp3794
g57
(g78
g59
NtRp3795
(dp3796
g62
(dp3797
g82
g83
ssg71
g3791
sg64
(lp3798
S'registration_key'
p3799
asbag57
(g78
g59
NtRp3800
(dp3801
g62
(dp3802
g89
g90
ssg71
g3791
sg64
(lp3803
S':'
asbag57
(g78
g59
NtRp3804
(dp3805
g62
(dp3806
sg71
g3791
sg64
(lp3807
g57
(g58
g59
NtRp3808
(dp3809
g62
(dp3810
g70
I3
ssg71
g3804
sg64
(lp3811
S''
asbasbasbag57
(g73
g59
NtRp3812
(dp3813
g62
(dp3814
sg71
g3679
sg64
(lp3815
g57
(g78
g59
NtRp3816
(dp3817
g62
(dp3818
g82
g83
ssg71
g3812
sg64
(lp3819
S'reset_password_key'
p3820
asbag57
(g78
g59
NtRp3821
(dp3822
g62
(dp3823
g89
g90
ssg71
g3812
sg64
(lp3824
S':'
asbag57
(g78
g59
NtRp3825
(dp3826
g62
(dp3827
sg71
g3812
sg64
(lp3828
g57
(g58
g59
NtRp3829
(dp3830
g62
(dp3831
g70
I3
ssg71
g3825
sg64
(lp3832
S''
asbasbasbasbasbasbasbag57
(g73
g59
NtRp3833
(dp3834
g62
(dp3835
sg71
g3567
sg64
(lp3836
g57
(g78
g59
NtRp3837
(dp3838
g62
(dp3839
g82
g83
ssg71
g3833
sg64
(lp3840
S'user_groups'
p3841
asbag57
(g78
g59
NtRp3842
(dp3843
g62
(dp3844
g89
g90
ssg71
g3833
sg64
(lp3845
S':'
asbag57
(g78
g59
NtRp3846
(dp3847
g62
(dp3848
sg71
g3833
sg64
(lp3849
g57
(g58
g59
NtRp3850
(dp3851
g62
(dp3852
g70
I4
ssg71
g3846
sg64
(lp3853
g57
(g66
g59
NtRp3854
(dp3855
g62
(dp3856
g70
I3
ssg71
Nsg64
(lp3857
g57
(g73
g59
NtRp3858
(dp3859
g62
(dp3860
sg71
g3854
sg64
(lp3861
g57
(g78
g59
NtRp3862
(dp3863
g62
(dp3864
g82
g83
ssg71
g3858
sg64
(lp3865
S'1'
asbag57
(g78
g59
NtRp3866
(dp3867
g62
(dp3868
g89
g90
ssg71
g3858
sg64
(lp3869
S':'
asbag57
(g78
g59
NtRp3870
(dp3871
g62
(dp3872
sg71
g3858
sg64
(lp3873
g57
(g58
g59
NtRp3874
(dp3875
g62
(dp3876
g70
I3
ssg71
g3870
sg64
(lp3877
S'user_1'
p3878
asbasbasbasbasbasbasbasbasbasbasbag57
(g73
g59
NtRp3879
(dp3880
g62
(dp3881
sg71
g3542
sg64
(lp3882
g57
(g78
g59
NtRp3883
(dp3884
g62
(dp3885
g82
g83
ssg71
g3879
sg64
(lp3886
S'flash'
p3887
asbag57
(g78
g59
NtRp3888
(dp3889
g62
(dp3890
g89
g90
ssg71
g3879
sg64
(lp3891
S':'
asbag57
(g78
g59
NtRp3892
(dp3893
g62
(dp3894
sg71
g3879
sg64
(lp3895
g57
(g58
g59
NtRp3896
(dp3897
g62
(dp3898
g70
I5
ssg71
g3892
sg64
(lp3899
S'None'
p3900
asbasbasbag57
(g73
g59
NtRp3901
(dp3902
g62
(dp3903
sg71
g3542
sg64
(lp3904
g57
(g78
g59
NtRp3905
(dp3906
g62
(dp3907
g82
g83
ssg71
g3901
sg64
(lp3908
S'last_orderby'
p3909
asbag57
(g78
g59
NtRp3910
(dp3911
g62
(dp3912
g89
g90
ssg71
g3901
sg64
(lp3913
S':'
asbag57
(g78
g59
NtRp3914
(dp3915
g62
(dp3916
sg71
g3901
sg64
(lp3917
g57
(g58
g59
NtRp3918
(dp3919
g62
(dp3920
g70
I5
ssg71
g3914
sg64
(lp3921
S'None'
p3922
asbasbasbag57
(g73
g59
NtRp3923
(dp3924
g62
(dp3925
sg71
g3542
sg64
(lp3926
g57
(g78
g59
NtRp3927
(dp3928
g62
(dp3929
g82
g83
ssg71
g3923
sg64
(lp3930
S'last_query'
p3931
asbag57
(g78
g59
NtRp3932
(dp3933
g62
(dp3934
g89
g90
ssg71
g3923
sg64
(lp3935
S':'
asbag57
(g78
g59
NtRp3936
(dp3937
g62
(dp3938
sg71
g3923
sg64
(lp3939
g57
(g58
g59
NtRp3940
(dp3941
g62
(dp3942
g70
I5
ssg71
g3936
sg64
(lp3943
S'db.sold.id>0'
p3944
asbasbasbasbasbsS'etype'
p3945
S"<type 'exceptions.TypeError'>"
p3946
sS'date'
p3947
S'Tue Apr 23 11:05:45 2013'
p3948
sS'response'
p3949
g57
(g58
g59
NtRp3950
(dp3951
g62
(dp3952
sg64
(lp3953
g57
(g66
g59
NtRp3954
(dp3955
g62
(dp3956
g70
I5
ssg71
Nsg64
(lp3957
g57
(g73
g59
NtRp3958
(dp3959
g62
(dp3960
sg71
g3954
sg64
(lp3961
g57
(g78
g59
NtRp3962
(dp3963
g62
(dp3964
g82
g83
ssg71
g3958
sg64
(lp3965
g167
asbag57
(g78
g59
NtRp3966
(dp3967
g62
(dp3968
g89
g90
ssg71
g3958
sg64
(lp3969
S':'
asbag57
(g78
g59
NtRp3970
(dp3971
g62
(dp3972
sg71
g3958
sg64
(lp3973
g57
(g58
g59
NtRp3974
(dp3975
g62
(dp3976
g70
I5
ssg71
g3970
sg64
(lp3977
S'<cStringIO.StringO object at 0xa5780a0>'
p3978
asbasbasbag57
(g73
g59
NtRp3979
(dp3980
g62
(dp3981
sg71
g3954
sg64
(lp3982
g57
(g78
g59
NtRp3983
(dp3984
g62
(dp3985
g82
g83
ssg71
g3979
sg64
(lp3986
g255
asbag57
(g78
g59
NtRp3987
(dp3988
g62
(dp3989
g89
g90
ssg71
g3979
sg64
(lp3990
S':'
asbag57
(g78
g59
NtRp3991
(dp3992
g62
(dp3993
sg71
g3979
sg64
(lp3994
g57
(g58
g59
NtRp3995
(dp3996
g62
(dp3997
g70
I5
ssg71
g3991
sg64
(lp3998
g57
(g66
g59
NtRp3999
(dp4000
g62
(dp4001
g70
I4
ssg71
Nsg64
(lp4002
g57
(g73
g59
NtRp4003
(dp4004
g62
(dp4005
sg71
g3999
sg64
(lp4006
g57
(g78
g59
NtRp4007
(dp4008
g62
(dp4009
g82
g83
ssg71
g4003
sg64
(lp4010
S'session_id_buysell'
p4011
asbag57
(g78
g59
NtRp4012
(dp4013
g62
(dp4014
g89
g90
ssg71
g4003
sg64
(lp4015
S':'
asbag57
(g78
g59
NtRp4016
(dp4017
g62
(dp4018
sg71
g4003
sg64
(lp4019
g57
(g58
g59
NtRp4020
(dp4021
g62
(dp4022
g70
I4
ssg71
g4016
sg64
(lp4023
g673
ag57
(g66
g59
NtRp4024
(dp4025
g62
(dp4026
g70
I3
ssg71
Nsg64
(lp4027
g57
(g73
g59
NtRp4028
(dp4029
g62
(dp4030
sg71
g4024
sg64
(lp4031
g57
(g78
g59
NtRp4032
(dp4033
g62
(dp4034
g82
g83
ssg71
g4028
sg64
(lp4035
g306
asbag57
(g78
g59
NtRp4036
(dp4037
g62
(dp4038
g89
g90
ssg71
g4028
sg64
(lp4039
S':'
asbag57
(g78
g59
NtRp4040
(dp4041
g62
(dp4042
sg71
g4028
sg64
(lp4043
g57
(g58
g59
NtRp4044
(dp4045
g62
(dp4046
g70
I3
ssg71
g4040
sg64
(lp4047
S''
asbasbasbag57
(g73
g59
NtRp4048
(dp4049
g62
(dp4050
sg71
g4024
sg64
(lp4051
g57
(g78
g59
NtRp4052
(dp4053
g62
(dp4054
g82
g83
ssg71
g4048
sg64
(lp4055
g327
asbag57
(g78
g59
NtRp4056
(dp4057
g62
(dp4058
g89
g90
ssg71
g4048
sg64
(lp4059
S':'
asbag57
(g78
g59
NtRp4060
(dp4061
g62
(dp4062
sg71
g4048
sg64
(lp4063
g57
(g58
g59
NtRp4064
(dp4065
g62
(dp4066
g70
I3
ssg71
g4060
sg64
(lp4067
S''
asbasbasbag57
(g73
g59
NtRp4068
(dp4069
g62
(dp4070
sg71
g4024
sg64
(lp4071
g57
(g78
g59
NtRp4072
(dp4073
g62
(dp4074
g82
g83
ssg71
g4068
sg64
(lp4075
g348
asbag57
(g78
g59
NtRp4076
(dp4077
g62
(dp4078
g89
g90
ssg71
g4068
sg64
(lp4079
S':'
asbag57
(g78
g59
NtRp4080
(dp4081
g62
(dp4082
sg71
g4068
sg64
(lp4083
g57
(g58
g59
NtRp4084
(dp4085
g62
(dp4086
g70
I3
ssg71
g4080
sg64
(lp4087
S''
asbasbasbag57
(g73
g59
NtRp4088
(dp4089
g62
(dp4090
sg71
g4024
sg64
(lp4091
g57
(g78
g59
NtRp4092
(dp4093
g62
(dp4094
g82
g83
ssg71
g4088
sg64
(lp4095
g369
asbag57
(g78
g59
NtRp4096
(dp4097
g62
(dp4098
g89
g90
ssg71
g4088
sg64
(lp4099
S':'
asbag57
(g78
g59
NtRp4100
(dp4101
g62
(dp4102
sg71
g4088
sg64
(lp4103
g57
(g58
g59
NtRp4104
(dp4105
g62
(dp4106
g70
I3
ssg71
g4100
sg64
(lp4107
S''
asbasbasbag57
(g73
g59
NtRp4108
(dp4109
g62
(dp4110
sg71
g4024
sg64
(lp4111
g57
(g78
g59
NtRp4112
(dp4113
g62
(dp4114
g82
g83
ssg71
g4108
sg64
(lp4115
g390
asbag57
(g78
g59
NtRp4116
(dp4117
g62
(dp4118
g89
g90
ssg71
g4108
sg64
(lp4119
S':'
asbag57
(g78
g59
NtRp4120
(dp4121
g62
(dp4122
sg71
g4108
sg64
(lp4123
g57
(g58
g59
NtRp4124
(dp4125
g62
(dp4126
g70
I3
ssg71
g4120
sg64
(lp4127
S''
asbasbasbag57
(g73
g59
NtRp4128
(dp4129
g62
(dp4130
sg71
g4024
sg64
(lp4131
g57
(g78
g59
NtRp4132
(dp4133
g62
(dp4134
g82
g83
ssg71
g4128
sg64
(lp4135
g411
asbag57
(g78
g59
NtRp4136
(dp4137
g62
(dp4138
g89
g90
ssg71
g4128
sg64
(lp4139
S':'
asbag57
(g78
g59
NtRp4140
(dp4141
g62
(dp4142
sg71
g4128
sg64
(lp4143
g57
(g58
g59
NtRp4144
(dp4145
g62
(dp4146
g70
I3
ssg71
g4140
sg64
(lp4147
S'/'
asbasbasbag57
(g73
g59
NtRp4148
(dp4149
g62
(dp4150
sg71
g4024
sg64
(lp4151
g57
(g78
g59
NtRp4152
(dp4153
g62
(dp4154
g82
g83
ssg71
g4148
sg64
(lp4155
g432
asbag57
(g78
g59
NtRp4156
(dp4157
g62
(dp4158
g89
g90
ssg71
g4148
sg64
(lp4159
S':'
asbag57
(g78
g59
NtRp4160
(dp4161
g62
(dp4162
sg71
g4148
sg64
(lp4163
g57
(g58
g59
NtRp4164
(dp4165
g62
(dp4166
g70
I3
ssg71
g4160
sg64
(lp4167
S''
asbasbasbag57
(g73
g59
NtRp4168
(dp4169
g62
(dp4170
sg71
g4024
sg64
(lp4171
g57
(g78
g59
NtRp4172
(dp4173
g62
(dp4174
g82
g83
ssg71
g4168
sg64
(lp4175
g453
asbag57
(g78
g59
NtRp4176
(dp4177
g62
(dp4178
g89
g90
ssg71
g4168
sg64
(lp4179
S':'
asbag57
(g78
g59
NtRp4180
(dp4181
g62
(dp4182
sg71
g4168
sg64
(lp4183
g57
(g58
g59
NtRp4184
(dp4185
g62
(dp4186
g70
I3
ssg71
g4180
sg64
(lp4187
S''
asbasbasbasbasbasbasbasbasbasbasbag57
(g73
g59
NtRp4188
(dp4189
g62
(dp4190
sg71
g3954
sg64
(lp4191
g57
(g78
g59
NtRp4192
(dp4193
g62
(dp4194
g82
g83
ssg71
g4188
sg64
(lp4195
S'delimiters'
p4196
asbag57
(g78
g59
NtRp4197
(dp4198
g62
(dp4199
g89
g90
ssg71
g4188
sg64
(lp4200
S':'
asbag57
(g78
g59
NtRp4201
(dp4202
g62
(dp4203
sg71
g4188
sg64
(lp4204
g57
(g58
g59
NtRp4205
(dp4206
g62
(dp4207
g70
I5
ssg71
g4201
sg64
(lp4208
g57
(g66
g59
NtRp4209
(dp4210
g62
(dp4211
g70
I4
ssg71
Nsg64
(lp4212
g57
(g73
g59
NtRp4213
(dp4214
g62
(dp4215
sg71
g4209
sg64
(lp4216
g57
(g78
g59
NtRp4217
(dp4218
g62
(dp4219
sg71
g4213
sg64
(lp4220
g57
(g58
g59
NtRp4221
(dp4222
g62
(dp4223
g70
I4
ssg71
g4217
sg64
(lp4224
S'{{'
p4225
asbasbasbag57
(g73
g59
NtRp4226
(dp4227
g62
(dp4228
sg71
g4209
sg64
(lp4229
g57
(g78
g59
NtRp4230
(dp4231
g62
(dp4232
sg71
g4226
sg64
(lp4233
g57
(g58
g59
NtRp4234
(dp4235
g62
(dp4236
g70
I4
ssg71
g4230
sg64
(lp4237
S'}}'
p4238
asbasbasbasbasbasbasbag57
(g73
g59
NtRp4239
(dp4240
g62
(dp4241
sg71
g3954
sg64
(lp4242
g57
(g78
g59
NtRp4243
(dp4244
g62
(dp4245
g82
g83
ssg71
g4239
sg64
(lp4246
S'files'
p4247
asbag57
(g78
g59
NtRp4248
(dp4249
g62
(dp4250
g89
g90
ssg71
g4239
sg64
(lp4251
S':'
asbag57
(g78
g59
NtRp4252
(dp4253
g62
(dp4254
sg71
g4239
sg64
(lp4255
g57
(g58
g59
NtRp4256
(dp4257
g62
(dp4258
g70
I5
ssg71
g4252
sg64
(lp4259
g57
(g66
g59
NtRp4260
(dp4261
g62
(dp4262
g70
I4
ssg71
Nsg64
(lp4263
g57
(g73
g59
NtRp4264
(dp4265
g62
(dp4266
sg71
g4260
sg64
(lp4267
g57
(g78
g59
NtRp4268
(dp4269
g62
(dp4270
sg71
g4264
sg64
(lp4271
g57
(g58
g59
NtRp4272
(dp4273
g62
(dp4274
g70
I4
ssg71
g4268
sg64
(lp4275
S'/BuySell/static/js/jquery.js'
p4276
asbasbasbag57
(g73
g59
NtRp4277
(dp4278
g62
(dp4279
sg71
g4260
sg64
(lp4280
g57
(g78
g59
NtRp4281
(dp4282
g62
(dp4283
sg71
g4277
sg64
(lp4284
g57
(g58
g59
NtRp4285
(dp4286
g62
(dp4287
g70
I4
ssg71
g4281
sg64
(lp4288
S'/BuySell/static/css/calendar.css'
p4289
asbasbasbag57
(g73
g59
NtRp4290
(dp4291
g62
(dp4292
sg71
g4260
sg64
(lp4293
g57
(g78
g59
NtRp4294
(dp4295
g62
(dp4296
sg71
g4290
sg64
(lp4297
g57
(g58
g59
NtRp4298
(dp4299
g62
(dp4300
g70
I4
ssg71
g4294
sg64
(lp4301
S'/BuySell/static/js/calendar.js'
p4302
asbasbasbag57
(g73
g59
NtRp4303
(dp4304
g62
(dp4305
sg71
g4260
sg64
(lp4306
g57
(g78
g59
NtRp4307
(dp4308
g62
(dp4309
sg71
g4303
sg64
(lp4310
g57
(g58
g59
NtRp4311
(dp4312
g62
(dp4313
g70
I4
ssg71
g4307
sg64
(lp4314
S'/BuySell/static/js/web2py.js'
p4315
asbasbasbag57
(g73
g59
NtRp4316
(dp4317
g62
(dp4318
sg71
g4260
sg64
(lp4319
g57
(g78
g59
NtRp4320
(dp4321
g62
(dp4322
sg71
g4316
sg64
(lp4323
g57
(g58
g59
NtRp4324
(dp4325
g62
(dp4326
g70
I4
ssg71
g4320
sg64
(lp4327
S'/BuySell/static/css/web2py.css'
p4328
asbasbasbag57
(g73
g59
NtRp4329
(dp4330
g62
(dp4331
sg71
g4260
sg64
(lp4332
g57
(g78
g59
NtRp4333
(dp4334
g62
(dp4335
sg71
g4329
sg64
(lp4336
g57
(g58
g59
NtRp4337
(dp4338
g62
(dp4339
g70
I4
ssg71
g4333
sg64
(lp4340
S'/BuySell/static/css/bootstrap.min.css'
p4341
asbasbasbag57
(g73
g59
NtRp4342
(dp4343
g62
(dp4344
sg71
g4260
sg64
(lp4345
g57
(g78
g59
NtRp4346
(dp4347
g62
(dp4348
sg71
g4342
sg64
(lp4349
g57
(g58
g59
NtRp4350
(dp4351
g62
(dp4352
g70
I4
ssg71
g4346
sg64
(lp4353
S'/BuySell/static/css/bootstrap-responsive.min.css'
p4354
asbasbasbag57
(g73
g59
NtRp4355
(dp4356
g62
(dp4357
sg71
g4260
sg64
(lp4358
g57
(g78
g59
NtRp4359
(dp4360
g62
(dp4361
sg71
g4355
sg64
(lp4362
g57
(g58
g59
NtRp4363
(dp4364
g62
(dp4365
g70
I4
ssg71
g4359
sg64
(lp4366
S'/BuySell/static/css/web2py_bootstrap.css'
p4367
asbasbasbasbasbasbasbag57
(g73
g59
NtRp4368
(dp4369
g62
(dp4370
sg71
g3954
sg64
(lp4371
g57
(g78
g59
NtRp4372
(dp4373
g62
(dp4374
g82
g83
ssg71
g4368
sg64
(lp4375
S'flash'
p4376
asbag57
(g78
g59
NtRp4377
(dp4378
g62
(dp4379
g89
g90
ssg71
g4368
sg64
(lp4380
S':'
asbag57
(g78
g59
NtRp4381
(dp4382
g62
(dp4383
sg71
g4368
sg64
(lp4384
g57
(g58
g59
NtRp4385
(dp4386
g62
(dp4387
g70
I5
ssg71
g4381
sg64
(lp4388
S''
asbasbasbag57
(g73
g59
NtRp4389
(dp4390
g62
(dp4391
sg71
g3954
sg64
(lp4392
g57
(g78
g59
NtRp4393
(dp4394
g62
(dp4395
g82
g83
ssg71
g4389
sg64
(lp4396
S'generic_patterns'
p4397
asbag57
(g78
g59
NtRp4398
(dp4399
g62
(dp4400
g89
g90
ssg71
g4389
sg64
(lp4401
S':'
asbag57
(g78
g59
NtRp4402
(dp4403
g62
(dp4404
sg71
g4389
sg64
(lp4405
g57
(g58
g59
NtRp4406
(dp4407
g62
(dp4408
g70
I5
ssg71
g4402
sg64
(lp4409
g57
(g66
g59
NtRp4410
(dp4411
g62
(dp4412
g70
I4
ssg71
Nsg64
(lp4413
g57
(g73
g59
NtRp4414
(dp4415
g62
(dp4416
sg71
g4410
sg64
(lp4417
g57
(g78
g59
NtRp4418
(dp4419
g62
(dp4420
sg71
g4414
sg64
(lp4421
g57
(g58
g59
NtRp4422
(dp4423
g62
(dp4424
g70
I4
ssg71
g4418
sg64
(lp4425
S'*'
asbasbasbasbasbasbasbag57
(g73
g59
NtRp4426
(dp4427
g62
(dp4428
sg71
g3954
sg64
(lp4429
g57
(g78
g59
NtRp4430
(dp4431
g62
(dp4432
g82
g83
ssg71
g4426
sg64
(lp4433
S'google_analytics_id'
p4434
asbag57
(g78
g59
NtRp4435
(dp4436
g62
(dp4437
g89
g90
ssg71
g4426
sg64
(lp4438
S':'
asbag57
(g78
g59
NtRp4439
(dp4440
g62
(dp4441
sg71
g4426
sg64
(lp4442
g57
(g58
g59
NtRp4443
(dp4444
g62
(dp4445
g70
I5
ssg71
g4439
sg64
(lp4446
S'None'
p4447
asbasbasbag57
(g73
g59
NtRp4448
(dp4449
g62
(dp4450
sg71
g3954
sg64
(lp4451
g57
(g78
g59
NtRp4452
(dp4453
g62
(dp4454
g82
g83
ssg71
g4448
sg64
(lp4455
S'headers'
p4456
asbag57
(g78
g59
NtRp4457
(dp4458
g62
(dp4459
g89
g90
ssg71
g4448
sg64
(lp4460
S':'
asbag57
(g78
g59
NtRp4461
(dp4462
g62
(dp4463
sg71
g4448
sg64
(lp4464
g57
(g58
g59
NtRp4465
(dp4466
g62
(dp4467
g70
I5
ssg71
g4461
sg64
(lp4468
g57
(g66
g59
NtRp4469
(dp4470
g62
(dp4471
g70
I4
ssg71
Nsg64
(lp4472
g57
(g73
g59
NtRp4473
(dp4474
g62
(dp4475
sg71
g4469
sg64
(lp4476
g57
(g78
g59
NtRp4477
(dp4478
g62
(dp4479
g82
g83
ssg71
g4473
sg64
(lp4480
S'X-Powered-By'
p4481
asbag57
(g78
g59
NtRp4482
(dp4483
g62
(dp4484
g89
g90
ssg71
g4473
sg64
(lp4485
S':'
asbag57
(g78
g59
NtRp4486
(dp4487
g62
(dp4488
sg71
g4473
sg64
(lp4489
g57
(g58
g59
NtRp4490
(dp4491
g62
(dp4492
g70
I4
ssg71
g4486
sg64
(lp4493
S'web2py'
p4494
asbasbasbasbasbasbasbag57
(g73
g59
NtRp4495
(dp4496
g62
(dp4497
sg71
g3954
sg64
(lp4498
g57
(g78
g59
NtRp4499
(dp4500
g62
(dp4501
g82
g83
ssg71
g4495
sg64
(lp4502
S'logo'
p4503
asbag57
(g78
g59
NtRp4504
(dp4505
g62
(dp4506
g89
g90
ssg71
g4495
sg64
(lp4507
S':'
asbag57
(g78
g59
NtRp4508
(dp4509
g62
(dp4510
sg71
g4495
sg64
(lp4511
g57
(g58
g59
NtRp4512
(dp4513
g62
(dp4514
g70
I5
ssg71
g4508
sg64
(lp4515
g57
(cgluon.html
A
p4516
g59
NtRp4517
(dp4518
g62
(dp4519
S'_class'
p4520
S'brand'
p4521
sS'_href'
p4522
S''
ssg71
Nsg64
(lp4523
g57
(cgluon.html
B
p4524
g59
NtRp4525
(dp4526
g62
(dp4527
sg71
g4517
sg64
(lp4528
S'Buy/Sell'
p4529
asbacgluon.html
XML_unpickle
p4530
(S's\r\x00\x00\x00&trade;&nbsp;'
tRp4531
asbasbasbasbag57
(g73
g59
NtRp4532
(dp4533
g62
(dp4534
sg71
g3954
sg64
(lp4535
g57
(g78
g59
NtRp4536
(dp4537
g62
(dp4538
g82
g83
ssg71
g4532
sg64
(lp4539
S'menu'
p4540
asbag57
(g78
g59
NtRp4541
(dp4542
g62
(dp4543
g89
g90
ssg71
g4532
sg64
(lp4544
S':'
asbag57
(g78
g59
NtRp4545
(dp4546
g62
(dp4547
sg71
g4532
sg64
(lp4548
g57
(g58
g59
NtRp4549
(dp4550
g62
(dp4551
g70
I5
ssg71
g4545
sg64
(lp4552
g57
(g66
g59
NtRp4553
(dp4554
g62
(dp4555
g70
I4
ssg71
Nsg64
(lp4556
g57
(g73
g59
NtRp4557
(dp4558
g62
(dp4559
sg71
g4553
sg64
(lp4560
g57
(g78
g59
NtRp4561
(dp4562
g62
(dp4563
sg71
g4557
sg64
(lp4564
g57
(g58
g59
NtRp4565
(dp4566
g62
(dp4567
g70
I4
ssg71
g4561
sg64
(lp4568
g57
(g66
g59
NtRp4569
(dp4570
g62
(dp4571
g70
I3
ssg71
Nsg64
(lp4572
g57
(g73
g59
NtRp4573
(dp4574
g62
(dp4575
sg71
g4569
sg64
(lp4576
g57
(g78
g59
NtRp4577
(dp4578
g62
(dp4579
sg71
g4573
sg64
(lp4580
g57
(g58
g59
NtRp4581
(dp4582
g62
(dp4583
g70
I3
ssg71
g4577
sg64
(lp4584
cgluon.languages
lazyT_unpickle
p4585
(S's\x04\x00\x00\x00Home'
tRp4586
asbasbasbag57
(g73
g59
NtRp4587
(dp4588
g62
(dp4589
sg71
g4569
sg64
(lp4590
g57
(g78
g59
NtRp4591
(dp4592
g62
(dp4593
sg71
g4587
sg64
(lp4594
g57
(g58
g59
NtRp4595
(dp4596
g62
(dp4597
g70
I3
ssg71
g4591
sg64
(lp4598
g100
asbasbasbag57
(g73
g59
NtRp4599
(dp4600
g62
(dp4601
sg71
g4569
sg64
(lp4602
g57
(g78
g59
NtRp4603
(dp4604
g62
(dp4605
sg71
g4599
sg64
(lp4606
g57
(g58
g59
NtRp4607
(dp4608
g62
(dp4609
g70
I3
ssg71
g4603
sg64
(lp4610
S'/BuySell/default/index'
p4611
asbasbasbag57
(g73
g59
NtRp4612
(dp4613
g62
(dp4614
sg71
g4569
sg64
(lp4615
g57
(g78
g59
NtRp4616
(dp4617
g62
(dp4618
sg71
g4612
sg64
(lp4619
g57
(g58
g59
NtRp4620
(dp4621
g62
(dp4622
g70
I3
ssg71
g4616
sg64
(lp4623
g57
(g66
g59
NtRp4624
(dp4625
g62
(dp4626
g70
I2
ssg71
Nsg64
(lp4627
sbasbasbasbasbasbasbasbag57
(g73
g59
NtRp4628
(dp4629
g62
(dp4630
sg71
g4553
sg64
(lp4631
g57
(g78
g59
NtRp4632
(dp4633
g62
(dp4634
sg71
g4628
sg64
(lp4635
g57
(g58
g59
NtRp4636
(dp4637
g62
(dp4638
g70
I4
ssg71
g4632
sg64
(lp4639
g57
(g66
g59
NtRp4640
(dp4641
g62
(dp4642
g70
I3
ssg71
Nsg64
(lp4643
g57
(g73
g59
NtRp4644
(dp4645
g62
(dp4646
sg71
g4640
sg64
(lp4647
g57
(g78
g59
NtRp4648
(dp4649
g62
(dp4650
sg71
g4644
sg64
(lp4651
g57
(g58
g59
NtRp4652
(dp4653
g62
(dp4654
g70
I3
ssg71
g4648
sg64
(lp4655
g57
(cgluon.html
SPAN
p4656
g59
NtRp4657
(dp4658
g62
(dp4659
g4520
S'highlighted'
p4660
ssg71
g57
(g4516
g59
NtRp4661
(dp4662
g62
(dp4663
S'_onclick'
p4664
S'javascript:void(0);return false;'
p4665
sg4522
S'#'
ssg71
g57
(cgluon.html
LI
p4666
g59
NtRp4667
(dp4668
g62
(dp4669
g4520
S'dropdown'
p4670
ssg71
g57
(cgluon.html
UL
p4671
g59
NtRp4672
(dp4673
g62
(dp4674
S'mobile'
p4675
I00
sS'ul_class'
p4676
S'dropdown-menu'
p4677
sS'li_last'
p4678
S'web2py-menu-last'
p4679
sS'li_class'
p4680
g4670
sS'li_first'
p4681
S'web2py-menu-first'
p4682
sg4520
S'nav'
p4683
sS'li_active'
p4684
S'web2py-menu-active'
p4685
ssg71
Nsg64
(lp4686
g57
(g4666
g59
NtRp4687
(dp4688
g62
(dp4689
g4520
g4682
ssg71
g4672
sg64
(lp4690
g57
(g4516
g59
NtRp4691
(dp4692
g62
(dp4693
g4522
g4611
ssg71
g4687
sg64
(lp4694
g4586
asbasbag4667
asbsg64
(lp4695
g4661
ag57
(g4671
g59
NtRp4696
(dp4697
g62
(dp4698
g4520
g4677
ssg71
g4667
sg64
(lp4699
g57
(g4666
g59
NtRp4700
(dp4701
g62
(dp4702
sg71
g4696
sg64
(lp4703
g57
(g4516
g59
NtRp4704
(dp4705
g62
(dp4706
g4522
S'/BuySell/default/list_items'
p4707
ssg71
g4700
sg64
(lp4708
g4585
(S's\r\x00\x00\x00List of items'
tRp4709
asbasbag57
(g4666
g59
NtRp4710
(dp4711
g62
(dp4712
g4520
g4670
ssg71
g4696
sg64
(lp4713
g57
(g4516
g59
NtRp4714
(dp4715
g62
(dp4716
g4664
g4665
sg4522
S'#'
ssg71
g4710
sg64
(lp4717
g4585
(S't\x04\x00\x00\x00Sell'
tRp4718
asbag57
(g4671
g59
NtRp4719
(dp4720
g62
(dp4721
g4520
g4677
ssg71
g4710
sg64
(lp4722
g57
(g4666
g59
NtRp4723
(dp4724
g62
(dp4725
sg71
g4719
sg64
(lp4726
g57
(g4516
g59
NtRp4727
(dp4728
g62
(dp4729
g4522
S'/BuySell/default/add_item'
p4730
ssg71
g4723
sg64
(lp4731
g4585
(S's\x08\x00\x00\x00Add Item'
tRp4732
asbasbag57
(g4666
g59
NtRp4733
(dp4734
g62
(dp4735
sg71
g4719
sg64
(lp4736
g57
(g4516
g59
NtRp4737
(dp4738
g62
(dp4739
g4522
S'/BuySell/default/listed_items'
p4740
ssg71
g4733
sg64
(lp4741
g4585
(S's\x11\x00\x00\x00Your Listed Items'
tRp4742
asbasbag57
(g4666
g59
NtRp4743
(dp4744
g62
(dp4745
sg71
g4719
sg64
(lp4746
g57
(g4516
g59
NtRp4747
(dp4748
g62
(dp4749
g4522
S'/BuySell/default/item_sold'
p4750
ssg71
g4743
sg64
(lp4751
g4585
(S's\n\x00\x00\x00Items Sold'
tRp4752
asbasbag57
(g4666
g59
NtRp4753
(dp4754
g62
(dp4755
sg71
g4719
sg64
(lp4756
g57
(g4516
g59
NtRp4757
(dp4758
g62
(dp4759
g4522
S'/BuySell/default/fulfil_wishes'
p4760
ssg71
g4753
sg64
(lp4761
g4585
(S's\r\x00\x00\x00Fulfil Wishes'
tRp4762
asbasbasbasbag57
(g4666
g59
NtRp4763
(dp4764
g62
(dp4765
g4520
g4670
ssg71
g4696
sg64
(lp4766
g57
(g4516
g59
NtRp4767
(dp4768
g62
(dp4769
g4664
g4665
sg4522
S'#'
ssg71
g4763
sg64
(lp4770
S'Buy'
p4771
asbag57
(g4671
g59
NtRp4772
(dp4773
g62
(dp4774
g4520
g4677
ssg71
g4763
sg64
(lp4775
g57
(g4666
g59
NtRp4776
(dp4777
g62
(dp4778
sg71
g4772
sg64
(lp4779
g57
(g4516
g59
NtRp4780
(dp4781
g62
(dp4782
g4522
S'/BuySell/default/add_wish'
p4783
ssg71
g4776
sg64
(lp4784
g4585
(S's\x0b\x00\x00\x00Make a wish'
tRp4785
asbasbag57
(g4666
g59
NtRp4786
(dp4787
g62
(dp4788
sg71
g4772
sg64
(lp4789
g57
(g4516
g59
NtRp4790
(dp4791
g62
(dp4792
g4522
S'/BuySell/default/wish_list'
p4793
ssg71
g4786
sg64
(lp4794
g4585
(S's\x0e\x00\x00\x00Your Wish List'
tRp4795
asbasbag57
(g4666
g59
NtRp4796
(dp4797
g62
(dp4798
sg71
g4772
sg64
(lp4799
g57
(g4516
g59
NtRp4800
(dp4801
g62
(dp4802
g4522
S'/BuySell/default/fulfilled'
p4803
ssg71
g4796
sg64
(lp4804
g4585
(S's\x10\x00\x00\x00Fulfilled Wishes'
tRp4805
asbasbag57
(g4666
g59
NtRp4806
(dp4807
g62
(dp4808
sg71
g4772
sg64
(lp4809
g57
(g4516
g59
NtRp4810
(dp4811
g62
(dp4812
g4522
S'/BuySell/default/item_bought'
p4813
ssg71
g4806
sg64
(lp4814
g4585
(S's\x15\x00\x00\x00Items Bought/Bids Won'
tRp4815
asbasbasbasbag57
(g4666
g59
NtRp4816
(dp4817
g62
(dp4818
g4520
g4670
ssg71
g4696
sg64
(lp4819
g57
(g4516
g59
NtRp4820
(dp4821
g62
(dp4822
g4522
S'http://www.web2py.com/book'
p4823
ssg71
g4816
sg64
(lp4824
g4585
(S's\x0e\x00\x00\x00All Categories'
tRp4825
asbag57
(g4671
g59
NtRp4826
(dp4827
g62
(dp4828
g4520
g4677
ssg71
g4816
sg64
(lp4829
g57
(g4666
g59
NtRp4830
(dp4831
g62
(dp4832
sg71
g4826
sg64
(lp4833
g57
(g4516
g59
NtRp4834
(dp4835
g62
(dp4836
g4522
S'/BuySell/default/categories/1'
p4837
ssg71
g4830
sg64
(lp4838
g4585
(S's\x0f\x00\x00\x00Arts and Crafts'
tRp4839
asbasbag57
(g4666
g59
NtRp4840
(dp4841
g62
(dp4842
sg71
g4826
sg64
(lp4843
g57
(g4516
g59
NtRp4844
(dp4845
g62
(dp4846
g4522
S'/BuySell/default/categories/2'
p4847
ssg71
g4840
sg64
(lp4848
g4585
(S't\x08\x00\x00\x00Clothing'
tRp4849
asbasbag57
(g4666
g59
NtRp4850
(dp4851
g62
(dp4852
sg71
g4826
sg64
(lp4853
g57
(g4516
g59
NtRp4854
(dp4855
g62
(dp4856
g4522
S'/BuySell/default/categories/3'
p4857
ssg71
g4850
sg64
(lp4858
g4585
(S't\x08\x00\x00\x00Footwear'
tRp4859
asbasbag57
(g4666
g59
NtRp4860
(dp4861
g62
(dp4862
sg71
g4826
sg64
(lp4863
g57
(g4516
g59
NtRp4864
(dp4865
g62
(dp4866
g4522
S'/BuySell/default/categories/4'
p4867
ssg71
g4860
sg64
(lp4868
g4585
(S't\x05\x00\x00\x00Gifts'
tRp4869
asbasbasbasbag57
(g4666
g59
NtRp4870
(dp4871
g62
(dp4872
g4520
g4670
ssg71
g4696
sg64
(lp4873
g57
(g4516
g59
NtRp4874
(dp4875
g62
(dp4876
g4664
g4665
sg4522
S'#'
ssg71
g4870
sg64
(lp4877
g4585
(S's\t\x00\x00\x00Community'
tRp4878
asbag57
(g4671
g59
NtRp4879
(dp4880
g62
(dp4881
g4520
g4677
ssg71
g4870
sg64
(lp4882
g57
(g4666
g59
NtRp4883
(dp4884
g62
(dp4885
sg71
g4879
sg64
(lp4886
g57
(g4516
g59
NtRp4887
(dp4888
g62
(dp4889
g4522
S'http://twitter.com/buy_sell'
p4890
ssg71
g4883
sg64
(lp4891
g4585
(S's\x07\x00\x00\x00Twitter'
tRp4892
asbasbag57
(g4666
g59
NtRp4893
(dp4894
g62
(dp4895
sg71
g4879
sg64
(lp4896
g57
(g4516
g59
NtRp4897
(dp4898
g62
(dp4899
g4522
S'http://webchat.freenode.net/?channels=buysell'
p4900
ssg71
g4893
sg64
(lp4901
g4585
(S's\t\x00\x00\x00Live Chat'
tRp4902
asbasbasbasbag57
(g4666
g59
NtRp4903
(dp4904
g62
(dp4905
g4520
g4670
ssg71
g4696
sg64
(lp4906
g57
(g4516
g59
NtRp4907
(dp4908
g62
(dp4909
g4664
g4665
sg4522
S'#'
ssg71
g4903
sg64
(lp4910
g4585
(S't\x04\x00\x00\x00Help'
tRp4911
asbag57
(g4671
g59
NtRp4912
(dp4913
g62
(dp4914
g4520
g4677
ssg71
g4903
sg64
(lp4915
g57
(g4666
g59
NtRp4916
(dp4917
g62
(dp4918
sg71
g4912
sg64
(lp4919
g57
(g4516
g59
NtRp4920
(dp4921
g62
(dp4922
g4522
S'/BuySell/default/index'
p4923
ssg71
g4916
sg64
(lp4924
S'FAQ'
p4925
asbasbag57
(g4666
g59
NtRp4926
(dp4927
g62
(dp4928
sg71
g4912
sg64
(lp4929
g57
(g4516
g59
NtRp4930
(dp4931
g62
(dp4932
g4522
S'/BuySell/default/report'
p4933
ssg71
g4926
sg64
(lp4934
S'Report a Problem'
p4935
asbasbasbasbasbasbsg64
(lp4936
g4657
asbsg64
(lp4937
S'Navigate'
p4938
asbasbasbasbag57
(g73
g59
NtRp4939
(dp4940
g62
(dp4941
sg71
g4640
sg64
(lp4942
g57
(g78
g59
NtRp4943
(dp4944
g62
(dp4945
sg71
g4939
sg64
(lp4946
g57
(g58
g59
NtRp4947
(dp4948
g62
(dp4949
g70
I3
ssg71
g4943
sg64
(lp4950
g100
asbasbasbag57
(g73
g59
NtRp4951
(dp4952
g62
(dp4953
sg71
g4640
sg64
(lp4954
g57
(g78
g59
NtRp4955
(dp4956
g62
(dp4957
sg71
g4951
sg64
(lp4958
g57
(g58
g59
NtRp4959
(dp4960
g62
(dp4961
g70
I3
ssg71
g4955
sg64
(lp4962
S''
asbasbasbag57
(g73
g59
NtRp4963
(dp4964
g62
(dp4965
sg71
g4640
sg64
(lp4966
g57
(g78
g59
NtRp4967
(dp4968
g62
(dp4969
sg71
g4963
sg64
(lp4970
g57
(g58
g59
NtRp4971
(dp4972
g62
(dp4973
g70
I3
ssg71
g4967
sg64
(lp4974
g57
(g66
g59
NtRp4975
(dp4976
g62
(dp4977
g70
I2
ssg71
Nsg64
(lp4978
g57
(g73
g59
NtRp4979
(dp4980
g62
(dp4981
sg71
g4975
sg64
(lp4982
g57
(g78
g59
NtRp4983
(dp4984
g62
(dp4985
sg71
g4979
sg64
(lp4986
g57
(g58
g59
NtRp4987
(dp4988
g62
(dp4989
g70
I2
ssg71
g4983
sg64
(lp4990
g57
(g66
g59
NtRp4991
(dp4992
g62
(dp4993
g70
I1
ssg71
Nsg64
(lp4994
g57
(g73
g59
NtRp4995
(dp4996
g62
(dp4997
sg71
g4991
sg64
(lp4998
g57
(g78
g59
NtRp4999
(dp5000
g62
(dp5001
sg71
g4995
sg64
(lp5002
g57
(g58
g59
NtRp5003
(dp5004
g62
(dp5005
g70
I1
ssg71
g4999
sg64
(lp5006
g4709
asbasbasbag57
(g73
g59
NtRp5007
(dp5008
g62
(dp5009
sg71
g4991
sg64
(lp5010
g57
(g78
g59
NtRp5011
(dp5012
g62
(dp5013
sg71
g5007
sg64
(lp5014
g57
(g58
g59
NtRp5015
(dp5016
g62
(dp5017
g70
I1
ssg71
g5011
sg64
(lp5018
I00
asbasbasbag57
(g73
g59
NtRp5019
(dp5020
g62
(dp5021
sg71
g4991
sg64
(lp5022
g57
(g78
g59
NtRp5023
(dp5024
g62
(dp5025
sg71
g5019
sg64
(lp5026
g57
(g58
g59
NtRp5027
(dp5028
g62
(dp5029
g70
I1
ssg71
g5023
sg64
(lp5030
g4707
asbasbasbasbasbasbasbag57
(g73
g59
NtRp5031
(dp5032
g62
(dp5033
sg71
g4975
sg64
(lp5034
g57
(g78
g59
NtRp5035
(dp5036
g62
(dp5037
sg71
g5031
sg64
(lp5038
g57
(g58
g59
NtRp5039
(dp5040
g62
(dp5041
g70
I2
ssg71
g5035
sg64
(lp5042
g57
(g66
g59
NtRp5043
(dp5044
g62
(dp5045
g70
I1
ssg71
Nsg64
(lp5046
g57
(g73
g59
NtRp5047
(dp5048
g62
(dp5049
sg71
g5043
sg64
(lp5050
g57
(g78
g59
NtRp5051
(dp5052
g62
(dp5053
sg71
g5047
sg64
(lp5054
g57
(g58
g59
NtRp5055
(dp5056
g62
(dp5057
g70
I1
ssg71
g5051
sg64
(lp5058
g4718
asbasbasbag57
(g73
g59
NtRp5059
(dp5060
g62
(dp5061
sg71
g5043
sg64
(lp5062
g57
(g78
g59
NtRp5063
(dp5064
g62
(dp5065
sg71
g5059
sg64
(lp5066
g57
(g58
g59
NtRp5067
(dp5068
g62
(dp5069
g70
I1
ssg71
g5063
sg64
(lp5070
I00
asbasbasbag57
(g73
g59
NtRp5071
(dp5072
g62
(dp5073
sg71
g5043
sg64
(lp5074
g57
(g78
g59
NtRp5075
(dp5076
g62
(dp5077
sg71
g5071
sg64
(lp5078
g57
(g58
g59
NtRp5079
(dp5080
g62
(dp5081
g70
I1
ssg71
g5075
sg64
(lp5082
S''
asbasbasbag57
(g73
g59
NtRp5083
(dp5084
g62
(dp5085
sg71
g5043
sg64
(lp5086
g57
(g78
g59
NtRp5087
(dp5088
g62
(dp5089
sg71
g5083
sg64
(lp5090
g57
(g58
g59
NtRp5091
(dp5092
g62
(dp5093
g70
I1
ssg71
g5087
sg64
(lp5094
(lp5095
(g4732
I00
g4730
tp5096
a(g4742
I00
g4740
tp5097
a(g4752
I00
g4750
tp5098
a(g4762
I00
g4760
tp5099
aasbasbasbasbasbasbasbag57
(g73
g59
NtRp5100
(dp5101
g62
(dp5102
sg71
g4975
sg64
(lp5103
g57
(g78
g59
NtRp5104
(dp5105
g62
(dp5106
sg71
g5100
sg64
(lp5107
g57
(g58
g59
NtRp5108
(dp5109
g62
(dp5110
g70
I2
ssg71
g5104
sg64
(lp5111
g57
(g66
g59
NtRp5112
(dp5113
g62
(dp5114
g70
I1
ssg71
Nsg64
(lp5115
g57
(g73
g59
NtRp5116
(dp5117
g62
(dp5118
sg71
g5112
sg64
(lp5119
g57
(g78
g59
NtRp5120
(dp5121
g62
(dp5122
sg71
g5116
sg64
(lp5123
g57
(g58
g59
NtRp5124
(dp5125
g62
(dp5126
g70
I1
ssg71
g5120
sg64
(lp5127
g4771
asbasbasbag57
(g73
g59
NtRp5128
(dp5129
g62
(dp5130
sg71
g5112
sg64
(lp5131
g57
(g78
g59
NtRp5132
(dp5133
g62
(dp5134
sg71
g5128
sg64
(lp5135
g57
(g58
g59
NtRp5136
(dp5137
g62
(dp5138
g70
I1
ssg71
g5132
sg64
(lp5139
I00
asbasbasbag57
(g73
g59
NtRp5140
(dp5141
g62
(dp5142
sg71
g5112
sg64
(lp5143
g57
(g78
g59
NtRp5144
(dp5145
g62
(dp5146
sg71
g5140
sg64
(lp5147
g57
(g58
g59
NtRp5148
(dp5149
g62
(dp5150
g70
I1
ssg71
g5144
sg64
(lp5151
S''
asbasbasbag57
(g73
g59
NtRp5152
(dp5153
g62
(dp5154
sg71
g5112
sg64
(lp5155
g57
(g78
g59
NtRp5156
(dp5157
g62
(dp5158
sg71
g5152
sg64
(lp5159
g57
(g58
g59
NtRp5160
(dp5161
g62
(dp5162
g70
I1
ssg71
g5156
sg64
(lp5163
(lp5164
(g4785
I00
g4783
tp5165
a(g4795
I00
g4793
tp5166
a(g4805
I00
g4803
tp5167
a(g4815
I00
g4813
tp5168
aasbasbasbasbasbasbasbag57
(g73
g59
NtRp5169
(dp5170
g62
(dp5171
sg71
g4975
sg64
(lp5172
g57
(g78
g59
NtRp5173
(dp5174
g62
(dp5175
sg71
g5169
sg64
(lp5176
g57
(g58
g59
NtRp5177
(dp5178
g62
(dp5179
g70
I2
ssg71
g5173
sg64
(lp5180
g57
(g66
g59
NtRp5181
(dp5182
g62
(dp5183
g70
I1
ssg71
Nsg64
(lp5184
g57
(g73
g59
NtRp5185
(dp5186
g62
(dp5187
sg71
g5181
sg64
(lp5188
g57
(g78
g59
NtRp5189
(dp5190
g62
(dp5191
sg71
g5185
sg64
(lp5192
g57
(g58
g59
NtRp5193
(dp5194
g62
(dp5195
g70
I1
ssg71
g5189
sg64
(lp5196
g4825
asbasbasbag57
(g73
g59
NtRp5197
(dp5198
g62
(dp5199
sg71
g5181
sg64
(lp5200
g57
(g78
g59
NtRp5201
(dp5202
g62
(dp5203
sg71
g5197
sg64
(lp5204
g57
(g58
g59
NtRp5205
(dp5206
g62
(dp5207
g70
I1
ssg71
g5201
sg64
(lp5208
I00
asbasbasbag57
(g73
g59
NtRp5209
(dp5210
g62
(dp5211
sg71
g5181
sg64
(lp5212
g57
(g78
g59
NtRp5213
(dp5214
g62
(dp5215
sg71
g5209
sg64
(lp5216
g57
(g58
g59
NtRp5217
(dp5218
g62
(dp5219
g70
I1
ssg71
g5213
sg64
(lp5220
g4823
asbasbasbag57
(g73
g59
NtRp5221
(dp5222
g62
(dp5223
sg71
g5181
sg64
(lp5224
g57
(g78
g59
NtRp5225
(dp5226
g62
(dp5227
sg71
g5221
sg64
(lp5228
g57
(g58
g59
NtRp5229
(dp5230
g62
(dp5231
g70
I1
ssg71
g5225
sg64
(lp5232
(lp5233
(g4839
I00
g4837
tp5234
a(g4849
I00
g4847
tp5235
a(g4859
I00
g4857
tp5236
a(g4869
I00
g4867
tp5237
aasbasbasbasbasbasbasbag57
(g73
g59
NtRp5238
(dp5239
g62
(dp5240
sg71
g4975
sg64
(lp5241
g57
(g78
g59
NtRp5242
(dp5243
g62
(dp5244
sg71
g5238
sg64
(lp5245
g57
(g58
g59
NtRp5246
(dp5247
g62
(dp5248
g70
I2
ssg71
g5242
sg64
(lp5249
g57
(g66
g59
NtRp5250
(dp5251
g62
(dp5252
g70
I1
ssg71
Nsg64
(lp5253
g57
(g73
g59
NtRp5254
(dp5255
g62
(dp5256
sg71
g5250
sg64
(lp5257
g57
(g78
g59
NtRp5258
(dp5259
g62
(dp5260
sg71
g5254
sg64
(lp5261
g57
(g58
g59
NtRp5262
(dp5263
g62
(dp5264
g70
I1
ssg71
g5258
sg64
(lp5265
g4878
asbasbasbag57
(g73
g59
NtRp5266
(dp5267
g62
(dp5268
sg71
g5250
sg64
(lp5269
g57
(g78
g59
NtRp5270
(dp5271
g62
(dp5272
sg71
g5266
sg64
(lp5273
g57
(g58
g59
NtRp5274
(dp5275
g62
(dp5276
g70
I1
ssg71
g5270
sg64
(lp5277
I00
asbasbasbag57
(g73
g59
NtRp5278
(dp5279
g62
(dp5280
sg71
g5250
sg64
(lp5281
g57
(g78
g59
NtRp5282
(dp5283
g62
(dp5284
sg71
g5278
sg64
(lp5285
g57
(g58
g59
NtRp5286
(dp5287
g62
(dp5288
g70
I1
ssg71
g5282
sg64
(lp5289
Nasbasbasbag57
(g73
g59
NtRp5290
(dp5291
g62
(dp5292
sg71
g5250
sg64
(lp5293
g57
(g78
g59
NtRp5294
(dp5295
g62
(dp5296
sg71
g5290
sg64
(lp5297
g57
(g58
g59
NtRp5298
(dp5299
g62
(dp5300
g70
I1
ssg71
g5294
sg64
(lp5301
(lp5302
(g4892
I00
g4890
tp5303
a(g4902
I00
g4900
tp5304
aasbasbasbasbasbasbasbag57
(g73
g59
NtRp5305
(dp5306
g62
(dp5307
sg71
g4975
sg64
(lp5308
g57
(g78
g59
NtRp5309
(dp5310
g62
(dp5311
sg71
g5305
sg64
(lp5312
g57
(g58
g59
NtRp5313
(dp5314
g62
(dp5315
g70
I2
ssg71
g5309
sg64
(lp5316
g57
(g66
g59
NtRp5317
(dp5318
g62
(dp5319
g70
I1
ssg71
Nsg64
(lp5320
g57
(g73
g59
NtRp5321
(dp5322
g62
(dp5323
sg71
g5317
sg64
(lp5324
g57
(g78
g59
NtRp5325
(dp5326
g62
(dp5327
sg71
g5321
sg64
(lp5328
g57
(g58
g59
NtRp5329
(dp5330
g62
(dp5331
g70
I1
ssg71
g5325
sg64
(lp5332
g4911
asbasbasbag57
(g73
g59
NtRp5333
(dp5334
g62
(dp5335
sg71
g5317
sg64
(lp5336
g57
(g78
g59
NtRp5337
(dp5338
g62
(dp5339
sg71
g5333
sg64
(lp5340
g57
(g58
g59
NtRp5341
(dp5342
g62
(dp5343
g70
I1
ssg71
g5337
sg64
(lp5344
I00
asbasbasbag57
(g73
g59
NtRp5345
(dp5346
g62
(dp5347
sg71
g5317
sg64
(lp5348
g57
(g78
g59
NtRp5349
(dp5350
g62
(dp5351
sg71
g5345
sg64
(lp5352
g57
(g58
g59
NtRp5353
(dp5354
g62
(dp5355
g70
I1
ssg71
g5349
sg64
(lp5356
Nasbasbasbag57
(g73
g59
NtRp5357
(dp5358
g62
(dp5359
sg71
g5317
sg64
(lp5360
g57
(g78
g59
NtRp5361
(dp5362
g62
(dp5363
sg71
g5357
sg64
(lp5364
g57
(g58
g59
NtRp5365
(dp5366
g62
(dp5367
g70
I1
ssg71
g5361
sg64
(lp5368
(lp5369
(g4925
I00
g4923
tp5370
a(g4935
I00
g4933
tp5371
aasbasbasbasbasbasbasbasbasbasbasbasbasbasbasbasbasbasbasbag57
(g73
g59
NtRp5372
(dp5373
g62
(dp5374
sg71
g3954
sg64
(lp5375
g57
(g78
g59
NtRp5376
(dp5377
g62
(dp5378
g82
g83
ssg71
g5372
sg64
(lp5379
S'meta'
p5380
asbag57
(g78
g59
NtRp5381
(dp5382
g62
(dp5383
g89
g90
ssg71
g5372
sg64
(lp5384
S':'
asbag57
(g78
g59
NtRp5385
(dp5386
g62
(dp5387
sg71
g5372
sg64
(lp5388
g57
(g58
g59
NtRp5389
(dp5390
g62
(dp5391
g70
I5
ssg71
g5385
sg64
(lp5392
g57
(g66
g59
NtRp5393
(dp5394
g62
(dp5395
g70
I4
ssg71
Nsg64
(lp5396
g57
(g73
g59
NtRp5397
(dp5398
g62
(dp5399
sg71
g5393
sg64
(lp5400
g57
(g78
g59
NtRp5401
(dp5402
g62
(dp5403
g82
g83
ssg71
g5397
sg64
(lp5404
S'author'
p5405
asbag57
(g78
g59
NtRp5406
(dp5407
g62
(dp5408
g89
g90
ssg71
g5397
sg64
(lp5409
S':'
asbag57
(g78
g59
NtRp5410
(dp5411
g62
(dp5412
sg71
g5397
sg64
(lp5413
g57
(g58
g59
NtRp5414
(dp5415
g62
(dp5416
g70
I4
ssg71
g5410
sg64
(lp5417
S'Your Name <you@example.com>'
p5418
asbasbasbag57
(g73
g59
NtRp5419
(dp5420
g62
(dp5421
sg71
g5393
sg64
(lp5422
g57
(g78
g59
NtRp5423
(dp5424
g62
(dp5425
g82
g83
ssg71
g5419
sg64
(lp5426
S'description'
p5427
asbag57
(g78
g59
NtRp5428
(dp5429
g62
(dp5430
g89
g90
ssg71
g5419
sg64
(lp5431
S':'
asbag57
(g78
g59
NtRp5432
(dp5433
g62
(dp5434
sg71
g5419
sg64
(lp5435
g57
(g58
g59
NtRp5436
(dp5437
g62
(dp5438
g70
I4
ssg71
g5432
sg64
(lp5439
S'a cool new app'
p5440
asbasbasbag57
(g73
g59
NtRp5441
(dp5442
g62
(dp5443
sg71
g5393
sg64
(lp5444
g57
(g78
g59
NtRp5445
(dp5446
g62
(dp5447
g82
g83
ssg71
g5441
sg64
(lp5448
S'generator'
p5449
asbag57
(g78
g59
NtRp5450
(dp5451
g62
(dp5452
g89
g90
ssg71
g5441
sg64
(lp5453
S':'
asbag57
(g78
g59
NtRp5454
(dp5455
g62
(dp5456
sg71
g5441
sg64
(lp5457
g57
(g58
g59
NtRp5458
(dp5459
g62
(dp5460
g70
I4
ssg71
g5454
sg64
(lp5461
S'Web2py Web Framework'
p5462
asbasbasbag57
(g73
g59
NtRp5463
(dp5464
g62
(dp5465
sg71
g5393
sg64
(lp5466
g57
(g78
g59
NtRp5467
(dp5468
g62
(dp5469
g82
g83
ssg71
g5463
sg64
(lp5470
S'keywords'
p5471
asbag57
(g78
g59
NtRp5472
(dp5473
g62
(dp5474
g89
g90
ssg71
g5463
sg64
(lp5475
S':'
asbag57
(g78
g59
NtRp5476
(dp5477
g62
(dp5478
sg71
g5463
sg64
(lp5479
g57
(g58
g59
NtRp5480
(dp5481
g62
(dp5482
g70
I4
ssg71
g5476
sg64
(lp5483
S'web2py, python, framework'
p5484
asbasbasbasbasbasbasbag57
(g73
g59
NtRp5485
(dp5486
g62
(dp5487
sg71
g3954
sg64
(lp5488
g57
(g78
g59
NtRp5489
(dp5490
g62
(dp5491
g82
g83
ssg71
g5485
sg64
(lp5492
S'models_to_run'
p5493
asbag57
(g78
g59
NtRp5494
(dp5495
g62
(dp5496
g89
g90
ssg71
g5485
sg64
(lp5497
S':'
asbag57
(g78
g59
NtRp5498
(dp5499
g62
(dp5500
sg71
g5485
sg64
(lp5501
g57
(g58
g59
NtRp5502
(dp5503
g62
(dp5504
g70
I5
ssg71
g5498
sg64
(lp5505
g57
(g66
g59
NtRp5506
(dp5507
g62
(dp5508
g70
I4
ssg71
Nsg64
(lp5509
g57
(g73
g59
NtRp5510
(dp5511
g62
(dp5512
sg71
g5506
sg64
(lp5513
g57
(g78
g59
NtRp5514
(dp5515
g62
(dp5516
sg71
g5510
sg64
(lp5517
g57
(g58
g59
NtRp5518
(dp5519
g62
(dp5520
g70
I4
ssg71
g5514
sg64
(lp5521
S'^\\w+\\.py$'
p5522
asbasbasbag57
(g73
g59
NtRp5523
(dp5524
g62
(dp5525
sg71
g5506
sg64
(lp5526
g57
(g78
g59
NtRp5527
(dp5528
g62
(dp5529
sg71
g5523
sg64
(lp5530
g57
(g58
g59
NtRp5531
(dp5532
g62
(dp5533
g70
I4
ssg71
g5527
sg64
(lp5534
S'^default/\\w+\\.py$'
p5535
asbasbasbag57
(g73
g59
NtRp5536
(dp5537
g62
(dp5538
sg71
g5506
sg64
(lp5539
g57
(g78
g59
NtRp5540
(dp5541
g62
(dp5542
sg71
g5536
sg64
(lp5543
g57
(g58
g59
NtRp5544
(dp5545
g62
(dp5546
g70
I4
ssg71
g5540
sg64
(lp5547
S'^default/categories/\\w+\\.py$'
p5548
asbasbasbasbasbasbasbag57
(g73
g59
NtRp5549
(dp5550
g62
(dp5551
sg71
g3954
sg64
(lp5552
g57
(g78
g59
NtRp5553
(dp5554
g62
(dp5555
g82
g83
ssg71
g5549
sg64
(lp5556
S'postprocessing'
p5557
asbag57
(g78
g59
NtRp5558
(dp5559
g62
(dp5560
g89
g90
ssg71
g5549
sg64
(lp5561
S':'
asbag57
(g78
g59
NtRp5562
(dp5563
g62
(dp5564
sg71
g5549
sg64
(lp5565
g57
(g58
g59
NtRp5566
(dp5567
g62
(dp5568
g70
I5
ssg71
g5562
sg64
(lp5569
g57
(g66
g59
NtRp5570
(dp5571
g62
(dp5572
g70
I4
ssg71
Nsg64
(lp5573
sbasbasbasbag57
(g73
g59
NtRp5574
(dp5575
g62
(dp5576
sg71
g3954
sg64
(lp5577
g57
(g78
g59
NtRp5578
(dp5579
g62
(dp5580
g82
g83
ssg71
g5574
sg64
(lp5581
S'session_cookie_expires'
p5582
asbag57
(g78
g59
NtRp5583
(dp5584
g62
(dp5585
g89
g90
ssg71
g5574
sg64
(lp5586
S':'
asbag57
(g78
g59
NtRp5587
(dp5588
g62
(dp5589
sg71
g5574
sg64
(lp5590
g57
(g58
g59
NtRp5591
(dp5592
g62
(dp5593
g70
I5
ssg71
g5587
sg64
(lp5594
S'None'
p5595
asbasbasbag57
(g73
g59
NtRp5596
(dp5597
g62
(dp5598
sg71
g3954
sg64
(lp5599
g57
(g78
g59
NtRp5600
(dp5601
g62
(dp5602
g82
g83
ssg71
g5596
sg64
(lp5603
S'session_data_name'
p5604
asbag57
(g78
g59
NtRp5605
(dp5606
g62
(dp5607
g89
g90
ssg71
g5596
sg64
(lp5608
S':'
asbag57
(g78
g59
NtRp5609
(dp5610
g62
(dp5611
sg71
g5596
sg64
(lp5612
g57
(g58
g59
NtRp5613
(dp5614
g62
(dp5615
g70
I5
ssg71
g5609
sg64
(lp5616
S'session_data_buysell'
p5617
asbasbasbag57
(g73
g59
NtRp5618
(dp5619
g62
(dp5620
sg71
g3954
sg64
(lp5621
g57
(g78
g59
NtRp5622
(dp5623
g62
(dp5624
g82
g83
ssg71
g5618
sg64
(lp5625
S'session_file'
p5626
asbag57
(g78
g59
NtRp5627
(dp5628
g62
(dp5629
g89
g90
ssg71
g5618
sg64
(lp5630
S':'
asbag57
(g78
g59
NtRp5631
(dp5632
g62
(dp5633
sg71
g5618
sg64
(lp5634
g57
(g58
g59
NtRp5635
(dp5636
g62
(dp5637
g70
I5
ssg71
g5631
sg64
(lp5638
S"<open file '/home/pratyush/web2py/applications/BuySell/sessions/127.0.0.1-f42b8fb6-bce7-404a-b975-99002423340f', mode 'rb+' at 0xa08dde0>"
p5639
asbasbasbag57
(g73
g59
NtRp5640
(dp5641
g62
(dp5642
sg71
g3954
sg64
(lp5643
g57
(g78
g59
NtRp5644
(dp5645
g62
(dp5646
g82
g83
ssg71
g5640
sg64
(lp5647
S'session_filename'
p5648
asbag57
(g78
g59
NtRp5649
(dp5650
g62
(dp5651
g89
g90
ssg71
g5640
sg64
(lp5652
S':'
asbag57
(g78
g59
NtRp5653
(dp5654
g62
(dp5655
sg71
g5640
sg64
(lp5656
g57
(g58
g59
NtRp5657
(dp5658
g62
(dp5659
g70
I5
ssg71
g5653
sg64
(lp5660
S'/home/pratyush/web2py/applications/BuySell/sessions/127.0.0.1-f42b8fb6-bce7-404a-b975-99002423340f'
p5661
asbasbasbag57
(g73
g59
NtRp5662
(dp5663
g62
(dp5664
sg71
g3954
sg64
(lp5665
g57
(g78
g59
NtRp5666
(dp5667
g62
(dp5668
g82
g83
ssg71
g5662
sg64
(lp5669
S'session_id'
p5670
asbag57
(g78
g59
NtRp5671
(dp5672
g62
(dp5673
g89
g90
ssg71
g5662
sg64
(lp5674
S':'
asbag57
(g78
g59
NtRp5675
(dp5676
g62
(dp5677
sg71
g5662
sg64
(lp5678
g57
(g58
g59
NtRp5679
(dp5680
g62
(dp5681
g70
I5
ssg71
g5675
sg64
(lp5682
g673
asbasbasbag57
(g73
g59
NtRp5683
(dp5684
g62
(dp5685
sg71
g3954
sg64
(lp5686
g57
(g78
g59
NtRp5687
(dp5688
g62
(dp5689
g82
g83
ssg71
g5683
sg64
(lp5690
S'session_id_name'
p5691
asbag57
(g78
g59
NtRp5692
(dp5693
g62
(dp5694
g89
g90
ssg71
g5683
sg64
(lp5695
S':'
asbag57
(g78
g59
NtRp5696
(dp5697
g62
(dp5698
sg71
g5683
sg64
(lp5699
g57
(g58
g59
NtRp5700
(dp5701
g62
(dp5702
g70
I5
ssg71
g5696
sg64
(lp5703
g4011
asbasbasbag57
(g73
g59
NtRp5704
(dp5705
g62
(dp5706
sg71
g3954
sg64
(lp5707
g57
(g78
g59
NtRp5708
(dp5709
g62
(dp5710
g82
g83
ssg71
g5704
sg64
(lp5711
S'session_locked'
p5712
asbag57
(g78
g59
NtRp5713
(dp5714
g62
(dp5715
g89
g90
ssg71
g5704
sg64
(lp5716
S':'
asbag57
(g78
g59
NtRp5717
(dp5718
g62
(dp5719
sg71
g5704
sg64
(lp5720
g57
(g58
g59
NtRp5721
(dp5722
g62
(dp5723
g70
I5
ssg71
g5717
sg64
(lp5724
g2011
asbasbasbag57
(g73
g59
NtRp5725
(dp5726
g62
(dp5727
sg71
g3954
sg64
(lp5728
g57
(g78
g59
NtRp5729
(dp5730
g62
(dp5731
g82
g83
ssg71
g5725
sg64
(lp5732
S'session_new'
p5733
asbag57
(g78
g59
NtRp5734
(dp5735
g62
(dp5736
g89
g90
ssg71
g5725
sg64
(lp5737
S':'
asbag57
(g78
g59
NtRp5738
(dp5739
g62
(dp5740
sg71
g5725
sg64
(lp5741
g57
(g58
g59
NtRp5742
(dp5743
g62
(dp5744
g70
I5
ssg71
g5738
sg64
(lp5745
g100
asbasbasbag57
(g73
g59
NtRp5746
(dp5747
g62
(dp5748
sg71
g3954
sg64
(lp5749
g57
(g78
g59
NtRp5750
(dp5751
g62
(dp5752
g82
g83
ssg71
g5746
sg64
(lp5753
S'session_storage_type'
p5754
asbag57
(g78
g59
NtRp5755
(dp5756
g62
(dp5757
g89
g90
ssg71
g5746
sg64
(lp5758
S':'
asbag57
(g78
g59
NtRp5759
(dp5760
g62
(dp5761
sg71
g5746
sg64
(lp5762
g57
(g58
g59
NtRp5763
(dp5764
g62
(dp5765
g70
I5
ssg71
g5759
sg64
(lp5766
g3484
asbasbasbag57
(g73
g59
NtRp5767
(dp5768
g62
(dp5769
sg71
g3954
sg64
(lp5770
g57
(g78
g59
NtRp5771
(dp5772
g62
(dp5773
g82
g83
ssg71
g5767
sg64
(lp5774
S'status'
p5775
asbag57
(g78
g59
NtRp5776
(dp5777
g62
(dp5778
g89
g90
ssg71
g5767
sg64
(lp5779
S':'
asbag57
(g78
g59
NtRp5780
(dp5781
g62
(dp5782
sg71
g5767
sg64
(lp5783
g57
(g58
g59
NtRp5784
(dp5785
g62
(dp5786
g70
I5
ssg71
g5780
sg64
(lp5787
S'200'
p5788
asbasbasbag57
(g73
g59
NtRp5789
(dp5790
g62
(dp5791
sg71
g3954
sg64
(lp5792
g57
(g78
g59
NtRp5793
(dp5794
g62
(dp5795
g82
g83
ssg71
g5789
sg64
(lp5796
S'subtitle'
p5797
asbag57
(g78
g59
NtRp5798
(dp5799
g62
(dp5800
g89
g90
ssg71
g5789
sg64
(lp5801
S':'
asbag57
(g78
g59
NtRp5802
(dp5803
g62
(dp5804
sg71
g5789
sg64
(lp5805
g57
(g58
g59
NtRp5806
(dp5807
g62
(dp5808
g70
I5
ssg71
g5802
sg64
(lp5809
g4585
(S's\r\x00\x00\x00customize me!'
tRp5810
asbasbasbag57
(g73
g59
NtRp5811
(dp5812
g62
(dp5813
sg71
g3954
sg64
(lp5814
g57
(g78
g59
NtRp5815
(dp5816
g62
(dp5817
g82
g83
ssg71
g5811
sg64
(lp5818
S'title'
p5819
asbag57
(g78
g59
NtRp5820
(dp5821
g62
(dp5822
g89
g90
ssg71
g5811
sg64
(lp5823
S':'
asbag57
(g78
g59
NtRp5824
(dp5825
g62
(dp5826
sg71
g5811
sg64
(lp5827
g57
(g58
g59
NtRp5828
(dp5829
g62
(dp5830
g70
I5
ssg71
g5824
sg64
(lp5831
S'Buysell'
p5832
asbasbasbag57
(g73
g59
NtRp5833
(dp5834
g62
(dp5835
sg71
g3954
sg64
(lp5836
g57
(g78
g59
NtRp5837
(dp5838
g62
(dp5839
g82
g83
ssg71
g5833
sg64
(lp5840
S'view'
p5841
asbag57
(g78
g59
NtRp5842
(dp5843
g62
(dp5844
g89
g90
ssg71
g5833
sg64
(lp5845
S':'
asbag57
(g78
g59
NtRp5846
(dp5847
g62
(dp5848
sg71
g5833
sg64
(lp5849
g57
(g58
g59
NtRp5850
(dp5851
g62
(dp5852
g70
I5
ssg71
g5846
sg64
(lp5853
S'default/categories.html'
p5854
asbasbasbasbasbsS'locals'
p5855
(dp5856
S'Service'
p5857
S"<class 'gluon.tools.Service'>"
p5858
sS'OBJECT'
p5859
S"<class 'gluon.html.OBJECT'>"
p5860
sS'SQLDB'
p5861
S"<class 'gluon.dal.DAL'>"
p5862
sg3537
S"<Storage {'last_query': 'db.sold.id>0', '_user_a...login]': '15aa343b-d344-492d-ba54-b74265b26641'}>"
p5863
sS'LINK'
p5864
S"<class 'gluon.html.LINK'>"
p5865
sS'BR'
p5866
S"<class 'gluon.html.BR'>"
p5867
sS'local_import'
p5868
S'<function <lambda>>'
p5869
sS'OPTGROUP'
p5870
S"<class 'gluon.html.OPTGROUP'>"
p5871
sS'__package__'
p5872
S'None'
p5873
sS'PRE'
p5874
S"<class 'gluon.html.PRE'>"
p5875
sS'IS_INT_IN_RANGE'
p5876
S"<class 'gluon.validators.IS_INT_IN_RANGE'>"
p5877
sS'left_sidebar_enabled'
p5878
g100
sS'IS_LOWER'
p5879
S"<class 'gluon.validators.IS_LOWER'>"
p5880
sS'IS_STRONG'
p5881
S"<class 'gluon.validators.IS_STRONG'>"
p5882
sS'cache'
p5883
S'<gluon.cache.Cache object>'
p5884
sS'IS_IN_DB'
p5885
S"<class 'gluon.validators.IS_IN_DB'>"
p5886
sS'TAG'
p5887
S'<gluon.html.__TAG__ object>'
p5888
sS'SQLField'
p5889
S"<class 'gluon.dal.Field'>"
p5890
sS'mail'
p5891
S'<gluon.tools.Mail object>'
p5892
sS'BODY'
p5893
S"<class 'gluon.html.BODY'>"
p5894
sS'IS_DATE_IN_RANGE'
p5895
S"<class 'gluon.validators.IS_DATE_IN_RANGE'>"
p5896
sS'IFRAME'
p5897
S"<class 'gluon.html.IFRAME'>"
p5898
sS'URL'
p5899
S'<function URL>'
p5900
sS'__file__'
p5901
S"'/home/pratyush/web2py/applications/BuySell/views/default/categories.html'"
p5902
sS'db'
p5903
S'<DAL uri="sqlite://storage.sqlite">'
p5904
sS'auth'
p5905
S'<gluon.tools.Auth object>'
p5906
sS'P'
S"<class 'gluon.html.P'>"
p5907
sS'TFOOT'
p5908
S"<class 'gluon.html.TFOOT'>"
p5909
sS'XHTML'
p5910
S"<class 'gluon.html.XHTML'>"
p5911
sS'ON'
p5912
g2011
sS'OL'
p5913
S"<class 'gluon.html.OL'>"
p5914
sS'TEXTAREA'
p5915
S"<class 'gluon.html.TEXTAREA'>"
p5916
sS'MENU'
p5917
S"<class 'gluon.html.MENU'>"
p5918
sS'form1'
p5919
S'<gluon.html.FORM object>'
p5920
sS'IS_IMAGE'
p5921
S"<class 'gluon.validators.IS_IMAGE'>"
p5922
sS'EM'
p5923
S"<class 'gluon.html.EM'>"
p5924
sS'CODE'
p5925
S"<class 'gluon.html.CODE'>"
p5926
sS'HTTP'
p5927
S"<class 'gluon.http.HTTP'>"
p5928
sS'HR'
p5929
S"<class 'gluon.html.HR'>"
p5930
sS'IS_DATETIME'
p5931
S"<class 'gluon.validators.IS_DATETIME'>"
p5932
sS'STYLE'
p5933
S"<class 'gluon.html.STYLE'>"
p5934
sS'LABEL'
p5935
S"<class 'gluon.html.LABEL'>"
p5936
sS'CLEANUP'
p5937
S"<class 'gluon.validators.CLEANUP'>"
p5938
sS'plugins'
p5939
S'<gluon.tools.PluginManager object>'
p5940
sS'SELECT'
p5941
S"<class 'gluon.html.SELECT'>"
p5942
sS'use_janrain'
p5943
S'<function use_janrain>'
p5944
sS'CENTER'
p5945
S"<class 'gluon.html.CENTER'>"
p5946
sS'prettydate'
p5947
S'<function prettydate>'
p5948
sS'Crud'
p5949
S"<class 'gluon.tools.Crud'>"
p5950
sS'Auth'
p5951
S"<class 'gluon.tools.Auth'>"
p5952
sS'DEVELOPMENT_MENU'
p5953
g2011
sS'__builtins__'
p5954
S"{'ArithmeticError': <type 'exceptions.ArithmeticError'>, 'AssertionError': <type 'exceptions.AssertionError'>, 'AttributeError': <type 'exceptions.AttributeError'>, 'BaseException': <type 'exceptions.BaseException'>, 'BufferError': <type 'exceptions.BufferError'>, 'BytesWarning': <type 'exceptions.BytesWarning'>, 'DeprecationWarning': <type 'exceptions.DeprecationWarning'>, 'EOFError': <type 'exceptions.EOFError'>, 'Ellipsis': Ellipsis, 'EnvironmentError': <type 'exceptions.EnvironmentError'>, ...}"
p5955
sS'HTML'
p5956
S"<class 'gluon.html.HTML'>"
p5957
sS'SQLFORM'
p5958
S"<class 'gluon.sqlhtml.SQLFORM'>"
p5959
sS'LOAD'
p5960
S'<function LOAD>'
p5961
sS'redirect'
p5962
S'<function redirect>'
p5963
sS'FIELDSET'
p5964
S"<class 'gluon.html.FIELDSET'>"
p5965
sS'IS_EQUAL_TO'
p5966
S"<class 'gluon.validators.IS_EQUAL_TO'>"
p5967
sS'embed64'
p5968
S'<function embed64>'
p5969
sS'IS_LIST_OF'
p5970
S"<class 'gluon.validators.IS_LIST_OF'>"
p5971
sS'INPUT'
p5972
S"<class 'gluon.html.INPUT'>"
p5973
sS'EMBED'
p5974
S"<class 'gluon.html.EMBED'>"
p5975
sS'_'
S'<function _>'
p5976
sS'H2'
p5977
S"<class 'gluon.html.H2'>"
p5978
sS'H3'
p5979
S"<class 'gluon.html.H3'>"
p5980
sS'BUTTON'
p5981
S"<class 'gluon.html.BUTTON'>"
p5982
sS'H1'
p5983
S"<class 'gluon.html.H1'>"
p5984
sS'H6'
p5985
S"<class 'gluon.html.H6'>"
p5986
sS'H4'
p5987
S"<class 'gluon.html.H4'>"
p5988
sS'H5'
p5989
S"<class 'gluon.html.H5'>"
p5990
sS'UL'
p5991
S"<class 'gluon.html.UL'>"
p5992
sS'IS_UPPER'
p5993
S"<class 'gluon.validators.IS_UPPER'>"
p5994
sS'xmlescape'
p5995
S'<function xmlescape>'
p5996
sS'IS_TIME'
p5997
S"<class 'gluon.validators.IS_TIME'>"
p5998
sS'OPTION'
p5999
S"<class 'gluon.html.OPTION'>"
p6000
sS'TITLE'
p6001
S"<class 'gluon.html.TITLE'>"
p6002
sS'CRYPT'
p6003
S"<class 'gluon.validators.CRYPT'>"
p6004
sS'IS_EMPTY_OR'
p6005
S"<class 'gluon.validators.IS_EMPTY_OR'>"
p6006
sS'MARKMIN'
p6007
S"<class 'gluon.html.MARKMIN'>"
p6008
sS'__name__'
p6009
S"'__restricted__'"
p6010
sS'STRONG'
p6011
S"<class 'gluon.html.STRONG'>"
p6012
sS'COL'
p6013
S"<class 'gluon.html.COL'>"
p6014
sS'service'
p6015
S'<gluon.tools.Service object>'
p6016
sS'SCRIPT'
p6017
S"<class 'gluon.html.SCRIPT'>"
p6018
sS'is_mobile'
p6019
g100
sS'TABLE'
p6020
S"<class 'gluon.html.TABLE'>"
p6021
sS'IS_IPV4'
p6022
S"<class 'gluon.validators.IS_IPV4'>"
p6023
sS'IS_LENGTH'
p6024
S"<class 'gluon.validators.IS_LENGTH'>"
p6025
sS'XML'
p6026
S"<class 'gluon.html.XML'>"
p6027
sS'B'
S"<class 'gluon.html.B'>"
p6028
sS'IMG'
p6029
S"<class 'gluon.html.IMG'>"
p6030
sS'SQLTABLE'
p6031
S"<class 'gluon.sqlhtml.SQLTABLE'>"
p6032
sS'IS_MATCH'
p6033
S"<class 'gluon.validators.IS_MATCH'>"
p6034
sS'IS_ALPHANUMERIC'
p6035
S"<class 'gluon.validators.IS_ALPHANUMERIC'>"
p6036
sS'SPAN'
p6037
S"<class 'gluon.html.SPAN'>"
p6038
sS'IS_SLUG'
p6039
S"<class 'gluon.validators.IS_SLUG'>"
p6040
sS'BEAUTIFY'
p6041
S"<class 'gluon.html.BEAUTIFY'>"
p6042
sS'META'
p6043
S"<class 'gluon.html.META'>"
p6044
sS'items'
p6045
S'None'
p6046
sS'IS_DATE'
p6047
S"<class 'gluon.validators.IS_DATE'>"
p6048
sS'IS_EMAIL'
p6049
S"<class 'gluon.validators.IS_EMAIL'>"
p6050
sS'IS_NOT_EMPTY'
p6051
S"<class 'gluon.validators.IS_NOT_EMPTY'>"
p6052
sS'IS_FLOAT_IN_RANGE'
p6053
S"<class 'gluon.validators.IS_FLOAT_IN_RANGE'>"
p6054
sS'TBODY'
p6055
S"<class 'gluon.html.TBODY'>"
p6056
sS'CAT'
p6057
S"<class 'gluon.html.CAT'>"
p6058
sS'Field'
p6059
S"<class 'gluon.dal.Field'>"
p6060
sS'middle_columns'
p6061
S"'span12'"
p6062
sS'DIV'
p6063
S"<class 'gluon.html.DIV'>"
p6064
sS'LEGEND'
p6065
S"<class 'gluon.html.LEGEND'>"
p6066
sS'COLGROUP'
p6067
S"<class 'gluon.html.COLGROUP'>"
p6068
sS'DAL'
p6069
S"<class 'gluon.dal.DAL'>"
p6070
sS'TT'
p6071
S"<class 'gluon.html.TT'>"
p6072
sS'TR'
p6073
S"<class 'gluon.html.TR'>"
p6074
sS'LI'
p6075
S"<class 'gluon.html.LI'>"
p6076
sS'right_sidebar_enabled'
p6077
g100
sS'TH'
p6078
S"<class 'gluon.html.TH'>"
p6079
sS'TD'
p6080
S"<class 'gluon.html.TD'>"
p6081
sS'PluginManager'
p6082
S"<class 'gluon.tools.PluginManager'>"
p6083
sS'IS_URL'
p6084
S"<class 'gluon.validators.IS_URL'>"
p6085
sS'A'
S"<class 'gluon.html.A'>"
p6086
sS'HEAD'
p6087
S"<class 'gluon.html.HEAD'>"
p6088
sS'IS_DATETIME_IN_RANGE'
p6089
S"<class 'gluon.validators.IS_DATETIME_IN_RANGE'>"
p6090
sS'FORM'
p6091
S"<class 'gluon.html.FORM'>"
p6092
sS'I'
S"<class 'gluon.html.I'>"
p6093
sS'crud'
p6094
S'<gluon.tools.Crud object>'
p6095
sS'IS_NOT_IN_DB'
p6096
S"<class 'gluon.validators.IS_NOT_IN_DB'>"
p6097
sg3949
S"<Storage {'body': <cStringIO.StringO object at 0...t 0xa6afcdc>, 'view': 'default/categories.html'}>"
p6098
sS'THEAD'
p6099
S"<class 'gluon.html.THEAD'>"
p6100
sS'IS_NULL_OR'
p6101
S"<class 'gluon.validators.IS_EMPTY_OR'>"
p6102
sg56
S"<Storage {'function': 'categories', 'body': <cSt...plications/BuySell/', 'post_vars': <Storage {}>}>"
p6103
sS'IS_EXPR'
p6104
S"<class 'gluon.validators.IS_EXPR'>"
p6105
sS'T'
S'<gluon.languages.translator object>'
p6106
sS'IS_IN_SET'
p6107
S"<class 'gluon.validators.IS_IN_SET'>"
p6108
sS'IS_UPLOAD_FILENAME'
p6109
S"<class 'gluon.validators.IS_UPLOAD_FILENAME'>"
p6110
sS'IS_DECIMAL_IN_RANGE'
p6111
S"<class 'gluon.validators.IS_DECIMAL_IN_RANGE'>"
p6112
sssS'traceback'
p6113
S'Traceback (most recent call last):\n  File "/home/pratyush/web2py/gluon/restricted.py", line 212, in restricted\n    exec ccode in environment\n  File "/home/pratyush/web2py/applications/BuySell/views/default/categories.html", line 77, in <module>\nTypeError: \'NoneType\' object is not iterable\n'
p6114
s.