(dp1
S'output'
p2
S"<type 'exceptions.NameError'> global name 'wish' is not defined"
p3
sS'layer'
p4
S'/home/pratyush/web2py/applications/BuySell/controllers/default.py'
p5
sS'code'
p6
S'# -*- coding: utf-8 -*-\n# this file is released under public domain and you can use without limitations\n\n#########################################################################\n## This is a samples controller\n## - index is the default action of any application\n## - user is required for authentication and authorization\n## - download is for downloading files uploaded in the db (does streaming)\n## - call exposes all registered services (none by default)\n#########################################################################\n\n\ndef index():\n    """\n    example action using the internationalization operator T and flash\n    rendered by views/default/index.html or views/generic.html\n\n    if you need a simple wiki simple replace the two lines below with:\n    return auth.wiki()\n    """\n    response.flash = T("Welcome to web2py!")\n    return dict(message=T(\'Hello World\'))\n\n\ndef user():\n    """\n    exposes:\n    http://..../[app]/default/user/login\n    http://..../[app]/default/user/logout\n    http://..../[app]/default/user/register\n    http://..../[app]/default/user/profile\n    http://..../[app]/default/user/retrieve_password\n    http://..../[app]/default/user/change_password\n    use @auth.requires_login()\n        @auth.requires_membership(\'group name\')\n        @auth.requires_permission(\'read\',\'table name\',record_id)\n    to decorate functions that need access control\n    """\n    return dict(form=auth())\n\n\ndef download():\n    """\n    allows downloading of uploaded files\n    http://..../[app]/default/download/[filename]\n    """\n    return response.download(request, db)\n\n\ndef call():\n    """\n    exposes services. for example:\n    http://..../[app]/default/call/jsonrpc\n    decorate with @services.jsonrpc the functions to expose\n    supports xml, json, xmlrpc, jsonrpc, amfrpc, rss, csv\n    """\n    return service()\n\n\n@auth.requires_signature()\ndef data():\n    """\n    http://..../[app]/default/data/tables\n    http://..../[app]/default/data/create/[table]\n    http://..../[app]/default/data/read/[table]/[id]\n    http://..../[app]/default/data/update/[table]/[id]\n    http://..../[app]/default/data/delete/[table]/[id]\n    http://..../[app]/default/data/select/[table]\n    http://..../[app]/default/data/search/[table]\n    but URLs must be signed, i.e. linked with\n      A(\'table\',_href=URL(\'data/tables\',user_signature=True))\n    or with the signed load operator\n      LOAD(\'default\',\'data.load\',args=\'tables\',ajax=True,user_signature=True)\n    """\n    return dict(form=crud())\n\n@auth.requires_login()\ndef list_items():\n    #items = db().select(db.item.ALL)\n    \n    name=TD(\'Search item:\')\n    namebox=TD(INPUT(_id=\'item_title\',_name=\'item[name]\',_size=\'50\',_type=\'text\',requires=IS_NOT_EMPTY()),DIV_class=\'auto_complete\',_id=\'item_name_auto_complete\')   \n    submit=TD(INPUT(_type=\'submit\',_name=\'submit\',_value=\'Submit\'))\n    #descr=TD(\'Search Publication(s) by Author:\')\n    #descrbox=TD(INPUT(_id=\'_des\',_name=\'music[descr]\',_size=\'30\',_type=\'text\'),DIV(_class=\'auto_complete\',_id=\'movie_descr_auto_complete\'))\n    \n    form1=FORM(TABLE(TR(name,namebox,submit)))\n    \n    items=db().select(db.item.ALL,orderby=db.item.name)\n    \n    if form1.accepts(request.vars,session):\n        search=request.vars[\'item[name]\']\n        items=db(db.item.name.upper().like(\'%\'+search.upper()+\'%\')).select(db.item.ALL,orderby=db.item.name)\n\n    bids = db().select(db.bid.ALL)\n    no_bids = {}\n    for i in items:\n        d = db(i.id == db.bid.item_id).select(db.bid.ALL).first()\n        if d == None:\n            no_bids[i.id] = i.price\n    \n    return dict(form1=form1,items=items,bids=bids,no_bids=no_bids)\n\n@auth.requires_login()\ndef item_d():\n    item=db(request.args(0)==db.item.id).select(db.item.ALL).first()\n    if item:\n        seller = db(item.seller==db.auth_user.id).select(db.auth_user.ALL).first()\n    reviews = db(request.args(0)==db.reviews.item_id).select(db.reviews.ALL)\n    form = SQLFORM(db.reviews)\n    form.vars.item_id = request.args(0)\n    if form.accepts(request.vars):\n        response.flash = \'Success\\n\'\n        redirect(URL(r=request, f="listed_items",args=request.args(0)))\n        \n    bids = db().select(db.bid.ALL)\n    no_bids = {}\n    d=None \n    if item:\n        d = db(item.id == db.bid.item_id).select(db.bid.ALL).first()\n    if d == None:\n        no_bids[item.id] = item.price\n                \n    return dict(bids=bids,no_bids=no_bids,item=item,seller=seller,reviews=reviews,form=form)\n\n@auth.requires_login()\ndef seller():\n    seller = db(request.args(0)==db.auth_user.id).select(db.auth_user.ALL).first()\n    \n    avg = 0\n    count = 0\n    sellr = db(request.args(0)==db.rating.seller).select(db.rating.ALL)\n    for i in sellr:\n        avg = avg + int(i.rate)\n        count = count + 1\n    if count > 0:\n        av = (float(avg)/float(count))\n    else:\n        av = 0.0\n    \n    prod = db(seller.id==db.item.seller).select(db.item.ALL)\n    \n    form = SQLFORM(db.rating)\n    \n    form.vars.seller = request.args(0)\n    \n    if form.accepts(request.vars):\n        response.flash = \'Success\\n\'\n    \n    items = db(seller.id==db.item.seller).select(db.item.ALL)\n    bids = db().select(db.bid.ALL)\n    no_bids = {}\n    for i in items:\n        d = db(i.id == db.bid.item_id).select(db.bid.ALL).first()\n        if d == None:\n            no_bids[i.id] = i.price\n        \n    return dict(av=av,seller=seller,form=form,prod=prod,bids=bids,no_bids=no_bids)\n\n@auth.requires_login()\ndef add_item():\n    form = SQLFORM(db.item)\n    if form.accepts(request.vars):\n        response.flash = \'Success\\n\'\n    return dict(form=form)\n\n@auth.requires_login()\ndef listed_items():\n    seller = db(auth.user_id==db.item.seller).select(db.item.ALL)\n    \n    bids = db().select(db.bid.ALL)\n    no_bids = {}\n    for i in seller:\n        d = db(i.id == db.bid.item_id).select(db.bid.ALL).first()\n        if d == None:\n            no_bids[i.id] = i.price\n    \n    return dict(seller=seller,bids=bids,no_bids=no_bids)\n\n@auth.requires_login()\ndef add_wish():\n    form = SQLFORM(db.wish)\n    if form.accepts(request.vars):\n        response.flash = \'Success\\n\'\n    return dict(form=form)\n\n@auth.requires_login()\ndef wish_list():\n    wish = db(auth.user_id==db.wish.buyer).select(db.wish.ALL,\n                                                       orderby=db.wish.name)\n    return dict(wish=wish)\n\n@auth.requires_login()\ndef wish_d():\n    item=db(request.args(0)==db.wish.id).select(db.wish.ALL).first()\n    if item:\n        seller = db(wish.buyer==db.auth_user.id).select(db.auth_user.ALL).first()\n                \n    return dict(item=item,seller=seller)\n\n@auth.requires_login()\ndef fulfilled():#Client Side computation\n    sold = db().select(db.fulfil.ALL,orderby=db.fulfil.id)\n    items = db(auth.user_id==db.wish.buyer).select(db.wish.ALL)\n    id = auth.user_id\n    return dict(sold=sold,items=items,id=id)\n\n@auth.requires_login()\ndef categories():\n    name=TD(\'Search item:\')\n    namebox=TD(INPUT(_id=\'item_title\',_name=\'item[name]\',_size=\'50\',_type=\'text\',requires=IS_NOT_EMPTY()),DIV_class=\'auto_complete\',_id=\'item_name_auto_complete\')   \n    submit=TD(INPUT(_type=\'submit\',_name=\'submit\',_value=\'Submit\'))\n    #descr=TD(\'Search Publication(s) by Author:\')\n    #descrbox=TD(INPUT(_id=\'_des\',_name=\'music[descr]\',_size=\'30\',_type=\'text\'),DIV(_class=\'auto_complete\',_id=\'movie_descr_auto_complete\'))\n    \n    form1=FORM(TABLE(TR(name,namebox,submit)))\n    \n    items=db().select(db.item.ALL,orderby=db.item.name)\n    \n    if(request.args(0) == \'1\'):\n        items = db(\'Arts and Crafts\'==db.item.category).select(db.item.ALL)\n    if(request.args(0) == \'2\'):\n        items = db(\'Clothing\'==db.item.category).select(db.item.ALL)\n    if(request.args(0) == \'3\'):\n        items = db(\'Footwear\'==db.item.category).select(db.item.ALL)\n    if(request.args(0) == \'4\'):\n        items = db(\'Gifts\'==db.item.category).select(db.item.ALL)\n    \n    if form1.accepts(request.vars,session):\n        search=request.vars[\'item[name]\']\n        items=db(db.item.name.upper().like(\'%\'+search.upper()+\'%\')).select(db.item.ALL,orderby=db.item.name)\n    \n    return dict(items=items,form1=form1)\n\n@auth.requires_login()\ndef delete_item():\n    db(db.item.id==request.args(0)).delete()\n    redirect(URL(r=request, f="listed_items"))\n    return dict()\n\n@auth.requires_login()\ndef delete_wish():\n    db(db.wish.id==request.args(0)).delete()\n    redirect(URL(r=request, f="wish_list"))\n    return dict()\n\n"""\n@auth.requires_login()\ndef bids_won():\n    placed = db(auth.user_id==db.bid.bidder).select(db.bid.ALL,orderby=db.bid.amount).first()\n    if placed:\n        if placed.time\n    return\n"""\n\n@auth.requires_login()\ndef place_bid():\n    placed = db(request.args(0)==db.bid.item_id).select(db.bid.ALL,orderby=db.bid.amount).first()\n    if placed == None:\n        item=db(request.args(0)==db.item.id).select(db.item.ALL).first().price\n    else:\n        item = placed.amount\n        \n    form = SQLFORM(db.bid)\n    form.vars.item_id = request.args(0)\n    form.vars.bidder = auth.user_id\n    \n    if request.vars and int(request.vars.amount) > int(item) and form.accepts(request.vars):\n        response.flash = \'Success\\n\'\n        if placed:\n            db(db.bid.id==placed.id).delete()\n    else:\n        response.flash = \'Please place a bid greater than the last offer\'\n    return dict(form=form)        \n\n@auth.requires_login()    \ndef buy_item():\n    form = SQLFORM(db.sold)\n    item = db(request.args(0)==db.item.id).select(db.item.ALL).first()\n    form.vars.item_id = item.id\n    form.vars.price = item.price\n    if form.accepts(request.vars):\n        response.flash = \'Success\\n\'\n    return dict(form=form)\n\n@auth.requires_login()\ndef item_sold():#Client side computation to be done\n    sold = db().select(db.sold.ALL,orderby=db.sold.id)\n    item = db().select(db.item.ALL,orderby=db.item.id)\n    id = auth.user_id  \n    return dict(sold=sold,item=item,id=id)\n\n@auth.requires_login()\ndef fulfil_wishes():\n    name=TD(\'Search item:\')\n    namebox=TD(INPUT(_id=\'item_title\',_name=\'wish[name]\',_size=\'50\',_type=\'text\',requires=IS_NOT_EMPTY()),DIV_class=\'auto_complete\',_id=\'item_name_auto_complete\')   \n    submit=TD(INPUT(_type=\'submit\',_name=\'submit\',_value=\'Submit\'))\n    #descr=TD(\'Search Publication(s) by Author:\')\n    #descrbox=TD(INPUT(_id=\'_des\',_name=\'music[descr]\',_size=\'30\',_type=\'text\'),DIV(_class=\'auto_complete\',_id=\'movie_descr_auto_complete\'))\n    \n    form1=FORM(TABLE(TR(name,namebox,submit)))\n    \n    items=db().select(db.wish.ALL,orderby=db.wish.name)\n    \n    if form1.accepts(request.vars,session):\n        search=request.vars[\'wish[name]\']\n        items=db(db.wish.name.upper().like(\'%\'+search.upper()+\'%\')).select(db.wish.ALL,orderby=db.wish.name)\n\n    return dict(form1=form1,items=items)\n\n@auth.requires_login()    \ndef fulfil():    \n    form = SQLFORM(db.fulfil)\n    form.vars.wish_id = request.args(0)\n    if form.accepts(request.vars):\n        response.flash = \'Success\\n\'\n    return dict(form=form)\n\n@auth.requires_login()\ndef item_bought():\n    items=db().select(db.item.ALL,orderby=db.item.name)\n    sold = db(auth.user_id == db.sold.buyer).select(db.sold.ALL,orderby=db.sold.id)\n    id = auth.user_id  \n    return dict(sold=sold,items=items,id=id)\n\ndef report():\n    form = SQLFORM(db.report)\n    if form.accepts(request.vars):\n        response.flash = \'Thanks for notifying, appropriate action will be taken in 24 hrs.\'\n    return dict(form=form)\nresponse._vars=response._caller(wish_d)\n'
p7
sS'snapshot'
p8
(dp9
S'exception'
p10
(dp11
S'__hash__'
p12
S"<method-wrapper '__hash__' of exceptions.NameError object>"
p13
sS'__setattr__'
p14
S"<method-wrapper '__setattr__' of exceptions.NameError object>"
p15
sS'__reduce_ex__'
p16
S'<built-in method __reduce_ex__ of exceptions.NameError object>'
p17
sS'__getslice__'
p18
S"<method-wrapper '__getslice__' of exceptions.NameError object>"
p19
sS'__getitem__'
p20
S"<method-wrapper '__getitem__' of exceptions.NameError object>"
p21
sS'__setstate__'
p22
S'<built-in method __setstate__ of exceptions.NameError object>'
p23
sS'__reduce__'
p24
S'<built-in method __reduce__ of exceptions.NameError object>'
p25
sS'__str__'
p26
S"<method-wrapper '__str__' of exceptions.NameError object>"
p27
sS'__format__'
p28
S'<built-in method __format__ of exceptions.NameError object>'
p29
sS'__getattribute__'
p30
S"<method-wrapper '__getattribute__' of exceptions.NameError object>"
p31
sS'__class__'
p32
S"<type 'exceptions.NameError'>"
p33
sS'__unicode__'
p34
S'<built-in method __unicode__ of exceptions.NameError object>'
p35
sS'__delattr__'
p36
S"<method-wrapper '__delattr__' of exceptions.NameError object>"
p37
sS'__subclasshook__'
p38
S'<built-in method __subclasshook__ of type object>'
p39
sS'__repr__'
p40
S"<method-wrapper '__repr__' of exceptions.NameError object>"
p41
sS'args'
p42
S'("global name \'wish\' is not defined",)'
p43
sS'__dict__'
p44
S'{}'
p45
sS'__sizeof__'
p46
S'<built-in method __sizeof__ of exceptions.NameError object>'
p47
sS'__doc__'
p48
S"'Name not found globally.'"
p49
sS'__init__'
p50
S"<method-wrapper '__init__' of exceptions.NameError object>"
p51
sS'__new__'
p52
S'<built-in method __new__ of type object>'
p53
ssS'evalue'
p54
S"global name 'wish' is not defined"
p55
sS'request'
p56
ccopy_reg
_reconstructor
p57
(cgluon.html
BEAUTIFY
p58
c__builtin__
object
p59
NtRp60
(dp61
S'attributes'
p62
(dp63
sS'components'
p64
(lp65
g57
(cgluon.html
TABLE
p66
g59
NtRp67
(dp68
g62
(dp69
S'level'
p70
I5
ssS'parent'
p71
Nsg64
(lp72
g57
(cgluon.html
TR
p73
g59
NtRp74
(dp75
g62
(dp76
sg71
g67
sg64
(lp77
g57
(cgluon.html
TD
p78
g59
NtRp79
(dp80
g62
(dp81
S'_style'
p82
S'font-weight:bold;vertical-align:top'
p83
ssg71
g74
sg64
(lp84
S'ajax'
p85
asbag57
(g78
g59
NtRp86
(dp87
g62
(dp88
S'_valign'
p89
S'top'
p90
ssg71
g74
sg64
(lp91
S':'
asbag57
(g78
g59
NtRp92
(dp93
g62
(dp94
sg71
g74
sg64
(lp95
g57
(g58
g59
NtRp96
(dp97
g62
(dp98
g70
I5
ssg71
g92
sg64
(lp99
S'False'
p100
asbasbasbag57
(g73
g59
NtRp101
(dp102
g62
(dp103
sg71
g67
sg64
(lp104
g57
(g78
g59
NtRp105
(dp106
g62
(dp107
g82
g83
ssg71
g101
sg64
(lp108
S'application'
p109
asbag57
(g78
g59
NtRp110
(dp111
g62
(dp112
g89
g90
ssg71
g101
sg64
(lp113
S':'
asbag57
(g78
g59
NtRp114
(dp115
g62
(dp116
sg71
g101
sg64
(lp117
g57
(g58
g59
NtRp118
(dp119
g62
(dp120
g70
I5
ssg71
g114
sg64
(lp121
S'BuySell'
p122
asbasbasbag57
(g73
g59
NtRp123
(dp124
g62
(dp125
sg71
g67
sg64
(lp126
g57
(g78
g59
NtRp127
(dp128
g62
(dp129
g82
g83
ssg71
g123
sg64
(lp130
g42
asbag57
(g78
g59
NtRp131
(dp132
g62
(dp133
g89
g90
ssg71
g123
sg64
(lp134
S':'
asbag57
(g78
g59
NtRp135
(dp136
g62
(dp137
sg71
g123
sg64
(lp138
g57
(g58
g59
NtRp139
(dp140
g62
(dp141
g70
I5
ssg71
g135
sg64
(lp142
g57
(g66
g59
NtRp143
(dp144
g62
(dp145
g70
I4
ssg71
Nsg64
(lp146
g57
(g73
g59
NtRp147
(dp148
g62
(dp149
sg71
g143
sg64
(lp150
g57
(g78
g59
NtRp151
(dp152
g62
(dp153
sg71
g147
sg64
(lp154
g57
(g58
g59
NtRp155
(dp156
g62
(dp157
g70
I4
ssg71
g151
sg64
(lp158
S'1'
asbasbasbasbasbasbasbag57
(g73
g59
NtRp159
(dp160
g62
(dp161
sg71
g67
sg64
(lp162
g57
(g78
g59
NtRp163
(dp164
g62
(dp165
g82
g83
ssg71
g159
sg64
(lp166
S'body'
p167
asbag57
(g78
g59
NtRp168
(dp169
g62
(dp170
g89
g90
ssg71
g159
sg64
(lp171
S':'
asbag57
(g78
g59
NtRp172
(dp173
g62
(dp174
sg71
g159
sg64
(lp175
g57
(g58
g59
NtRp176
(dp177
g62
(dp178
g70
I5
ssg71
g172
sg64
(lp179
S'<cStringIO.StringO object at 0x9ad0940>'
p180
asbasbasbag57
(g73
g59
NtRp181
(dp182
g62
(dp183
sg71
g67
sg64
(lp184
g57
(g78
g59
NtRp185
(dp186
g62
(dp187
g82
g83
ssg71
g181
sg64
(lp188
S'cid'
p189
asbag57
(g78
g59
NtRp190
(dp191
g62
(dp192
g89
g90
ssg71
g181
sg64
(lp193
S':'
asbag57
(g78
g59
NtRp194
(dp195
g62
(dp196
sg71
g181
sg64
(lp197
g57
(g58
g59
NtRp198
(dp199
g62
(dp200
g70
I5
ssg71
g194
sg64
(lp201
S'None'
p202
asbasbasbag57
(g73
g59
NtRp203
(dp204
g62
(dp205
sg71
g67
sg64
(lp206
g57
(g78
g59
NtRp207
(dp208
g62
(dp209
g82
g83
ssg71
g203
sg64
(lp210
S'client'
p211
asbag57
(g78
g59
NtRp212
(dp213
g62
(dp214
g89
g90
ssg71
g203
sg64
(lp215
S':'
asbag57
(g78
g59
NtRp216
(dp217
g62
(dp218
sg71
g203
sg64
(lp219
g57
(g58
g59
NtRp220
(dp221
g62
(dp222
g70
I5
ssg71
g216
sg64
(lp223
S'127.0.0.1'
p224
asbasbasbag57
(g73
g59
NtRp225
(dp226
g62
(dp227
sg71
g67
sg64
(lp228
g57
(g78
g59
NtRp229
(dp230
g62
(dp231
g82
g83
ssg71
g225
sg64
(lp232
S'controller'
p233
asbag57
(g78
g59
NtRp234
(dp235
g62
(dp236
g89
g90
ssg71
g225
sg64
(lp237
S':'
asbag57
(g78
g59
NtRp238
(dp239
g62
(dp240
sg71
g225
sg64
(lp241
g57
(g58
g59
NtRp242
(dp243
g62
(dp244
g70
I5
ssg71
g238
sg64
(lp245
S'default'
p246
asbasbasbag57
(g73
g59
NtRp247
(dp248
g62
(dp249
sg71
g67
sg64
(lp250
g57
(g78
g59
NtRp251
(dp252
g62
(dp253
g82
g83
ssg71
g247
sg64
(lp254
S'cookies'
p255
asbag57
(g78
g59
NtRp256
(dp257
g62
(dp258
g89
g90
ssg71
g247
sg64
(lp259
S':'
asbag57
(g78
g59
NtRp260
(dp261
g62
(dp262
sg71
g247
sg64
(lp263
g57
(g58
g59
NtRp264
(dp265
g62
(dp266
g70
I5
ssg71
g260
sg64
(lp267
g57
(g66
g59
NtRp268
(dp269
g62
(dp270
g70
I4
ssg71
Nsg64
(lp271
g57
(g73
g59
NtRp272
(dp273
g62
(dp274
sg71
g268
sg64
(lp275
g57
(g78
g59
NtRp276
(dp277
g62
(dp278
g82
g83
ssg71
g272
sg64
(lp279
S'registered'
p280
asbag57
(g78
g59
NtRp281
(dp282
g62
(dp283
g89
g90
ssg71
g272
sg64
(lp284
S':'
asbag57
(g78
g59
NtRp285
(dp286
g62
(dp287
sg71
g272
sg64
(lp288
g57
(g58
g59
NtRp289
(dp290
g62
(dp291
g70
I4
ssg71
g285
sg64
(lp292
S'yes'
p293
ag57
(g66
g59
NtRp294
(dp295
g62
(dp296
g70
I3
ssg71
Nsg64
(lp297
g57
(g73
g59
NtRp298
(dp299
g62
(dp300
sg71
g294
sg64
(lp301
g57
(g78
g59
NtRp302
(dp303
g62
(dp304
g82
g83
ssg71
g298
sg64
(lp305
S'comment'
p306
asbag57
(g78
g59
NtRp307
(dp308
g62
(dp309
g89
g90
ssg71
g298
sg64
(lp310
S':'
asbag57
(g78
g59
NtRp311
(dp312
g62
(dp313
sg71
g298
sg64
(lp314
g57
(g58
g59
NtRp315
(dp316
g62
(dp317
g70
I3
ssg71
g311
sg64
(lp318
S''
asbasbasbag57
(g73
g59
NtRp319
(dp320
g62
(dp321
sg71
g294
sg64
(lp322
g57
(g78
g59
NtRp323
(dp324
g62
(dp325
g82
g83
ssg71
g319
sg64
(lp326
S'domain'
p327
asbag57
(g78
g59
NtRp328
(dp329
g62
(dp330
g89
g90
ssg71
g319
sg64
(lp331
S':'
asbag57
(g78
g59
NtRp332
(dp333
g62
(dp334
sg71
g319
sg64
(lp335
g57
(g58
g59
NtRp336
(dp337
g62
(dp338
g70
I3
ssg71
g332
sg64
(lp339
S''
asbasbasbag57
(g73
g59
NtRp340
(dp341
g62
(dp342
sg71
g294
sg64
(lp343
g57
(g78
g59
NtRp344
(dp345
g62
(dp346
g82
g83
ssg71
g340
sg64
(lp347
S'expires'
p348
asbag57
(g78
g59
NtRp349
(dp350
g62
(dp351
g89
g90
ssg71
g340
sg64
(lp352
S':'
asbag57
(g78
g59
NtRp353
(dp354
g62
(dp355
sg71
g340
sg64
(lp356
g57
(g58
g59
NtRp357
(dp358
g62
(dp359
g70
I3
ssg71
g353
sg64
(lp360
S''
asbasbasbag57
(g73
g59
NtRp361
(dp362
g62
(dp363
sg71
g294
sg64
(lp364
g57
(g78
g59
NtRp365
(dp366
g62
(dp367
g82
g83
ssg71
g361
sg64
(lp368
S'httponly'
p369
asbag57
(g78
g59
NtRp370
(dp371
g62
(dp372
g89
g90
ssg71
g361
sg64
(lp373
S':'
asbag57
(g78
g59
NtRp374
(dp375
g62
(dp376
sg71
g361
sg64
(lp377
g57
(g58
g59
NtRp378
(dp379
g62
(dp380
g70
I3
ssg71
g374
sg64
(lp381
S''
asbasbasbag57
(g73
g59
NtRp382
(dp383
g62
(dp384
sg71
g294
sg64
(lp385
g57
(g78
g59
NtRp386
(dp387
g62
(dp388
g82
g83
ssg71
g382
sg64
(lp389
S'max-age'
p390
asbag57
(g78
g59
NtRp391
(dp392
g62
(dp393
g89
g90
ssg71
g382
sg64
(lp394
S':'
asbag57
(g78
g59
NtRp395
(dp396
g62
(dp397
sg71
g382
sg64
(lp398
g57
(g58
g59
NtRp399
(dp400
g62
(dp401
g70
I3
ssg71
g395
sg64
(lp402
S''
asbasbasbag57
(g73
g59
NtRp403
(dp404
g62
(dp405
sg71
g294
sg64
(lp406
g57
(g78
g59
NtRp407
(dp408
g62
(dp409
g82
g83
ssg71
g403
sg64
(lp410
S'path'
p411
asbag57
(g78
g59
NtRp412
(dp413
g62
(dp414
g89
g90
ssg71
g403
sg64
(lp415
S':'
asbag57
(g78
g59
NtRp416
(dp417
g62
(dp418
sg71
g403
sg64
(lp419
g57
(g58
g59
NtRp420
(dp421
g62
(dp422
g70
I3
ssg71
g416
sg64
(lp423
S''
asbasbasbag57
(g73
g59
NtRp424
(dp425
g62
(dp426
sg71
g294
sg64
(lp427
g57
(g78
g59
NtRp428
(dp429
g62
(dp430
g82
g83
ssg71
g424
sg64
(lp431
S'secure'
p432
asbag57
(g78
g59
NtRp433
(dp434
g62
(dp435
g89
g90
ssg71
g424
sg64
(lp436
S':'
asbag57
(g78
g59
NtRp437
(dp438
g62
(dp439
sg71
g424
sg64
(lp440
g57
(g58
g59
NtRp441
(dp442
g62
(dp443
g70
I3
ssg71
g437
sg64
(lp444
S''
asbasbasbag57
(g73
g59
NtRp445
(dp446
g62
(dp447
sg71
g294
sg64
(lp448
g57
(g78
g59
NtRp449
(dp450
g62
(dp451
g82
g83
ssg71
g445
sg64
(lp452
S'version'
p453
asbag57
(g78
g59
NtRp454
(dp455
g62
(dp456
g89
g90
ssg71
g445
sg64
(lp457
S':'
asbag57
(g78
g59
NtRp458
(dp459
g62
(dp460
sg71
g445
sg64
(lp461
g57
(g58
g59
NtRp462
(dp463
g62
(dp464
g70
I3
ssg71
g458
sg64
(lp465
S''
asbasbasbasbasbasbasbag57
(g73
g59
NtRp466
(dp467
g62
(dp468
sg71
g268
sg64
(lp469
g57
(g78
g59
NtRp470
(dp471
g62
(dp472
g82
g83
ssg71
g466
sg64
(lp473
S'session_id_admin'
p474
asbag57
(g78
g59
NtRp475
(dp476
g62
(dp477
g89
g90
ssg71
g466
sg64
(lp478
S':'
asbag57
(g78
g59
NtRp479
(dp480
g62
(dp481
sg71
g466
sg64
(lp482
g57
(g58
g59
NtRp483
(dp484
g62
(dp485
g70
I4
ssg71
g479
sg64
(lp486
S'127.0.0.1-0bffeb4e-768a-4c2f-8a8a-f15ebd360e52'
p487
ag57
(g66
g59
NtRp488
(dp489
g62
(dp490
g70
I3
ssg71
Nsg64
(lp491
g57
(g73
g59
NtRp492
(dp493
g62
(dp494
sg71
g488
sg64
(lp495
g57
(g78
g59
NtRp496
(dp497
g62
(dp498
g82
g83
ssg71
g492
sg64
(lp499
g306
asbag57
(g78
g59
NtRp500
(dp501
g62
(dp502
g89
g90
ssg71
g492
sg64
(lp503
S':'
asbag57
(g78
g59
NtRp504
(dp505
g62
(dp506
sg71
g492
sg64
(lp507
g57
(g58
g59
NtRp508
(dp509
g62
(dp510
g70
I3
ssg71
g504
sg64
(lp511
S''
asbasbasbag57
(g73
g59
NtRp512
(dp513
g62
(dp514
sg71
g488
sg64
(lp515
g57
(g78
g59
NtRp516
(dp517
g62
(dp518
g82
g83
ssg71
g512
sg64
(lp519
g327
asbag57
(g78
g59
NtRp520
(dp521
g62
(dp522
g89
g90
ssg71
g512
sg64
(lp523
S':'
asbag57
(g78
g59
NtRp524
(dp525
g62
(dp526
sg71
g512
sg64
(lp527
g57
(g58
g59
NtRp528
(dp529
g62
(dp530
g70
I3
ssg71
g524
sg64
(lp531
S''
asbasbasbag57
(g73
g59
NtRp532
(dp533
g62
(dp534
sg71
g488
sg64
(lp535
g57
(g78
g59
NtRp536
(dp537
g62
(dp538
g82
g83
ssg71
g532
sg64
(lp539
g348
asbag57
(g78
g59
NtRp540
(dp541
g62
(dp542
g89
g90
ssg71
g532
sg64
(lp543
S':'
asbag57
(g78
g59
NtRp544
(dp545
g62
(dp546
sg71
g532
sg64
(lp547
g57
(g58
g59
NtRp548
(dp549
g62
(dp550
g70
I3
ssg71
g544
sg64
(lp551
S''
asbasbasbag57
(g73
g59
NtRp552
(dp553
g62
(dp554
sg71
g488
sg64
(lp555
g57
(g78
g59
NtRp556
(dp557
g62
(dp558
g82
g83
ssg71
g552
sg64
(lp559
g369
asbag57
(g78
g59
NtRp560
(dp561
g62
(dp562
g89
g90
ssg71
g552
sg64
(lp563
S':'
asbag57
(g78
g59
NtRp564
(dp565
g62
(dp566
sg71
g552
sg64
(lp567
g57
(g58
g59
NtRp568
(dp569
g62
(dp570
g70
I3
ssg71
g564
sg64
(lp571
S''
asbasbasbag57
(g73
g59
NtRp572
(dp573
g62
(dp574
sg71
g488
sg64
(lp575
g57
(g78
g59
NtRp576
(dp577
g62
(dp578
g82
g83
ssg71
g572
sg64
(lp579
g390
asbag57
(g78
g59
NtRp580
(dp581
g62
(dp582
g89
g90
ssg71
g572
sg64
(lp583
S':'
asbag57
(g78
g59
NtRp584
(dp585
g62
(dp586
sg71
g572
sg64
(lp587
g57
(g58
g59
NtRp588
(dp589
g62
(dp590
g70
I3
ssg71
g584
sg64
(lp591
S''
asbasbasbag57
(g73
g59
NtRp592
(dp593
g62
(dp594
sg71
g488
sg64
(lp595
g57
(g78
g59
NtRp596
(dp597
g62
(dp598
g82
g83
ssg71
g592
sg64
(lp599
g411
asbag57
(g78
g59
NtRp600
(dp601
g62
(dp602
g89
g90
ssg71
g592
sg64
(lp603
S':'
asbag57
(g78
g59
NtRp604
(dp605
g62
(dp606
sg71
g592
sg64
(lp607
g57
(g58
g59
NtRp608
(dp609
g62
(dp610
g70
I3
ssg71
g604
sg64
(lp611
S''
asbasbasbag57
(g73
g59
NtRp612
(dp613
g62
(dp614
sg71
g488
sg64
(lp615
g57
(g78
g59
NtRp616
(dp617
g62
(dp618
g82
g83
ssg71
g612
sg64
(lp619
g432
asbag57
(g78
g59
NtRp620
(dp621
g62
(dp622
g89
g90
ssg71
g612
sg64
(lp623
S':'
asbag57
(g78
g59
NtRp624
(dp625
g62
(dp626
sg71
g612
sg64
(lp627
g57
(g58
g59
NtRp628
(dp629
g62
(dp630
g70
I3
ssg71
g624
sg64
(lp631
S''
asbasbasbag57
(g73
g59
NtRp632
(dp633
g62
(dp634
sg71
g488
sg64
(lp635
g57
(g78
g59
NtRp636
(dp637
g62
(dp638
g82
g83
ssg71
g632
sg64
(lp639
g453
asbag57
(g78
g59
NtRp640
(dp641
g62
(dp642
g89
g90
ssg71
g632
sg64
(lp643
S':'
asbag57
(g78
g59
NtRp644
(dp645
g62
(dp646
sg71
g632
sg64
(lp647
g57
(g58
g59
NtRp648
(dp649
g62
(dp650
g70
I3
ssg71
g644
sg64
(lp651
S''
asbasbasbasbasbasbasbag57
(g73
g59
NtRp652
(dp653
g62
(dp654
sg71
g268
sg64
(lp655
g57
(g78
g59
NtRp656
(dp657
g62
(dp658
g82
g83
ssg71
g652
sg64
(lp659
S'session_id_buysell'
p660
asbag57
(g78
g59
NtRp661
(dp662
g62
(dp663
g89
g90
ssg71
g652
sg64
(lp664
S':'
asbag57
(g78
g59
NtRp665
(dp666
g62
(dp667
sg71
g652
sg64
(lp668
g57
(g58
g59
NtRp669
(dp670
g62
(dp671
g70
I4
ssg71
g665
sg64
(lp672
S'127.0.0.1-29f0dbd8-f64a-462e-b011-0dd07a453df3'
p673
ag57
(g66
g59
NtRp674
(dp675
g62
(dp676
g70
I3
ssg71
Nsg64
(lp677
g57
(g73
g59
NtRp678
(dp679
g62
(dp680
sg71
g674
sg64
(lp681
g57
(g78
g59
NtRp682
(dp683
g62
(dp684
g82
g83
ssg71
g678
sg64
(lp685
g306
asbag57
(g78
g59
NtRp686
(dp687
g62
(dp688
g89
g90
ssg71
g678
sg64
(lp689
S':'
asbag57
(g78
g59
NtRp690
(dp691
g62
(dp692
sg71
g678
sg64
(lp693
g57
(g58
g59
NtRp694
(dp695
g62
(dp696
g70
I3
ssg71
g690
sg64
(lp697
S''
asbasbasbag57
(g73
g59
NtRp698
(dp699
g62
(dp700
sg71
g674
sg64
(lp701
g57
(g78
g59
NtRp702
(dp703
g62
(dp704
g82
g83
ssg71
g698
sg64
(lp705
g327
asbag57
(g78
g59
NtRp706
(dp707
g62
(dp708
g89
g90
ssg71
g698
sg64
(lp709
S':'
asbag57
(g78
g59
NtRp710
(dp711
g62
(dp712
sg71
g698
sg64
(lp713
g57
(g58
g59
NtRp714
(dp715
g62
(dp716
g70
I3
ssg71
g710
sg64
(lp717
S''
asbasbasbag57
(g73
g59
NtRp718
(dp719
g62
(dp720
sg71
g674
sg64
(lp721
g57
(g78
g59
NtRp722
(dp723
g62
(dp724
g82
g83
ssg71
g718
sg64
(lp725
g348
asbag57
(g78
g59
NtRp726
(dp727
g62
(dp728
g89
g90
ssg71
g718
sg64
(lp729
S':'
asbag57
(g78
g59
NtRp730
(dp731
g62
(dp732
sg71
g718
sg64
(lp733
g57
(g58
g59
NtRp734
(dp735
g62
(dp736
g70
I3
ssg71
g730
sg64
(lp737
S''
asbasbasbag57
(g73
g59
NtRp738
(dp739
g62
(dp740
sg71
g674
sg64
(lp741
g57
(g78
g59
NtRp742
(dp743
g62
(dp744
g82
g83
ssg71
g738
sg64
(lp745
g369
asbag57
(g78
g59
NtRp746
(dp747
g62
(dp748
g89
g90
ssg71
g738
sg64
(lp749
S':'
asbag57
(g78
g59
NtRp750
(dp751
g62
(dp752
sg71
g738
sg64
(lp753
g57
(g58
g59
NtRp754
(dp755
g62
(dp756
g70
I3
ssg71
g750
sg64
(lp757
S''
asbasbasbag57
(g73
g59
NtRp758
(dp759
g62
(dp760
sg71
g674
sg64
(lp761
g57
(g78
g59
NtRp762
(dp763
g62
(dp764
g82
g83
ssg71
g758
sg64
(lp765
g390
asbag57
(g78
g59
NtRp766
(dp767
g62
(dp768
g89
g90
ssg71
g758
sg64
(lp769
S':'
asbag57
(g78
g59
NtRp770
(dp771
g62
(dp772
sg71
g758
sg64
(lp773
g57
(g58
g59
NtRp774
(dp775
g62
(dp776
g70
I3
ssg71
g770
sg64
(lp777
S''
asbasbasbag57
(g73
g59
NtRp778
(dp779
g62
(dp780
sg71
g674
sg64
(lp781
g57
(g78
g59
NtRp782
(dp783
g62
(dp784
g82
g83
ssg71
g778
sg64
(lp785
g411
asbag57
(g78
g59
NtRp786
(dp787
g62
(dp788
g89
g90
ssg71
g778
sg64
(lp789
S':'
asbag57
(g78
g59
NtRp790
(dp791
g62
(dp792
sg71
g778
sg64
(lp793
g57
(g58
g59
NtRp794
(dp795
g62
(dp796
g70
I3
ssg71
g790
sg64
(lp797
S''
asbasbasbag57
(g73
g59
NtRp798
(dp799
g62
(dp800
sg71
g674
sg64
(lp801
g57
(g78
g59
NtRp802
(dp803
g62
(dp804
g82
g83
ssg71
g798
sg64
(lp805
g432
asbag57
(g78
g59
NtRp806
(dp807
g62
(dp808
g89
g90
ssg71
g798
sg64
(lp809
S':'
asbag57
(g78
g59
NtRp810
(dp811
g62
(dp812
sg71
g798
sg64
(lp813
g57
(g58
g59
NtRp814
(dp815
g62
(dp816
g70
I3
ssg71
g810
sg64
(lp817
S''
asbasbasbag57
(g73
g59
NtRp818
(dp819
g62
(dp820
sg71
g674
sg64
(lp821
g57
(g78
g59
NtRp822
(dp823
g62
(dp824
g82
g83
ssg71
g818
sg64
(lp825
g453
asbag57
(g78
g59
NtRp826
(dp827
g62
(dp828
g89
g90
ssg71
g818
sg64
(lp829
S':'
asbag57
(g78
g59
NtRp830
(dp831
g62
(dp832
sg71
g818
sg64
(lp833
g57
(g58
g59
NtRp834
(dp835
g62
(dp836
g70
I3
ssg71
g830
sg64
(lp837
S''
asbasbasbasbasbasbasbasbasbasbasbag57
(g73
g59
NtRp838
(dp839
g62
(dp840
sg71
g67
sg64
(lp841
g57
(g78
g59
NtRp842
(dp843
g62
(dp844
g82
g83
ssg71
g838
sg64
(lp845
S'env'
p846
asbag57
(g78
g59
NtRp847
(dp848
g62
(dp849
g89
g90
ssg71
g838
sg64
(lp850
S':'
asbag57
(g78
g59
NtRp851
(dp852
g62
(dp853
sg71
g838
sg64
(lp854
g57
(g58
g59
NtRp855
(dp856
g62
(dp857
g70
I5
ssg71
g851
sg64
(lp858
g57
(g66
g59
NtRp859
(dp860
g62
(dp861
g70
I4
ssg71
Nsg64
(lp862
g57
(g73
g59
NtRp863
(dp864
g62
(dp865
sg71
g859
sg64
(lp866
g57
(g78
g59
NtRp867
(dp868
g62
(dp869
g82
g83
ssg71
g863
sg64
(lp870
S'app_folders'
p871
asbag57
(g78
g59
NtRp872
(dp873
g62
(dp874
g89
g90
ssg71
g863
sg64
(lp875
S':'
asbag57
(g78
g59
NtRp876
(dp877
g62
(dp878
sg71
g863
sg64
(lp879
g57
(g58
g59
NtRp880
(dp881
g62
(dp882
g70
I4
ssg71
g876
sg64
(lp883
S"set(['/home/pratyush/web2py/applications/BuySell/', '/home/pratyush/web2py/applications/admin/'])"
p884
asbasbasbag57
(g73
g59
NtRp885
(dp886
g62
(dp887
sg71
g859
sg64
(lp888
g57
(g78
g59
NtRp889
(dp890
g62
(dp891
g82
g83
ssg71
g885
sg64
(lp892
S'applications_parent'
p893
asbag57
(g78
g59
NtRp894
(dp895
g62
(dp896
g89
g90
ssg71
g885
sg64
(lp897
S':'
asbag57
(g78
g59
NtRp898
(dp899
g62
(dp900
sg71
g885
sg64
(lp901
g57
(g58
g59
NtRp902
(dp903
g62
(dp904
g70
I4
ssg71
g898
sg64
(lp905
S'/home/pratyush/web2py'
p906
asbasbasbag57
(g73
g59
NtRp907
(dp908
g62
(dp909
sg71
g859
sg64
(lp910
g57
(g78
g59
NtRp911
(dp912
g62
(dp913
g82
g83
ssg71
g907
sg64
(lp914
S'cmd_args'
p915
asbag57
(g78
g59
NtRp916
(dp917
g62
(dp918
g89
g90
ssg71
g907
sg64
(lp919
S':'
asbag57
(g78
g59
NtRp920
(dp921
g62
(dp922
sg71
g907
sg64
(lp923
g57
(g58
g59
NtRp924
(dp925
g62
(dp926
g70
I4
ssg71
g920
sg64
(lp927
g57
(g66
g59
NtRp928
(dp929
g62
(dp930
g70
I3
ssg71
Nsg64
(lp931
sbasbasbasbag57
(g73
g59
NtRp932
(dp933
g62
(dp934
sg71
g859
sg64
(lp935
g57
(g78
g59
NtRp936
(dp937
g62
(dp938
g82
g83
ssg71
g932
sg64
(lp939
S'cmd_options'
p940
asbag57
(g78
g59
NtRp941
(dp942
g62
(dp943
g89
g90
ssg71
g932
sg64
(lp944
S':'
asbag57
(g78
g59
NtRp945
(dp946
g62
(dp947
sg71
g932
sg64
(lp948
g57
(g58
g59
NtRp949
(dp950
g62
(dp951
g70
I4
ssg71
g945
sg64
(lp952
S"<Values at 0x934f9ac: {'verbose': False, 'ip': '127.0.0.1', 'with_scheduler': False, 'ips': [], 'shutdown_timeout': 5, 'taskbar': False, 'port': 8000, 'maxthreads': None, 'softcron': False, 'server_name': 'alanzak', 'bpython': False, 'nogui': False, 'pid_filename': 'httpserver.pid', 'extcron': False, 'runcron': False, 'run_system_tests': False, 'test': None, 'folder': '/home/pratyush/web2py', 'config': '', 'import_models': False, 'winservice': '', 'shell': None, 'run': '', 'log_filename': 'httpserver.log', 'debuglevel': 30, 'args': [''], 'socket_timeout': 5, 'ssl_ca_certificate': None, 'scheduler': None, 'profiler_filename': None, 'ssl_private_key': '', 'scheduler_groups': None, 'password': '1', 'request_queue_size': 5, 'ssl_certificate': '', 'cronjob': False, 'numthreads': None, 'quiet': False, 'interfaces': None, 'minthreads': None, 'timeout': 10, 'plain': False, 'nobanner': False}>"
p953
asbasbasbag57
(g73
g59
NtRp954
(dp955
g62
(dp956
sg71
g859
sg64
(lp957
g57
(g78
g59
NtRp958
(dp959
g62
(dp960
g82
g83
ssg71
g954
sg64
(lp961
S'db_sessions'
p962
asbag57
(g78
g59
NtRp963
(dp964
g62
(dp965
g89
g90
ssg71
g954
sg64
(lp966
S':'
asbag57
(g78
g59
NtRp967
(dp968
g62
(dp969
sg71
g954
sg64
(lp970
g57
(g58
g59
NtRp971
(dp972
g62
(dp973
g70
I4
ssg71
g967
sg64
(lp974
S'set([])'
p975
asbasbasbag57
(g73
g59
NtRp976
(dp977
g62
(dp978
sg71
g859
sg64
(lp979
g57
(g78
g59
NtRp980
(dp981
g62
(dp982
g82
g83
ssg71
g976
sg64
(lp983
S'debugging'
p984
asbag57
(g78
g59
NtRp985
(dp986
g62
(dp987
g89
g90
ssg71
g976
sg64
(lp988
S':'
asbag57
(g78
g59
NtRp989
(dp990
g62
(dp991
sg71
g976
sg64
(lp992
g57
(g58
g59
NtRp993
(dp994
g62
(dp995
g70
I4
ssg71
g989
sg64
(lp996
g100
asbasbasbag57
(g73
g59
NtRp997
(dp998
g62
(dp999
sg71
g859
sg64
(lp1000
g57
(g78
g59
NtRp1001
(dp1002
g62
(dp1003
g82
g83
ssg71
g997
sg64
(lp1004
S'gluon_parent'
p1005
asbag57
(g78
g59
NtRp1006
(dp1007
g62
(dp1008
g89
g90
ssg71
g997
sg64
(lp1009
S':'
asbag57
(g78
g59
NtRp1010
(dp1011
g62
(dp1012
sg71
g997
sg64
(lp1013
g57
(g58
g59
NtRp1014
(dp1015
g62
(dp1016
g70
I4
ssg71
g1010
sg64
(lp1017
S'/home/pratyush/web2py'
p1018
asbasbasbag57
(g73
g59
NtRp1019
(dp1020
g62
(dp1021
sg71
g859
sg64
(lp1022
g57
(g78
g59
NtRp1023
(dp1024
g62
(dp1025
g82
g83
ssg71
g1019
sg64
(lp1026
S'http_accept'
p1027
asbag57
(g78
g59
NtRp1028
(dp1029
g62
(dp1030
g89
g90
ssg71
g1019
sg64
(lp1031
S':'
asbag57
(g78
g59
NtRp1032
(dp1033
g62
(dp1034
sg71
g1019
sg64
(lp1035
g57
(g58
g59
NtRp1036
(dp1037
g62
(dp1038
g70
I4
ssg71
g1032
sg64
(lp1039
S'text/html,application/xhtml+xml,application/xml;q=0.9,*/*;q=0.8'
p1040
asbasbasbag57
(g73
g59
NtRp1041
(dp1042
g62
(dp1043
sg71
g859
sg64
(lp1044
g57
(g78
g59
NtRp1045
(dp1046
g62
(dp1047
g82
g83
ssg71
g1041
sg64
(lp1048
S'http_accept_charset'
p1049
asbag57
(g78
g59
NtRp1050
(dp1051
g62
(dp1052
g89
g90
ssg71
g1041
sg64
(lp1053
S':'
asbag57
(g78
g59
NtRp1054
(dp1055
g62
(dp1056
sg71
g1041
sg64
(lp1057
g57
(g58
g59
NtRp1058
(dp1059
g62
(dp1060
g70
I4
ssg71
g1054
sg64
(lp1061
S'ISO-8859-1,utf-8;q=0.7,*;q=0.3'
p1062
asbasbasbag57
(g73
g59
NtRp1063
(dp1064
g62
(dp1065
sg71
g859
sg64
(lp1066
g57
(g78
g59
NtRp1067
(dp1068
g62
(dp1069
g82
g83
ssg71
g1063
sg64
(lp1070
S'http_accept_encoding'
p1071
asbag57
(g78
g59
NtRp1072
(dp1073
g62
(dp1074
g89
g90
ssg71
g1063
sg64
(lp1075
S':'
asbag57
(g78
g59
NtRp1076
(dp1077
g62
(dp1078
sg71
g1063
sg64
(lp1079
g57
(g58
g59
NtRp1080
(dp1081
g62
(dp1082
g70
I4
ssg71
g1076
sg64
(lp1083
S'gzip,deflate,sdch'
p1084
asbasbasbag57
(g73
g59
NtRp1085
(dp1086
g62
(dp1087
sg71
g859
sg64
(lp1088
g57
(g78
g59
NtRp1089
(dp1090
g62
(dp1091
g82
g83
ssg71
g1085
sg64
(lp1092
S'http_accept_language'
p1093
asbag57
(g78
g59
NtRp1094
(dp1095
g62
(dp1096
g89
g90
ssg71
g1085
sg64
(lp1097
S':'
asbag57
(g78
g59
NtRp1098
(dp1099
g62
(dp1100
sg71
g1085
sg64
(lp1101
g57
(g58
g59
NtRp1102
(dp1103
g62
(dp1104
g70
I4
ssg71
g1098
sg64
(lp1105
S'en-US,en;q=0.8'
p1106
asbasbasbag57
(g73
g59
NtRp1107
(dp1108
g62
(dp1109
sg71
g859
sg64
(lp1110
g57
(g78
g59
NtRp1111
(dp1112
g62
(dp1113
g82
g83
ssg71
g1107
sg64
(lp1114
S'http_connection'
p1115
asbag57
(g78
g59
NtRp1116
(dp1117
g62
(dp1118
g89
g90
ssg71
g1107
sg64
(lp1119
S':'
asbag57
(g78
g59
NtRp1120
(dp1121
g62
(dp1122
sg71
g1107
sg64
(lp1123
g57
(g58
g59
NtRp1124
(dp1125
g62
(dp1126
g70
I4
ssg71
g1120
sg64
(lp1127
S'keep-alive'
p1128
asbasbasbag57
(g73
g59
NtRp1129
(dp1130
g62
(dp1131
sg71
g859
sg64
(lp1132
g57
(g78
g59
NtRp1133
(dp1134
g62
(dp1135
g82
g83
ssg71
g1129
sg64
(lp1136
S'http_cookie'
p1137
asbag57
(g78
g59
NtRp1138
(dp1139
g62
(dp1140
g89
g90
ssg71
g1129
sg64
(lp1141
S':'
asbag57
(g78
g59
NtRp1142
(dp1143
g62
(dp1144
sg71
g1129
sg64
(lp1145
g57
(g58
g59
NtRp1146
(dp1147
g62
(dp1148
g70
I4
ssg71
g1142
sg64
(lp1149
S'registered=yes; session_id_admin=127.0.0.1-0bffeb4e-768a-4c2f-8a8a-f15ebd360e52; session_id_buysell=127.0.0.1-29f0dbd8-f64a-462e-b011-0dd07a453df3'
p1150
asbasbasbag57
(g73
g59
NtRp1151
(dp1152
g62
(dp1153
sg71
g859
sg64
(lp1154
g57
(g78
g59
NtRp1155
(dp1156
g62
(dp1157
g82
g83
ssg71
g1151
sg64
(lp1158
S'http_host'
p1159
asbag57
(g78
g59
NtRp1160
(dp1161
g62
(dp1162
g89
g90
ssg71
g1151
sg64
(lp1163
S':'
asbag57
(g78
g59
NtRp1164
(dp1165
g62
(dp1166
sg71
g1151
sg64
(lp1167
g57
(g58
g59
NtRp1168
(dp1169
g62
(dp1170
g70
I4
ssg71
g1164
sg64
(lp1171
S'127.0.0.1:8000'
p1172
asbasbasbag57
(g73
g59
NtRp1173
(dp1174
g62
(dp1175
sg71
g859
sg64
(lp1176
g57
(g78
g59
NtRp1177
(dp1178
g62
(dp1179
g82
g83
ssg71
g1173
sg64
(lp1180
S'http_referer'
p1181
asbag57
(g78
g59
NtRp1182
(dp1183
g62
(dp1184
g89
g90
ssg71
g1173
sg64
(lp1185
S':'
asbag57
(g78
g59
NtRp1186
(dp1187
g62
(dp1188
sg71
g1173
sg64
(lp1189
g57
(g58
g59
NtRp1190
(dp1191
g62
(dp1192
g70
I4
ssg71
g1186
sg64
(lp1193
S'http://127.0.0.1:8000/BuySell/default/wish_list'
p1194
asbasbasbag57
(g73
g59
NtRp1195
(dp1196
g62
(dp1197
sg71
g859
sg64
(lp1198
g57
(g78
g59
NtRp1199
(dp1200
g62
(dp1201
g82
g83
ssg71
g1195
sg64
(lp1202
S'http_user_agent'
p1203
asbag57
(g78
g59
NtRp1204
(dp1205
g62
(dp1206
g89
g90
ssg71
g1195
sg64
(lp1207
S':'
asbag57
(g78
g59
NtRp1208
(dp1209
g62
(dp1210
sg71
g1195
sg64
(lp1211
g57
(g58
g59
NtRp1212
(dp1213
g62
(dp1214
g70
I4
ssg71
g1208
sg64
(lp1215
S'Mozilla/5.0 (X11; Linux i686) AppleWebKit/537.4 (KHTML, like Gecko) Chrome/22.0.1229.79 Safari/537.4'
p1216
asbasbasbag57
(g73
g59
NtRp1217
(dp1218
g62
(dp1219
sg71
g859
sg64
(lp1220
g57
(g78
g59
NtRp1221
(dp1222
g62
(dp1223
g82
g83
ssg71
g1217
sg64
(lp1224
S'is_jython'
p1225
asbag57
(g78
g59
NtRp1226
(dp1227
g62
(dp1228
g89
g90
ssg71
g1217
sg64
(lp1229
S':'
asbag57
(g78
g59
NtRp1230
(dp1231
g62
(dp1232
sg71
g1217
sg64
(lp1233
g57
(g58
g59
NtRp1234
(dp1235
g62
(dp1236
g70
I4
ssg71
g1230
sg64
(lp1237
g100
asbasbasbag57
(g73
g59
NtRp1238
(dp1239
g62
(dp1240
sg71
g859
sg64
(lp1241
g57
(g78
g59
NtRp1242
(dp1243
g62
(dp1244
g82
g83
ssg71
g1238
sg64
(lp1245
S'is_pypy'
p1246
asbag57
(g78
g59
NtRp1247
(dp1248
g62
(dp1249
g89
g90
ssg71
g1238
sg64
(lp1250
S':'
asbag57
(g78
g59
NtRp1251
(dp1252
g62
(dp1253
sg71
g1238
sg64
(lp1254
g57
(g58
g59
NtRp1255
(dp1256
g62
(dp1257
g70
I4
ssg71
g1251
sg64
(lp1258
g100
asbasbasbag57
(g73
g59
NtRp1259
(dp1260
g62
(dp1261
sg71
g859
sg64
(lp1262
g57
(g78
g59
NtRp1263
(dp1264
g62
(dp1265
g82
g83
ssg71
g1259
sg64
(lp1266
S'local_hosts'
p1267
asbag57
(g78
g59
NtRp1268
(dp1269
g62
(dp1270
g89
g90
ssg71
g1259
sg64
(lp1271
S':'
asbag57
(g78
g59
NtRp1272
(dp1273
g62
(dp1274
sg71
g1259
sg64
(lp1275
g57
(g58
g59
NtRp1276
(dp1277
g62
(dp1278
g70
I4
ssg71
g1272
sg64
(lp1279
g57
(g66
g59
NtRp1280
(dp1281
g62
(dp1282
g70
I3
ssg71
Nsg64
(lp1283
g57
(g73
g59
NtRp1284
(dp1285
g62
(dp1286
sg71
g1280
sg64
(lp1287
g57
(g78
g59
NtRp1288
(dp1289
g62
(dp1290
sg71
g1284
sg64
(lp1291
g57
(g58
g59
NtRp1292
(dp1293
g62
(dp1294
g70
I3
ssg71
g1288
sg64
(lp1295
S'127.0.1.1'
p1296
asbasbasbag57
(g73
g59
NtRp1297
(dp1298
g62
(dp1299
sg71
g1280
sg64
(lp1300
g57
(g78
g59
NtRp1301
(dp1302
g62
(dp1303
sg71
g1297
sg64
(lp1304
g57
(g58
g59
NtRp1305
(dp1306
g62
(dp1307
g70
I3
ssg71
g1301
sg64
(lp1308
S'::1'
p1309
asbasbasbag57
(g73
g59
NtRp1310
(dp1311
g62
(dp1312
sg71
g1280
sg64
(lp1313
g57
(g78
g59
NtRp1314
(dp1315
g62
(dp1316
sg71
g1310
sg64
(lp1317
g57
(g58
g59
NtRp1318
(dp1319
g62
(dp1320
g70
I3
ssg71
g1314
sg64
(lp1321
S'alanzak'
p1322
asbasbasbag57
(g73
g59
NtRp1323
(dp1324
g62
(dp1325
sg71
g1280
sg64
(lp1326
g57
(g78
g59
NtRp1327
(dp1328
g62
(dp1329
sg71
g1323
sg64
(lp1330
g57
(g58
g59
NtRp1331
(dp1332
g62
(dp1333
g70
I3
ssg71
g1327
sg64
(lp1334
S'::ffff:127.0.0.1'
p1335
asbasbasbag57
(g73
g59
NtRp1336
(dp1337
g62
(dp1338
sg71
g1280
sg64
(lp1339
g57
(g78
g59
NtRp1340
(dp1341
g62
(dp1342
sg71
g1336
sg64
(lp1343
g57
(g58
g59
NtRp1344
(dp1345
g62
(dp1346
g70
I3
ssg71
g1340
sg64
(lp1347
S'127.0.0.1'
p1348
asbasbasbasbasbasbasbag57
(g73
g59
NtRp1349
(dp1350
g62
(dp1351
sg71
g859
sg64
(lp1352
g57
(g78
g59
NtRp1353
(dp1354
g62
(dp1355
g82
g83
ssg71
g1349
sg64
(lp1356
S'path_info'
p1357
asbag57
(g78
g59
NtRp1358
(dp1359
g62
(dp1360
g89
g90
ssg71
g1349
sg64
(lp1361
S':'
asbag57
(g78
g59
NtRp1362
(dp1363
g62
(dp1364
sg71
g1349
sg64
(lp1365
g57
(g58
g59
NtRp1366
(dp1367
g62
(dp1368
g70
I4
ssg71
g1362
sg64
(lp1369
S'/BuySell/default/wish_d/1'
p1370
asbasbasbag57
(g73
g59
NtRp1371
(dp1372
g62
(dp1373
sg71
g859
sg64
(lp1374
g57
(g78
g59
NtRp1375
(dp1376
g62
(dp1377
g82
g83
ssg71
g1371
sg64
(lp1378
S'query_string'
p1379
asbag57
(g78
g59
NtRp1380
(dp1381
g62
(dp1382
g89
g90
ssg71
g1371
sg64
(lp1383
S':'
asbag57
(g78
g59
NtRp1384
(dp1385
g62
(dp1386
sg71
g1371
sg64
(lp1387
g57
(g58
g59
NtRp1388
(dp1389
g62
(dp1390
g70
I4
ssg71
g1384
sg64
(lp1391
S''
asbasbasbag57
(g73
g59
NtRp1392
(dp1393
g62
(dp1394
sg71
g859
sg64
(lp1395
g57
(g78
g59
NtRp1396
(dp1397
g62
(dp1398
g82
g83
ssg71
g1392
sg64
(lp1399
S'remote_addr'
p1400
asbag57
(g78
g59
NtRp1401
(dp1402
g62
(dp1403
g89
g90
ssg71
g1392
sg64
(lp1404
S':'
asbag57
(g78
g59
NtRp1405
(dp1406
g62
(dp1407
sg71
g1392
sg64
(lp1408
g57
(g58
g59
NtRp1409
(dp1410
g62
(dp1411
g70
I4
ssg71
g1405
sg64
(lp1412
g224
asbasbasbag57
(g73
g59
NtRp1413
(dp1414
g62
(dp1415
sg71
g859
sg64
(lp1416
g57
(g78
g59
NtRp1417
(dp1418
g62
(dp1419
g82
g83
ssg71
g1413
sg64
(lp1420
S'remote_port'
p1421
asbag57
(g78
g59
NtRp1422
(dp1423
g62
(dp1424
g89
g90
ssg71
g1413
sg64
(lp1425
S':'
asbag57
(g78
g59
NtRp1426
(dp1427
g62
(dp1428
sg71
g1413
sg64
(lp1429
g57
(g58
g59
NtRp1430
(dp1431
g62
(dp1432
g70
I4
ssg71
g1426
sg64
(lp1433
S'43295'
p1434
asbasbasbag57
(g73
g59
NtRp1435
(dp1436
g62
(dp1437
sg71
g859
sg64
(lp1438
g57
(g78
g59
NtRp1439
(dp1440
g62
(dp1441
g82
g83
ssg71
g1435
sg64
(lp1442
S'request_method'
p1443
asbag57
(g78
g59
NtRp1444
(dp1445
g62
(dp1446
g89
g90
ssg71
g1435
sg64
(lp1447
S':'
asbag57
(g78
g59
NtRp1448
(dp1449
g62
(dp1450
sg71
g1435
sg64
(lp1451
g57
(g58
g59
NtRp1452
(dp1453
g62
(dp1454
g70
I4
ssg71
g1448
sg64
(lp1455
S'GET'
p1456
asbasbasbag57
(g73
g59
NtRp1457
(dp1458
g62
(dp1459
sg71
g859
sg64
(lp1460
g57
(g78
g59
NtRp1461
(dp1462
g62
(dp1463
g82
g83
ssg71
g1457
sg64
(lp1464
S'request_uri'
p1465
asbag57
(g78
g59
NtRp1466
(dp1467
g62
(dp1468
g89
g90
ssg71
g1457
sg64
(lp1469
S':'
asbag57
(g78
g59
NtRp1470
(dp1471
g62
(dp1472
sg71
g1457
sg64
(lp1473
g57
(g58
g59
NtRp1474
(dp1475
g62
(dp1476
g70
I4
ssg71
g1470
sg64
(lp1477
g1370
asbasbasbag57
(g73
g59
NtRp1478
(dp1479
g62
(dp1480
sg71
g859
sg64
(lp1481
g57
(g78
g59
NtRp1482
(dp1483
g62
(dp1484
g82
g83
ssg71
g1478
sg64
(lp1485
S'script_name'
p1486
asbag57
(g78
g59
NtRp1487
(dp1488
g62
(dp1489
g89
g90
ssg71
g1478
sg64
(lp1490
S':'
asbag57
(g78
g59
NtRp1491
(dp1492
g62
(dp1493
sg71
g1478
sg64
(lp1494
g57
(g58
g59
NtRp1495
(dp1496
g62
(dp1497
g70
I4
ssg71
g1491
sg64
(lp1498
S''
asbasbasbag57
(g73
g59
NtRp1499
(dp1500
g62
(dp1501
sg71
g859
sg64
(lp1502
g57
(g78
g59
NtRp1503
(dp1504
g62
(dp1505
g82
g83
ssg71
g1499
sg64
(lp1506
S'server_name'
p1507
asbag57
(g78
g59
NtRp1508
(dp1509
g62
(dp1510
g89
g90
ssg71
g1499
sg64
(lp1511
S':'
asbag57
(g78
g59
NtRp1512
(dp1513
g62
(dp1514
sg71
g1499
sg64
(lp1515
g57
(g58
g59
NtRp1516
(dp1517
g62
(dp1518
g70
I4
ssg71
g1512
sg64
(lp1519
S'alanzak'
p1520
asbasbasbag57
(g73
g59
NtRp1521
(dp1522
g62
(dp1523
sg71
g859
sg64
(lp1524
g57
(g78
g59
NtRp1525
(dp1526
g62
(dp1527
g82
g83
ssg71
g1521
sg64
(lp1528
S'server_port'
p1529
asbag57
(g78
g59
NtRp1530
(dp1531
g62
(dp1532
g89
g90
ssg71
g1521
sg64
(lp1533
S':'
asbag57
(g78
g59
NtRp1534
(dp1535
g62
(dp1536
sg71
g1521
sg64
(lp1537
g57
(g58
g59
NtRp1538
(dp1539
g62
(dp1540
g70
I4
ssg71
g1534
sg64
(lp1541
S'8000'
p1542
asbasbasbag57
(g73
g59
NtRp1543
(dp1544
g62
(dp1545
sg71
g859
sg64
(lp1546
g57
(g78
g59
NtRp1547
(dp1548
g62
(dp1549
g82
g83
ssg71
g1543
sg64
(lp1550
S'server_protocol'
p1551
asbag57
(g78
g59
NtRp1552
(dp1553
g62
(dp1554
g89
g90
ssg71
g1543
sg64
(lp1555
S':'
asbag57
(g78
g59
NtRp1556
(dp1557
g62
(dp1558
sg71
g1543
sg64
(lp1559
g57
(g58
g59
NtRp1560
(dp1561
g62
(dp1562
g70
I4
ssg71
g1556
sg64
(lp1563
S'HTTP/1.1'
p1564
asbasbasbag57
(g73
g59
NtRp1565
(dp1566
g62
(dp1567
sg71
g859
sg64
(lp1568
g57
(g78
g59
NtRp1569
(dp1570
g62
(dp1571
g82
g83
ssg71
g1565
sg64
(lp1572
S'server_software'
p1573
asbag57
(g78
g59
NtRp1574
(dp1575
g62
(dp1576
g89
g90
ssg71
g1565
sg64
(lp1577
S':'
asbag57
(g78
g59
NtRp1578
(dp1579
g62
(dp1580
sg71
g1565
sg64
(lp1581
g57
(g58
g59
NtRp1582
(dp1583
g62
(dp1584
g70
I4
ssg71
g1578
sg64
(lp1585
S'Rocket 1.2.6'
p1586
asbasbasbag57
(g73
g59
NtRp1587
(dp1588
g62
(dp1589
sg71
g859
sg64
(lp1590
g57
(g78
g59
NtRp1591
(dp1592
g62
(dp1593
g82
g83
ssg71
g1587
sg64
(lp1594
S'web2py_path'
p1595
asbag57
(g78
g59
NtRp1596
(dp1597
g62
(dp1598
g89
g90
ssg71
g1587
sg64
(lp1599
S':'
asbag57
(g78
g59
NtRp1600
(dp1601
g62
(dp1602
sg71
g1587
sg64
(lp1603
g57
(g58
g59
NtRp1604
(dp1605
g62
(dp1606
g70
I4
ssg71
g1600
sg64
(lp1607
g906
asbasbasbag57
(g73
g59
NtRp1608
(dp1609
g62
(dp1610
sg71
g859
sg64
(lp1611
g57
(g78
g59
NtRp1612
(dp1613
g62
(dp1614
g82
g83
ssg71
g1608
sg64
(lp1615
S'web2py_version'
p1616
asbag57
(g78
g59
NtRp1617
(dp1618
g62
(dp1619
g89
g90
ssg71
g1608
sg64
(lp1620
S':'
asbag57
(g78
g59
NtRp1621
(dp1622
g62
(dp1623
sg71
g1608
sg64
(lp1624
g57
(g58
g59
NtRp1625
(dp1626
g62
(dp1627
g70
I4
ssg71
g1621
sg64
(lp1628
g57
(g66
g59
NtRp1629
(dp1630
g62
(dp1631
g70
I3
ssg71
Nsg64
(lp1632
g57
(g73
g59
NtRp1633
(dp1634
g62
(dp1635
sg71
g1629
sg64
(lp1636
g57
(g78
g59
NtRp1637
(dp1638
g62
(dp1639
sg71
g1633
sg64
(lp1640
g57
(g58
g59
NtRp1641
(dp1642
g62
(dp1643
g70
I3
ssg71
g1637
sg64
(lp1644
S'2'
asbasbasbag57
(g73
g59
NtRp1645
(dp1646
g62
(dp1647
sg71
g1629
sg64
(lp1648
g57
(g78
g59
NtRp1649
(dp1650
g62
(dp1651
sg71
g1645
sg64
(lp1652
g57
(g58
g59
NtRp1653
(dp1654
g62
(dp1655
g70
I3
ssg71
g1649
sg64
(lp1656
S'3'
asbasbasbag57
(g73
g59
NtRp1657
(dp1658
g62
(dp1659
sg71
g1629
sg64
(lp1660
g57
(g78
g59
NtRp1661
(dp1662
g62
(dp1663
sg71
g1657
sg64
(lp1664
g57
(g58
g59
NtRp1665
(dp1666
g62
(dp1667
g70
I3
ssg71
g1661
sg64
(lp1668
S'2'
asbasbasbag57
(g73
g59
NtRp1669
(dp1670
g62
(dp1671
sg71
g1629
sg64
(lp1672
g57
(g78
g59
NtRp1673
(dp1674
g62
(dp1675
sg71
g1669
sg64
(lp1676
g57
(g58
g59
NtRp1677
(dp1678
g62
(dp1679
g70
I3
ssg71
g1673
sg64
(lp1680
S'datetime.datetime(2012, 12, 17, 15, 3, 30)'
p1681
asbasbasbag57
(g73
g59
NtRp1682
(dp1683
g62
(dp1684
sg71
g1629
sg64
(lp1685
g57
(g78
g59
NtRp1686
(dp1687
g62
(dp1688
sg71
g1682
sg64
(lp1689
g57
(g58
g59
NtRp1690
(dp1691
g62
(dp1692
g70
I3
ssg71
g1686
sg64
(lp1693
S'stable'
p1694
asbasbasbasbasbasbasbag57
(g73
g59
NtRp1695
(dp1696
g62
(dp1697
sg71
g859
sg64
(lp1698
g57
(g78
g59
NtRp1699
(dp1700
g62
(dp1701
g82
g83
ssg71
g1695
sg64
(lp1702
S'wsgi_errors'
p1703
asbag57
(g78
g59
NtRp1704
(dp1705
g62
(dp1706
g89
g90
ssg71
g1695
sg64
(lp1707
S':'
asbag57
(g78
g59
NtRp1708
(dp1709
g62
(dp1710
sg71
g1695
sg64
(lp1711
g57
(g58
g59
NtRp1712
(dp1713
g62
(dp1714
g70
I4
ssg71
g1708
sg64
(lp1715
S"<open file '<stderr>', mode 'w' at 0xb77230d0>"
p1716
asbasbasbag57
(g73
g59
NtRp1717
(dp1718
g62
(dp1719
sg71
g859
sg64
(lp1720
g57
(g78
g59
NtRp1721
(dp1722
g62
(dp1723
g82
g83
ssg71
g1717
sg64
(lp1724
S'wsgi_file_wrapper'
p1725
asbag57
(g78
g59
NtRp1726
(dp1727
g62
(dp1728
g89
g90
ssg71
g1717
sg64
(lp1729
S':'
asbag57
(g78
g59
NtRp1730
(dp1731
g62
(dp1732
sg71
g1717
sg64
(lp1733
g57
(g58
g59
NtRp1734
(dp1735
g62
(dp1736
g70
I4
ssg71
g1730
sg64
(lp1737
S'<class wsgiref.util.FileWrapper at 0x92d7d1c>'
p1738
asbasbasbag57
(g73
g59
NtRp1739
(dp1740
g62
(dp1741
sg71
g859
sg64
(lp1742
g57
(g78
g59
NtRp1743
(dp1744
g62
(dp1745
g82
g83
ssg71
g1739
sg64
(lp1746
S'wsgi_input'
p1747
asbag57
(g78
g59
NtRp1748
(dp1749
g62
(dp1750
g89
g90
ssg71
g1739
sg64
(lp1751
S':'
asbag57
(g78
g59
NtRp1752
(dp1753
g62
(dp1754
sg71
g1739
sg64
(lp1755
g57
(g58
g59
NtRp1756
(dp1757
g62
(dp1758
g70
I4
ssg71
g1752
sg64
(lp1759
S'<socket._fileobject object at 0x9d84cec>'
p1760
asbasbasbag57
(g73
g59
NtRp1761
(dp1762
g62
(dp1763
sg71
g859
sg64
(lp1764
g57
(g78
g59
NtRp1765
(dp1766
g62
(dp1767
g82
g83
ssg71
g1761
sg64
(lp1768
S'wsgi_multiprocess'
p1769
asbag57
(g78
g59
NtRp1770
(dp1771
g62
(dp1772
g89
g90
ssg71
g1761
sg64
(lp1773
S':'
asbag57
(g78
g59
NtRp1774
(dp1775
g62
(dp1776
sg71
g1761
sg64
(lp1777
g57
(g58
g59
NtRp1778
(dp1779
g62
(dp1780
g70
I4
ssg71
g1774
sg64
(lp1781
g100
asbasbasbag57
(g73
g59
NtRp1782
(dp1783
g62
(dp1784
sg71
g859
sg64
(lp1785
g57
(g78
g59
NtRp1786
(dp1787
g62
(dp1788
g82
g83
ssg71
g1782
sg64
(lp1789
S'wsgi_multithread'
p1790
asbag57
(g78
g59
NtRp1791
(dp1792
g62
(dp1793
g89
g90
ssg71
g1782
sg64
(lp1794
S':'
asbag57
(g78
g59
NtRp1795
(dp1796
g62
(dp1797
sg71
g1782
sg64
(lp1798
g57
(g58
g59
NtRp1799
(dp1800
g62
(dp1801
g70
I4
ssg71
g1795
sg64
(lp1802
S'True'
p1803
asbasbasbag57
(g73
g59
NtRp1804
(dp1805
g62
(dp1806
sg71
g859
sg64
(lp1807
g57
(g78
g59
NtRp1808
(dp1809
g62
(dp1810
g82
g83
ssg71
g1804
sg64
(lp1811
S'wsgi_run_once'
p1812
asbag57
(g78
g59
NtRp1813
(dp1814
g62
(dp1815
g89
g90
ssg71
g1804
sg64
(lp1816
S':'
asbag57
(g78
g59
NtRp1817
(dp1818
g62
(dp1819
sg71
g1804
sg64
(lp1820
g57
(g58
g59
NtRp1821
(dp1822
g62
(dp1823
g70
I4
ssg71
g1817
sg64
(lp1824
g100
asbasbasbag57
(g73
g59
NtRp1825
(dp1826
g62
(dp1827
sg71
g859
sg64
(lp1828
g57
(g78
g59
NtRp1829
(dp1830
g62
(dp1831
g82
g83
ssg71
g1825
sg64
(lp1832
S'wsgi_url_scheme'
p1833
asbag57
(g78
g59
NtRp1834
(dp1835
g62
(dp1836
g89
g90
ssg71
g1825
sg64
(lp1837
S':'
asbag57
(g78
g59
NtRp1838
(dp1839
g62
(dp1840
sg71
g1825
sg64
(lp1841
g57
(g58
g59
NtRp1842
(dp1843
g62
(dp1844
g70
I4
ssg71
g1838
sg64
(lp1845
S'http'
p1846
asbasbasbag57
(g73
g59
NtRp1847
(dp1848
g62
(dp1849
sg71
g859
sg64
(lp1850
g57
(g78
g59
NtRp1851
(dp1852
g62
(dp1853
g82
g83
ssg71
g1847
sg64
(lp1854
S'wsgi_version'
p1855
asbag57
(g78
g59
NtRp1856
(dp1857
g62
(dp1858
g89
g90
ssg71
g1847
sg64
(lp1859
S':'
asbag57
(g78
g59
NtRp1860
(dp1861
g62
(dp1862
sg71
g1847
sg64
(lp1863
g57
(g58
g59
NtRp1864
(dp1865
g62
(dp1866
g70
I4
ssg71
g1860
sg64
(lp1867
g57
(g66
g59
NtRp1868
(dp1869
g62
(dp1870
g70
I3
ssg71
Nsg64
(lp1871
g57
(g73
g59
NtRp1872
(dp1873
g62
(dp1874
sg71
g1868
sg64
(lp1875
g57
(g78
g59
NtRp1876
(dp1877
g62
(dp1878
sg71
g1872
sg64
(lp1879
g57
(g58
g59
NtRp1880
(dp1881
g62
(dp1882
g70
I3
ssg71
g1876
sg64
(lp1883
S'1'
asbasbasbag57
(g73
g59
NtRp1884
(dp1885
g62
(dp1886
sg71
g1868
sg64
(lp1887
g57
(g78
g59
NtRp1888
(dp1889
g62
(dp1890
sg71
g1884
sg64
(lp1891
g57
(g58
g59
NtRp1892
(dp1893
g62
(dp1894
g70
I3
ssg71
g1888
sg64
(lp1895
S'0'
asbasbasbasbasbasbasbasbasbasbasbag57
(g73
g59
NtRp1896
(dp1897
g62
(dp1898
sg71
g67
sg64
(lp1899
g57
(g78
g59
NtRp1900
(dp1901
g62
(dp1902
g82
g83
ssg71
g1896
sg64
(lp1903
S'extension'
p1904
asbag57
(g78
g59
NtRp1905
(dp1906
g62
(dp1907
g89
g90
ssg71
g1896
sg64
(lp1908
S':'
asbag57
(g78
g59
NtRp1909
(dp1910
g62
(dp1911
sg71
g1896
sg64
(lp1912
g57
(g58
g59
NtRp1913
(dp1914
g62
(dp1915
g70
I5
ssg71
g1909
sg64
(lp1916
S'html'
p1917
asbasbasbag57
(g73
g59
NtRp1918
(dp1919
g62
(dp1920
sg71
g67
sg64
(lp1921
g57
(g78
g59
NtRp1922
(dp1923
g62
(dp1924
g82
g83
ssg71
g1918
sg64
(lp1925
S'folder'
p1926
asbag57
(g78
g59
NtRp1927
(dp1928
g62
(dp1929
g89
g90
ssg71
g1918
sg64
(lp1930
S':'
asbag57
(g78
g59
NtRp1931
(dp1932
g62
(dp1933
sg71
g1918
sg64
(lp1934
g57
(g58
g59
NtRp1935
(dp1936
g62
(dp1937
g70
I5
ssg71
g1931
sg64
(lp1938
S'/home/pratyush/web2py/applications/BuySell/'
p1939
asbasbasbag57
(g73
g59
NtRp1940
(dp1941
g62
(dp1942
sg71
g67
sg64
(lp1943
g57
(g78
g59
NtRp1944
(dp1945
g62
(dp1946
g82
g83
ssg71
g1940
sg64
(lp1947
S'function'
p1948
asbag57
(g78
g59
NtRp1949
(dp1950
g62
(dp1951
g89
g90
ssg71
g1940
sg64
(lp1952
S':'
asbag57
(g78
g59
NtRp1953
(dp1954
g62
(dp1955
sg71
g1940
sg64
(lp1956
g57
(g58
g59
NtRp1957
(dp1958
g62
(dp1959
g70
I5
ssg71
g1953
sg64
(lp1960
S'wish_d'
p1961
asbasbasbag57
(g73
g59
NtRp1962
(dp1963
g62
(dp1964
sg71
g67
sg64
(lp1965
g57
(g78
g59
NtRp1966
(dp1967
g62
(dp1968
g82
g83
ssg71
g1962
sg64
(lp1969
S'get_vars'
p1970
asbag57
(g78
g59
NtRp1971
(dp1972
g62
(dp1973
g89
g90
ssg71
g1962
sg64
(lp1974
S':'
asbag57
(g78
g59
NtRp1975
(dp1976
g62
(dp1977
sg71
g1962
sg64
(lp1978
g57
(g58
g59
NtRp1979
(dp1980
g62
(dp1981
g70
I5
ssg71
g1975
sg64
(lp1982
g57
(g66
g59
NtRp1983
(dp1984
g62
(dp1985
g70
I4
ssg71
Nsg64
(lp1986
sbasbasbasbag57
(g73
g59
NtRp1987
(dp1988
g62
(dp1989
sg71
g67
sg64
(lp1990
g57
(g78
g59
NtRp1991
(dp1992
g62
(dp1993
g82
g83
ssg71
g1987
sg64
(lp1994
S'global_settings'
p1995
asbag57
(g78
g59
NtRp1996
(dp1997
g62
(dp1998
g89
g90
ssg71
g1987
sg64
(lp1999
S':'
asbag57
(g78
g59
NtRp2000
(dp2001
g62
(dp2002
sg71
g1987
sg64
(lp2003
g57
(g58
g59
NtRp2004
(dp2005
g62
(dp2006
g70
I5
ssg71
g2000
sg64
(lp2007
g57
(g66
g59
NtRp2008
(dp2009
g62
(dp2010
g70
I4
ssg71
Nsg64
(lp2011
g57
(g73
g59
NtRp2012
(dp2013
g62
(dp2014
sg71
g2008
sg64
(lp2015
g57
(g78
g59
NtRp2016
(dp2017
g62
(dp2018
g82
g83
ssg71
g2012
sg64
(lp2019
g871
asbag57
(g78
g59
NtRp2020
(dp2021
g62
(dp2022
g89
g90
ssg71
g2012
sg64
(lp2023
S':'
asbag57
(g78
g59
NtRp2024
(dp2025
g62
(dp2026
sg71
g2012
sg64
(lp2027
g57
(g58
g59
NtRp2028
(dp2029
g62
(dp2030
g70
I4
ssg71
g2024
sg64
(lp2031
S"set(['/home/pratyush/web2py/applications/BuySell/', '/home/pratyush/web2py/applications/admin/'])"
p2032
asbasbasbag57
(g73
g59
NtRp2033
(dp2034
g62
(dp2035
sg71
g2008
sg64
(lp2036
g57
(g78
g59
NtRp2037
(dp2038
g62
(dp2039
g82
g83
ssg71
g2033
sg64
(lp2040
g893
asbag57
(g78
g59
NtRp2041
(dp2042
g62
(dp2043
g89
g90
ssg71
g2033
sg64
(lp2044
S':'
asbag57
(g78
g59
NtRp2045
(dp2046
g62
(dp2047
sg71
g2033
sg64
(lp2048
g57
(g58
g59
NtRp2049
(dp2050
g62
(dp2051
g70
I4
ssg71
g2045
sg64
(lp2052
g906
asbasbasbag57
(g73
g59
NtRp2053
(dp2054
g62
(dp2055
sg71
g2008
sg64
(lp2056
g57
(g78
g59
NtRp2057
(dp2058
g62
(dp2059
g82
g83
ssg71
g2053
sg64
(lp2060
g915
asbag57
(g78
g59
NtRp2061
(dp2062
g62
(dp2063
g89
g90
ssg71
g2053
sg64
(lp2064
S':'
asbag57
(g78
g59
NtRp2065
(dp2066
g62
(dp2067
sg71
g2053
sg64
(lp2068
g57
(g58
g59
NtRp2069
(dp2070
g62
(dp2071
g70
I4
ssg71
g2065
sg64
(lp2072
g57
(g66
g59
NtRp2073
(dp2074
g62
(dp2075
g70
I3
ssg71
Nsg64
(lp2076
sbasbasbasbag57
(g73
g59
NtRp2077
(dp2078
g62
(dp2079
sg71
g2008
sg64
(lp2080
g57
(g78
g59
NtRp2081
(dp2082
g62
(dp2083
g82
g83
ssg71
g2077
sg64
(lp2084
g940
asbag57
(g78
g59
NtRp2085
(dp2086
g62
(dp2087
g89
g90
ssg71
g2077
sg64
(lp2088
S':'
asbag57
(g78
g59
NtRp2089
(dp2090
g62
(dp2091
sg71
g2077
sg64
(lp2092
g57
(g58
g59
NtRp2093
(dp2094
g62
(dp2095
g70
I4
ssg71
g2089
sg64
(lp2096
S"<Values at 0x934f9ac: {'verbose': False, 'ip': '127.0.0.1', 'with_scheduler': False, 'ips': [], 'shutdown_timeout': 5, 'taskbar': False, 'port': 8000, 'maxthreads': None, 'softcron': False, 'server_name': 'alanzak', 'bpython': False, 'nogui': False, 'pid_filename': 'httpserver.pid', 'extcron': False, 'runcron': False, 'run_system_tests': False, 'test': None, 'folder': '/home/pratyush/web2py', 'config': '', 'import_models': False, 'winservice': '', 'shell': None, 'run': '', 'log_filename': 'httpserver.log', 'debuglevel': 30, 'args': [''], 'socket_timeout': 5, 'ssl_ca_certificate': None, 'scheduler': None, 'profiler_filename': None, 'ssl_private_key': '', 'scheduler_groups': None, 'password': '1', 'request_queue_size': 5, 'ssl_certificate': '', 'cronjob': False, 'numthreads': None, 'quiet': False, 'interfaces': None, 'minthreads': None, 'timeout': 10, 'plain': False, 'nobanner': False}>"
p2097
asbasbasbag57
(g73
g59
NtRp2098
(dp2099
g62
(dp2100
sg71
g2008
sg64
(lp2101
g57
(g78
g59
NtRp2102
(dp2103
g62
(dp2104
g82
g83
ssg71
g2098
sg64
(lp2105
g962
asbag57
(g78
g59
NtRp2106
(dp2107
g62
(dp2108
g89
g90
ssg71
g2098
sg64
(lp2109
S':'
asbag57
(g78
g59
NtRp2110
(dp2111
g62
(dp2112
sg71
g2098
sg64
(lp2113
g57
(g58
g59
NtRp2114
(dp2115
g62
(dp2116
g70
I4
ssg71
g2110
sg64
(lp2117
S'set([])'
p2118
asbasbasbag57
(g73
g59
NtRp2119
(dp2120
g62
(dp2121
sg71
g2008
sg64
(lp2122
g57
(g78
g59
NtRp2123
(dp2124
g62
(dp2125
g82
g83
ssg71
g2119
sg64
(lp2126
g984
asbag57
(g78
g59
NtRp2127
(dp2128
g62
(dp2129
g89
g90
ssg71
g2119
sg64
(lp2130
S':'
asbag57
(g78
g59
NtRp2131
(dp2132
g62
(dp2133
sg71
g2119
sg64
(lp2134
g57
(g58
g59
NtRp2135
(dp2136
g62
(dp2137
g70
I4
ssg71
g2131
sg64
(lp2138
g100
asbasbasbag57
(g73
g59
NtRp2139
(dp2140
g62
(dp2141
sg71
g2008
sg64
(lp2142
g57
(g78
g59
NtRp2143
(dp2144
g62
(dp2145
g82
g83
ssg71
g2139
sg64
(lp2146
g1005
asbag57
(g78
g59
NtRp2147
(dp2148
g62
(dp2149
g89
g90
ssg71
g2139
sg64
(lp2150
S':'
asbag57
(g78
g59
NtRp2151
(dp2152
g62
(dp2153
sg71
g2139
sg64
(lp2154
g57
(g58
g59
NtRp2155
(dp2156
g62
(dp2157
g70
I4
ssg71
g2151
sg64
(lp2158
g1018
asbasbasbag57
(g73
g59
NtRp2159
(dp2160
g62
(dp2161
sg71
g2008
sg64
(lp2162
g57
(g78
g59
NtRp2163
(dp2164
g62
(dp2165
g82
g83
ssg71
g2159
sg64
(lp2166
g1225
asbag57
(g78
g59
NtRp2167
(dp2168
g62
(dp2169
g89
g90
ssg71
g2159
sg64
(lp2170
S':'
asbag57
(g78
g59
NtRp2171
(dp2172
g62
(dp2173
sg71
g2159
sg64
(lp2174
g57
(g58
g59
NtRp2175
(dp2176
g62
(dp2177
g70
I4
ssg71
g2171
sg64
(lp2178
g100
asbasbasbag57
(g73
g59
NtRp2179
(dp2180
g62
(dp2181
sg71
g2008
sg64
(lp2182
g57
(g78
g59
NtRp2183
(dp2184
g62
(dp2185
g82
g83
ssg71
g2179
sg64
(lp2186
g1246
asbag57
(g78
g59
NtRp2187
(dp2188
g62
(dp2189
g89
g90
ssg71
g2179
sg64
(lp2190
S':'
asbag57
(g78
g59
NtRp2191
(dp2192
g62
(dp2193
sg71
g2179
sg64
(lp2194
g57
(g58
g59
NtRp2195
(dp2196
g62
(dp2197
g70
I4
ssg71
g2191
sg64
(lp2198
g100
asbasbasbag57
(g73
g59
NtRp2199
(dp2200
g62
(dp2201
sg71
g2008
sg64
(lp2202
g57
(g78
g59
NtRp2203
(dp2204
g62
(dp2205
g82
g83
ssg71
g2199
sg64
(lp2206
g1267
asbag57
(g78
g59
NtRp2207
(dp2208
g62
(dp2209
g89
g90
ssg71
g2199
sg64
(lp2210
S':'
asbag57
(g78
g59
NtRp2211
(dp2212
g62
(dp2213
sg71
g2199
sg64
(lp2214
g57
(g58
g59
NtRp2215
(dp2216
g62
(dp2217
g70
I4
ssg71
g2211
sg64
(lp2218
g57
(g66
g59
NtRp2219
(dp2220
g62
(dp2221
g70
I3
ssg71
Nsg64
(lp2222
g57
(g73
g59
NtRp2223
(dp2224
g62
(dp2225
sg71
g2219
sg64
(lp2226
g57
(g78
g59
NtRp2227
(dp2228
g62
(dp2229
sg71
g2223
sg64
(lp2230
g57
(g58
g59
NtRp2231
(dp2232
g62
(dp2233
g70
I3
ssg71
g2227
sg64
(lp2234
g1296
asbasbasbag57
(g73
g59
NtRp2235
(dp2236
g62
(dp2237
sg71
g2219
sg64
(lp2238
g57
(g78
g59
NtRp2239
(dp2240
g62
(dp2241
sg71
g2235
sg64
(lp2242
g57
(g58
g59
NtRp2243
(dp2244
g62
(dp2245
g70
I3
ssg71
g2239
sg64
(lp2246
g1309
asbasbasbag57
(g73
g59
NtRp2247
(dp2248
g62
(dp2249
sg71
g2219
sg64
(lp2250
g57
(g78
g59
NtRp2251
(dp2252
g62
(dp2253
sg71
g2247
sg64
(lp2254
g57
(g58
g59
NtRp2255
(dp2256
g62
(dp2257
g70
I3
ssg71
g2251
sg64
(lp2258
g1322
asbasbasbag57
(g73
g59
NtRp2259
(dp2260
g62
(dp2261
sg71
g2219
sg64
(lp2262
g57
(g78
g59
NtRp2263
(dp2264
g62
(dp2265
sg71
g2259
sg64
(lp2266
g57
(g58
g59
NtRp2267
(dp2268
g62
(dp2269
g70
I3
ssg71
g2263
sg64
(lp2270
g1335
asbasbasbag57
(g73
g59
NtRp2271
(dp2272
g62
(dp2273
sg71
g2219
sg64
(lp2274
g57
(g78
g59
NtRp2275
(dp2276
g62
(dp2277
sg71
g2271
sg64
(lp2278
g57
(g58
g59
NtRp2279
(dp2280
g62
(dp2281
g70
I3
ssg71
g2275
sg64
(lp2282
g1348
asbasbasbasbasbasbasbag57
(g73
g59
NtRp2283
(dp2284
g62
(dp2285
sg71
g2008
sg64
(lp2286
g57
(g78
g59
NtRp2287
(dp2288
g62
(dp2289
g82
g83
ssg71
g2283
sg64
(lp2290
g1616
asbag57
(g78
g59
NtRp2291
(dp2292
g62
(dp2293
g89
g90
ssg71
g2283
sg64
(lp2294
S':'
asbag57
(g78
g59
NtRp2295
(dp2296
g62
(dp2297
sg71
g2283
sg64
(lp2298
g57
(g58
g59
NtRp2299
(dp2300
g62
(dp2301
g70
I4
ssg71
g2295
sg64
(lp2302
g57
(g66
g59
NtRp2303
(dp2304
g62
(dp2305
g70
I3
ssg71
Nsg64
(lp2306
g57
(g73
g59
NtRp2307
(dp2308
g62
(dp2309
sg71
g2303
sg64
(lp2310
g57
(g78
g59
NtRp2311
(dp2312
g62
(dp2313
sg71
g2307
sg64
(lp2314
g57
(g58
g59
NtRp2315
(dp2316
g62
(dp2317
g70
I3
ssg71
g2311
sg64
(lp2318
S'2'
asbasbasbag57
(g73
g59
NtRp2319
(dp2320
g62
(dp2321
sg71
g2303
sg64
(lp2322
g57
(g78
g59
NtRp2323
(dp2324
g62
(dp2325
sg71
g2319
sg64
(lp2326
g57
(g58
g59
NtRp2327
(dp2328
g62
(dp2329
g70
I3
ssg71
g2323
sg64
(lp2330
S'3'
asbasbasbag57
(g73
g59
NtRp2331
(dp2332
g62
(dp2333
sg71
g2303
sg64
(lp2334
g57
(g78
g59
NtRp2335
(dp2336
g62
(dp2337
sg71
g2331
sg64
(lp2338
g57
(g58
g59
NtRp2339
(dp2340
g62
(dp2341
g70
I3
ssg71
g2335
sg64
(lp2342
S'2'
asbasbasbag57
(g73
g59
NtRp2343
(dp2344
g62
(dp2345
sg71
g2303
sg64
(lp2346
g57
(g78
g59
NtRp2347
(dp2348
g62
(dp2349
sg71
g2343
sg64
(lp2350
g57
(g58
g59
NtRp2351
(dp2352
g62
(dp2353
g70
I3
ssg71
g2347
sg64
(lp2354
S'datetime.datetime(2012, 12, 17, 15, 3, 30)'
p2355
asbasbasbag57
(g73
g59
NtRp2356
(dp2357
g62
(dp2358
sg71
g2303
sg64
(lp2359
g57
(g78
g59
NtRp2360
(dp2361
g62
(dp2362
sg71
g2356
sg64
(lp2363
g57
(g58
g59
NtRp2364
(dp2365
g62
(dp2366
g70
I3
ssg71
g2360
sg64
(lp2367
g1694
asbasbasbasbasbasbasbasbasbasbasbag57
(g73
g59
NtRp2368
(dp2369
g62
(dp2370
sg71
g67
sg64
(lp2371
g57
(g78
g59
NtRp2372
(dp2373
g62
(dp2374
g82
g83
ssg71
g2368
sg64
(lp2375
S'is_https'
p2376
asbag57
(g78
g59
NtRp2377
(dp2378
g62
(dp2379
g89
g90
ssg71
g2368
sg64
(lp2380
S':'
asbag57
(g78
g59
NtRp2381
(dp2382
g62
(dp2383
sg71
g2368
sg64
(lp2384
g57
(g58
g59
NtRp2385
(dp2386
g62
(dp2387
g70
I5
ssg71
g2381
sg64
(lp2388
g100
asbasbasbag57
(g73
g59
NtRp2389
(dp2390
g62
(dp2391
sg71
g67
sg64
(lp2392
g57
(g78
g59
NtRp2393
(dp2394
g62
(dp2395
g82
g83
ssg71
g2389
sg64
(lp2396
S'is_local'
p2397
asbag57
(g78
g59
NtRp2398
(dp2399
g62
(dp2400
g89
g90
ssg71
g2389
sg64
(lp2401
S':'
asbag57
(g78
g59
NtRp2402
(dp2403
g62
(dp2404
sg71
g2389
sg64
(lp2405
g57
(g58
g59
NtRp2406
(dp2407
g62
(dp2408
g70
I5
ssg71
g2402
sg64
(lp2409
g1803
asbasbasbag57
(g73
g59
NtRp2410
(dp2411
g62
(dp2412
sg71
g67
sg64
(lp2413
g57
(g78
g59
NtRp2414
(dp2415
g62
(dp2416
g82
g83
ssg71
g2410
sg64
(lp2417
S'is_restful'
p2418
asbag57
(g78
g59
NtRp2419
(dp2420
g62
(dp2421
g89
g90
ssg71
g2410
sg64
(lp2422
S':'
asbag57
(g78
g59
NtRp2423
(dp2424
g62
(dp2425
sg71
g2410
sg64
(lp2426
g57
(g58
g59
NtRp2427
(dp2428
g62
(dp2429
g70
I5
ssg71
g2423
sg64
(lp2430
g100
asbasbasbag57
(g73
g59
NtRp2431
(dp2432
g62
(dp2433
sg71
g67
sg64
(lp2434
g57
(g78
g59
NtRp2435
(dp2436
g62
(dp2437
g82
g83
ssg71
g2431
sg64
(lp2438
S'now'
p2439
asbag57
(g78
g59
NtRp2440
(dp2441
g62
(dp2442
g89
g90
ssg71
g2431
sg64
(lp2443
S':'
asbag57
(g78
g59
NtRp2444
(dp2445
g62
(dp2446
sg71
g2431
sg64
(lp2447
g57
(g58
g59
NtRp2448
(dp2449
g62
(dp2450
g70
I5
ssg71
g2444
sg64
(lp2451
S'datetime.datetime(2013, 4, 24, 16, 6, 29, 953648)'
p2452
asbasbasbag57
(g73
g59
NtRp2453
(dp2454
g62
(dp2455
sg71
g67
sg64
(lp2456
g57
(g78
g59
NtRp2457
(dp2458
g62
(dp2459
g82
g83
ssg71
g2453
sg64
(lp2460
S'post_vars'
p2461
asbag57
(g78
g59
NtRp2462
(dp2463
g62
(dp2464
g89
g90
ssg71
g2453
sg64
(lp2465
S':'
asbag57
(g78
g59
NtRp2466
(dp2467
g62
(dp2468
sg71
g2453
sg64
(lp2469
g57
(g58
g59
NtRp2470
(dp2471
g62
(dp2472
g70
I5
ssg71
g2466
sg64
(lp2473
g57
(g66
g59
NtRp2474
(dp2475
g62
(dp2476
g70
I4
ssg71
Nsg64
(lp2477
sbasbasbasbag57
(g73
g59
NtRp2478
(dp2479
g62
(dp2480
sg71
g67
sg64
(lp2481
g57
(g78
g59
NtRp2482
(dp2483
g62
(dp2484
g82
g83
ssg71
g2478
sg64
(lp2485
S'raw_args'
p2486
asbag57
(g78
g59
NtRp2487
(dp2488
g62
(dp2489
g89
g90
ssg71
g2478
sg64
(lp2490
S':'
asbag57
(g78
g59
NtRp2491
(dp2492
g62
(dp2493
sg71
g2478
sg64
(lp2494
g57
(g58
g59
NtRp2495
(dp2496
g62
(dp2497
g70
I5
ssg71
g2491
sg64
(lp2498
S'1'
asbasbasbag57
(g73
g59
NtRp2499
(dp2500
g62
(dp2501
sg71
g67
sg64
(lp2502
g57
(g78
g59
NtRp2503
(dp2504
g62
(dp2505
g82
g83
ssg71
g2499
sg64
(lp2506
S'raw_extension'
p2507
asbag57
(g78
g59
NtRp2508
(dp2509
g62
(dp2510
g89
g90
ssg71
g2499
sg64
(lp2511
S':'
asbag57
(g78
g59
NtRp2512
(dp2513
g62
(dp2514
sg71
g2499
sg64
(lp2515
g57
(g58
g59
NtRp2516
(dp2517
g62
(dp2518
g70
I5
ssg71
g2512
sg64
(lp2519
S'None'
p2520
asbasbasbag57
(g73
g59
NtRp2521
(dp2522
g62
(dp2523
sg71
g67
sg64
(lp2524
g57
(g78
g59
NtRp2525
(dp2526
g62
(dp2527
g82
g83
ssg71
g2521
sg64
(lp2528
S'url'
p2529
asbag57
(g78
g59
NtRp2530
(dp2531
g62
(dp2532
g89
g90
ssg71
g2521
sg64
(lp2533
S':'
asbag57
(g78
g59
NtRp2534
(dp2535
g62
(dp2536
sg71
g2521
sg64
(lp2537
g57
(g58
g59
NtRp2538
(dp2539
g62
(dp2540
g70
I5
ssg71
g2534
sg64
(lp2541
g1370
asbasbasbag57
(g73
g59
NtRp2542
(dp2543
g62
(dp2544
sg71
g67
sg64
(lp2545
g57
(g78
g59
NtRp2546
(dp2547
g62
(dp2548
g82
g83
ssg71
g2542
sg64
(lp2549
S'utcnow'
p2550
asbag57
(g78
g59
NtRp2551
(dp2552
g62
(dp2553
g89
g90
ssg71
g2542
sg64
(lp2554
S':'
asbag57
(g78
g59
NtRp2555
(dp2556
g62
(dp2557
sg71
g2542
sg64
(lp2558
g57
(g58
g59
NtRp2559
(dp2560
g62
(dp2561
g70
I5
ssg71
g2555
sg64
(lp2562
S'datetime.datetime(2013, 4, 24, 10, 36, 29, 953684)'
p2563
asbasbasbag57
(g73
g59
NtRp2564
(dp2565
g62
(dp2566
sg71
g67
sg64
(lp2567
g57
(g78
g59
NtRp2568
(dp2569
g62
(dp2570
g82
g83
ssg71
g2564
sg64
(lp2571
S'uuid'
p2572
asbag57
(g78
g59
NtRp2573
(dp2574
g62
(dp2575
g89
g90
ssg71
g2564
sg64
(lp2576
S':'
asbag57
(g78
g59
NtRp2577
(dp2578
g62
(dp2579
sg71
g2564
sg64
(lp2580
g57
(g58
g59
NtRp2581
(dp2582
g62
(dp2583
g70
I5
ssg71
g2577
sg64
(lp2584
S'BuySell/127.0.0.1.2013-04-24.16-06-29.9c53ecac-0a97-4e6a-87c4-ef96bdd7a4b2'
p2585
asbasbasbag57
(g73
g59
NtRp2586
(dp2587
g62
(dp2588
sg71
g67
sg64
(lp2589
g57
(g78
g59
NtRp2590
(dp2591
g62
(dp2592
g82
g83
ssg71
g2586
sg64
(lp2593
S'vars'
p2594
asbag57
(g78
g59
NtRp2595
(dp2596
g62
(dp2597
g89
g90
ssg71
g2586
sg64
(lp2598
S':'
asbag57
(g78
g59
NtRp2599
(dp2600
g62
(dp2601
sg71
g2586
sg64
(lp2602
g57
(g58
g59
NtRp2603
(dp2604
g62
(dp2605
g70
I5
ssg71
g2599
sg64
(lp2606
g57
(g66
g59
NtRp2607
(dp2608
g62
(dp2609
g70
I4
ssg71
Nsg64
(lp2610
sbasbasbasbag57
(g73
g59
NtRp2611
(dp2612
g62
(dp2613
sg71
g67
sg64
(lp2614
g57
(g78
g59
NtRp2615
(dp2616
g62
(dp2617
g82
g83
ssg71
g2611
sg64
(lp2618
S'wsgi'
p2619
asbag57
(g78
g59
NtRp2620
(dp2621
g62
(dp2622
g89
g90
ssg71
g2611
sg64
(lp2623
S':'
asbag57
(g78
g59
NtRp2624
(dp2625
g62
(dp2626
sg71
g2611
sg64
(lp2627
g57
(g58
g59
NtRp2628
(dp2629
g62
(dp2630
g70
I5
ssg71
g2624
sg64
(lp2631
g57
(g66
g59
NtRp2632
(dp2633
g62
(dp2634
g70
I4
ssg71
Nsg64
(lp2635
g57
(g73
g59
NtRp2636
(dp2637
g62
(dp2638
sg71
g2632
sg64
(lp2639
g57
(g78
g59
NtRp2640
(dp2641
g62
(dp2642
g82
g83
ssg71
g2636
sg64
(lp2643
S'environ'
p2644
asbag57
(g78
g59
NtRp2645
(dp2646
g62
(dp2647
g89
g90
ssg71
g2636
sg64
(lp2648
S':'
asbag57
(g78
g59
NtRp2649
(dp2650
g62
(dp2651
sg71
g2636
sg64
(lp2652
g57
(g58
g59
NtRp2653
(dp2654
g62
(dp2655
g70
I4
ssg71
g2649
sg64
(lp2656
g57
(g66
g59
NtRp2657
(dp2658
g62
(dp2659
g70
I3
ssg71
Nsg64
(lp2660
g57
(g73
g59
NtRp2661
(dp2662
g62
(dp2663
sg71
g2657
sg64
(lp2664
g57
(g78
g59
NtRp2665
(dp2666
g62
(dp2667
g82
g83
ssg71
g2661
sg64
(lp2668
S'HTTP_ACCEPT'
p2669
asbag57
(g78
g59
NtRp2670
(dp2671
g62
(dp2672
g89
g90
ssg71
g2661
sg64
(lp2673
S':'
asbag57
(g78
g59
NtRp2674
(dp2675
g62
(dp2676
sg71
g2661
sg64
(lp2677
g57
(g58
g59
NtRp2678
(dp2679
g62
(dp2680
g70
I3
ssg71
g2674
sg64
(lp2681
g1040
asbasbasbag57
(g73
g59
NtRp2682
(dp2683
g62
(dp2684
sg71
g2657
sg64
(lp2685
g57
(g78
g59
NtRp2686
(dp2687
g62
(dp2688
g82
g83
ssg71
g2682
sg64
(lp2689
S'HTTP_ACCEPT_CHARSET'
p2690
asbag57
(g78
g59
NtRp2691
(dp2692
g62
(dp2693
g89
g90
ssg71
g2682
sg64
(lp2694
S':'
asbag57
(g78
g59
NtRp2695
(dp2696
g62
(dp2697
sg71
g2682
sg64
(lp2698
g57
(g58
g59
NtRp2699
(dp2700
g62
(dp2701
g70
I3
ssg71
g2695
sg64
(lp2702
g1062
asbasbasbag57
(g73
g59
NtRp2703
(dp2704
g62
(dp2705
sg71
g2657
sg64
(lp2706
g57
(g78
g59
NtRp2707
(dp2708
g62
(dp2709
g82
g83
ssg71
g2703
sg64
(lp2710
S'HTTP_ACCEPT_ENCODING'
p2711
asbag57
(g78
g59
NtRp2712
(dp2713
g62
(dp2714
g89
g90
ssg71
g2703
sg64
(lp2715
S':'
asbag57
(g78
g59
NtRp2716
(dp2717
g62
(dp2718
sg71
g2703
sg64
(lp2719
g57
(g58
g59
NtRp2720
(dp2721
g62
(dp2722
g70
I3
ssg71
g2716
sg64
(lp2723
g1084
asbasbasbag57
(g73
g59
NtRp2724
(dp2725
g62
(dp2726
sg71
g2657
sg64
(lp2727
g57
(g78
g59
NtRp2728
(dp2729
g62
(dp2730
g82
g83
ssg71
g2724
sg64
(lp2731
S'HTTP_ACCEPT_LANGUAGE'
p2732
asbag57
(g78
g59
NtRp2733
(dp2734
g62
(dp2735
g89
g90
ssg71
g2724
sg64
(lp2736
S':'
asbag57
(g78
g59
NtRp2737
(dp2738
g62
(dp2739
sg71
g2724
sg64
(lp2740
g57
(g58
g59
NtRp2741
(dp2742
g62
(dp2743
g70
I3
ssg71
g2737
sg64
(lp2744
g1106
asbasbasbag57
(g73
g59
NtRp2745
(dp2746
g62
(dp2747
sg71
g2657
sg64
(lp2748
g57
(g78
g59
NtRp2749
(dp2750
g62
(dp2751
g82
g83
ssg71
g2745
sg64
(lp2752
S'HTTP_CONNECTION'
p2753
asbag57
(g78
g59
NtRp2754
(dp2755
g62
(dp2756
g89
g90
ssg71
g2745
sg64
(lp2757
S':'
asbag57
(g78
g59
NtRp2758
(dp2759
g62
(dp2760
sg71
g2745
sg64
(lp2761
g57
(g58
g59
NtRp2762
(dp2763
g62
(dp2764
g70
I3
ssg71
g2758
sg64
(lp2765
g1128
asbasbasbag57
(g73
g59
NtRp2766
(dp2767
g62
(dp2768
sg71
g2657
sg64
(lp2769
g57
(g78
g59
NtRp2770
(dp2771
g62
(dp2772
g82
g83
ssg71
g2766
sg64
(lp2773
S'HTTP_COOKIE'
p2774
asbag57
(g78
g59
NtRp2775
(dp2776
g62
(dp2777
g89
g90
ssg71
g2766
sg64
(lp2778
S':'
asbag57
(g78
g59
NtRp2779
(dp2780
g62
(dp2781
sg71
g2766
sg64
(lp2782
g57
(g58
g59
NtRp2783
(dp2784
g62
(dp2785
g70
I3
ssg71
g2779
sg64
(lp2786
g1150
asbasbasbag57
(g73
g59
NtRp2787
(dp2788
g62
(dp2789
sg71
g2657
sg64
(lp2790
g57
(g78
g59
NtRp2791
(dp2792
g62
(dp2793
g82
g83
ssg71
g2787
sg64
(lp2794
S'HTTP_HOST'
p2795
asbag57
(g78
g59
NtRp2796
(dp2797
g62
(dp2798
g89
g90
ssg71
g2787
sg64
(lp2799
S':'
asbag57
(g78
g59
NtRp2800
(dp2801
g62
(dp2802
sg71
g2787
sg64
(lp2803
g57
(g58
g59
NtRp2804
(dp2805
g62
(dp2806
g70
I3
ssg71
g2800
sg64
(lp2807
g1172
asbasbasbag57
(g73
g59
NtRp2808
(dp2809
g62
(dp2810
sg71
g2657
sg64
(lp2811
g57
(g78
g59
NtRp2812
(dp2813
g62
(dp2814
g82
g83
ssg71
g2808
sg64
(lp2815
S'HTTP_REFERER'
p2816
asbag57
(g78
g59
NtRp2817
(dp2818
g62
(dp2819
g89
g90
ssg71
g2808
sg64
(lp2820
S':'
asbag57
(g78
g59
NtRp2821
(dp2822
g62
(dp2823
sg71
g2808
sg64
(lp2824
g57
(g58
g59
NtRp2825
(dp2826
g62
(dp2827
g70
I3
ssg71
g2821
sg64
(lp2828
g1194
asbasbasbag57
(g73
g59
NtRp2829
(dp2830
g62
(dp2831
sg71
g2657
sg64
(lp2832
g57
(g78
g59
NtRp2833
(dp2834
g62
(dp2835
g82
g83
ssg71
g2829
sg64
(lp2836
S'HTTP_USER_AGENT'
p2837
asbag57
(g78
g59
NtRp2838
(dp2839
g62
(dp2840
g89
g90
ssg71
g2829
sg64
(lp2841
S':'
asbag57
(g78
g59
NtRp2842
(dp2843
g62
(dp2844
sg71
g2829
sg64
(lp2845
g57
(g58
g59
NtRp2846
(dp2847
g62
(dp2848
g70
I3
ssg71
g2842
sg64
(lp2849
g1216
asbasbasbag57
(g73
g59
NtRp2850
(dp2851
g62
(dp2852
sg71
g2657
sg64
(lp2853
g57
(g78
g59
NtRp2854
(dp2855
g62
(dp2856
g82
g83
ssg71
g2850
sg64
(lp2857
S'PATH_INFO'
p2858
asbag57
(g78
g59
NtRp2859
(dp2860
g62
(dp2861
g89
g90
ssg71
g2850
sg64
(lp2862
S':'
asbag57
(g78
g59
NtRp2863
(dp2864
g62
(dp2865
sg71
g2850
sg64
(lp2866
g57
(g58
g59
NtRp2867
(dp2868
g62
(dp2869
g70
I3
ssg71
g2863
sg64
(lp2870
g1370
asbasbasbag57
(g73
g59
NtRp2871
(dp2872
g62
(dp2873
sg71
g2657
sg64
(lp2874
g57
(g78
g59
NtRp2875
(dp2876
g62
(dp2877
g82
g83
ssg71
g2871
sg64
(lp2878
S'QUERY_STRING'
p2879
asbag57
(g78
g59
NtRp2880
(dp2881
g62
(dp2882
g89
g90
ssg71
g2871
sg64
(lp2883
S':'
asbag57
(g78
g59
NtRp2884
(dp2885
g62
(dp2886
sg71
g2871
sg64
(lp2887
g57
(g58
g59
NtRp2888
(dp2889
g62
(dp2890
g70
I3
ssg71
g2884
sg64
(lp2891
S''
asbasbasbag57
(g73
g59
NtRp2892
(dp2893
g62
(dp2894
sg71
g2657
sg64
(lp2895
g57
(g78
g59
NtRp2896
(dp2897
g62
(dp2898
g82
g83
ssg71
g2892
sg64
(lp2899
S'REMOTE_ADDR'
p2900
asbag57
(g78
g59
NtRp2901
(dp2902
g62
(dp2903
g89
g90
ssg71
g2892
sg64
(lp2904
S':'
asbag57
(g78
g59
NtRp2905
(dp2906
g62
(dp2907
sg71
g2892
sg64
(lp2908
g57
(g58
g59
NtRp2909
(dp2910
g62
(dp2911
g70
I3
ssg71
g2905
sg64
(lp2912
g224
asbasbasbag57
(g73
g59
NtRp2913
(dp2914
g62
(dp2915
sg71
g2657
sg64
(lp2916
g57
(g78
g59
NtRp2917
(dp2918
g62
(dp2919
g82
g83
ssg71
g2913
sg64
(lp2920
S'REMOTE_PORT'
p2921
asbag57
(g78
g59
NtRp2922
(dp2923
g62
(dp2924
g89
g90
ssg71
g2913
sg64
(lp2925
S':'
asbag57
(g78
g59
NtRp2926
(dp2927
g62
(dp2928
sg71
g2913
sg64
(lp2929
g57
(g58
g59
NtRp2930
(dp2931
g62
(dp2932
g70
I3
ssg71
g2926
sg64
(lp2933
g1434
asbasbasbag57
(g73
g59
NtRp2934
(dp2935
g62
(dp2936
sg71
g2657
sg64
(lp2937
g57
(g78
g59
NtRp2938
(dp2939
g62
(dp2940
g82
g83
ssg71
g2934
sg64
(lp2941
S'REQUEST_METHOD'
p2942
asbag57
(g78
g59
NtRp2943
(dp2944
g62
(dp2945
g89
g90
ssg71
g2934
sg64
(lp2946
S':'
asbag57
(g78
g59
NtRp2947
(dp2948
g62
(dp2949
sg71
g2934
sg64
(lp2950
g57
(g58
g59
NtRp2951
(dp2952
g62
(dp2953
g70
I3
ssg71
g2947
sg64
(lp2954
g1456
asbasbasbag57
(g73
g59
NtRp2955
(dp2956
g62
(dp2957
sg71
g2657
sg64
(lp2958
g57
(g78
g59
NtRp2959
(dp2960
g62
(dp2961
g82
g83
ssg71
g2955
sg64
(lp2962
S'REQUEST_URI'
p2963
asbag57
(g78
g59
NtRp2964
(dp2965
g62
(dp2966
g89
g90
ssg71
g2955
sg64
(lp2967
S':'
asbag57
(g78
g59
NtRp2968
(dp2969
g62
(dp2970
sg71
g2955
sg64
(lp2971
g57
(g58
g59
NtRp2972
(dp2973
g62
(dp2974
g70
I3
ssg71
g2968
sg64
(lp2975
g1370
asbasbasbag57
(g73
g59
NtRp2976
(dp2977
g62
(dp2978
sg71
g2657
sg64
(lp2979
g57
(g78
g59
NtRp2980
(dp2981
g62
(dp2982
g82
g83
ssg71
g2976
sg64
(lp2983
S'SCRIPT_NAME'
p2984
asbag57
(g78
g59
NtRp2985
(dp2986
g62
(dp2987
g89
g90
ssg71
g2976
sg64
(lp2988
S':'
asbag57
(g78
g59
NtRp2989
(dp2990
g62
(dp2991
sg71
g2976
sg64
(lp2992
g57
(g58
g59
NtRp2993
(dp2994
g62
(dp2995
g70
I3
ssg71
g2989
sg64
(lp2996
S''
asbasbasbag57
(g73
g59
NtRp2997
(dp2998
g62
(dp2999
sg71
g2657
sg64
(lp3000
g57
(g78
g59
NtRp3001
(dp3002
g62
(dp3003
g82
g83
ssg71
g2997
sg64
(lp3004
S'SERVER_NAME'
p3005
asbag57
(g78
g59
NtRp3006
(dp3007
g62
(dp3008
g89
g90
ssg71
g2997
sg64
(lp3009
S':'
asbag57
(g78
g59
NtRp3010
(dp3011
g62
(dp3012
sg71
g2997
sg64
(lp3013
g57
(g58
g59
NtRp3014
(dp3015
g62
(dp3016
g70
I3
ssg71
g3010
sg64
(lp3017
g1520
asbasbasbag57
(g73
g59
NtRp3018
(dp3019
g62
(dp3020
sg71
g2657
sg64
(lp3021
g57
(g78
g59
NtRp3022
(dp3023
g62
(dp3024
g82
g83
ssg71
g3018
sg64
(lp3025
S'SERVER_PORT'
p3026
asbag57
(g78
g59
NtRp3027
(dp3028
g62
(dp3029
g89
g90
ssg71
g3018
sg64
(lp3030
S':'
asbag57
(g78
g59
NtRp3031
(dp3032
g62
(dp3033
sg71
g3018
sg64
(lp3034
g57
(g58
g59
NtRp3035
(dp3036
g62
(dp3037
g70
I3
ssg71
g3031
sg64
(lp3038
g1542
asbasbasbag57
(g73
g59
NtRp3039
(dp3040
g62
(dp3041
sg71
g2657
sg64
(lp3042
g57
(g78
g59
NtRp3043
(dp3044
g62
(dp3045
g82
g83
ssg71
g3039
sg64
(lp3046
S'SERVER_PROTOCOL'
p3047
asbag57
(g78
g59
NtRp3048
(dp3049
g62
(dp3050
g89
g90
ssg71
g3039
sg64
(lp3051
S':'
asbag57
(g78
g59
NtRp3052
(dp3053
g62
(dp3054
sg71
g3039
sg64
(lp3055
g57
(g58
g59
NtRp3056
(dp3057
g62
(dp3058
g70
I3
ssg71
g3052
sg64
(lp3059
g1564
asbasbasbag57
(g73
g59
NtRp3060
(dp3061
g62
(dp3062
sg71
g2657
sg64
(lp3063
g57
(g78
g59
NtRp3064
(dp3065
g62
(dp3066
g82
g83
ssg71
g3060
sg64
(lp3067
S'SERVER_SOFTWARE'
p3068
asbag57
(g78
g59
NtRp3069
(dp3070
g62
(dp3071
g89
g90
ssg71
g3060
sg64
(lp3072
S':'
asbag57
(g78
g59
NtRp3073
(dp3074
g62
(dp3075
sg71
g3060
sg64
(lp3076
g57
(g58
g59
NtRp3077
(dp3078
g62
(dp3079
g70
I3
ssg71
g3073
sg64
(lp3080
g1586
asbasbasbag57
(g73
g59
NtRp3081
(dp3082
g62
(dp3083
sg71
g2657
sg64
(lp3084
g57
(g78
g59
NtRp3085
(dp3086
g62
(dp3087
g82
g83
ssg71
g3081
sg64
(lp3088
S'wsgi.errors'
p3089
asbag57
(g78
g59
NtRp3090
(dp3091
g62
(dp3092
g89
g90
ssg71
g3081
sg64
(lp3093
S':'
asbag57
(g78
g59
NtRp3094
(dp3095
g62
(dp3096
sg71
g3081
sg64
(lp3097
g57
(g58
g59
NtRp3098
(dp3099
g62
(dp3100
g70
I3
ssg71
g3094
sg64
(lp3101
S"<open file '<stderr>', mode 'w' at 0xb77230d0>"
p3102
asbasbasbag57
(g73
g59
NtRp3103
(dp3104
g62
(dp3105
sg71
g2657
sg64
(lp3106
g57
(g78
g59
NtRp3107
(dp3108
g62
(dp3109
g82
g83
ssg71
g3103
sg64
(lp3110
S'wsgi.file_wrapper'
p3111
asbag57
(g78
g59
NtRp3112
(dp3113
g62
(dp3114
g89
g90
ssg71
g3103
sg64
(lp3115
S':'
asbag57
(g78
g59
NtRp3116
(dp3117
g62
(dp3118
sg71
g3103
sg64
(lp3119
g57
(g58
g59
NtRp3120
(dp3121
g62
(dp3122
g70
I3
ssg71
g3116
sg64
(lp3123
S'<class wsgiref.util.FileWrapper at 0x92d7d1c>'
p3124
asbasbasbag57
(g73
g59
NtRp3125
(dp3126
g62
(dp3127
sg71
g2657
sg64
(lp3128
g57
(g78
g59
NtRp3129
(dp3130
g62
(dp3131
g82
g83
ssg71
g3125
sg64
(lp3132
S'wsgi.input'
p3133
asbag57
(g78
g59
NtRp3134
(dp3135
g62
(dp3136
g89
g90
ssg71
g3125
sg64
(lp3137
S':'
asbag57
(g78
g59
NtRp3138
(dp3139
g62
(dp3140
sg71
g3125
sg64
(lp3141
g57
(g58
g59
NtRp3142
(dp3143
g62
(dp3144
g70
I3
ssg71
g3138
sg64
(lp3145
S'<cStringIO.StringO object at 0x9ad0940>'
p3146
asbasbasbag57
(g73
g59
NtRp3147
(dp3148
g62
(dp3149
sg71
g2657
sg64
(lp3150
g57
(g78
g59
NtRp3151
(dp3152
g62
(dp3153
g82
g83
ssg71
g3147
sg64
(lp3154
S'wsgi.multiprocess'
p3155
asbag57
(g78
g59
NtRp3156
(dp3157
g62
(dp3158
g89
g90
ssg71
g3147
sg64
(lp3159
S':'
asbag57
(g78
g59
NtRp3160
(dp3161
g62
(dp3162
sg71
g3147
sg64
(lp3163
g57
(g58
g59
NtRp3164
(dp3165
g62
(dp3166
g70
I3
ssg71
g3160
sg64
(lp3167
g100
asbasbasbag57
(g73
g59
NtRp3168
(dp3169
g62
(dp3170
sg71
g2657
sg64
(lp3171
g57
(g78
g59
NtRp3172
(dp3173
g62
(dp3174
g82
g83
ssg71
g3168
sg64
(lp3175
S'wsgi.multithread'
p3176
asbag57
(g78
g59
NtRp3177
(dp3178
g62
(dp3179
g89
g90
ssg71
g3168
sg64
(lp3180
S':'
asbag57
(g78
g59
NtRp3181
(dp3182
g62
(dp3183
sg71
g3168
sg64
(lp3184
g57
(g58
g59
NtRp3185
(dp3186
g62
(dp3187
g70
I3
ssg71
g3181
sg64
(lp3188
g1803
asbasbasbag57
(g73
g59
NtRp3189
(dp3190
g62
(dp3191
sg71
g2657
sg64
(lp3192
g57
(g78
g59
NtRp3193
(dp3194
g62
(dp3195
g82
g83
ssg71
g3189
sg64
(lp3196
S'wsgi.run_once'
p3197
asbag57
(g78
g59
NtRp3198
(dp3199
g62
(dp3200
g89
g90
ssg71
g3189
sg64
(lp3201
S':'
asbag57
(g78
g59
NtRp3202
(dp3203
g62
(dp3204
sg71
g3189
sg64
(lp3205
g57
(g58
g59
NtRp3206
(dp3207
g62
(dp3208
g70
I3
ssg71
g3202
sg64
(lp3209
g100
asbasbasbag57
(g73
g59
NtRp3210
(dp3211
g62
(dp3212
sg71
g2657
sg64
(lp3213
g57
(g78
g59
NtRp3214
(dp3215
g62
(dp3216
g82
g83
ssg71
g3210
sg64
(lp3217
S'wsgi.url_scheme'
p3218
asbag57
(g78
g59
NtRp3219
(dp3220
g62
(dp3221
g89
g90
ssg71
g3210
sg64
(lp3222
S':'
asbag57
(g78
g59
NtRp3223
(dp3224
g62
(dp3225
sg71
g3210
sg64
(lp3226
g57
(g58
g59
NtRp3227
(dp3228
g62
(dp3229
g70
I3
ssg71
g3223
sg64
(lp3230
g1846
asbasbasbag57
(g73
g59
NtRp3231
(dp3232
g62
(dp3233
sg71
g2657
sg64
(lp3234
g57
(g78
g59
NtRp3235
(dp3236
g62
(dp3237
g82
g83
ssg71
g3231
sg64
(lp3238
S'wsgi.version'
p3239
asbag57
(g78
g59
NtRp3240
(dp3241
g62
(dp3242
g89
g90
ssg71
g3231
sg64
(lp3243
S':'
asbag57
(g78
g59
NtRp3244
(dp3245
g62
(dp3246
sg71
g3231
sg64
(lp3247
g57
(g58
g59
NtRp3248
(dp3249
g62
(dp3250
g70
I3
ssg71
g3244
sg64
(lp3251
S'1'
asbasbasbasbasbasbasbasbasbasbasbasbasbsS'frames'
p3252
(lp3253
(dp3254
S'file'
p3255
S'/home/pratyush/web2py/gluon/restricted.py'
p3256
sS'dump'
p3257
(dp3258
S'environment'
p3259
S"{'A': <class 'gluon.html.A'>, 'Auth': <class 'gluon.tools.Auth'>, 'B': <class 'gluon.html.B'>, 'BEAUTIFY': <class 'gluon.html.BEAUTIFY'>, 'BODY': <class 'gluon.html.BODY'>, 'BR': <class 'gluon.html.BR'>, 'BUTTON': <class 'gluon.html.BUTTON'>, 'CAT': <class 'gluon.html.CAT'>, 'CENTER': <class 'gluon.html.CENTER'>, 'CLEANUP': <class 'gluon.validators.CLEANUP'>, ...}"
p3260
sS'ccode'
p3261
S'<code object <module> at 0xa29a968, file "/home/...cations/BuySell/controllers/default.py", line 13>'
p3262
ssS'lnum'
p3263
I212
sS'lines'
p3264
(dp3265
I207
S'    try:'
p3266
sI208
S'        if isinstance(code, types.CodeType):'
p3267
sI209
S'            ccode = code'
p3268
sI210
S'        else:'
p3269
sI211
S'            ccode = compile2(code, layer)'
p3270
sI212
S'        exec ccode in environment'
p3271
sI213
S'    except HTTP:'
p3272
sI214
S'        raise'
p3273
sI215
S'    except RestrictedError:'
p3274
sI216
S'        # do not encapsulate (obfuscate) the original RestrictedError'
p3275
ssS'call'
p3276
S"(code='# -*- coding: utf-8 -*-\\n# this file is released ...rm=form)\\nresponse._vars=response._caller(wish_d)\\n', environment={'A': <class 'gluon.html.A'>, 'Auth': <class 'gluon.tools.Auth'>, 'B': <class 'gluon.html.B'>, 'BEAUTIFY': <class 'gluon.html.BEAUTIFY'>, 'BODY': <class 'gluon.html.BODY'>, 'BR': <class 'gluon.html.BR'>, 'BUTTON': <class 'gluon.html.BUTTON'>, 'CAT': <class 'gluon.html.CAT'>, 'CENTER': <class 'gluon.html.CENTER'>, 'CLEANUP': <class 'gluon.validators.CLEANUP'>, ...}, layer='/home/pratyush/web2py/applications/BuySell/controllers/default.py')"
p3277
sS'func'
p3278
S'restricted'
p3279
sa(dp3280
g3255
S'/home/pratyush/web2py/applications/BuySell/controllers/default.py'
p3281
sg3257
(dp3282
sg3263
I331
sg3264
(dp3283
I321
S'    items=db().select(db.item.ALL,orderby=db.item.name)'
p3284
sI322
S'    sold = db(auth.user_id == db.sold.buyer).select(db.sold.ALL,orderby=db.sold.id)'
p3285
sI323
S'    id = auth.user_id'
p3286
sI324
S'    return dict(sold=sold,items=items,id=id)'
p3287
sI325
S''
sI326
S'def report():'
p3288
sI327
S'    form = SQLFORM(db.report)'
p3289
sI328
S'    if form.accepts(request.vars):'
p3290
sI329
S"        response.flash = 'Thanks for notifying, appropriate action will be taken in 24 hrs.'"
p3291
sI330
S'    return dict(form=form)'
p3292
ssg3276
S'()'
p3293
sg3278
S'<module>'
p3294
sa(dp3295
g3255
S'/home/pratyush/web2py/gluon/globals.py'
p3296
sg3257
(dp3297
S'self'
p3298
S'undefined'
p3299
sS'f'
S'<function wish_d>'
p3300
ssg3263
I193
sg3264
(dp3301
I192
S'        self._vars = None'
p3302
sI193
S'        self._caller = lambda f: f()'
p3303
sI194
S'        self._view_environment = None'
p3304
sI195
S'        self._custom_commit = None'
p3305
sI196
S'        self._custom_rollback = None'
p3306
sI197
S''
sI188
S'        self.menu = []             # used by the default view layout'
p3307
sI189
S'        self.files = []            # used by web2py_ajax.html'
p3308
sI190
S'        self.generic_patterns = []  # patterns to allow generic views'
p3309
sI191
S"        self.delimiters = ('{{', '}}')"
p3310
ssg3276
S'(f=<function wish_d>)'
p3311
sg3278
S'<lambda>'
p3312
sa(dp3313
g3255
S'/home/pratyush/web2py/gluon/tools.py'
p3314
sg3257
(dp3315
S'action'
p3316
S'<function wish_d>'
p3317
sS'a'
S'()'
p3318
sS'b'
g45
ssg3263
I2929
sg3264
(dp3319
I2924
S'                    flag = condition'
p3320
sI2925
S'                if not flag:'
p3321
sI2926
S'                    current.session.flash = self.messages.access_denied'
p3322
sI2927
S'                    return call_or_redirect('
p3323
sI2928
S'                        self.settings.on_failed_authorization)'
p3324
sI2929
S'                return action(*a, **b)'
p3325
sI2930
S'            f.__doc__ = action.__doc__'
p3326
sI2931
S'            f.__name__ = action.__name__'
p3327
sI2932
S'            f.__dict__.update(action.__dict__)'
p3328
sI2933
S'            return f'
p3329
ssg3276
S'(*a=(), **b={})'
p3330
sg3278
S'f'
sa(dp3331
g3255
S'/home/pratyush/web2py/applications/BuySell/controllers/default.py'
p3332
sg3257
(dp3333
S'db.auth_user.ALL'
p3334
S'<gluon.dal.SQLALL object>'
p3335
sS'wish'
p3336
g3299
sS').select'
p3337
g3299
sS'db.auth_user'
p3338
S'<Table auth_user (id,first_name,last_name,email,...stration_key,reset_password_key,registration_id)>'
p3339
sS'db.auth_user.id'
p3340
S'<gluon.dal.Field object>'
p3341
sS'global db'
p3342
S'<DAL uri="sqlite://storage.sqlite">'
p3343
sS').first'
p3344
g3299
sS'global seller'
p3345
S'<function seller>'
p3346
ssg3263
I197
sg3264
(dp3347
I192
S''
sI193
S'@auth.requires_login()'
p3348
sI194
S'def wish_d():'
p3349
sI195
S'    item=db(request.args(0)==db.wish.id).select(db.wish.ALL).first()'
p3350
sI196
S'    if item:'
p3351
sI197
S'        seller = db(wish.buyer==db.auth_user.id).select(db.auth_user.ALL).first()'
p3352
sI198
S''
sI199
S'    return dict(item=item,seller=seller)'
p3353
sI200
S''
sI201
S'@auth.requires_login()'
p3354
ssg3276
S'()'
p3355
sg3278
S'wish_d'
p3356
sasS'pyver'
p3357
S'Python 2.7.2+: /usr/bin/python'
p3358
sS'session'
p3359
g57
(g58
g59
NtRp3360
(dp3361
g62
(dp3362
sg64
(lp3363
g57
(g66
g59
NtRp3364
(dp3365
g62
(dp3366
g70
I5
ssg71
Nsg64
(lp3367
g57
(g73
g59
NtRp3368
(dp3369
g62
(dp3370
sg71
g3364
sg64
(lp3371
g57
(g78
g59
NtRp3372
(dp3373
g62
(dp3374
g82
g83
ssg71
g3368
sg64
(lp3375
S'auth'
p3376
asbag57
(g78
g59
NtRp3377
(dp3378
g62
(dp3379
g89
g90
ssg71
g3368
sg64
(lp3380
S':'
asbag57
(g78
g59
NtRp3381
(dp3382
g62
(dp3383
sg71
g3368
sg64
(lp3384
g57
(g58
g59
NtRp3385
(dp3386
g62
(dp3387
g70
I5
ssg71
g3381
sg64
(lp3388
g57
(g66
g59
NtRp3389
(dp3390
g62
(dp3391
g70
I4
ssg71
Nsg64
(lp3392
g57
(g73
g59
NtRp3393
(dp3394
g62
(dp3395
sg71
g3389
sg64
(lp3396
g57
(g78
g59
NtRp3397
(dp3398
g62
(dp3399
g82
g83
ssg71
g3393
sg64
(lp3400
S'expiration'
p3401
asbag57
(g78
g59
NtRp3402
(dp3403
g62
(dp3404
g89
g90
ssg71
g3393
sg64
(lp3405
S':'
asbag57
(g78
g59
NtRp3406
(dp3407
g62
(dp3408
sg71
g3393
sg64
(lp3409
g57
(g58
g59
NtRp3410
(dp3411
g62
(dp3412
g70
I4
ssg71
g3406
sg64
(lp3413
S'3600'
p3414
asbasbasbag57
(g73
g59
NtRp3415
(dp3416
g62
(dp3417
sg71
g3389
sg64
(lp3418
g57
(g78
g59
NtRp3419
(dp3420
g62
(dp3421
g82
g83
ssg71
g3415
sg64
(lp3422
S'hmac_key'
p3423
asbag57
(g78
g59
NtRp3424
(dp3425
g62
(dp3426
g89
g90
ssg71
g3415
sg64
(lp3427
S':'
asbag57
(g78
g59
NtRp3428
(dp3429
g62
(dp3430
sg71
g3415
sg64
(lp3431
g57
(g58
g59
NtRp3432
(dp3433
g62
(dp3434
g70
I4
ssg71
g3428
sg64
(lp3435
S'3807d0a1-ddc3-4240-b992-8c044b59377f'
p3436
asbasbasbag57
(g73
g59
NtRp3437
(dp3438
g62
(dp3439
sg71
g3389
sg64
(lp3440
g57
(g78
g59
NtRp3441
(dp3442
g62
(dp3443
g82
g83
ssg71
g3437
sg64
(lp3444
S'last_visit'
p3445
asbag57
(g78
g59
NtRp3446
(dp3447
g62
(dp3448
g89
g90
ssg71
g3437
sg64
(lp3449
S':'
asbag57
(g78
g59
NtRp3450
(dp3451
g62
(dp3452
sg71
g3437
sg64
(lp3453
g57
(g58
g59
NtRp3454
(dp3455
g62
(dp3456
g70
I4
ssg71
g3450
sg64
(lp3457
S'datetime.datetime(2013, 4, 24, 16, 6, 28, 909745)'
p3458
asbasbasbag57
(g73
g59
NtRp3459
(dp3460
g62
(dp3461
sg71
g3389
sg64
(lp3462
g57
(g78
g59
NtRp3463
(dp3464
g62
(dp3465
g82
g83
ssg71
g3459
sg64
(lp3466
S'remember'
p3467
asbag57
(g78
g59
NtRp3468
(dp3469
g62
(dp3470
g89
g90
ssg71
g3459
sg64
(lp3471
S':'
asbag57
(g78
g59
NtRp3472
(dp3473
g62
(dp3474
sg71
g3459
sg64
(lp3475
g57
(g58
g59
NtRp3476
(dp3477
g62
(dp3478
g70
I4
ssg71
g3472
sg64
(lp3479
g100
asbasbasbag57
(g73
g59
NtRp3480
(dp3481
g62
(dp3482
sg71
g3389
sg64
(lp3483
g57
(g78
g59
NtRp3484
(dp3485
g62
(dp3486
g82
g83
ssg71
g3480
sg64
(lp3487
S'user'
p3488
asbag57
(g78
g59
NtRp3489
(dp3490
g62
(dp3491
g89
g90
ssg71
g3480
sg64
(lp3492
S':'
asbag57
(g78
g59
NtRp3493
(dp3494
g62
(dp3495
sg71
g3480
sg64
(lp3496
g57
(g58
g59
NtRp3497
(dp3498
g62
(dp3499
g70
I4
ssg71
g3493
sg64
(lp3500
g57
(g66
g59
NtRp3501
(dp3502
g62
(dp3503
g70
I3
ssg71
Nsg64
(lp3504
g57
(g73
g59
NtRp3505
(dp3506
g62
(dp3507
sg71
g3501
sg64
(lp3508
g57
(g78
g59
NtRp3509
(dp3510
g62
(dp3511
g82
g83
ssg71
g3505
sg64
(lp3512
S'email'
p3513
asbag57
(g78
g59
NtRp3514
(dp3515
g62
(dp3516
g89
g90
ssg71
g3505
sg64
(lp3517
S':'
asbag57
(g78
g59
NtRp3518
(dp3519
g62
(dp3520
sg71
g3505
sg64
(lp3521
g57
(g58
g59
NtRp3522
(dp3523
g62
(dp3524
g70
I3
ssg71
g3518
sg64
(lp3525
S'pratyush.nigam@gmail.com'
p3526
asbasbasbag57
(g73
g59
NtRp3527
(dp3528
g62
(dp3529
sg71
g3501
sg64
(lp3530
g57
(g78
g59
NtRp3531
(dp3532
g62
(dp3533
g82
g83
ssg71
g3527
sg64
(lp3534
S'first_name'
p3535
asbag57
(g78
g59
NtRp3536
(dp3537
g62
(dp3538
g89
g90
ssg71
g3527
sg64
(lp3539
S':'
asbag57
(g78
g59
NtRp3540
(dp3541
g62
(dp3542
sg71
g3527
sg64
(lp3543
g57
(g58
g59
NtRp3544
(dp3545
g62
(dp3546
g70
I3
ssg71
g3540
sg64
(lp3547
S'Pratyush'
p3548
asbasbasbag57
(g73
g59
NtRp3549
(dp3550
g62
(dp3551
sg71
g3501
sg64
(lp3552
g57
(g78
g59
NtRp3553
(dp3554
g62
(dp3555
g82
g83
ssg71
g3549
sg64
(lp3556
S'id'
p3557
asbag57
(g78
g59
NtRp3558
(dp3559
g62
(dp3560
g89
g90
ssg71
g3549
sg64
(lp3561
S':'
asbag57
(g78
g59
NtRp3562
(dp3563
g62
(dp3564
sg71
g3549
sg64
(lp3565
g57
(g58
g59
NtRp3566
(dp3567
g62
(dp3568
g70
I3
ssg71
g3562
sg64
(lp3569
S'1'
asbasbasbag57
(g73
g59
NtRp3570
(dp3571
g62
(dp3572
sg71
g3501
sg64
(lp3573
g57
(g78
g59
NtRp3574
(dp3575
g62
(dp3576
g82
g83
ssg71
g3570
sg64
(lp3577
S'last_name'
p3578
asbag57
(g78
g59
NtRp3579
(dp3580
g62
(dp3581
g89
g90
ssg71
g3570
sg64
(lp3582
S':'
asbag57
(g78
g59
NtRp3583
(dp3584
g62
(dp3585
sg71
g3570
sg64
(lp3586
g57
(g58
g59
NtRp3587
(dp3588
g62
(dp3589
g70
I3
ssg71
g3583
sg64
(lp3590
S'Nigam'
p3591
asbasbasbag57
(g73
g59
NtRp3592
(dp3593
g62
(dp3594
sg71
g3501
sg64
(lp3595
g57
(g78
g59
NtRp3596
(dp3597
g62
(dp3598
g82
g83
ssg71
g3592
sg64
(lp3599
S'registration_id'
p3600
asbag57
(g78
g59
NtRp3601
(dp3602
g62
(dp3603
g89
g90
ssg71
g3592
sg64
(lp3604
S':'
asbag57
(g78
g59
NtRp3605
(dp3606
g62
(dp3607
sg71
g3592
sg64
(lp3608
g57
(g58
g59
NtRp3609
(dp3610
g62
(dp3611
g70
I3
ssg71
g3605
sg64
(lp3612
S''
asbasbasbag57
(g73
g59
NtRp3613
(dp3614
g62
(dp3615
sg71
g3501
sg64
(lp3616
g57
(g78
g59
NtRp3617
(dp3618
g62
(dp3619
g82
g83
ssg71
g3613
sg64
(lp3620
S'registration_key'
p3621
asbag57
(g78
g59
NtRp3622
(dp3623
g62
(dp3624
g89
g90
ssg71
g3613
sg64
(lp3625
S':'
asbag57
(g78
g59
NtRp3626
(dp3627
g62
(dp3628
sg71
g3613
sg64
(lp3629
g57
(g58
g59
NtRp3630
(dp3631
g62
(dp3632
g70
I3
ssg71
g3626
sg64
(lp3633
S''
asbasbasbag57
(g73
g59
NtRp3634
(dp3635
g62
(dp3636
sg71
g3501
sg64
(lp3637
g57
(g78
g59
NtRp3638
(dp3639
g62
(dp3640
g82
g83
ssg71
g3634
sg64
(lp3641
S'reset_password_key'
p3642
asbag57
(g78
g59
NtRp3643
(dp3644
g62
(dp3645
g89
g90
ssg71
g3634
sg64
(lp3646
S':'
asbag57
(g78
g59
NtRp3647
(dp3648
g62
(dp3649
sg71
g3634
sg64
(lp3650
g57
(g58
g59
NtRp3651
(dp3652
g62
(dp3653
g70
I3
ssg71
g3647
sg64
(lp3654
S''
asbasbasbasbasbasbasbag57
(g73
g59
NtRp3655
(dp3656
g62
(dp3657
sg71
g3389
sg64
(lp3658
g57
(g78
g59
NtRp3659
(dp3660
g62
(dp3661
g82
g83
ssg71
g3655
sg64
(lp3662
S'user_groups'
p3663
asbag57
(g78
g59
NtRp3664
(dp3665
g62
(dp3666
g89
g90
ssg71
g3655
sg64
(lp3667
S':'
asbag57
(g78
g59
NtRp3668
(dp3669
g62
(dp3670
sg71
g3655
sg64
(lp3671
g57
(g58
g59
NtRp3672
(dp3673
g62
(dp3674
g70
I4
ssg71
g3668
sg64
(lp3675
g57
(g66
g59
NtRp3676
(dp3677
g62
(dp3678
g70
I3
ssg71
Nsg64
(lp3679
g57
(g73
g59
NtRp3680
(dp3681
g62
(dp3682
sg71
g3676
sg64
(lp3683
g57
(g78
g59
NtRp3684
(dp3685
g62
(dp3686
g82
g83
ssg71
g3680
sg64
(lp3687
S'1'
asbag57
(g78
g59
NtRp3688
(dp3689
g62
(dp3690
g89
g90
ssg71
g3680
sg64
(lp3691
S':'
asbag57
(g78
g59
NtRp3692
(dp3693
g62
(dp3694
sg71
g3680
sg64
(lp3695
g57
(g58
g59
NtRp3696
(dp3697
g62
(dp3698
g70
I3
ssg71
g3692
sg64
(lp3699
S'user_1'
p3700
asbasbasbasbasbasbasbasbasbasbasbag57
(g73
g59
NtRp3701
(dp3702
g62
(dp3703
sg71
g3364
sg64
(lp3704
g57
(g78
g59
NtRp3705
(dp3706
g62
(dp3707
g82
g83
ssg71
g3701
sg64
(lp3708
S'flash'
p3709
asbag57
(g78
g59
NtRp3710
(dp3711
g62
(dp3712
g89
g90
ssg71
g3701
sg64
(lp3713
S':'
asbag57
(g78
g59
NtRp3714
(dp3715
g62
(dp3716
sg71
g3701
sg64
(lp3717
g57
(g58
g59
NtRp3718
(dp3719
g62
(dp3720
g70
I5
ssg71
g3714
sg64
(lp3721
S'None'
p3722
asbasbasbasbasbsS'etype'
p3723
S"<type 'exceptions.NameError'>"
p3724
sS'date'
p3725
S'Wed Apr 24 16:06:29 2013'
p3726
sS'response'
p3727
g57
(g58
g59
NtRp3728
(dp3729
g62
(dp3730
sg64
(lp3731
g57
(g66
g59
NtRp3732
(dp3733
g62
(dp3734
g70
I5
ssg71
Nsg64
(lp3735
g57
(g73
g59
NtRp3736
(dp3737
g62
(dp3738
sg71
g3732
sg64
(lp3739
g57
(g78
g59
NtRp3740
(dp3741
g62
(dp3742
g82
g83
ssg71
g3736
sg64
(lp3743
g167
asbag57
(g78
g59
NtRp3744
(dp3745
g62
(dp3746
g89
g90
ssg71
g3736
sg64
(lp3747
S':'
asbag57
(g78
g59
NtRp3748
(dp3749
g62
(dp3750
sg71
g3736
sg64
(lp3751
g57
(g58
g59
NtRp3752
(dp3753
g62
(dp3754
g70
I5
ssg71
g3748
sg64
(lp3755
S'<cStringIO.StringO object at 0x9ac33e0>'
p3756
asbasbasbag57
(g73
g59
NtRp3757
(dp3758
g62
(dp3759
sg71
g3732
sg64
(lp3760
g57
(g78
g59
NtRp3761
(dp3762
g62
(dp3763
g82
g83
ssg71
g3757
sg64
(lp3764
g255
asbag57
(g78
g59
NtRp3765
(dp3766
g62
(dp3767
g89
g90
ssg71
g3757
sg64
(lp3768
S':'
asbag57
(g78
g59
NtRp3769
(dp3770
g62
(dp3771
sg71
g3757
sg64
(lp3772
g57
(g58
g59
NtRp3773
(dp3774
g62
(dp3775
g70
I5
ssg71
g3769
sg64
(lp3776
g57
(g66
g59
NtRp3777
(dp3778
g62
(dp3779
g70
I4
ssg71
Nsg64
(lp3780
g57
(g73
g59
NtRp3781
(dp3782
g62
(dp3783
sg71
g3777
sg64
(lp3784
g57
(g78
g59
NtRp3785
(dp3786
g62
(dp3787
g82
g83
ssg71
g3781
sg64
(lp3788
S'session_id_buysell'
p3789
asbag57
(g78
g59
NtRp3790
(dp3791
g62
(dp3792
g89
g90
ssg71
g3781
sg64
(lp3793
S':'
asbag57
(g78
g59
NtRp3794
(dp3795
g62
(dp3796
sg71
g3781
sg64
(lp3797
g57
(g58
g59
NtRp3798
(dp3799
g62
(dp3800
g70
I4
ssg71
g3794
sg64
(lp3801
g673
ag57
(g66
g59
NtRp3802
(dp3803
g62
(dp3804
g70
I3
ssg71
Nsg64
(lp3805
g57
(g73
g59
NtRp3806
(dp3807
g62
(dp3808
sg71
g3802
sg64
(lp3809
g57
(g78
g59
NtRp3810
(dp3811
g62
(dp3812
g82
g83
ssg71
g3806
sg64
(lp3813
g306
asbag57
(g78
g59
NtRp3814
(dp3815
g62
(dp3816
g89
g90
ssg71
g3806
sg64
(lp3817
S':'
asbag57
(g78
g59
NtRp3818
(dp3819
g62
(dp3820
sg71
g3806
sg64
(lp3821
g57
(g58
g59
NtRp3822
(dp3823
g62
(dp3824
g70
I3
ssg71
g3818
sg64
(lp3825
S''
asbasbasbag57
(g73
g59
NtRp3826
(dp3827
g62
(dp3828
sg71
g3802
sg64
(lp3829
g57
(g78
g59
NtRp3830
(dp3831
g62
(dp3832
g82
g83
ssg71
g3826
sg64
(lp3833
g327
asbag57
(g78
g59
NtRp3834
(dp3835
g62
(dp3836
g89
g90
ssg71
g3826
sg64
(lp3837
S':'
asbag57
(g78
g59
NtRp3838
(dp3839
g62
(dp3840
sg71
g3826
sg64
(lp3841
g57
(g58
g59
NtRp3842
(dp3843
g62
(dp3844
g70
I3
ssg71
g3838
sg64
(lp3845
S''
asbasbasbag57
(g73
g59
NtRp3846
(dp3847
g62
(dp3848
sg71
g3802
sg64
(lp3849
g57
(g78
g59
NtRp3850
(dp3851
g62
(dp3852
g82
g83
ssg71
g3846
sg64
(lp3853
g348
asbag57
(g78
g59
NtRp3854
(dp3855
g62
(dp3856
g89
g90
ssg71
g3846
sg64
(lp3857
S':'
asbag57
(g78
g59
NtRp3858
(dp3859
g62
(dp3860
sg71
g3846
sg64
(lp3861
g57
(g58
g59
NtRp3862
(dp3863
g62
(dp3864
g70
I3
ssg71
g3858
sg64
(lp3865
S''
asbasbasbag57
(g73
g59
NtRp3866
(dp3867
g62
(dp3868
sg71
g3802
sg64
(lp3869
g57
(g78
g59
NtRp3870
(dp3871
g62
(dp3872
g82
g83
ssg71
g3866
sg64
(lp3873
g369
asbag57
(g78
g59
NtRp3874
(dp3875
g62
(dp3876
g89
g90
ssg71
g3866
sg64
(lp3877
S':'
asbag57
(g78
g59
NtRp3878
(dp3879
g62
(dp3880
sg71
g3866
sg64
(lp3881
g57
(g58
g59
NtRp3882
(dp3883
g62
(dp3884
g70
I3
ssg71
g3878
sg64
(lp3885
S''
asbasbasbag57
(g73
g59
NtRp3886
(dp3887
g62
(dp3888
sg71
g3802
sg64
(lp3889
g57
(g78
g59
NtRp3890
(dp3891
g62
(dp3892
g82
g83
ssg71
g3886
sg64
(lp3893
g390
asbag57
(g78
g59
NtRp3894
(dp3895
g62
(dp3896
g89
g90
ssg71
g3886
sg64
(lp3897
S':'
asbag57
(g78
g59
NtRp3898
(dp3899
g62
(dp3900
sg71
g3886
sg64
(lp3901
g57
(g58
g59
NtRp3902
(dp3903
g62
(dp3904
g70
I3
ssg71
g3898
sg64
(lp3905
S''
asbasbasbag57
(g73
g59
NtRp3906
(dp3907
g62
(dp3908
sg71
g3802
sg64
(lp3909
g57
(g78
g59
NtRp3910
(dp3911
g62
(dp3912
g82
g83
ssg71
g3906
sg64
(lp3913
g411
asbag57
(g78
g59
NtRp3914
(dp3915
g62
(dp3916
g89
g90
ssg71
g3906
sg64
(lp3917
S':'
asbag57
(g78
g59
NtRp3918
(dp3919
g62
(dp3920
sg71
g3906
sg64
(lp3921
g57
(g58
g59
NtRp3922
(dp3923
g62
(dp3924
g70
I3
ssg71
g3918
sg64
(lp3925
S'/'
asbasbasbag57
(g73
g59
NtRp3926
(dp3927
g62
(dp3928
sg71
g3802
sg64
(lp3929
g57
(g78
g59
NtRp3930
(dp3931
g62
(dp3932
g82
g83
ssg71
g3926
sg64
(lp3933
g432
asbag57
(g78
g59
NtRp3934
(dp3935
g62
(dp3936
g89
g90
ssg71
g3926
sg64
(lp3937
S':'
asbag57
(g78
g59
NtRp3938
(dp3939
g62
(dp3940
sg71
g3926
sg64
(lp3941
g57
(g58
g59
NtRp3942
(dp3943
g62
(dp3944
g70
I3
ssg71
g3938
sg64
(lp3945
S''
asbasbasbag57
(g73
g59
NtRp3946
(dp3947
g62
(dp3948
sg71
g3802
sg64
(lp3949
g57
(g78
g59
NtRp3950
(dp3951
g62
(dp3952
g82
g83
ssg71
g3946
sg64
(lp3953
g453
asbag57
(g78
g59
NtRp3954
(dp3955
g62
(dp3956
g89
g90
ssg71
g3946
sg64
(lp3957
S':'
asbag57
(g78
g59
NtRp3958
(dp3959
g62
(dp3960
sg71
g3946
sg64
(lp3961
g57
(g58
g59
NtRp3962
(dp3963
g62
(dp3964
g70
I3
ssg71
g3958
sg64
(lp3965
S''
asbasbasbasbasbasbasbasbasbasbasbag57
(g73
g59
NtRp3966
(dp3967
g62
(dp3968
sg71
g3732
sg64
(lp3969
g57
(g78
g59
NtRp3970
(dp3971
g62
(dp3972
g82
g83
ssg71
g3966
sg64
(lp3973
S'delimiters'
p3974
asbag57
(g78
g59
NtRp3975
(dp3976
g62
(dp3977
g89
g90
ssg71
g3966
sg64
(lp3978
S':'
asbag57
(g78
g59
NtRp3979
(dp3980
g62
(dp3981
sg71
g3966
sg64
(lp3982
g57
(g58
g59
NtRp3983
(dp3984
g62
(dp3985
g70
I5
ssg71
g3979
sg64
(lp3986
g57
(g66
g59
NtRp3987
(dp3988
g62
(dp3989
g70
I4
ssg71
Nsg64
(lp3990
g57
(g73
g59
NtRp3991
(dp3992
g62
(dp3993
sg71
g3987
sg64
(lp3994
g57
(g78
g59
NtRp3995
(dp3996
g62
(dp3997
sg71
g3991
sg64
(lp3998
g57
(g58
g59
NtRp3999
(dp4000
g62
(dp4001
g70
I4
ssg71
g3995
sg64
(lp4002
S'{{'
p4003
asbasbasbag57
(g73
g59
NtRp4004
(dp4005
g62
(dp4006
sg71
g3987
sg64
(lp4007
g57
(g78
g59
NtRp4008
(dp4009
g62
(dp4010
sg71
g4004
sg64
(lp4011
g57
(g58
g59
NtRp4012
(dp4013
g62
(dp4014
g70
I4
ssg71
g4008
sg64
(lp4015
S'}}'
p4016
asbasbasbasbasbasbasbag57
(g73
g59
NtRp4017
(dp4018
g62
(dp4019
sg71
g3732
sg64
(lp4020
g57
(g78
g59
NtRp4021
(dp4022
g62
(dp4023
g82
g83
ssg71
g4017
sg64
(lp4024
S'files'
p4025
asbag57
(g78
g59
NtRp4026
(dp4027
g62
(dp4028
g89
g90
ssg71
g4017
sg64
(lp4029
S':'
asbag57
(g78
g59
NtRp4030
(dp4031
g62
(dp4032
sg71
g4017
sg64
(lp4033
g57
(g58
g59
NtRp4034
(dp4035
g62
(dp4036
g70
I5
ssg71
g4030
sg64
(lp4037
g57
(g66
g59
NtRp4038
(dp4039
g62
(dp4040
g70
I4
ssg71
Nsg64
(lp4041
sbasbasbasbag57
(g73
g59
NtRp4042
(dp4043
g62
(dp4044
sg71
g3732
sg64
(lp4045
g57
(g78
g59
NtRp4046
(dp4047
g62
(dp4048
g82
g83
ssg71
g4042
sg64
(lp4049
S'flash'
p4050
asbag57
(g78
g59
NtRp4051
(dp4052
g62
(dp4053
g89
g90
ssg71
g4042
sg64
(lp4054
S':'
asbag57
(g78
g59
NtRp4055
(dp4056
g62
(dp4057
sg71
g4042
sg64
(lp4058
g57
(g58
g59
NtRp4059
(dp4060
g62
(dp4061
g70
I5
ssg71
g4055
sg64
(lp4062
S''
asbasbasbag57
(g73
g59
NtRp4063
(dp4064
g62
(dp4065
sg71
g3732
sg64
(lp4066
g57
(g78
g59
NtRp4067
(dp4068
g62
(dp4069
g82
g83
ssg71
g4063
sg64
(lp4070
S'generic_patterns'
p4071
asbag57
(g78
g59
NtRp4072
(dp4073
g62
(dp4074
g89
g90
ssg71
g4063
sg64
(lp4075
S':'
asbag57
(g78
g59
NtRp4076
(dp4077
g62
(dp4078
sg71
g4063
sg64
(lp4079
g57
(g58
g59
NtRp4080
(dp4081
g62
(dp4082
g70
I5
ssg71
g4076
sg64
(lp4083
g57
(g66
g59
NtRp4084
(dp4085
g62
(dp4086
g70
I4
ssg71
Nsg64
(lp4087
g57
(g73
g59
NtRp4088
(dp4089
g62
(dp4090
sg71
g4084
sg64
(lp4091
g57
(g78
g59
NtRp4092
(dp4093
g62
(dp4094
sg71
g4088
sg64
(lp4095
g57
(g58
g59
NtRp4096
(dp4097
g62
(dp4098
g70
I4
ssg71
g4092
sg64
(lp4099
S'*'
asbasbasbasbasbasbasbag57
(g73
g59
NtRp4100
(dp4101
g62
(dp4102
sg71
g3732
sg64
(lp4103
g57
(g78
g59
NtRp4104
(dp4105
g62
(dp4106
g82
g83
ssg71
g4100
sg64
(lp4107
S'google_analytics_id'
p4108
asbag57
(g78
g59
NtRp4109
(dp4110
g62
(dp4111
g89
g90
ssg71
g4100
sg64
(lp4112
S':'
asbag57
(g78
g59
NtRp4113
(dp4114
g62
(dp4115
sg71
g4100
sg64
(lp4116
g57
(g58
g59
NtRp4117
(dp4118
g62
(dp4119
g70
I5
ssg71
g4113
sg64
(lp4120
S'None'
p4121
asbasbasbag57
(g73
g59
NtRp4122
(dp4123
g62
(dp4124
sg71
g3732
sg64
(lp4125
g57
(g78
g59
NtRp4126
(dp4127
g62
(dp4128
g82
g83
ssg71
g4122
sg64
(lp4129
S'headers'
p4130
asbag57
(g78
g59
NtRp4131
(dp4132
g62
(dp4133
g89
g90
ssg71
g4122
sg64
(lp4134
S':'
asbag57
(g78
g59
NtRp4135
(dp4136
g62
(dp4137
sg71
g4122
sg64
(lp4138
g57
(g58
g59
NtRp4139
(dp4140
g62
(dp4141
g70
I5
ssg71
g4135
sg64
(lp4142
g57
(g66
g59
NtRp4143
(dp4144
g62
(dp4145
g70
I4
ssg71
Nsg64
(lp4146
g57
(g73
g59
NtRp4147
(dp4148
g62
(dp4149
sg71
g4143
sg64
(lp4150
g57
(g78
g59
NtRp4151
(dp4152
g62
(dp4153
g82
g83
ssg71
g4147
sg64
(lp4154
S'X-Powered-By'
p4155
asbag57
(g78
g59
NtRp4156
(dp4157
g62
(dp4158
g89
g90
ssg71
g4147
sg64
(lp4159
S':'
asbag57
(g78
g59
NtRp4160
(dp4161
g62
(dp4162
sg71
g4147
sg64
(lp4163
g57
(g58
g59
NtRp4164
(dp4165
g62
(dp4166
g70
I4
ssg71
g4160
sg64
(lp4167
S'web2py'
p4168
asbasbasbasbasbasbasbag57
(g73
g59
NtRp4169
(dp4170
g62
(dp4171
sg71
g3732
sg64
(lp4172
g57
(g78
g59
NtRp4173
(dp4174
g62
(dp4175
g82
g83
ssg71
g4169
sg64
(lp4176
S'logo'
p4177
asbag57
(g78
g59
NtRp4178
(dp4179
g62
(dp4180
g89
g90
ssg71
g4169
sg64
(lp4181
S':'
asbag57
(g78
g59
NtRp4182
(dp4183
g62
(dp4184
sg71
g4169
sg64
(lp4185
g57
(g58
g59
NtRp4186
(dp4187
g62
(dp4188
g70
I5
ssg71
g4182
sg64
(lp4189
g57
(cgluon.html
A
p4190
g59
NtRp4191
(dp4192
g62
(dp4193
S'_class'
p4194
S'brand'
p4195
sS'_href'
p4196
S''
ssg71
Nsg64
(lp4197
g57
(cgluon.html
B
p4198
g59
NtRp4199
(dp4200
g62
(dp4201
sg71
g4191
sg64
(lp4202
S'Buy/Sell'
p4203
asbacgluon.html
XML_unpickle
p4204
(S's\r\x00\x00\x00&trade;&nbsp;'
tRp4205
asbasbasbasbag57
(g73
g59
NtRp4206
(dp4207
g62
(dp4208
sg71
g3732
sg64
(lp4209
g57
(g78
g59
NtRp4210
(dp4211
g62
(dp4212
g82
g83
ssg71
g4206
sg64
(lp4213
S'menu'
p4214
asbag57
(g78
g59
NtRp4215
(dp4216
g62
(dp4217
g89
g90
ssg71
g4206
sg64
(lp4218
S':'
asbag57
(g78
g59
NtRp4219
(dp4220
g62
(dp4221
sg71
g4206
sg64
(lp4222
g57
(g58
g59
NtRp4223
(dp4224
g62
(dp4225
g70
I5
ssg71
g4219
sg64
(lp4226
g57
(g66
g59
NtRp4227
(dp4228
g62
(dp4229
g70
I4
ssg71
Nsg64
(lp4230
g57
(g73
g59
NtRp4231
(dp4232
g62
(dp4233
sg71
g4227
sg64
(lp4234
g57
(g78
g59
NtRp4235
(dp4236
g62
(dp4237
sg71
g4231
sg64
(lp4238
g57
(g58
g59
NtRp4239
(dp4240
g62
(dp4241
g70
I4
ssg71
g4235
sg64
(lp4242
g57
(g66
g59
NtRp4243
(dp4244
g62
(dp4245
g70
I3
ssg71
Nsg64
(lp4246
g57
(g73
g59
NtRp4247
(dp4248
g62
(dp4249
sg71
g4243
sg64
(lp4250
g57
(g78
g59
NtRp4251
(dp4252
g62
(dp4253
sg71
g4247
sg64
(lp4254
g57
(g58
g59
NtRp4255
(dp4256
g62
(dp4257
g70
I3
ssg71
g4251
sg64
(lp4258
cgluon.languages
lazyT_unpickle
p4259
(S's\x04\x00\x00\x00Home'
tRp4260
asbasbasbag57
(g73
g59
NtRp4261
(dp4262
g62
(dp4263
sg71
g4243
sg64
(lp4264
g57
(g78
g59
NtRp4265
(dp4266
g62
(dp4267
sg71
g4261
sg64
(lp4268
g57
(g58
g59
NtRp4269
(dp4270
g62
(dp4271
g70
I3
ssg71
g4265
sg64
(lp4272
g100
asbasbasbag57
(g73
g59
NtRp4273
(dp4274
g62
(dp4275
sg71
g4243
sg64
(lp4276
g57
(g78
g59
NtRp4277
(dp4278
g62
(dp4279
sg71
g4273
sg64
(lp4280
g57
(g58
g59
NtRp4281
(dp4282
g62
(dp4283
g70
I3
ssg71
g4277
sg64
(lp4284
S'/BuySell/default/index'
p4285
asbasbasbag57
(g73
g59
NtRp4286
(dp4287
g62
(dp4288
sg71
g4243
sg64
(lp4289
g57
(g78
g59
NtRp4290
(dp4291
g62
(dp4292
sg71
g4286
sg64
(lp4293
g57
(g58
g59
NtRp4294
(dp4295
g62
(dp4296
g70
I3
ssg71
g4290
sg64
(lp4297
g57
(g66
g59
NtRp4298
(dp4299
g62
(dp4300
g70
I2
ssg71
Nsg64
(lp4301
sbasbasbasbasbasbasbasbag57
(g73
g59
NtRp4302
(dp4303
g62
(dp4304
sg71
g4227
sg64
(lp4305
g57
(g78
g59
NtRp4306
(dp4307
g62
(dp4308
sg71
g4302
sg64
(lp4309
g57
(g58
g59
NtRp4310
(dp4311
g62
(dp4312
g70
I4
ssg71
g4306
sg64
(lp4313
g57
(g66
g59
NtRp4314
(dp4315
g62
(dp4316
g70
I3
ssg71
Nsg64
(lp4317
g57
(g73
g59
NtRp4318
(dp4319
g62
(dp4320
sg71
g4314
sg64
(lp4321
g57
(g78
g59
NtRp4322
(dp4323
g62
(dp4324
sg71
g4318
sg64
(lp4325
g57
(g58
g59
NtRp4326
(dp4327
g62
(dp4328
g70
I3
ssg71
g4322
sg64
(lp4329
g57
(cgluon.html
SPAN
p4330
g59
NtRp4331
(dp4332
g62
(dp4333
g4194
S'highlighted'
p4334
ssg71
Nsg64
(lp4335
S'Navigate'
p4336
asbasbasbasbag57
(g73
g59
NtRp4337
(dp4338
g62
(dp4339
sg71
g4314
sg64
(lp4340
g57
(g78
g59
NtRp4341
(dp4342
g62
(dp4343
sg71
g4337
sg64
(lp4344
g57
(g58
g59
NtRp4345
(dp4346
g62
(dp4347
g70
I3
ssg71
g4341
sg64
(lp4348
g100
asbasbasbag57
(g73
g59
NtRp4349
(dp4350
g62
(dp4351
sg71
g4314
sg64
(lp4352
g57
(g78
g59
NtRp4353
(dp4354
g62
(dp4355
sg71
g4349
sg64
(lp4356
g57
(g58
g59
NtRp4357
(dp4358
g62
(dp4359
g70
I3
ssg71
g4353
sg64
(lp4360
S''
asbasbasbag57
(g73
g59
NtRp4361
(dp4362
g62
(dp4363
sg71
g4314
sg64
(lp4364
g57
(g78
g59
NtRp4365
(dp4366
g62
(dp4367
sg71
g4361
sg64
(lp4368
g57
(g58
g59
NtRp4369
(dp4370
g62
(dp4371
g70
I3
ssg71
g4365
sg64
(lp4372
g57
(g66
g59
NtRp4373
(dp4374
g62
(dp4375
g70
I2
ssg71
Nsg64
(lp4376
g57
(g73
g59
NtRp4377
(dp4378
g62
(dp4379
sg71
g4373
sg64
(lp4380
g57
(g78
g59
NtRp4381
(dp4382
g62
(dp4383
sg71
g4377
sg64
(lp4384
g57
(g58
g59
NtRp4385
(dp4386
g62
(dp4387
g70
I2
ssg71
g4381
sg64
(lp4388
g57
(g66
g59
NtRp4389
(dp4390
g62
(dp4391
g70
I1
ssg71
Nsg64
(lp4392
g57
(g73
g59
NtRp4393
(dp4394
g62
(dp4395
sg71
g4389
sg64
(lp4396
g57
(g78
g59
NtRp4397
(dp4398
g62
(dp4399
sg71
g4393
sg64
(lp4400
g57
(g58
g59
NtRp4401
(dp4402
g62
(dp4403
g70
I1
ssg71
g4397
sg64
(lp4404
g4259
(S's\r\x00\x00\x00List of items'
tRp4405
asbasbasbag57
(g73
g59
NtRp4406
(dp4407
g62
(dp4408
sg71
g4389
sg64
(lp4409
g57
(g78
g59
NtRp4410
(dp4411
g62
(dp4412
sg71
g4406
sg64
(lp4413
g57
(g58
g59
NtRp4414
(dp4415
g62
(dp4416
g70
I1
ssg71
g4410
sg64
(lp4417
I00
asbasbasbag57
(g73
g59
NtRp4418
(dp4419
g62
(dp4420
sg71
g4389
sg64
(lp4421
g57
(g78
g59
NtRp4422
(dp4423
g62
(dp4424
sg71
g4418
sg64
(lp4425
g57
(g58
g59
NtRp4426
(dp4427
g62
(dp4428
g70
I1
ssg71
g4422
sg64
(lp4429
S'/BuySell/default/list_items'
p4430
asbasbasbasbasbasbasbag57
(g73
g59
NtRp4431
(dp4432
g62
(dp4433
sg71
g4373
sg64
(lp4434
g57
(g78
g59
NtRp4435
(dp4436
g62
(dp4437
sg71
g4431
sg64
(lp4438
g57
(g58
g59
NtRp4439
(dp4440
g62
(dp4441
g70
I2
ssg71
g4435
sg64
(lp4442
g57
(g66
g59
NtRp4443
(dp4444
g62
(dp4445
g70
I1
ssg71
Nsg64
(lp4446
g57
(g73
g59
NtRp4447
(dp4448
g62
(dp4449
sg71
g4443
sg64
(lp4450
g57
(g78
g59
NtRp4451
(dp4452
g62
(dp4453
sg71
g4447
sg64
(lp4454
g57
(g58
g59
NtRp4455
(dp4456
g62
(dp4457
g70
I1
ssg71
g4451
sg64
(lp4458
g4259
(S't\x04\x00\x00\x00Sell'
tRp4459
asbasbasbag57
(g73
g59
NtRp4460
(dp4461
g62
(dp4462
sg71
g4443
sg64
(lp4463
g57
(g78
g59
NtRp4464
(dp4465
g62
(dp4466
sg71
g4460
sg64
(lp4467
g57
(g58
g59
NtRp4468
(dp4469
g62
(dp4470
g70
I1
ssg71
g4464
sg64
(lp4471
I00
asbasbasbag57
(g73
g59
NtRp4472
(dp4473
g62
(dp4474
sg71
g4443
sg64
(lp4475
g57
(g78
g59
NtRp4476
(dp4477
g62
(dp4478
sg71
g4472
sg64
(lp4479
g57
(g58
g59
NtRp4480
(dp4481
g62
(dp4482
g70
I1
ssg71
g4476
sg64
(lp4483
S''
asbasbasbag57
(g73
g59
NtRp4484
(dp4485
g62
(dp4486
sg71
g4443
sg64
(lp4487
g57
(g78
g59
NtRp4488
(dp4489
g62
(dp4490
sg71
g4484
sg64
(lp4491
g57
(g58
g59
NtRp4492
(dp4493
g62
(dp4494
g70
I1
ssg71
g4488
sg64
(lp4495
(lp4496
(g4259
(S's\x08\x00\x00\x00Add Item'
tRp4497
I00
S'/BuySell/default/add_item'
tp4498
a(g4259
(S's\x11\x00\x00\x00Your Listed Items'
tRp4499
I00
S'/BuySell/default/listed_items'
tp4500
a(g4259
(S's\n\x00\x00\x00Items Sold'
tRp4501
I00
S'/BuySell/default/item_sold'
tp4502
a(g4259
(S's\r\x00\x00\x00Fulfil Wishes'
tRp4503
I00
S'/BuySell/default/fulfil_wishes'
tp4504
aasbasbasbasbasbasbasbag57
(g73
g59
NtRp4505
(dp4506
g62
(dp4507
sg71
g4373
sg64
(lp4508
g57
(g78
g59
NtRp4509
(dp4510
g62
(dp4511
sg71
g4505
sg64
(lp4512
g57
(g58
g59
NtRp4513
(dp4514
g62
(dp4515
g70
I2
ssg71
g4509
sg64
(lp4516
g57
(g66
g59
NtRp4517
(dp4518
g62
(dp4519
g70
I1
ssg71
Nsg64
(lp4520
g57
(g73
g59
NtRp4521
(dp4522
g62
(dp4523
sg71
g4517
sg64
(lp4524
g57
(g78
g59
NtRp4525
(dp4526
g62
(dp4527
sg71
g4521
sg64
(lp4528
g57
(g58
g59
NtRp4529
(dp4530
g62
(dp4531
g70
I1
ssg71
g4525
sg64
(lp4532
S'Buy'
p4533
asbasbasbag57
(g73
g59
NtRp4534
(dp4535
g62
(dp4536
sg71
g4517
sg64
(lp4537
g57
(g78
g59
NtRp4538
(dp4539
g62
(dp4540
sg71
g4534
sg64
(lp4541
g57
(g58
g59
NtRp4542
(dp4543
g62
(dp4544
g70
I1
ssg71
g4538
sg64
(lp4545
I00
asbasbasbag57
(g73
g59
NtRp4546
(dp4547
g62
(dp4548
sg71
g4517
sg64
(lp4549
g57
(g78
g59
NtRp4550
(dp4551
g62
(dp4552
sg71
g4546
sg64
(lp4553
g57
(g58
g59
NtRp4554
(dp4555
g62
(dp4556
g70
I1
ssg71
g4550
sg64
(lp4557
S''
asbasbasbag57
(g73
g59
NtRp4558
(dp4559
g62
(dp4560
sg71
g4517
sg64
(lp4561
g57
(g78
g59
NtRp4562
(dp4563
g62
(dp4564
sg71
g4558
sg64
(lp4565
g57
(g58
g59
NtRp4566
(dp4567
g62
(dp4568
g70
I1
ssg71
g4562
sg64
(lp4569
(lp4570
(g4259
(S's\x0b\x00\x00\x00Make a wish'
tRp4571
I00
S'/BuySell/default/add_wish'
tp4572
a(g4259
(S's\x0e\x00\x00\x00Your Wish List'
tRp4573
I00
S'/BuySell/default/wish_list'
tp4574
a(g4259
(S's\x10\x00\x00\x00Fulfilled Wishes'
tRp4575
I00
S'/BuySell/default/fulfilled'
tp4576
a(g4259
(S's\x15\x00\x00\x00Items Bought/Bids Won'
tRp4577
I00
S'/BuySell/default/item_bought'
tp4578
aasbasbasbasbasbasbasbag57
(g73
g59
NtRp4579
(dp4580
g62
(dp4581
sg71
g4373
sg64
(lp4582
g57
(g78
g59
NtRp4583
(dp4584
g62
(dp4585
sg71
g4579
sg64
(lp4586
g57
(g58
g59
NtRp4587
(dp4588
g62
(dp4589
g70
I2
ssg71
g4583
sg64
(lp4590
g57
(g66
g59
NtRp4591
(dp4592
g62
(dp4593
g70
I1
ssg71
Nsg64
(lp4594
g57
(g73
g59
NtRp4595
(dp4596
g62
(dp4597
sg71
g4591
sg64
(lp4598
g57
(g78
g59
NtRp4599
(dp4600
g62
(dp4601
sg71
g4595
sg64
(lp4602
g57
(g58
g59
NtRp4603
(dp4604
g62
(dp4605
g70
I1
ssg71
g4599
sg64
(lp4606
g4259
(S's\x0e\x00\x00\x00All Categories'
tRp4607
asbasbasbag57
(g73
g59
NtRp4608
(dp4609
g62
(dp4610
sg71
g4591
sg64
(lp4611
g57
(g78
g59
NtRp4612
(dp4613
g62
(dp4614
sg71
g4608
sg64
(lp4615
g57
(g58
g59
NtRp4616
(dp4617
g62
(dp4618
g70
I1
ssg71
g4612
sg64
(lp4619
I00
asbasbasbag57
(g73
g59
NtRp4620
(dp4621
g62
(dp4622
sg71
g4591
sg64
(lp4623
g57
(g78
g59
NtRp4624
(dp4625
g62
(dp4626
sg71
g4620
sg64
(lp4627
g57
(g58
g59
NtRp4628
(dp4629
g62
(dp4630
g70
I1
ssg71
g4624
sg64
(lp4631
S'http://www.web2py.com/book'
p4632
asbasbasbag57
(g73
g59
NtRp4633
(dp4634
g62
(dp4635
sg71
g4591
sg64
(lp4636
g57
(g78
g59
NtRp4637
(dp4638
g62
(dp4639
sg71
g4633
sg64
(lp4640
g57
(g58
g59
NtRp4641
(dp4642
g62
(dp4643
g70
I1
ssg71
g4637
sg64
(lp4644
(lp4645
(g4259
(S's\x0f\x00\x00\x00Arts and Crafts'
tRp4646
I00
S'/BuySell/default/categories/1'
tp4647
a(g4259
(S't\x08\x00\x00\x00Clothing'
tRp4648
I00
S'/BuySell/default/categories/2'
tp4649
a(g4259
(S't\x08\x00\x00\x00Footwear'
tRp4650
I00
S'/BuySell/default/categories/3'
tp4651
a(g4259
(S't\x05\x00\x00\x00Gifts'
tRp4652
I00
S'/BuySell/default/categories/4'
tp4653
aasbasbasbasbasbasbasbag57
(g73
g59
NtRp4654
(dp4655
g62
(dp4656
sg71
g4373
sg64
(lp4657
g57
(g78
g59
NtRp4658
(dp4659
g62
(dp4660
sg71
g4654
sg64
(lp4661
g57
(g58
g59
NtRp4662
(dp4663
g62
(dp4664
g70
I2
ssg71
g4658
sg64
(lp4665
g57
(g66
g59
NtRp4666
(dp4667
g62
(dp4668
g70
I1
ssg71
Nsg64
(lp4669
g57
(g73
g59
NtRp4670
(dp4671
g62
(dp4672
sg71
g4666
sg64
(lp4673
g57
(g78
g59
NtRp4674
(dp4675
g62
(dp4676
sg71
g4670
sg64
(lp4677
g57
(g58
g59
NtRp4678
(dp4679
g62
(dp4680
g70
I1
ssg71
g4674
sg64
(lp4681
g4259
(S's\t\x00\x00\x00Community'
tRp4682
asbasbasbag57
(g73
g59
NtRp4683
(dp4684
g62
(dp4685
sg71
g4666
sg64
(lp4686
g57
(g78
g59
NtRp4687
(dp4688
g62
(dp4689
sg71
g4683
sg64
(lp4690
g57
(g58
g59
NtRp4691
(dp4692
g62
(dp4693
g70
I1
ssg71
g4687
sg64
(lp4694
I00
asbasbasbag57
(g73
g59
NtRp4695
(dp4696
g62
(dp4697
sg71
g4666
sg64
(lp4698
g57
(g78
g59
NtRp4699
(dp4700
g62
(dp4701
sg71
g4695
sg64
(lp4702
g57
(g58
g59
NtRp4703
(dp4704
g62
(dp4705
g70
I1
ssg71
g4699
sg64
(lp4706
Nasbasbasbag57
(g73
g59
NtRp4707
(dp4708
g62
(dp4709
sg71
g4666
sg64
(lp4710
g57
(g78
g59
NtRp4711
(dp4712
g62
(dp4713
sg71
g4707
sg64
(lp4714
g57
(g58
g59
NtRp4715
(dp4716
g62
(dp4717
g70
I1
ssg71
g4711
sg64
(lp4718
(lp4719
(g4259
(S's\x07\x00\x00\x00Twitter'
tRp4720
I00
S'http://twitter.com/buy_sell'
p4721
tp4722
a(g4259
(S's\t\x00\x00\x00Live Chat'
tRp4723
I00
S'http://webchat.freenode.net/?channels=buysell'
p4724
tp4725
aasbasbasbasbasbasbasbag57
(g73
g59
NtRp4726
(dp4727
g62
(dp4728
sg71
g4373
sg64
(lp4729
g57
(g78
g59
NtRp4730
(dp4731
g62
(dp4732
sg71
g4726
sg64
(lp4733
g57
(g58
g59
NtRp4734
(dp4735
g62
(dp4736
g70
I2
ssg71
g4730
sg64
(lp4737
g57
(g66
g59
NtRp4738
(dp4739
g62
(dp4740
g70
I1
ssg71
Nsg64
(lp4741
g57
(g73
g59
NtRp4742
(dp4743
g62
(dp4744
sg71
g4738
sg64
(lp4745
g57
(g78
g59
NtRp4746
(dp4747
g62
(dp4748
sg71
g4742
sg64
(lp4749
g57
(g58
g59
NtRp4750
(dp4751
g62
(dp4752
g70
I1
ssg71
g4746
sg64
(lp4753
g4259
(S't\x04\x00\x00\x00Help'
tRp4754
asbasbasbag57
(g73
g59
NtRp4755
(dp4756
g62
(dp4757
sg71
g4738
sg64
(lp4758
g57
(g78
g59
NtRp4759
(dp4760
g62
(dp4761
sg71
g4755
sg64
(lp4762
g57
(g58
g59
NtRp4763
(dp4764
g62
(dp4765
g70
I1
ssg71
g4759
sg64
(lp4766
I00
asbasbasbag57
(g73
g59
NtRp4767
(dp4768
g62
(dp4769
sg71
g4738
sg64
(lp4770
g57
(g78
g59
NtRp4771
(dp4772
g62
(dp4773
sg71
g4767
sg64
(lp4774
g57
(g58
g59
NtRp4775
(dp4776
g62
(dp4777
g70
I1
ssg71
g4771
sg64
(lp4778
Nasbasbasbag57
(g73
g59
NtRp4779
(dp4780
g62
(dp4781
sg71
g4738
sg64
(lp4782
g57
(g78
g59
NtRp4783
(dp4784
g62
(dp4785
sg71
g4779
sg64
(lp4786
g57
(g58
g59
NtRp4787
(dp4788
g62
(dp4789
g70
I1
ssg71
g4783
sg64
(lp4790
(lp4791
(S'FAQ'
p4792
I00
S'/BuySell/default/index'
tp4793
a(S'Report a Problem'
p4794
I00
S'/BuySell/default/report'
tp4795
aasbasbasbasbasbasbasbasbasbasbasbasbasbasbasbasbasbasbasbag57
(g73
g59
NtRp4796
(dp4797
g62
(dp4798
sg71
g3732
sg64
(lp4799
g57
(g78
g59
NtRp4800
(dp4801
g62
(dp4802
g82
g83
ssg71
g4796
sg64
(lp4803
S'meta'
p4804
asbag57
(g78
g59
NtRp4805
(dp4806
g62
(dp4807
g89
g90
ssg71
g4796
sg64
(lp4808
S':'
asbag57
(g78
g59
NtRp4809
(dp4810
g62
(dp4811
sg71
g4796
sg64
(lp4812
g57
(g58
g59
NtRp4813
(dp4814
g62
(dp4815
g70
I5
ssg71
g4809
sg64
(lp4816
g57
(g66
g59
NtRp4817
(dp4818
g62
(dp4819
g70
I4
ssg71
Nsg64
(lp4820
g57
(g73
g59
NtRp4821
(dp4822
g62
(dp4823
sg71
g4817
sg64
(lp4824
g57
(g78
g59
NtRp4825
(dp4826
g62
(dp4827
g82
g83
ssg71
g4821
sg64
(lp4828
S'author'
p4829
asbag57
(g78
g59
NtRp4830
(dp4831
g62
(dp4832
g89
g90
ssg71
g4821
sg64
(lp4833
S':'
asbag57
(g78
g59
NtRp4834
(dp4835
g62
(dp4836
sg71
g4821
sg64
(lp4837
g57
(g58
g59
NtRp4838
(dp4839
g62
(dp4840
g70
I4
ssg71
g4834
sg64
(lp4841
S'Your Name <you@example.com>'
p4842
asbasbasbag57
(g73
g59
NtRp4843
(dp4844
g62
(dp4845
sg71
g4817
sg64
(lp4846
g57
(g78
g59
NtRp4847
(dp4848
g62
(dp4849
g82
g83
ssg71
g4843
sg64
(lp4850
S'description'
p4851
asbag57
(g78
g59
NtRp4852
(dp4853
g62
(dp4854
g89
g90
ssg71
g4843
sg64
(lp4855
S':'
asbag57
(g78
g59
NtRp4856
(dp4857
g62
(dp4858
sg71
g4843
sg64
(lp4859
g57
(g58
g59
NtRp4860
(dp4861
g62
(dp4862
g70
I4
ssg71
g4856
sg64
(lp4863
S'a cool new app'
p4864
asbasbasbag57
(g73
g59
NtRp4865
(dp4866
g62
(dp4867
sg71
g4817
sg64
(lp4868
g57
(g78
g59
NtRp4869
(dp4870
g62
(dp4871
g82
g83
ssg71
g4865
sg64
(lp4872
S'generator'
p4873
asbag57
(g78
g59
NtRp4874
(dp4875
g62
(dp4876
g89
g90
ssg71
g4865
sg64
(lp4877
S':'
asbag57
(g78
g59
NtRp4878
(dp4879
g62
(dp4880
sg71
g4865
sg64
(lp4881
g57
(g58
g59
NtRp4882
(dp4883
g62
(dp4884
g70
I4
ssg71
g4878
sg64
(lp4885
S'Web2py Web Framework'
p4886
asbasbasbag57
(g73
g59
NtRp4887
(dp4888
g62
(dp4889
sg71
g4817
sg64
(lp4890
g57
(g78
g59
NtRp4891
(dp4892
g62
(dp4893
g82
g83
ssg71
g4887
sg64
(lp4894
S'keywords'
p4895
asbag57
(g78
g59
NtRp4896
(dp4897
g62
(dp4898
g89
g90
ssg71
g4887
sg64
(lp4899
S':'
asbag57
(g78
g59
NtRp4900
(dp4901
g62
(dp4902
sg71
g4887
sg64
(lp4903
g57
(g58
g59
NtRp4904
(dp4905
g62
(dp4906
g70
I4
ssg71
g4900
sg64
(lp4907
S'web2py, python, framework'
p4908
asbasbasbasbasbasbasbag57
(g73
g59
NtRp4909
(dp4910
g62
(dp4911
sg71
g3732
sg64
(lp4912
g57
(g78
g59
NtRp4913
(dp4914
g62
(dp4915
g82
g83
ssg71
g4909
sg64
(lp4916
S'models_to_run'
p4917
asbag57
(g78
g59
NtRp4918
(dp4919
g62
(dp4920
g89
g90
ssg71
g4909
sg64
(lp4921
S':'
asbag57
(g78
g59
NtRp4922
(dp4923
g62
(dp4924
sg71
g4909
sg64
(lp4925
g57
(g58
g59
NtRp4926
(dp4927
g62
(dp4928
g70
I5
ssg71
g4922
sg64
(lp4929
g57
(g66
g59
NtRp4930
(dp4931
g62
(dp4932
g70
I4
ssg71
Nsg64
(lp4933
g57
(g73
g59
NtRp4934
(dp4935
g62
(dp4936
sg71
g4930
sg64
(lp4937
g57
(g78
g59
NtRp4938
(dp4939
g62
(dp4940
sg71
g4934
sg64
(lp4941
g57
(g58
g59
NtRp4942
(dp4943
g62
(dp4944
g70
I4
ssg71
g4938
sg64
(lp4945
S'^\\w+\\.py$'
p4946
asbasbasbag57
(g73
g59
NtRp4947
(dp4948
g62
(dp4949
sg71
g4930
sg64
(lp4950
g57
(g78
g59
NtRp4951
(dp4952
g62
(dp4953
sg71
g4947
sg64
(lp4954
g57
(g58
g59
NtRp4955
(dp4956
g62
(dp4957
g70
I4
ssg71
g4951
sg64
(lp4958
S'^default/\\w+\\.py$'
p4959
asbasbasbag57
(g73
g59
NtRp4960
(dp4961
g62
(dp4962
sg71
g4930
sg64
(lp4963
g57
(g78
g59
NtRp4964
(dp4965
g62
(dp4966
sg71
g4960
sg64
(lp4967
g57
(g58
g59
NtRp4968
(dp4969
g62
(dp4970
g70
I4
ssg71
g4964
sg64
(lp4971
S'^default/wish_d/\\w+\\.py$'
p4972
asbasbasbasbasbasbasbag57
(g73
g59
NtRp4973
(dp4974
g62
(dp4975
sg71
g3732
sg64
(lp4976
g57
(g78
g59
NtRp4977
(dp4978
g62
(dp4979
g82
g83
ssg71
g4973
sg64
(lp4980
S'postprocessing'
p4981
asbag57
(g78
g59
NtRp4982
(dp4983
g62
(dp4984
g89
g90
ssg71
g4973
sg64
(lp4985
S':'
asbag57
(g78
g59
NtRp4986
(dp4987
g62
(dp4988
sg71
g4973
sg64
(lp4989
g57
(g58
g59
NtRp4990
(dp4991
g62
(dp4992
g70
I5
ssg71
g4986
sg64
(lp4993
g57
(g66
g59
NtRp4994
(dp4995
g62
(dp4996
g70
I4
ssg71
Nsg64
(lp4997
sbasbasbasbag57
(g73
g59
NtRp4998
(dp4999
g62
(dp5000
sg71
g3732
sg64
(lp5001
g57
(g78
g59
NtRp5002
(dp5003
g62
(dp5004
g82
g83
ssg71
g4998
sg64
(lp5005
S'session_cookie_expires'
p5006
asbag57
(g78
g59
NtRp5007
(dp5008
g62
(dp5009
g89
g90
ssg71
g4998
sg64
(lp5010
S':'
asbag57
(g78
g59
NtRp5011
(dp5012
g62
(dp5013
sg71
g4998
sg64
(lp5014
g57
(g58
g59
NtRp5015
(dp5016
g62
(dp5017
g70
I5
ssg71
g5011
sg64
(lp5018
S'None'
p5019
asbasbasbag57
(g73
g59
NtRp5020
(dp5021
g62
(dp5022
sg71
g3732
sg64
(lp5023
g57
(g78
g59
NtRp5024
(dp5025
g62
(dp5026
g82
g83
ssg71
g5020
sg64
(lp5027
S'session_data_name'
p5028
asbag57
(g78
g59
NtRp5029
(dp5030
g62
(dp5031
g89
g90
ssg71
g5020
sg64
(lp5032
S':'
asbag57
(g78
g59
NtRp5033
(dp5034
g62
(dp5035
sg71
g5020
sg64
(lp5036
g57
(g58
g59
NtRp5037
(dp5038
g62
(dp5039
g70
I5
ssg71
g5033
sg64
(lp5040
S'session_data_buysell'
p5041
asbasbasbag57
(g73
g59
NtRp5042
(dp5043
g62
(dp5044
sg71
g3732
sg64
(lp5045
g57
(g78
g59
NtRp5046
(dp5047
g62
(dp5048
g82
g83
ssg71
g5042
sg64
(lp5049
S'session_file'
p5050
asbag57
(g78
g59
NtRp5051
(dp5052
g62
(dp5053
g89
g90
ssg71
g5042
sg64
(lp5054
S':'
asbag57
(g78
g59
NtRp5055
(dp5056
g62
(dp5057
sg71
g5042
sg64
(lp5058
g57
(g58
g59
NtRp5059
(dp5060
g62
(dp5061
g70
I5
ssg71
g5055
sg64
(lp5062
S"<open file '/home/pratyush/web2py/applications/BuySell/sessions/127.0.0.1-29f0dbd8-f64a-462e-b011-0dd07a453df3', mode 'rb+' at 0x9ef5128>"
p5063
asbasbasbag57
(g73
g59
NtRp5064
(dp5065
g62
(dp5066
sg71
g3732
sg64
(lp5067
g57
(g78
g59
NtRp5068
(dp5069
g62
(dp5070
g82
g83
ssg71
g5064
sg64
(lp5071
S'session_filename'
p5072
asbag57
(g78
g59
NtRp5073
(dp5074
g62
(dp5075
g89
g90
ssg71
g5064
sg64
(lp5076
S':'
asbag57
(g78
g59
NtRp5077
(dp5078
g62
(dp5079
sg71
g5064
sg64
(lp5080
g57
(g58
g59
NtRp5081
(dp5082
g62
(dp5083
g70
I5
ssg71
g5077
sg64
(lp5084
S'/home/pratyush/web2py/applications/BuySell/sessions/127.0.0.1-29f0dbd8-f64a-462e-b011-0dd07a453df3'
p5085
asbasbasbag57
(g73
g59
NtRp5086
(dp5087
g62
(dp5088
sg71
g3732
sg64
(lp5089
g57
(g78
g59
NtRp5090
(dp5091
g62
(dp5092
g82
g83
ssg71
g5086
sg64
(lp5093
S'session_id'
p5094
asbag57
(g78
g59
NtRp5095
(dp5096
g62
(dp5097
g89
g90
ssg71
g5086
sg64
(lp5098
S':'
asbag57
(g78
g59
NtRp5099
(dp5100
g62
(dp5101
sg71
g5086
sg64
(lp5102
g57
(g58
g59
NtRp5103
(dp5104
g62
(dp5105
g70
I5
ssg71
g5099
sg64
(lp5106
g673
asbasbasbag57
(g73
g59
NtRp5107
(dp5108
g62
(dp5109
sg71
g3732
sg64
(lp5110
g57
(g78
g59
NtRp5111
(dp5112
g62
(dp5113
g82
g83
ssg71
g5107
sg64
(lp5114
S'session_id_name'
p5115
asbag57
(g78
g59
NtRp5116
(dp5117
g62
(dp5118
g89
g90
ssg71
g5107
sg64
(lp5119
S':'
asbag57
(g78
g59
NtRp5120
(dp5121
g62
(dp5122
sg71
g5107
sg64
(lp5123
g57
(g58
g59
NtRp5124
(dp5125
g62
(dp5126
g70
I5
ssg71
g5120
sg64
(lp5127
g3789
asbasbasbag57
(g73
g59
NtRp5128
(dp5129
g62
(dp5130
sg71
g3732
sg64
(lp5131
g57
(g78
g59
NtRp5132
(dp5133
g62
(dp5134
g82
g83
ssg71
g5128
sg64
(lp5135
S'session_locked'
p5136
asbag57
(g78
g59
NtRp5137
(dp5138
g62
(dp5139
g89
g90
ssg71
g5128
sg64
(lp5140
S':'
asbag57
(g78
g59
NtRp5141
(dp5142
g62
(dp5143
sg71
g5128
sg64
(lp5144
g57
(g58
g59
NtRp5145
(dp5146
g62
(dp5147
g70
I5
ssg71
g5141
sg64
(lp5148
g1803
asbasbasbag57
(g73
g59
NtRp5149
(dp5150
g62
(dp5151
sg71
g3732
sg64
(lp5152
g57
(g78
g59
NtRp5153
(dp5154
g62
(dp5155
g82
g83
ssg71
g5149
sg64
(lp5156
S'session_new'
p5157
asbag57
(g78
g59
NtRp5158
(dp5159
g62
(dp5160
g89
g90
ssg71
g5149
sg64
(lp5161
S':'
asbag57
(g78
g59
NtRp5162
(dp5163
g62
(dp5164
sg71
g5149
sg64
(lp5165
g57
(g58
g59
NtRp5166
(dp5167
g62
(dp5168
g70
I5
ssg71
g5162
sg64
(lp5169
g100
asbasbasbag57
(g73
g59
NtRp5170
(dp5171
g62
(dp5172
sg71
g3732
sg64
(lp5173
g57
(g78
g59
NtRp5174
(dp5175
g62
(dp5176
g82
g83
ssg71
g5170
sg64
(lp5177
S'session_storage_type'
p5178
asbag57
(g78
g59
NtRp5179
(dp5180
g62
(dp5181
g89
g90
ssg71
g5170
sg64
(lp5182
S':'
asbag57
(g78
g59
NtRp5183
(dp5184
g62
(dp5185
sg71
g5170
sg64
(lp5186
g57
(g58
g59
NtRp5187
(dp5188
g62
(dp5189
g70
I5
ssg71
g5183
sg64
(lp5190
g3255
asbasbasbag57
(g73
g59
NtRp5191
(dp5192
g62
(dp5193
sg71
g3732
sg64
(lp5194
g57
(g78
g59
NtRp5195
(dp5196
g62
(dp5197
g82
g83
ssg71
g5191
sg64
(lp5198
S'status'
p5199
asbag57
(g78
g59
NtRp5200
(dp5201
g62
(dp5202
g89
g90
ssg71
g5191
sg64
(lp5203
S':'
asbag57
(g78
g59
NtRp5204
(dp5205
g62
(dp5206
sg71
g5191
sg64
(lp5207
g57
(g58
g59
NtRp5208
(dp5209
g62
(dp5210
g70
I5
ssg71
g5204
sg64
(lp5211
S'200'
p5212
asbasbasbag57
(g73
g59
NtRp5213
(dp5214
g62
(dp5215
sg71
g3732
sg64
(lp5216
g57
(g78
g59
NtRp5217
(dp5218
g62
(dp5219
g82
g83
ssg71
g5213
sg64
(lp5220
S'subtitle'
p5221
asbag57
(g78
g59
NtRp5222
(dp5223
g62
(dp5224
g89
g90
ssg71
g5213
sg64
(lp5225
S':'
asbag57
(g78
g59
NtRp5226
(dp5227
g62
(dp5228
sg71
g5213
sg64
(lp5229
g57
(g58
g59
NtRp5230
(dp5231
g62
(dp5232
g70
I5
ssg71
g5226
sg64
(lp5233
g4259
(S's\r\x00\x00\x00customize me!'
tRp5234
asbasbasbag57
(g73
g59
NtRp5235
(dp5236
g62
(dp5237
sg71
g3732
sg64
(lp5238
g57
(g78
g59
NtRp5239
(dp5240
g62
(dp5241
g82
g83
ssg71
g5235
sg64
(lp5242
S'title'
p5243
asbag57
(g78
g59
NtRp5244
(dp5245
g62
(dp5246
g89
g90
ssg71
g5235
sg64
(lp5247
S':'
asbag57
(g78
g59
NtRp5248
(dp5249
g62
(dp5250
sg71
g5235
sg64
(lp5251
g57
(g58
g59
NtRp5252
(dp5253
g62
(dp5254
g70
I5
ssg71
g5248
sg64
(lp5255
S'Buysell'
p5256
asbasbasbag57
(g73
g59
NtRp5257
(dp5258
g62
(dp5259
sg71
g3732
sg64
(lp5260
g57
(g78
g59
NtRp5261
(dp5262
g62
(dp5263
g82
g83
ssg71
g5257
sg64
(lp5264
S'view'
p5265
asbag57
(g78
g59
NtRp5266
(dp5267
g62
(dp5268
g89
g90
ssg71
g5257
sg64
(lp5269
S':'
asbag57
(g78
g59
NtRp5270
(dp5271
g62
(dp5272
sg71
g5257
sg64
(lp5273
g57
(g58
g59
NtRp5274
(dp5275
g62
(dp5276
g70
I5
ssg71
g5270
sg64
(lp5277
S'default/wish_d.html'
p5278
asbasbasbasbasbsS'locals'
p5279
(dp5280
S'item'
p5281
S"<Row {'category': 'Arts and Crafts', 'name': 'Ad...: 1, 'image': '', 'description': 'Adidas shoes'}>"
p5282
sssS'traceback'
p5283
S'Traceback (most recent call last):\n  File "/home/pratyush/web2py/gluon/restricted.py", line 212, in restricted\n    exec ccode in environment\n  File "/home/pratyush/web2py/applications/BuySell/controllers/default.py", line 331, in <module>\n  File "/home/pratyush/web2py/gluon/globals.py", line 193, in <lambda>\n    self._caller = lambda f: f()\n  File "/home/pratyush/web2py/gluon/tools.py", line 2929, in f\n    return action(*a, **b)\n  File "/home/pratyush/web2py/applications/BuySell/controllers/default.py", line 197, in wish_d\n    seller = db(wish.buyer==db.auth_user.id).select(db.auth_user.ALL).first()\nNameError: global name \'wish\' is not defined\n'
p5284
s.