(dp1
S'output'
p2
S"<type 'exceptions.SyntaxError'> invalid syntax (db.py, line 167)"
p3
sS'layer'
p4
S'/home/pratyush/web2py/applications/BuySell/models/db.py'
p5
sS'code'
p6
S"# -*- coding: utf-8 -*-\n\n#########################################################################\n## This scaffolding model makes your app work on Google App Engine too\n## File is released under public domain and you can use without limitations\n#########################################################################\n\n## if SSL/HTTPS is properly configured and you want all HTTP requests to\n## be redirected to HTTPS, uncomment the line below:\n# request.requires_https()\n\nif not request.env.web2py_runtime_gae:\n    ## if NOT running on Google App Engine use SQLite or other DB\n    db = DAL('sqlite://storage.sqlite',pool_size=1,check_reserved=['all'])\nelse:\n    ## connect to Google BigTable (optional 'google:datastore://namespace')\n    db = DAL('google:datastore')\n    ## store sessions and tickets there\n    session.connect(request, response, db=db)\n    ## or store session in Memcache, Redis, etc.\n    ## from gluon.contrib.memdb import MEMDB\n    ## from google.appengine.api.memcache import Client\n    ## session.connect(request, response, db = MEMDB(Client()))\n\n## by default give a view/generic.extension to all actions from localhost\n## none otherwise. a pattern can be 'controller/function.extension'\nresponse.generic_patterns = ['*'] if request.is_local else []\n## (optional) optimize handling of static files\n# response.optimize_css = 'concat,minify,inline'\n# response.optimize_js = 'concat,minify,inline'\n\n#########################################################################\n## Here is sample code if you need for\n## - email capabilities\n## - authentication (registration, login, logout, ... )\n## - authorization (role based authorization)\n## - services (xml, csv, json, xmlrpc, jsonrpc, amf, rss)\n## - old style crud actions\n## (more options discussed in gluon/tools.py)\n#########################################################################\n\nfrom gluon.tools import Auth, Crud, Service, PluginManager, prettydate\nauth = Auth(db)\ncrud, service, plugins = Crud(db), Service(), PluginManager()\n\n## create all tables needed by auth if not custom tables\nauth.define_tables(username=False, signature=False)\n\n## configure email\nmail = auth.settings.mailer\nmail.settings.server = 'logging' or 'smtp.gmail.com:587'\nmail.settings.sender = 'you@gmail.com'\nmail.settings.login = 'username:password'\n\n## configure auth policy\nauth.settings.registration_requires_verification = False\nauth.settings.registration_requires_approval = False\nauth.settings.reset_password_requires_verification = True\n\n## if you need to use OpenID, Facebook, MySpace, Twitter, Linkedin, etc.\n## register with janrain.com, write your domain:api_key in private/janrain.key\nfrom gluon.contrib.login_methods.rpx_account import use_janrain\nuse_janrain(auth, filename='private/janrain.key')\n\n#########################################################################\n## Define your tables below (or better in another model file) for example\n##\n## >>> db.define_table('mytable',Field('myfield','string'))\n##\n## Fields can be 'string','text','password','integer','double','boolean'\n##       'date','time','datetime','blob','upload', 'reference TABLENAME'\n## There is an implicit 'id integer autoincrement' field\n## Consult manual for more options, validators, etc.\n##\n## More API examples for controllers:\n##\n## >>> db.mytable.insert(myfield='value')\n## >>> rows=db(db.mytable.myfield=='value').select(db.mytable.ALL)\n## >>> for row in rows: print row.id, row.myfield\n#########################################################################\n\n## after defining tables, uncomment below to enable auditing\n# auth.enable_record_versioning(db)\n\ndb.define_table('item',                         \n                Field('name',requires = IS_NOT_EMPTY()),\n                Field('category',\n                      requires = IS_IN_SET(['Arts and Crafts','Clothing','Gifts','Footwears']),\n                      default = 'Arts and Crafts'),        \n                Field('price', 'integer',requires = IS_NOT_EMPTY()),\n                Field('image','upload'),\n                Field('selling_type',requires = IS_IN_SET(['Bid','Buy']),default = 'Bid'),\n                Field('seller',\n                      db.auth_user,\n                      default=auth.user_id,\n                      writable=False,\n                      readable=False,\n                      requires=IS_IN_DB(db, db.auth_user.id,'%(first_name)s')),\n                Field('description','text',requires = IS_NOT_EMPTY()))\n\ndb.define_table('wish',\n                Field('name',requires = IS_NOT_EMPTY()),\n                Field('category',\n                      requires = IS_IN_SET(['Arts and Crafts','Clothing','Gifts','Footwears']),\n                      default = 'Arts and Crafts'),\n                Field('price', 'integer',requires = IS_NOT_EMPTY()),\n                Field('image','upload'),\n                Field('buyer',\n                      db.auth_user,\n                      default=auth.user_id,\n                      writable=False,\n                      readable=False,\n                      requires=IS_IN_DB(db, db.auth_user.id,'%(first_name)s')),\n                Field('description','text',requires = IS_NOT_EMPTY()))\n\ndb.define_table('bid',\n                Field('item_id',db.item, requires=IS_IN_DB(db,db.item.id, '%(name)s')),\n                Field('amount','integer'),\n                Field('bidder',\n                      db.auth_user,\n                      default=auth.user_id,\n                      writable=False,\n                      readable=False,\n                      requires=IS_IN_DB(db, db.auth_user.id,'%(first_name)s')))\n\ndb.define_table('buy',\n                Field('item_id'),\n                Field('buyer',\n                      db.auth_user,\n                      default=auth.user_id,\n                      writable=False,\n                      readable=False,\n                      requires=IS_IN_DB(db, db.auth_user.id,'%(first_name)s')))\n\ndb.define_table('fulfil',\n                Field('item_id'),\n                Field('seller',\n                      db.auth_user,\n                      default=auth.user_id,\n                      writable=False,\n                      readable=False,\n                      requires=IS_IN_DB(db, db.auth_user.id,'%(first_name)s')))\n\ndb.define_table('rating',\n                Field('rate',requires = IS_INT_IN_RANGE(0,5)),\n                Field('seller',\n                      db.auth_user,\n                      requires=IS_IN_DB(db, db.auth_user.id)))\n\ndb.define_table('cart',\n                Field('item_id'),\n                Field('user_id',\n                      db.auth_user,\n                      default=auth.user_id,\n                      writable=False,\n                      readable=False,\n                      requires=IS_IN_DB(db, db.auth_user.id,'%(first_name)s')))\n\ndb.define_table('reviews',\n                Field('item_id'),\n                Field('user_id',\n                      db.auth_user,\n                      default=auth.user_id,\n                      writable=False,\n                      readable=False,\n                      requires=IS_IN_DB(db, db.auth_user.id,'%(first_name)s'))\n                Field('description','text'))"
p7
sS'snapshot'
p8
(dp9
S'exception'
p10
(dp11
S'__getslice__'
p12
S"<method-wrapper '__getslice__' of exceptions.SyntaxError object>"
p13
sS'text'
p14
S'"                Field(\'description\',\'text\'))\\n"'
p15
sS'__str__'
p16
S"<method-wrapper '__str__' of exceptions.SyntaxError object>"
p17
sS'__reduce__'
p18
S'<built-in method __reduce__ of exceptions.SyntaxError object>'
p19
sS'__dict__'
p20
S'{}'
p21
sS'__sizeof__'
p22
S'<built-in method __sizeof__ of exceptions.SyntaxError object>'
p23
sS'__init__'
p24
S"<method-wrapper '__init__' of exceptions.SyntaxError object>"
p25
sS'__setattr__'
p26
S"<method-wrapper '__setattr__' of exceptions.SyntaxError object>"
p27
sS'__reduce_ex__'
p28
S'<built-in method __reduce_ex__ of exceptions.SyntaxError object>'
p29
sS'__new__'
p30
S'<built-in method __new__ of type object>'
p31
sS'__format__'
p32
S'<built-in method __format__ of exceptions.SyntaxError object>'
p33
sS'__class__'
p34
S"<type 'exceptions.SyntaxError'>"
p35
sS'filename'
p36
S"'/home/pratyush/web2py/applications/BuySell/models/db.py'"
p37
sS'lineno'
p38
S'167'
p39
sS'msg'
p40
S"'invalid syntax'"
p41
sS'__doc__'
p42
S"'Invalid syntax.'"
p43
sS'__getitem__'
p44
S"<method-wrapper '__getitem__' of exceptions.SyntaxError object>"
p45
sS'__setstate__'
p46
S'<built-in method __setstate__ of exceptions.SyntaxError object>'
p47
sS'__getattribute__'
p48
S"<method-wrapper '__getattribute__' of exceptions.SyntaxError object>"
p49
sS'print_file_and_line'
p50
S'None'
p51
sS'args'
p52
S'(\'invalid syntax\', (\'/home/pratyush/web2py/applications/BuySell/models/db.py\', 167, 21, "                Field(\'description\',\'text\'))\\n"))'
p53
sS'__subclasshook__'
p54
S'<built-in method __subclasshook__ of type object>'
p55
sS'offset'
p56
S'21'
p57
sS'__unicode__'
p58
S'<built-in method __unicode__ of exceptions.SyntaxError object>'
p59
sS'__delattr__'
p60
S"<method-wrapper '__delattr__' of exceptions.SyntaxError object>"
p61
sS'__repr__'
p62
S"<method-wrapper '__repr__' of exceptions.SyntaxError object>"
p63
sS'__hash__'
p64
S"<method-wrapper '__hash__' of exceptions.SyntaxError object>"
p65
ssS'evalue'
p66
S'invalid syntax (db.py, line 167)'
p67
sS'request'
p68
ccopy_reg
_reconstructor
p69
(cgluon.html
BEAUTIFY
p70
c__builtin__
object
p71
NtRp72
(dp73
S'attributes'
p74
(dp75
sS'components'
p76
(lp77
g69
(cgluon.html
TABLE
p78
g71
NtRp79
(dp80
g74
(dp81
S'level'
p82
I5
ssS'parent'
p83
Nsg76
(lp84
g69
(cgluon.html
TR
p85
g71
NtRp86
(dp87
g74
(dp88
sg83
g79
sg76
(lp89
g69
(cgluon.html
TD
p90
g71
NtRp91
(dp92
g74
(dp93
S'_style'
p94
S'font-weight:bold;vertical-align:top'
p95
ssg83
g86
sg76
(lp96
S'ajax'
p97
asbag69
(g90
g71
NtRp98
(dp99
g74
(dp100
S'_valign'
p101
S'top'
p102
ssg83
g86
sg76
(lp103
S':'
asbag69
(g90
g71
NtRp104
(dp105
g74
(dp106
sg83
g86
sg76
(lp107
g69
(g70
g71
NtRp108
(dp109
g74
(dp110
g82
I5
ssg83
g104
sg76
(lp111
S'False'
p112
asbasbasbag69
(g85
g71
NtRp113
(dp114
g74
(dp115
sg83
g79
sg76
(lp116
g69
(g90
g71
NtRp117
(dp118
g74
(dp119
g94
g95
ssg83
g113
sg76
(lp120
S'application'
p121
asbag69
(g90
g71
NtRp122
(dp123
g74
(dp124
g101
g102
ssg83
g113
sg76
(lp125
S':'
asbag69
(g90
g71
NtRp126
(dp127
g74
(dp128
sg83
g113
sg76
(lp129
g69
(g70
g71
NtRp130
(dp131
g74
(dp132
g82
I5
ssg83
g126
sg76
(lp133
S'BuySell'
p134
asbasbasbag69
(g85
g71
NtRp135
(dp136
g74
(dp137
sg83
g79
sg76
(lp138
g69
(g90
g71
NtRp139
(dp140
g74
(dp141
g94
g95
ssg83
g135
sg76
(lp142
g52
asbag69
(g90
g71
NtRp143
(dp144
g74
(dp145
g101
g102
ssg83
g135
sg76
(lp146
S':'
asbag69
(g90
g71
NtRp147
(dp148
g74
(dp149
sg83
g135
sg76
(lp150
g69
(g70
g71
NtRp151
(dp152
g74
(dp153
g82
I5
ssg83
g147
sg76
(lp154
g69
(g78
g71
NtRp155
(dp156
g74
(dp157
g82
I4
ssg83
Nsg76
(lp158
g69
(g85
g71
NtRp159
(dp160
g74
(dp161
sg83
g155
sg76
(lp162
g69
(g90
g71
NtRp163
(dp164
g74
(dp165
sg83
g159
sg76
(lp166
g69
(g70
g71
NtRp167
(dp168
g74
(dp169
g82
I4
ssg83
g163
sg76
(lp170
S'db'
p171
asbasbasbag69
(g85
g71
NtRp172
(dp173
g74
(dp174
sg83
g155
sg76
(lp175
g69
(g90
g71
NtRp176
(dp177
g74
(dp178
sg83
g172
sg76
(lp179
g69
(g70
g71
NtRp180
(dp181
g74
(dp182
g82
I4
ssg83
g176
sg76
(lp183
S'item'
p184
asbasbasbasbasbasbasbag69
(g85
g71
NtRp185
(dp186
g74
(dp187
sg83
g79
sg76
(lp188
g69
(g90
g71
NtRp189
(dp190
g74
(dp191
g94
g95
ssg83
g185
sg76
(lp192
S'body'
p193
asbag69
(g90
g71
NtRp194
(dp195
g74
(dp196
g101
g102
ssg83
g185
sg76
(lp197
S':'
asbag69
(g90
g71
NtRp198
(dp199
g74
(dp200
sg83
g185
sg76
(lp201
g69
(g70
g71
NtRp202
(dp203
g74
(dp204
g82
I5
ssg83
g198
sg76
(lp205
S'<cStringIO.StringO object at 0xaffc0e0>'
p206
asbasbasbag69
(g85
g71
NtRp207
(dp208
g74
(dp209
sg83
g79
sg76
(lp210
g69
(g90
g71
NtRp211
(dp212
g74
(dp213
g94
g95
ssg83
g207
sg76
(lp214
S'cid'
p215
asbag69
(g90
g71
NtRp216
(dp217
g74
(dp218
g101
g102
ssg83
g207
sg76
(lp219
S':'
asbag69
(g90
g71
NtRp220
(dp221
g74
(dp222
sg83
g207
sg76
(lp223
g69
(g70
g71
NtRp224
(dp225
g74
(dp226
g82
I5
ssg83
g220
sg76
(lp227
S'None'
p228
asbasbasbag69
(g85
g71
NtRp229
(dp230
g74
(dp231
sg83
g79
sg76
(lp232
g69
(g90
g71
NtRp233
(dp234
g74
(dp235
g94
g95
ssg83
g229
sg76
(lp236
S'client'
p237
asbag69
(g90
g71
NtRp238
(dp239
g74
(dp240
g101
g102
ssg83
g229
sg76
(lp241
S':'
asbag69
(g90
g71
NtRp242
(dp243
g74
(dp244
sg83
g229
sg76
(lp245
g69
(g70
g71
NtRp246
(dp247
g74
(dp248
g82
I5
ssg83
g242
sg76
(lp249
S'127.0.0.1'
p250
asbasbasbag69
(g85
g71
NtRp251
(dp252
g74
(dp253
sg83
g79
sg76
(lp254
g69
(g90
g71
NtRp255
(dp256
g74
(dp257
g94
g95
ssg83
g251
sg76
(lp258
S'controller'
p259
asbag69
(g90
g71
NtRp260
(dp261
g74
(dp262
g101
g102
ssg83
g251
sg76
(lp263
S':'
asbag69
(g90
g71
NtRp264
(dp265
g74
(dp266
sg83
g251
sg76
(lp267
g69
(g70
g71
NtRp268
(dp269
g74
(dp270
g82
I5
ssg83
g264
sg76
(lp271
S'appadmin'
p272
asbasbasbag69
(g85
g71
NtRp273
(dp274
g74
(dp275
sg83
g79
sg76
(lp276
g69
(g90
g71
NtRp277
(dp278
g74
(dp279
g94
g95
ssg83
g273
sg76
(lp280
S'cookies'
p281
asbag69
(g90
g71
NtRp282
(dp283
g74
(dp284
g101
g102
ssg83
g273
sg76
(lp285
S':'
asbag69
(g90
g71
NtRp286
(dp287
g74
(dp288
sg83
g273
sg76
(lp289
g69
(g70
g71
NtRp290
(dp291
g74
(dp292
g82
I5
ssg83
g286
sg76
(lp293
g69
(g78
g71
NtRp294
(dp295
g74
(dp296
g82
I4
ssg83
Nsg76
(lp297
g69
(g85
g71
NtRp298
(dp299
g74
(dp300
sg83
g294
sg76
(lp301
g69
(g90
g71
NtRp302
(dp303
g74
(dp304
g94
g95
ssg83
g298
sg76
(lp305
S'registered'
p306
asbag69
(g90
g71
NtRp307
(dp308
g74
(dp309
g101
g102
ssg83
g298
sg76
(lp310
S':'
asbag69
(g90
g71
NtRp311
(dp312
g74
(dp313
sg83
g298
sg76
(lp314
g69
(g70
g71
NtRp315
(dp316
g74
(dp317
g82
I4
ssg83
g311
sg76
(lp318
S'yes'
p319
ag69
(g78
g71
NtRp320
(dp321
g74
(dp322
g82
I3
ssg83
Nsg76
(lp323
g69
(g85
g71
NtRp324
(dp325
g74
(dp326
sg83
g320
sg76
(lp327
g69
(g90
g71
NtRp328
(dp329
g74
(dp330
g94
g95
ssg83
g324
sg76
(lp331
S'comment'
p332
asbag69
(g90
g71
NtRp333
(dp334
g74
(dp335
g101
g102
ssg83
g324
sg76
(lp336
S':'
asbag69
(g90
g71
NtRp337
(dp338
g74
(dp339
sg83
g324
sg76
(lp340
g69
(g70
g71
NtRp341
(dp342
g74
(dp343
g82
I3
ssg83
g337
sg76
(lp344
S''
asbasbasbag69
(g85
g71
NtRp345
(dp346
g74
(dp347
sg83
g320
sg76
(lp348
g69
(g90
g71
NtRp349
(dp350
g74
(dp351
g94
g95
ssg83
g345
sg76
(lp352
S'domain'
p353
asbag69
(g90
g71
NtRp354
(dp355
g74
(dp356
g101
g102
ssg83
g345
sg76
(lp357
S':'
asbag69
(g90
g71
NtRp358
(dp359
g74
(dp360
sg83
g345
sg76
(lp361
g69
(g70
g71
NtRp362
(dp363
g74
(dp364
g82
I3
ssg83
g358
sg76
(lp365
S''
asbasbasbag69
(g85
g71
NtRp366
(dp367
g74
(dp368
sg83
g320
sg76
(lp369
g69
(g90
g71
NtRp370
(dp371
g74
(dp372
g94
g95
ssg83
g366
sg76
(lp373
S'expires'
p374
asbag69
(g90
g71
NtRp375
(dp376
g74
(dp377
g101
g102
ssg83
g366
sg76
(lp378
S':'
asbag69
(g90
g71
NtRp379
(dp380
g74
(dp381
sg83
g366
sg76
(lp382
g69
(g70
g71
NtRp383
(dp384
g74
(dp385
g82
I3
ssg83
g379
sg76
(lp386
S''
asbasbasbag69
(g85
g71
NtRp387
(dp388
g74
(dp389
sg83
g320
sg76
(lp390
g69
(g90
g71
NtRp391
(dp392
g74
(dp393
g94
g95
ssg83
g387
sg76
(lp394
S'httponly'
p395
asbag69
(g90
g71
NtRp396
(dp397
g74
(dp398
g101
g102
ssg83
g387
sg76
(lp399
S':'
asbag69
(g90
g71
NtRp400
(dp401
g74
(dp402
sg83
g387
sg76
(lp403
g69
(g70
g71
NtRp404
(dp405
g74
(dp406
g82
I3
ssg83
g400
sg76
(lp407
S''
asbasbasbag69
(g85
g71
NtRp408
(dp409
g74
(dp410
sg83
g320
sg76
(lp411
g69
(g90
g71
NtRp412
(dp413
g74
(dp414
g94
g95
ssg83
g408
sg76
(lp415
S'max-age'
p416
asbag69
(g90
g71
NtRp417
(dp418
g74
(dp419
g101
g102
ssg83
g408
sg76
(lp420
S':'
asbag69
(g90
g71
NtRp421
(dp422
g74
(dp423
sg83
g408
sg76
(lp424
g69
(g70
g71
NtRp425
(dp426
g74
(dp427
g82
I3
ssg83
g421
sg76
(lp428
S''
asbasbasbag69
(g85
g71
NtRp429
(dp430
g74
(dp431
sg83
g320
sg76
(lp432
g69
(g90
g71
NtRp433
(dp434
g74
(dp435
g94
g95
ssg83
g429
sg76
(lp436
S'path'
p437
asbag69
(g90
g71
NtRp438
(dp439
g74
(dp440
g101
g102
ssg83
g429
sg76
(lp441
S':'
asbag69
(g90
g71
NtRp442
(dp443
g74
(dp444
sg83
g429
sg76
(lp445
g69
(g70
g71
NtRp446
(dp447
g74
(dp448
g82
I3
ssg83
g442
sg76
(lp449
S''
asbasbasbag69
(g85
g71
NtRp450
(dp451
g74
(dp452
sg83
g320
sg76
(lp453
g69
(g90
g71
NtRp454
(dp455
g74
(dp456
g94
g95
ssg83
g450
sg76
(lp457
S'secure'
p458
asbag69
(g90
g71
NtRp459
(dp460
g74
(dp461
g101
g102
ssg83
g450
sg76
(lp462
S':'
asbag69
(g90
g71
NtRp463
(dp464
g74
(dp465
sg83
g450
sg76
(lp466
g69
(g70
g71
NtRp467
(dp468
g74
(dp469
g82
I3
ssg83
g463
sg76
(lp470
S''
asbasbasbag69
(g85
g71
NtRp471
(dp472
g74
(dp473
sg83
g320
sg76
(lp474
g69
(g90
g71
NtRp475
(dp476
g74
(dp477
g94
g95
ssg83
g471
sg76
(lp478
S'version'
p479
asbag69
(g90
g71
NtRp480
(dp481
g74
(dp482
g101
g102
ssg83
g471
sg76
(lp483
S':'
asbag69
(g90
g71
NtRp484
(dp485
g74
(dp486
sg83
g471
sg76
(lp487
g69
(g70
g71
NtRp488
(dp489
g74
(dp490
g82
I3
ssg83
g484
sg76
(lp491
S''
asbasbasbasbasbasbasbag69
(g85
g71
NtRp492
(dp493
g74
(dp494
sg83
g294
sg76
(lp495
g69
(g90
g71
NtRp496
(dp497
g74
(dp498
g94
g95
ssg83
g492
sg76
(lp499
S'session_id_admin'
p500
asbag69
(g90
g71
NtRp501
(dp502
g74
(dp503
g101
g102
ssg83
g492
sg76
(lp504
S':'
asbag69
(g90
g71
NtRp505
(dp506
g74
(dp507
sg83
g492
sg76
(lp508
g69
(g70
g71
NtRp509
(dp510
g74
(dp511
g82
I4
ssg83
g505
sg76
(lp512
S'127.0.0.1-5c3e6318-3a14-4ff1-97a6-1063e44c4cd9'
p513
ag69
(g78
g71
NtRp514
(dp515
g74
(dp516
g82
I3
ssg83
Nsg76
(lp517
g69
(g85
g71
NtRp518
(dp519
g74
(dp520
sg83
g514
sg76
(lp521
g69
(g90
g71
NtRp522
(dp523
g74
(dp524
g94
g95
ssg83
g518
sg76
(lp525
g332
asbag69
(g90
g71
NtRp526
(dp527
g74
(dp528
g101
g102
ssg83
g518
sg76
(lp529
S':'
asbag69
(g90
g71
NtRp530
(dp531
g74
(dp532
sg83
g518
sg76
(lp533
g69
(g70
g71
NtRp534
(dp535
g74
(dp536
g82
I3
ssg83
g530
sg76
(lp537
S''
asbasbasbag69
(g85
g71
NtRp538
(dp539
g74
(dp540
sg83
g514
sg76
(lp541
g69
(g90
g71
NtRp542
(dp543
g74
(dp544
g94
g95
ssg83
g538
sg76
(lp545
g353
asbag69
(g90
g71
NtRp546
(dp547
g74
(dp548
g101
g102
ssg83
g538
sg76
(lp549
S':'
asbag69
(g90
g71
NtRp550
(dp551
g74
(dp552
sg83
g538
sg76
(lp553
g69
(g70
g71
NtRp554
(dp555
g74
(dp556
g82
I3
ssg83
g550
sg76
(lp557
S''
asbasbasbag69
(g85
g71
NtRp558
(dp559
g74
(dp560
sg83
g514
sg76
(lp561
g69
(g90
g71
NtRp562
(dp563
g74
(dp564
g94
g95
ssg83
g558
sg76
(lp565
g374
asbag69
(g90
g71
NtRp566
(dp567
g74
(dp568
g101
g102
ssg83
g558
sg76
(lp569
S':'
asbag69
(g90
g71
NtRp570
(dp571
g74
(dp572
sg83
g558
sg76
(lp573
g69
(g70
g71
NtRp574
(dp575
g74
(dp576
g82
I3
ssg83
g570
sg76
(lp577
S''
asbasbasbag69
(g85
g71
NtRp578
(dp579
g74
(dp580
sg83
g514
sg76
(lp581
g69
(g90
g71
NtRp582
(dp583
g74
(dp584
g94
g95
ssg83
g578
sg76
(lp585
g395
asbag69
(g90
g71
NtRp586
(dp587
g74
(dp588
g101
g102
ssg83
g578
sg76
(lp589
S':'
asbag69
(g90
g71
NtRp590
(dp591
g74
(dp592
sg83
g578
sg76
(lp593
g69
(g70
g71
NtRp594
(dp595
g74
(dp596
g82
I3
ssg83
g590
sg76
(lp597
S''
asbasbasbag69
(g85
g71
NtRp598
(dp599
g74
(dp600
sg83
g514
sg76
(lp601
g69
(g90
g71
NtRp602
(dp603
g74
(dp604
g94
g95
ssg83
g598
sg76
(lp605
g416
asbag69
(g90
g71
NtRp606
(dp607
g74
(dp608
g101
g102
ssg83
g598
sg76
(lp609
S':'
asbag69
(g90
g71
NtRp610
(dp611
g74
(dp612
sg83
g598
sg76
(lp613
g69
(g70
g71
NtRp614
(dp615
g74
(dp616
g82
I3
ssg83
g610
sg76
(lp617
S''
asbasbasbag69
(g85
g71
NtRp618
(dp619
g74
(dp620
sg83
g514
sg76
(lp621
g69
(g90
g71
NtRp622
(dp623
g74
(dp624
g94
g95
ssg83
g618
sg76
(lp625
g437
asbag69
(g90
g71
NtRp626
(dp627
g74
(dp628
g101
g102
ssg83
g618
sg76
(lp629
S':'
asbag69
(g90
g71
NtRp630
(dp631
g74
(dp632
sg83
g618
sg76
(lp633
g69
(g70
g71
NtRp634
(dp635
g74
(dp636
g82
I3
ssg83
g630
sg76
(lp637
S''
asbasbasbag69
(g85
g71
NtRp638
(dp639
g74
(dp640
sg83
g514
sg76
(lp641
g69
(g90
g71
NtRp642
(dp643
g74
(dp644
g94
g95
ssg83
g638
sg76
(lp645
g458
asbag69
(g90
g71
NtRp646
(dp647
g74
(dp648
g101
g102
ssg83
g638
sg76
(lp649
S':'
asbag69
(g90
g71
NtRp650
(dp651
g74
(dp652
sg83
g638
sg76
(lp653
g69
(g70
g71
NtRp654
(dp655
g74
(dp656
g82
I3
ssg83
g650
sg76
(lp657
S''
asbasbasbag69
(g85
g71
NtRp658
(dp659
g74
(dp660
sg83
g514
sg76
(lp661
g69
(g90
g71
NtRp662
(dp663
g74
(dp664
g94
g95
ssg83
g658
sg76
(lp665
g479
asbag69
(g90
g71
NtRp666
(dp667
g74
(dp668
g101
g102
ssg83
g658
sg76
(lp669
S':'
asbag69
(g90
g71
NtRp670
(dp671
g74
(dp672
sg83
g658
sg76
(lp673
g69
(g70
g71
NtRp674
(dp675
g74
(dp676
g82
I3
ssg83
g670
sg76
(lp677
S''
asbasbasbasbasbasbasbag69
(g85
g71
NtRp678
(dp679
g74
(dp680
sg83
g294
sg76
(lp681
g69
(g90
g71
NtRp682
(dp683
g74
(dp684
g94
g95
ssg83
g678
sg76
(lp685
S'session_id_buysell'
p686
asbag69
(g90
g71
NtRp687
(dp688
g74
(dp689
g101
g102
ssg83
g678
sg76
(lp690
S':'
asbag69
(g90
g71
NtRp691
(dp692
g74
(dp693
sg83
g678
sg76
(lp694
g69
(g70
g71
NtRp695
(dp696
g74
(dp697
g82
I4
ssg83
g691
sg76
(lp698
S'127.0.0.1-d5a07803-4f5c-44c8-b05d-2876d30ca822'
p699
ag69
(g78
g71
NtRp700
(dp701
g74
(dp702
g82
I3
ssg83
Nsg76
(lp703
g69
(g85
g71
NtRp704
(dp705
g74
(dp706
sg83
g700
sg76
(lp707
g69
(g90
g71
NtRp708
(dp709
g74
(dp710
g94
g95
ssg83
g704
sg76
(lp711
g332
asbag69
(g90
g71
NtRp712
(dp713
g74
(dp714
g101
g102
ssg83
g704
sg76
(lp715
S':'
asbag69
(g90
g71
NtRp716
(dp717
g74
(dp718
sg83
g704
sg76
(lp719
g69
(g70
g71
NtRp720
(dp721
g74
(dp722
g82
I3
ssg83
g716
sg76
(lp723
S''
asbasbasbag69
(g85
g71
NtRp724
(dp725
g74
(dp726
sg83
g700
sg76
(lp727
g69
(g90
g71
NtRp728
(dp729
g74
(dp730
g94
g95
ssg83
g724
sg76
(lp731
g353
asbag69
(g90
g71
NtRp732
(dp733
g74
(dp734
g101
g102
ssg83
g724
sg76
(lp735
S':'
asbag69
(g90
g71
NtRp736
(dp737
g74
(dp738
sg83
g724
sg76
(lp739
g69
(g70
g71
NtRp740
(dp741
g74
(dp742
g82
I3
ssg83
g736
sg76
(lp743
S''
asbasbasbag69
(g85
g71
NtRp744
(dp745
g74
(dp746
sg83
g700
sg76
(lp747
g69
(g90
g71
NtRp748
(dp749
g74
(dp750
g94
g95
ssg83
g744
sg76
(lp751
g374
asbag69
(g90
g71
NtRp752
(dp753
g74
(dp754
g101
g102
ssg83
g744
sg76
(lp755
S':'
asbag69
(g90
g71
NtRp756
(dp757
g74
(dp758
sg83
g744
sg76
(lp759
g69
(g70
g71
NtRp760
(dp761
g74
(dp762
g82
I3
ssg83
g756
sg76
(lp763
S''
asbasbasbag69
(g85
g71
NtRp764
(dp765
g74
(dp766
sg83
g700
sg76
(lp767
g69
(g90
g71
NtRp768
(dp769
g74
(dp770
g94
g95
ssg83
g764
sg76
(lp771
g395
asbag69
(g90
g71
NtRp772
(dp773
g74
(dp774
g101
g102
ssg83
g764
sg76
(lp775
S':'
asbag69
(g90
g71
NtRp776
(dp777
g74
(dp778
sg83
g764
sg76
(lp779
g69
(g70
g71
NtRp780
(dp781
g74
(dp782
g82
I3
ssg83
g776
sg76
(lp783
S''
asbasbasbag69
(g85
g71
NtRp784
(dp785
g74
(dp786
sg83
g700
sg76
(lp787
g69
(g90
g71
NtRp788
(dp789
g74
(dp790
g94
g95
ssg83
g784
sg76
(lp791
g416
asbag69
(g90
g71
NtRp792
(dp793
g74
(dp794
g101
g102
ssg83
g784
sg76
(lp795
S':'
asbag69
(g90
g71
NtRp796
(dp797
g74
(dp798
sg83
g784
sg76
(lp799
g69
(g70
g71
NtRp800
(dp801
g74
(dp802
g82
I3
ssg83
g796
sg76
(lp803
S''
asbasbasbag69
(g85
g71
NtRp804
(dp805
g74
(dp806
sg83
g700
sg76
(lp807
g69
(g90
g71
NtRp808
(dp809
g74
(dp810
g94
g95
ssg83
g804
sg76
(lp811
g437
asbag69
(g90
g71
NtRp812
(dp813
g74
(dp814
g101
g102
ssg83
g804
sg76
(lp815
S':'
asbag69
(g90
g71
NtRp816
(dp817
g74
(dp818
sg83
g804
sg76
(lp819
g69
(g70
g71
NtRp820
(dp821
g74
(dp822
g82
I3
ssg83
g816
sg76
(lp823
S''
asbasbasbag69
(g85
g71
NtRp824
(dp825
g74
(dp826
sg83
g700
sg76
(lp827
g69
(g90
g71
NtRp828
(dp829
g74
(dp830
g94
g95
ssg83
g824
sg76
(lp831
g458
asbag69
(g90
g71
NtRp832
(dp833
g74
(dp834
g101
g102
ssg83
g824
sg76
(lp835
S':'
asbag69
(g90
g71
NtRp836
(dp837
g74
(dp838
sg83
g824
sg76
(lp839
g69
(g70
g71
NtRp840
(dp841
g74
(dp842
g82
I3
ssg83
g836
sg76
(lp843
S''
asbasbasbag69
(g85
g71
NtRp844
(dp845
g74
(dp846
sg83
g700
sg76
(lp847
g69
(g90
g71
NtRp848
(dp849
g74
(dp850
g94
g95
ssg83
g844
sg76
(lp851
g479
asbag69
(g90
g71
NtRp852
(dp853
g74
(dp854
g101
g102
ssg83
g844
sg76
(lp855
S':'
asbag69
(g90
g71
NtRp856
(dp857
g74
(dp858
sg83
g844
sg76
(lp859
g69
(g70
g71
NtRp860
(dp861
g74
(dp862
g82
I3
ssg83
g856
sg76
(lp863
S''
asbasbasbasbasbasbasbag69
(g85
g71
NtRp864
(dp865
g74
(dp866
sg83
g294
sg76
(lp867
g69
(g90
g71
NtRp868
(dp869
g74
(dp870
g94
g95
ssg83
g864
sg76
(lp871
S'session_id_music_library'
p872
asbag69
(g90
g71
NtRp873
(dp874
g74
(dp875
g101
g102
ssg83
g864
sg76
(lp876
S':'
asbag69
(g90
g71
NtRp877
(dp878
g74
(dp879
sg83
g864
sg76
(lp880
g69
(g70
g71
NtRp881
(dp882
g74
(dp883
g82
I4
ssg83
g877
sg76
(lp884
S'127.0.0.1-dd9b4880-33cf-4894-a8a9-2640c5c78a01'
p885
ag69
(g78
g71
NtRp886
(dp887
g74
(dp888
g82
I3
ssg83
Nsg76
(lp889
g69
(g85
g71
NtRp890
(dp891
g74
(dp892
sg83
g886
sg76
(lp893
g69
(g90
g71
NtRp894
(dp895
g74
(dp896
g94
g95
ssg83
g890
sg76
(lp897
g332
asbag69
(g90
g71
NtRp898
(dp899
g74
(dp900
g101
g102
ssg83
g890
sg76
(lp901
S':'
asbag69
(g90
g71
NtRp902
(dp903
g74
(dp904
sg83
g890
sg76
(lp905
g69
(g70
g71
NtRp906
(dp907
g74
(dp908
g82
I3
ssg83
g902
sg76
(lp909
S''
asbasbasbag69
(g85
g71
NtRp910
(dp911
g74
(dp912
sg83
g886
sg76
(lp913
g69
(g90
g71
NtRp914
(dp915
g74
(dp916
g94
g95
ssg83
g910
sg76
(lp917
g353
asbag69
(g90
g71
NtRp918
(dp919
g74
(dp920
g101
g102
ssg83
g910
sg76
(lp921
S':'
asbag69
(g90
g71
NtRp922
(dp923
g74
(dp924
sg83
g910
sg76
(lp925
g69
(g70
g71
NtRp926
(dp927
g74
(dp928
g82
I3
ssg83
g922
sg76
(lp929
S''
asbasbasbag69
(g85
g71
NtRp930
(dp931
g74
(dp932
sg83
g886
sg76
(lp933
g69
(g90
g71
NtRp934
(dp935
g74
(dp936
g94
g95
ssg83
g930
sg76
(lp937
g374
asbag69
(g90
g71
NtRp938
(dp939
g74
(dp940
g101
g102
ssg83
g930
sg76
(lp941
S':'
asbag69
(g90
g71
NtRp942
(dp943
g74
(dp944
sg83
g930
sg76
(lp945
g69
(g70
g71
NtRp946
(dp947
g74
(dp948
g82
I3
ssg83
g942
sg76
(lp949
S''
asbasbasbag69
(g85
g71
NtRp950
(dp951
g74
(dp952
sg83
g886
sg76
(lp953
g69
(g90
g71
NtRp954
(dp955
g74
(dp956
g94
g95
ssg83
g950
sg76
(lp957
g395
asbag69
(g90
g71
NtRp958
(dp959
g74
(dp960
g101
g102
ssg83
g950
sg76
(lp961
S':'
asbag69
(g90
g71
NtRp962
(dp963
g74
(dp964
sg83
g950
sg76
(lp965
g69
(g70
g71
NtRp966
(dp967
g74
(dp968
g82
I3
ssg83
g962
sg76
(lp969
S''
asbasbasbag69
(g85
g71
NtRp970
(dp971
g74
(dp972
sg83
g886
sg76
(lp973
g69
(g90
g71
NtRp974
(dp975
g74
(dp976
g94
g95
ssg83
g970
sg76
(lp977
g416
asbag69
(g90
g71
NtRp978
(dp979
g74
(dp980
g101
g102
ssg83
g970
sg76
(lp981
S':'
asbag69
(g90
g71
NtRp982
(dp983
g74
(dp984
sg83
g970
sg76
(lp985
g69
(g70
g71
NtRp986
(dp987
g74
(dp988
g82
I3
ssg83
g982
sg76
(lp989
S''
asbasbasbag69
(g85
g71
NtRp990
(dp991
g74
(dp992
sg83
g886
sg76
(lp993
g69
(g90
g71
NtRp994
(dp995
g74
(dp996
g94
g95
ssg83
g990
sg76
(lp997
g437
asbag69
(g90
g71
NtRp998
(dp999
g74
(dp1000
g101
g102
ssg83
g990
sg76
(lp1001
S':'
asbag69
(g90
g71
NtRp1002
(dp1003
g74
(dp1004
sg83
g990
sg76
(lp1005
g69
(g70
g71
NtRp1006
(dp1007
g74
(dp1008
g82
I3
ssg83
g1002
sg76
(lp1009
S''
asbasbasbag69
(g85
g71
NtRp1010
(dp1011
g74
(dp1012
sg83
g886
sg76
(lp1013
g69
(g90
g71
NtRp1014
(dp1015
g74
(dp1016
g94
g95
ssg83
g1010
sg76
(lp1017
g458
asbag69
(g90
g71
NtRp1018
(dp1019
g74
(dp1020
g101
g102
ssg83
g1010
sg76
(lp1021
S':'
asbag69
(g90
g71
NtRp1022
(dp1023
g74
(dp1024
sg83
g1010
sg76
(lp1025
g69
(g70
g71
NtRp1026
(dp1027
g74
(dp1028
g82
I3
ssg83
g1022
sg76
(lp1029
S''
asbasbasbag69
(g85
g71
NtRp1030
(dp1031
g74
(dp1032
sg83
g886
sg76
(lp1033
g69
(g90
g71
NtRp1034
(dp1035
g74
(dp1036
g94
g95
ssg83
g1030
sg76
(lp1037
g479
asbag69
(g90
g71
NtRp1038
(dp1039
g74
(dp1040
g101
g102
ssg83
g1030
sg76
(lp1041
S':'
asbag69
(g90
g71
NtRp1042
(dp1043
g74
(dp1044
sg83
g1030
sg76
(lp1045
g69
(g70
g71
NtRp1046
(dp1047
g74
(dp1048
g82
I3
ssg83
g1042
sg76
(lp1049
S''
asbasbasbasbasbasbasbag69
(g85
g71
NtRp1050
(dp1051
g74
(dp1052
sg83
g294
sg76
(lp1053
g69
(g90
g71
NtRp1054
(dp1055
g74
(dp1056
g94
g95
ssg83
g1050
sg76
(lp1057
S'session_id_outreach'
p1058
asbag69
(g90
g71
NtRp1059
(dp1060
g74
(dp1061
g101
g102
ssg83
g1050
sg76
(lp1062
S':'
asbag69
(g90
g71
NtRp1063
(dp1064
g74
(dp1065
sg83
g1050
sg76
(lp1066
g69
(g70
g71
NtRp1067
(dp1068
g74
(dp1069
g82
I4
ssg83
g1063
sg76
(lp1070
S'127.0.0.1-00c3bb02-539e-4bc1-ab10-e3c500bd1248'
p1071
ag69
(g78
g71
NtRp1072
(dp1073
g74
(dp1074
g82
I3
ssg83
Nsg76
(lp1075
g69
(g85
g71
NtRp1076
(dp1077
g74
(dp1078
sg83
g1072
sg76
(lp1079
g69
(g90
g71
NtRp1080
(dp1081
g74
(dp1082
g94
g95
ssg83
g1076
sg76
(lp1083
g332
asbag69
(g90
g71
NtRp1084
(dp1085
g74
(dp1086
g101
g102
ssg83
g1076
sg76
(lp1087
S':'
asbag69
(g90
g71
NtRp1088
(dp1089
g74
(dp1090
sg83
g1076
sg76
(lp1091
g69
(g70
g71
NtRp1092
(dp1093
g74
(dp1094
g82
I3
ssg83
g1088
sg76
(lp1095
S''
asbasbasbag69
(g85
g71
NtRp1096
(dp1097
g74
(dp1098
sg83
g1072
sg76
(lp1099
g69
(g90
g71
NtRp1100
(dp1101
g74
(dp1102
g94
g95
ssg83
g1096
sg76
(lp1103
g353
asbag69
(g90
g71
NtRp1104
(dp1105
g74
(dp1106
g101
g102
ssg83
g1096
sg76
(lp1107
S':'
asbag69
(g90
g71
NtRp1108
(dp1109
g74
(dp1110
sg83
g1096
sg76
(lp1111
g69
(g70
g71
NtRp1112
(dp1113
g74
(dp1114
g82
I3
ssg83
g1108
sg76
(lp1115
S''
asbasbasbag69
(g85
g71
NtRp1116
(dp1117
g74
(dp1118
sg83
g1072
sg76
(lp1119
g69
(g90
g71
NtRp1120
(dp1121
g74
(dp1122
g94
g95
ssg83
g1116
sg76
(lp1123
g374
asbag69
(g90
g71
NtRp1124
(dp1125
g74
(dp1126
g101
g102
ssg83
g1116
sg76
(lp1127
S':'
asbag69
(g90
g71
NtRp1128
(dp1129
g74
(dp1130
sg83
g1116
sg76
(lp1131
g69
(g70
g71
NtRp1132
(dp1133
g74
(dp1134
g82
I3
ssg83
g1128
sg76
(lp1135
S''
asbasbasbag69
(g85
g71
NtRp1136
(dp1137
g74
(dp1138
sg83
g1072
sg76
(lp1139
g69
(g90
g71
NtRp1140
(dp1141
g74
(dp1142
g94
g95
ssg83
g1136
sg76
(lp1143
g395
asbag69
(g90
g71
NtRp1144
(dp1145
g74
(dp1146
g101
g102
ssg83
g1136
sg76
(lp1147
S':'
asbag69
(g90
g71
NtRp1148
(dp1149
g74
(dp1150
sg83
g1136
sg76
(lp1151
g69
(g70
g71
NtRp1152
(dp1153
g74
(dp1154
g82
I3
ssg83
g1148
sg76
(lp1155
S''
asbasbasbag69
(g85
g71
NtRp1156
(dp1157
g74
(dp1158
sg83
g1072
sg76
(lp1159
g69
(g90
g71
NtRp1160
(dp1161
g74
(dp1162
g94
g95
ssg83
g1156
sg76
(lp1163
g416
asbag69
(g90
g71
NtRp1164
(dp1165
g74
(dp1166
g101
g102
ssg83
g1156
sg76
(lp1167
S':'
asbag69
(g90
g71
NtRp1168
(dp1169
g74
(dp1170
sg83
g1156
sg76
(lp1171
g69
(g70
g71
NtRp1172
(dp1173
g74
(dp1174
g82
I3
ssg83
g1168
sg76
(lp1175
S''
asbasbasbag69
(g85
g71
NtRp1176
(dp1177
g74
(dp1178
sg83
g1072
sg76
(lp1179
g69
(g90
g71
NtRp1180
(dp1181
g74
(dp1182
g94
g95
ssg83
g1176
sg76
(lp1183
g437
asbag69
(g90
g71
NtRp1184
(dp1185
g74
(dp1186
g101
g102
ssg83
g1176
sg76
(lp1187
S':'
asbag69
(g90
g71
NtRp1188
(dp1189
g74
(dp1190
sg83
g1176
sg76
(lp1191
g69
(g70
g71
NtRp1192
(dp1193
g74
(dp1194
g82
I3
ssg83
g1188
sg76
(lp1195
S''
asbasbasbag69
(g85
g71
NtRp1196
(dp1197
g74
(dp1198
sg83
g1072
sg76
(lp1199
g69
(g90
g71
NtRp1200
(dp1201
g74
(dp1202
g94
g95
ssg83
g1196
sg76
(lp1203
g458
asbag69
(g90
g71
NtRp1204
(dp1205
g74
(dp1206
g101
g102
ssg83
g1196
sg76
(lp1207
S':'
asbag69
(g90
g71
NtRp1208
(dp1209
g74
(dp1210
sg83
g1196
sg76
(lp1211
g69
(g70
g71
NtRp1212
(dp1213
g74
(dp1214
g82
I3
ssg83
g1208
sg76
(lp1215
S''
asbasbasbag69
(g85
g71
NtRp1216
(dp1217
g74
(dp1218
sg83
g1072
sg76
(lp1219
g69
(g90
g71
NtRp1220
(dp1221
g74
(dp1222
g94
g95
ssg83
g1216
sg76
(lp1223
g479
asbag69
(g90
g71
NtRp1224
(dp1225
g74
(dp1226
g101
g102
ssg83
g1216
sg76
(lp1227
S':'
asbag69
(g90
g71
NtRp1228
(dp1229
g74
(dp1230
sg83
g1216
sg76
(lp1231
g69
(g70
g71
NtRp1232
(dp1233
g74
(dp1234
g82
I3
ssg83
g1228
sg76
(lp1235
S''
asbasbasbasbasbasbasbag69
(g85
g71
NtRp1236
(dp1237
g74
(dp1238
sg83
g294
sg76
(lp1239
g69
(g90
g71
NtRp1240
(dp1241
g74
(dp1242
g94
g95
ssg83
g1236
sg76
(lp1243
S'session_id_welcome'
p1244
asbag69
(g90
g71
NtRp1245
(dp1246
g74
(dp1247
g101
g102
ssg83
g1236
sg76
(lp1248
S':'
asbag69
(g90
g71
NtRp1249
(dp1250
g74
(dp1251
sg83
g1236
sg76
(lp1252
g69
(g70
g71
NtRp1253
(dp1254
g74
(dp1255
g82
I4
ssg83
g1249
sg76
(lp1256
S'127.0.0.1-9c7bb553-b7cb-4343-8d32-a78739900983'
p1257
ag69
(g78
g71
NtRp1258
(dp1259
g74
(dp1260
g82
I3
ssg83
Nsg76
(lp1261
g69
(g85
g71
NtRp1262
(dp1263
g74
(dp1264
sg83
g1258
sg76
(lp1265
g69
(g90
g71
NtRp1266
(dp1267
g74
(dp1268
g94
g95
ssg83
g1262
sg76
(lp1269
g332
asbag69
(g90
g71
NtRp1270
(dp1271
g74
(dp1272
g101
g102
ssg83
g1262
sg76
(lp1273
S':'
asbag69
(g90
g71
NtRp1274
(dp1275
g74
(dp1276
sg83
g1262
sg76
(lp1277
g69
(g70
g71
NtRp1278
(dp1279
g74
(dp1280
g82
I3
ssg83
g1274
sg76
(lp1281
S''
asbasbasbag69
(g85
g71
NtRp1282
(dp1283
g74
(dp1284
sg83
g1258
sg76
(lp1285
g69
(g90
g71
NtRp1286
(dp1287
g74
(dp1288
g94
g95
ssg83
g1282
sg76
(lp1289
g353
asbag69
(g90
g71
NtRp1290
(dp1291
g74
(dp1292
g101
g102
ssg83
g1282
sg76
(lp1293
S':'
asbag69
(g90
g71
NtRp1294
(dp1295
g74
(dp1296
sg83
g1282
sg76
(lp1297
g69
(g70
g71
NtRp1298
(dp1299
g74
(dp1300
g82
I3
ssg83
g1294
sg76
(lp1301
S''
asbasbasbag69
(g85
g71
NtRp1302
(dp1303
g74
(dp1304
sg83
g1258
sg76
(lp1305
g69
(g90
g71
NtRp1306
(dp1307
g74
(dp1308
g94
g95
ssg83
g1302
sg76
(lp1309
g374
asbag69
(g90
g71
NtRp1310
(dp1311
g74
(dp1312
g101
g102
ssg83
g1302
sg76
(lp1313
S':'
asbag69
(g90
g71
NtRp1314
(dp1315
g74
(dp1316
sg83
g1302
sg76
(lp1317
g69
(g70
g71
NtRp1318
(dp1319
g74
(dp1320
g82
I3
ssg83
g1314
sg76
(lp1321
S''
asbasbasbag69
(g85
g71
NtRp1322
(dp1323
g74
(dp1324
sg83
g1258
sg76
(lp1325
g69
(g90
g71
NtRp1326
(dp1327
g74
(dp1328
g94
g95
ssg83
g1322
sg76
(lp1329
g395
asbag69
(g90
g71
NtRp1330
(dp1331
g74
(dp1332
g101
g102
ssg83
g1322
sg76
(lp1333
S':'
asbag69
(g90
g71
NtRp1334
(dp1335
g74
(dp1336
sg83
g1322
sg76
(lp1337
g69
(g70
g71
NtRp1338
(dp1339
g74
(dp1340
g82
I3
ssg83
g1334
sg76
(lp1341
S''
asbasbasbag69
(g85
g71
NtRp1342
(dp1343
g74
(dp1344
sg83
g1258
sg76
(lp1345
g69
(g90
g71
NtRp1346
(dp1347
g74
(dp1348
g94
g95
ssg83
g1342
sg76
(lp1349
g416
asbag69
(g90
g71
NtRp1350
(dp1351
g74
(dp1352
g101
g102
ssg83
g1342
sg76
(lp1353
S':'
asbag69
(g90
g71
NtRp1354
(dp1355
g74
(dp1356
sg83
g1342
sg76
(lp1357
g69
(g70
g71
NtRp1358
(dp1359
g74
(dp1360
g82
I3
ssg83
g1354
sg76
(lp1361
S''
asbasbasbag69
(g85
g71
NtRp1362
(dp1363
g74
(dp1364
sg83
g1258
sg76
(lp1365
g69
(g90
g71
NtRp1366
(dp1367
g74
(dp1368
g94
g95
ssg83
g1362
sg76
(lp1369
g437
asbag69
(g90
g71
NtRp1370
(dp1371
g74
(dp1372
g101
g102
ssg83
g1362
sg76
(lp1373
S':'
asbag69
(g90
g71
NtRp1374
(dp1375
g74
(dp1376
sg83
g1362
sg76
(lp1377
g69
(g70
g71
NtRp1378
(dp1379
g74
(dp1380
g82
I3
ssg83
g1374
sg76
(lp1381
S''
asbasbasbag69
(g85
g71
NtRp1382
(dp1383
g74
(dp1384
sg83
g1258
sg76
(lp1385
g69
(g90
g71
NtRp1386
(dp1387
g74
(dp1388
g94
g95
ssg83
g1382
sg76
(lp1389
g458
asbag69
(g90
g71
NtRp1390
(dp1391
g74
(dp1392
g101
g102
ssg83
g1382
sg76
(lp1393
S':'
asbag69
(g90
g71
NtRp1394
(dp1395
g74
(dp1396
sg83
g1382
sg76
(lp1397
g69
(g70
g71
NtRp1398
(dp1399
g74
(dp1400
g82
I3
ssg83
g1394
sg76
(lp1401
S''
asbasbasbag69
(g85
g71
NtRp1402
(dp1403
g74
(dp1404
sg83
g1258
sg76
(lp1405
g69
(g90
g71
NtRp1406
(dp1407
g74
(dp1408
g94
g95
ssg83
g1402
sg76
(lp1409
g479
asbag69
(g90
g71
NtRp1410
(dp1411
g74
(dp1412
g101
g102
ssg83
g1402
sg76
(lp1413
S':'
asbag69
(g90
g71
NtRp1414
(dp1415
g74
(dp1416
sg83
g1402
sg76
(lp1417
g69
(g70
g71
NtRp1418
(dp1419
g74
(dp1420
g82
I3
ssg83
g1414
sg76
(lp1421
S''
asbasbasbasbasbasbasbasbasbasbasbag69
(g85
g71
NtRp1422
(dp1423
g74
(dp1424
sg83
g79
sg76
(lp1425
g69
(g90
g71
NtRp1426
(dp1427
g74
(dp1428
g94
g95
ssg83
g1422
sg76
(lp1429
S'env'
p1430
asbag69
(g90
g71
NtRp1431
(dp1432
g74
(dp1433
g101
g102
ssg83
g1422
sg76
(lp1434
S':'
asbag69
(g90
g71
NtRp1435
(dp1436
g74
(dp1437
sg83
g1422
sg76
(lp1438
g69
(g70
g71
NtRp1439
(dp1440
g74
(dp1441
g82
I5
ssg83
g1435
sg76
(lp1442
g69
(g78
g71
NtRp1443
(dp1444
g74
(dp1445
g82
I4
ssg83
Nsg76
(lp1446
g69
(g85
g71
NtRp1447
(dp1448
g74
(dp1449
sg83
g1443
sg76
(lp1450
g69
(g90
g71
NtRp1451
(dp1452
g74
(dp1453
g94
g95
ssg83
g1447
sg76
(lp1454
S'app_folders'
p1455
asbag69
(g90
g71
NtRp1456
(dp1457
g74
(dp1458
g101
g102
ssg83
g1447
sg76
(lp1459
S':'
asbag69
(g90
g71
NtRp1460
(dp1461
g74
(dp1462
sg83
g1447
sg76
(lp1463
g69
(g70
g71
NtRp1464
(dp1465
g74
(dp1466
g82
I4
ssg83
g1460
sg76
(lp1467
S"set(['/home/pratyush/web2py/applications/db_project/', '/home/pratyush/web2py/applications/outreach/', '/home/pratyush/web2py/applications/welcome/', '/home/pratyush/web2py/applications/music_library/', '/home/pratyush/web2py/applications/examples/', '/home/pratyush/web2py/applications/BuySell/', '/home/pratyush/web2py/applications/admin/'])"
p1468
asbasbasbag69
(g85
g71
NtRp1469
(dp1470
g74
(dp1471
sg83
g1443
sg76
(lp1472
g69
(g90
g71
NtRp1473
(dp1474
g74
(dp1475
g94
g95
ssg83
g1469
sg76
(lp1476
S'applications_parent'
p1477
asbag69
(g90
g71
NtRp1478
(dp1479
g74
(dp1480
g101
g102
ssg83
g1469
sg76
(lp1481
S':'
asbag69
(g90
g71
NtRp1482
(dp1483
g74
(dp1484
sg83
g1469
sg76
(lp1485
g69
(g70
g71
NtRp1486
(dp1487
g74
(dp1488
g82
I4
ssg83
g1482
sg76
(lp1489
S'/home/pratyush/web2py'
p1490
asbasbasbag69
(g85
g71
NtRp1491
(dp1492
g74
(dp1493
sg83
g1443
sg76
(lp1494
g69
(g90
g71
NtRp1495
(dp1496
g74
(dp1497
g94
g95
ssg83
g1491
sg76
(lp1498
S'cmd_args'
p1499
asbag69
(g90
g71
NtRp1500
(dp1501
g74
(dp1502
g101
g102
ssg83
g1491
sg76
(lp1503
S':'
asbag69
(g90
g71
NtRp1504
(dp1505
g74
(dp1506
sg83
g1491
sg76
(lp1507
g69
(g70
g71
NtRp1508
(dp1509
g74
(dp1510
g82
I4
ssg83
g1504
sg76
(lp1511
g69
(g78
g71
NtRp1512
(dp1513
g74
(dp1514
g82
I3
ssg83
Nsg76
(lp1515
sbasbasbasbag69
(g85
g71
NtRp1516
(dp1517
g74
(dp1518
sg83
g1443
sg76
(lp1519
g69
(g90
g71
NtRp1520
(dp1521
g74
(dp1522
g94
g95
ssg83
g1516
sg76
(lp1523
S'cmd_options'
p1524
asbag69
(g90
g71
NtRp1525
(dp1526
g74
(dp1527
g101
g102
ssg83
g1516
sg76
(lp1528
S':'
asbag69
(g90
g71
NtRp1529
(dp1530
g74
(dp1531
sg83
g1516
sg76
(lp1532
g69
(g70
g71
NtRp1533
(dp1534
g74
(dp1535
g82
I4
ssg83
g1529
sg76
(lp1536
S"<Values at 0xa526b0c: {'verbose': False, 'ip': '127.0.0.1', 'with_scheduler': False, 'ips': [], 'shutdown_timeout': 5, 'taskbar': False, 'port': 8001, 'maxthreads': None, 'softcron': False, 'server_name': 'alanzak', 'bpython': False, 'nogui': False, 'pid_filename': 'httpserver.pid', 'extcron': False, 'runcron': False, 'run_system_tests': False, 'test': None, 'folder': '/home/pratyush/web2py', 'config': '', 'import_models': False, 'winservice': '', 'shell': None, 'run': '', 'log_filename': 'httpserver.log', 'debuglevel': 30, 'args': [''], 'socket_timeout': 5, 'ssl_ca_certificate': None, 'scheduler': None, 'profiler_filename': None, 'ssl_private_key': '', 'scheduler_groups': None, 'password': '1', 'request_queue_size': 5, 'ssl_certificate': '', 'cronjob': False, 'numthreads': None, 'quiet': False, 'interfaces': None, 'minthreads': None, 'timeout': 10, 'plain': False, 'nobanner': False}>"
p1537
asbasbasbag69
(g85
g71
NtRp1538
(dp1539
g74
(dp1540
sg83
g1443
sg76
(lp1541
g69
(g90
g71
NtRp1542
(dp1543
g74
(dp1544
g94
g95
ssg83
g1538
sg76
(lp1545
S'db_sessions'
p1546
asbag69
(g90
g71
NtRp1547
(dp1548
g74
(dp1549
g101
g102
ssg83
g1538
sg76
(lp1550
S':'
asbag69
(g90
g71
NtRp1551
(dp1552
g74
(dp1553
sg83
g1538
sg76
(lp1554
g69
(g70
g71
NtRp1555
(dp1556
g74
(dp1557
g82
I4
ssg83
g1551
sg76
(lp1558
S'set([])'
p1559
asbasbasbag69
(g85
g71
NtRp1560
(dp1561
g74
(dp1562
sg83
g1443
sg76
(lp1563
g69
(g90
g71
NtRp1564
(dp1565
g74
(dp1566
g94
g95
ssg83
g1560
sg76
(lp1567
S'debugging'
p1568
asbag69
(g90
g71
NtRp1569
(dp1570
g74
(dp1571
g101
g102
ssg83
g1560
sg76
(lp1572
S':'
asbag69
(g90
g71
NtRp1573
(dp1574
g74
(dp1575
sg83
g1560
sg76
(lp1576
g69
(g70
g71
NtRp1577
(dp1578
g74
(dp1579
g82
I4
ssg83
g1573
sg76
(lp1580
g112
asbasbasbag69
(g85
g71
NtRp1581
(dp1582
g74
(dp1583
sg83
g1443
sg76
(lp1584
g69
(g90
g71
NtRp1585
(dp1586
g74
(dp1587
g94
g95
ssg83
g1581
sg76
(lp1588
S'gluon_parent'
p1589
asbag69
(g90
g71
NtRp1590
(dp1591
g74
(dp1592
g101
g102
ssg83
g1581
sg76
(lp1593
S':'
asbag69
(g90
g71
NtRp1594
(dp1595
g74
(dp1596
sg83
g1581
sg76
(lp1597
g69
(g70
g71
NtRp1598
(dp1599
g74
(dp1600
g82
I4
ssg83
g1594
sg76
(lp1601
S'/home/pratyush/web2py'
p1602
asbasbasbag69
(g85
g71
NtRp1603
(dp1604
g74
(dp1605
sg83
g1443
sg76
(lp1606
g69
(g90
g71
NtRp1607
(dp1608
g74
(dp1609
g94
g95
ssg83
g1603
sg76
(lp1610
S'http_accept'
p1611
asbag69
(g90
g71
NtRp1612
(dp1613
g74
(dp1614
g101
g102
ssg83
g1603
sg76
(lp1615
S':'
asbag69
(g90
g71
NtRp1616
(dp1617
g74
(dp1618
sg83
g1603
sg76
(lp1619
g69
(g70
g71
NtRp1620
(dp1621
g74
(dp1622
g82
I4
ssg83
g1616
sg76
(lp1623
S'text/html,application/xhtml+xml,application/xml;q=0.9,*/*;q=0.8'
p1624
asbasbasbag69
(g85
g71
NtRp1625
(dp1626
g74
(dp1627
sg83
g1443
sg76
(lp1628
g69
(g90
g71
NtRp1629
(dp1630
g74
(dp1631
g94
g95
ssg83
g1625
sg76
(lp1632
S'http_accept_charset'
p1633
asbag69
(g90
g71
NtRp1634
(dp1635
g74
(dp1636
g101
g102
ssg83
g1625
sg76
(lp1637
S':'
asbag69
(g90
g71
NtRp1638
(dp1639
g74
(dp1640
sg83
g1625
sg76
(lp1641
g69
(g70
g71
NtRp1642
(dp1643
g74
(dp1644
g82
I4
ssg83
g1638
sg76
(lp1645
S'ISO-8859-1,utf-8;q=0.7,*;q=0.3'
p1646
asbasbasbag69
(g85
g71
NtRp1647
(dp1648
g74
(dp1649
sg83
g1443
sg76
(lp1650
g69
(g90
g71
NtRp1651
(dp1652
g74
(dp1653
g94
g95
ssg83
g1647
sg76
(lp1654
S'http_accept_encoding'
p1655
asbag69
(g90
g71
NtRp1656
(dp1657
g74
(dp1658
g101
g102
ssg83
g1647
sg76
(lp1659
S':'
asbag69
(g90
g71
NtRp1660
(dp1661
g74
(dp1662
sg83
g1647
sg76
(lp1663
g69
(g70
g71
NtRp1664
(dp1665
g74
(dp1666
g82
I4
ssg83
g1660
sg76
(lp1667
S'gzip,deflate,sdch'
p1668
asbasbasbag69
(g85
g71
NtRp1669
(dp1670
g74
(dp1671
sg83
g1443
sg76
(lp1672
g69
(g90
g71
NtRp1673
(dp1674
g74
(dp1675
g94
g95
ssg83
g1669
sg76
(lp1676
S'http_accept_language'
p1677
asbag69
(g90
g71
NtRp1678
(dp1679
g74
(dp1680
g101
g102
ssg83
g1669
sg76
(lp1681
S':'
asbag69
(g90
g71
NtRp1682
(dp1683
g74
(dp1684
sg83
g1669
sg76
(lp1685
g69
(g70
g71
NtRp1686
(dp1687
g74
(dp1688
g82
I4
ssg83
g1682
sg76
(lp1689
S'en-US,en;q=0.8'
p1690
asbasbasbag69
(g85
g71
NtRp1691
(dp1692
g74
(dp1693
sg83
g1443
sg76
(lp1694
g69
(g90
g71
NtRp1695
(dp1696
g74
(dp1697
g94
g95
ssg83
g1691
sg76
(lp1698
S'http_cache_control'
p1699
asbag69
(g90
g71
NtRp1700
(dp1701
g74
(dp1702
g101
g102
ssg83
g1691
sg76
(lp1703
S':'
asbag69
(g90
g71
NtRp1704
(dp1705
g74
(dp1706
sg83
g1691
sg76
(lp1707
g69
(g70
g71
NtRp1708
(dp1709
g74
(dp1710
g82
I4
ssg83
g1704
sg76
(lp1711
S'max-age=0'
p1712
asbasbasbag69
(g85
g71
NtRp1713
(dp1714
g74
(dp1715
sg83
g1443
sg76
(lp1716
g69
(g90
g71
NtRp1717
(dp1718
g74
(dp1719
g94
g95
ssg83
g1713
sg76
(lp1720
S'http_connection'
p1721
asbag69
(g90
g71
NtRp1722
(dp1723
g74
(dp1724
g101
g102
ssg83
g1713
sg76
(lp1725
S':'
asbag69
(g90
g71
NtRp1726
(dp1727
g74
(dp1728
sg83
g1713
sg76
(lp1729
g69
(g70
g71
NtRp1730
(dp1731
g74
(dp1732
g82
I4
ssg83
g1726
sg76
(lp1733
S'keep-alive'
p1734
asbasbasbag69
(g85
g71
NtRp1735
(dp1736
g74
(dp1737
sg83
g1443
sg76
(lp1738
g69
(g90
g71
NtRp1739
(dp1740
g74
(dp1741
g94
g95
ssg83
g1735
sg76
(lp1742
S'http_cookie'
p1743
asbag69
(g90
g71
NtRp1744
(dp1745
g74
(dp1746
g101
g102
ssg83
g1735
sg76
(lp1747
S':'
asbag69
(g90
g71
NtRp1748
(dp1749
g74
(dp1750
sg83
g1735
sg76
(lp1751
g69
(g70
g71
NtRp1752
(dp1753
g74
(dp1754
g82
I4
ssg83
g1748
sg76
(lp1755
S'registered=yes; session_id_outreach=127.0.0.1-00c3bb02-539e-4bc1-ab10-e3c500bd1248; session_id_welcome=127.0.0.1-9c7bb553-b7cb-4343-8d32-a78739900983; session_id_music_library=127.0.0.1-dd9b4880-33cf-4894-a8a9-2640c5c78a01; session_id_admin=127.0.0.1-5c3e6318-3a14-4ff1-97a6-1063e44c4cd9; session_id_buysell=127.0.0.1-d5a07803-4f5c-44c8-b05d-2876d30ca822'
p1756
asbasbasbag69
(g85
g71
NtRp1757
(dp1758
g74
(dp1759
sg83
g1443
sg76
(lp1760
g69
(g90
g71
NtRp1761
(dp1762
g74
(dp1763
g94
g95
ssg83
g1757
sg76
(lp1764
S'http_host'
p1765
asbag69
(g90
g71
NtRp1766
(dp1767
g74
(dp1768
g101
g102
ssg83
g1757
sg76
(lp1769
S':'
asbag69
(g90
g71
NtRp1770
(dp1771
g74
(dp1772
sg83
g1757
sg76
(lp1773
g69
(g70
g71
NtRp1774
(dp1775
g74
(dp1776
g82
I4
ssg83
g1770
sg76
(lp1777
S'127.0.0.1:8001'
p1778
asbasbasbag69
(g85
g71
NtRp1779
(dp1780
g74
(dp1781
sg83
g1443
sg76
(lp1782
g69
(g90
g71
NtRp1783
(dp1784
g74
(dp1785
g94
g95
ssg83
g1779
sg76
(lp1786
S'http_referer'
p1787
asbag69
(g90
g71
NtRp1788
(dp1789
g74
(dp1790
g101
g102
ssg83
g1779
sg76
(lp1791
S':'
asbag69
(g90
g71
NtRp1792
(dp1793
g74
(dp1794
sg83
g1779
sg76
(lp1795
g69
(g70
g71
NtRp1796
(dp1797
g74
(dp1798
g82
I4
ssg83
g1792
sg76
(lp1799
S'http://127.0.0.1:8001/BuySell/appadmin/select/db'
p1800
asbasbasbag69
(g85
g71
NtRp1801
(dp1802
g74
(dp1803
sg83
g1443
sg76
(lp1804
g69
(g90
g71
NtRp1805
(dp1806
g74
(dp1807
g94
g95
ssg83
g1801
sg76
(lp1808
S'http_user_agent'
p1809
asbag69
(g90
g71
NtRp1810
(dp1811
g74
(dp1812
g101
g102
ssg83
g1801
sg76
(lp1813
S':'
asbag69
(g90
g71
NtRp1814
(dp1815
g74
(dp1816
sg83
g1801
sg76
(lp1817
g69
(g70
g71
NtRp1818
(dp1819
g74
(dp1820
g82
I4
ssg83
g1814
sg76
(lp1821
S'Mozilla/5.0 (X11; Linux i686) AppleWebKit/537.4 (KHTML, like Gecko) Chrome/22.0.1229.79 Safari/537.4'
p1822
asbasbasbag69
(g85
g71
NtRp1823
(dp1824
g74
(dp1825
sg83
g1443
sg76
(lp1826
g69
(g90
g71
NtRp1827
(dp1828
g74
(dp1829
g94
g95
ssg83
g1823
sg76
(lp1830
S'is_jython'
p1831
asbag69
(g90
g71
NtRp1832
(dp1833
g74
(dp1834
g101
g102
ssg83
g1823
sg76
(lp1835
S':'
asbag69
(g90
g71
NtRp1836
(dp1837
g74
(dp1838
sg83
g1823
sg76
(lp1839
g69
(g70
g71
NtRp1840
(dp1841
g74
(dp1842
g82
I4
ssg83
g1836
sg76
(lp1843
g112
asbasbasbag69
(g85
g71
NtRp1844
(dp1845
g74
(dp1846
sg83
g1443
sg76
(lp1847
g69
(g90
g71
NtRp1848
(dp1849
g74
(dp1850
g94
g95
ssg83
g1844
sg76
(lp1851
S'is_pypy'
p1852
asbag69
(g90
g71
NtRp1853
(dp1854
g74
(dp1855
g101
g102
ssg83
g1844
sg76
(lp1856
S':'
asbag69
(g90
g71
NtRp1857
(dp1858
g74
(dp1859
sg83
g1844
sg76
(lp1860
g69
(g70
g71
NtRp1861
(dp1862
g74
(dp1863
g82
I4
ssg83
g1857
sg76
(lp1864
g112
asbasbasbag69
(g85
g71
NtRp1865
(dp1866
g74
(dp1867
sg83
g1443
sg76
(lp1868
g69
(g90
g71
NtRp1869
(dp1870
g74
(dp1871
g94
g95
ssg83
g1865
sg76
(lp1872
S'local_hosts'
p1873
asbag69
(g90
g71
NtRp1874
(dp1875
g74
(dp1876
g101
g102
ssg83
g1865
sg76
(lp1877
S':'
asbag69
(g90
g71
NtRp1878
(dp1879
g74
(dp1880
sg83
g1865
sg76
(lp1881
g69
(g70
g71
NtRp1882
(dp1883
g74
(dp1884
g82
I4
ssg83
g1878
sg76
(lp1885
g69
(g78
g71
NtRp1886
(dp1887
g74
(dp1888
g82
I3
ssg83
Nsg76
(lp1889
g69
(g85
g71
NtRp1890
(dp1891
g74
(dp1892
sg83
g1886
sg76
(lp1893
g69
(g90
g71
NtRp1894
(dp1895
g74
(dp1896
sg83
g1890
sg76
(lp1897
g69
(g70
g71
NtRp1898
(dp1899
g74
(dp1900
g82
I3
ssg83
g1894
sg76
(lp1901
S'127.0.1.1'
p1902
asbasbasbag69
(g85
g71
NtRp1903
(dp1904
g74
(dp1905
sg83
g1886
sg76
(lp1906
g69
(g90
g71
NtRp1907
(dp1908
g74
(dp1909
sg83
g1903
sg76
(lp1910
g69
(g70
g71
NtRp1911
(dp1912
g74
(dp1913
g82
I3
ssg83
g1907
sg76
(lp1914
S'::1'
p1915
asbasbasbag69
(g85
g71
NtRp1916
(dp1917
g74
(dp1918
sg83
g1886
sg76
(lp1919
g69
(g90
g71
NtRp1920
(dp1921
g74
(dp1922
sg83
g1916
sg76
(lp1923
g69
(g70
g71
NtRp1924
(dp1925
g74
(dp1926
g82
I3
ssg83
g1920
sg76
(lp1927
S'alanzak'
p1928
asbasbasbag69
(g85
g71
NtRp1929
(dp1930
g74
(dp1931
sg83
g1886
sg76
(lp1932
g69
(g90
g71
NtRp1933
(dp1934
g74
(dp1935
sg83
g1929
sg76
(lp1936
g69
(g70
g71
NtRp1937
(dp1938
g74
(dp1939
g82
I3
ssg83
g1933
sg76
(lp1940
S'::ffff:127.0.0.1'
p1941
asbasbasbag69
(g85
g71
NtRp1942
(dp1943
g74
(dp1944
sg83
g1886
sg76
(lp1945
g69
(g90
g71
NtRp1946
(dp1947
g74
(dp1948
sg83
g1942
sg76
(lp1949
g69
(g70
g71
NtRp1950
(dp1951
g74
(dp1952
g82
I3
ssg83
g1946
sg76
(lp1953
S'127.0.0.1'
p1954
asbasbasbasbasbasbasbag69
(g85
g71
NtRp1955
(dp1956
g74
(dp1957
sg83
g1443
sg76
(lp1958
g69
(g90
g71
NtRp1959
(dp1960
g74
(dp1961
g94
g95
ssg83
g1955
sg76
(lp1962
S'path_info'
p1963
asbag69
(g90
g71
NtRp1964
(dp1965
g74
(dp1966
g101
g102
ssg83
g1955
sg76
(lp1967
S':'
asbag69
(g90
g71
NtRp1968
(dp1969
g74
(dp1970
sg83
g1955
sg76
(lp1971
g69
(g70
g71
NtRp1972
(dp1973
g74
(dp1974
g82
I4
ssg83
g1968
sg76
(lp1975
S'/BuySell/appadmin/insert/db/item'
p1976
asbasbasbag69
(g85
g71
NtRp1977
(dp1978
g74
(dp1979
sg83
g1443
sg76
(lp1980
g69
(g90
g71
NtRp1981
(dp1982
g74
(dp1983
g94
g95
ssg83
g1977
sg76
(lp1984
S'query_string'
p1985
asbag69
(g90
g71
NtRp1986
(dp1987
g74
(dp1988
g101
g102
ssg83
g1977
sg76
(lp1989
S':'
asbag69
(g90
g71
NtRp1990
(dp1991
g74
(dp1992
sg83
g1977
sg76
(lp1993
g69
(g70
g71
NtRp1994
(dp1995
g74
(dp1996
g82
I4
ssg83
g1990
sg76
(lp1997
S''
asbasbasbag69
(g85
g71
NtRp1998
(dp1999
g74
(dp2000
sg83
g1443
sg76
(lp2001
g69
(g90
g71
NtRp2002
(dp2003
g74
(dp2004
g94
g95
ssg83
g1998
sg76
(lp2005
S'remote_addr'
p2006
asbag69
(g90
g71
NtRp2007
(dp2008
g74
(dp2009
g101
g102
ssg83
g1998
sg76
(lp2010
S':'
asbag69
(g90
g71
NtRp2011
(dp2012
g74
(dp2013
sg83
g1998
sg76
(lp2014
g69
(g70
g71
NtRp2015
(dp2016
g74
(dp2017
g82
I4
ssg83
g2011
sg76
(lp2018
g250
asbasbasbag69
(g85
g71
NtRp2019
(dp2020
g74
(dp2021
sg83
g1443
sg76
(lp2022
g69
(g90
g71
NtRp2023
(dp2024
g74
(dp2025
g94
g95
ssg83
g2019
sg76
(lp2026
S'remote_port'
p2027
asbag69
(g90
g71
NtRp2028
(dp2029
g74
(dp2030
g101
g102
ssg83
g2019
sg76
(lp2031
S':'
asbag69
(g90
g71
NtRp2032
(dp2033
g74
(dp2034
sg83
g2019
sg76
(lp2035
g69
(g70
g71
NtRp2036
(dp2037
g74
(dp2038
g82
I4
ssg83
g2032
sg76
(lp2039
S'35266'
p2040
asbasbasbag69
(g85
g71
NtRp2041
(dp2042
g74
(dp2043
sg83
g1443
sg76
(lp2044
g69
(g90
g71
NtRp2045
(dp2046
g74
(dp2047
g94
g95
ssg83
g2041
sg76
(lp2048
S'request_method'
p2049
asbag69
(g90
g71
NtRp2050
(dp2051
g74
(dp2052
g101
g102
ssg83
g2041
sg76
(lp2053
S':'
asbag69
(g90
g71
NtRp2054
(dp2055
g74
(dp2056
sg83
g2041
sg76
(lp2057
g69
(g70
g71
NtRp2058
(dp2059
g74
(dp2060
g82
I4
ssg83
g2054
sg76
(lp2061
S'GET'
p2062
asbasbasbag69
(g85
g71
NtRp2063
(dp2064
g74
(dp2065
sg83
g1443
sg76
(lp2066
g69
(g90
g71
NtRp2067
(dp2068
g74
(dp2069
g94
g95
ssg83
g2063
sg76
(lp2070
S'request_uri'
p2071
asbag69
(g90
g71
NtRp2072
(dp2073
g74
(dp2074
g101
g102
ssg83
g2063
sg76
(lp2075
S':'
asbag69
(g90
g71
NtRp2076
(dp2077
g74
(dp2078
sg83
g2063
sg76
(lp2079
g69
(g70
g71
NtRp2080
(dp2081
g74
(dp2082
g82
I4
ssg83
g2076
sg76
(lp2083
g1976
asbasbasbag69
(g85
g71
NtRp2084
(dp2085
g74
(dp2086
sg83
g1443
sg76
(lp2087
g69
(g90
g71
NtRp2088
(dp2089
g74
(dp2090
g94
g95
ssg83
g2084
sg76
(lp2091
S'script_name'
p2092
asbag69
(g90
g71
NtRp2093
(dp2094
g74
(dp2095
g101
g102
ssg83
g2084
sg76
(lp2096
S':'
asbag69
(g90
g71
NtRp2097
(dp2098
g74
(dp2099
sg83
g2084
sg76
(lp2100
g69
(g70
g71
NtRp2101
(dp2102
g74
(dp2103
g82
I4
ssg83
g2097
sg76
(lp2104
S''
asbasbasbag69
(g85
g71
NtRp2105
(dp2106
g74
(dp2107
sg83
g1443
sg76
(lp2108
g69
(g90
g71
NtRp2109
(dp2110
g74
(dp2111
g94
g95
ssg83
g2105
sg76
(lp2112
S'server_name'
p2113
asbag69
(g90
g71
NtRp2114
(dp2115
g74
(dp2116
g101
g102
ssg83
g2105
sg76
(lp2117
S':'
asbag69
(g90
g71
NtRp2118
(dp2119
g74
(dp2120
sg83
g2105
sg76
(lp2121
g69
(g70
g71
NtRp2122
(dp2123
g74
(dp2124
g82
I4
ssg83
g2118
sg76
(lp2125
S'alanzak'
p2126
asbasbasbag69
(g85
g71
NtRp2127
(dp2128
g74
(dp2129
sg83
g1443
sg76
(lp2130
g69
(g90
g71
NtRp2131
(dp2132
g74
(dp2133
g94
g95
ssg83
g2127
sg76
(lp2134
S'server_port'
p2135
asbag69
(g90
g71
NtRp2136
(dp2137
g74
(dp2138
g101
g102
ssg83
g2127
sg76
(lp2139
S':'
asbag69
(g90
g71
NtRp2140
(dp2141
g74
(dp2142
sg83
g2127
sg76
(lp2143
g69
(g70
g71
NtRp2144
(dp2145
g74
(dp2146
g82
I4
ssg83
g2140
sg76
(lp2147
S'8001'
p2148
asbasbasbag69
(g85
g71
NtRp2149
(dp2150
g74
(dp2151
sg83
g1443
sg76
(lp2152
g69
(g90
g71
NtRp2153
(dp2154
g74
(dp2155
g94
g95
ssg83
g2149
sg76
(lp2156
S'server_protocol'
p2157
asbag69
(g90
g71
NtRp2158
(dp2159
g74
(dp2160
g101
g102
ssg83
g2149
sg76
(lp2161
S':'
asbag69
(g90
g71
NtRp2162
(dp2163
g74
(dp2164
sg83
g2149
sg76
(lp2165
g69
(g70
g71
NtRp2166
(dp2167
g74
(dp2168
g82
I4
ssg83
g2162
sg76
(lp2169
S'HTTP/1.1'
p2170
asbasbasbag69
(g85
g71
NtRp2171
(dp2172
g74
(dp2173
sg83
g1443
sg76
(lp2174
g69
(g90
g71
NtRp2175
(dp2176
g74
(dp2177
g94
g95
ssg83
g2171
sg76
(lp2178
S'server_software'
p2179
asbag69
(g90
g71
NtRp2180
(dp2181
g74
(dp2182
g101
g102
ssg83
g2171
sg76
(lp2183
S':'
asbag69
(g90
g71
NtRp2184
(dp2185
g74
(dp2186
sg83
g2171
sg76
(lp2187
g69
(g70
g71
NtRp2188
(dp2189
g74
(dp2190
g82
I4
ssg83
g2184
sg76
(lp2191
S'Rocket 1.2.6'
p2192
asbasbasbag69
(g85
g71
NtRp2193
(dp2194
g74
(dp2195
sg83
g1443
sg76
(lp2196
g69
(g90
g71
NtRp2197
(dp2198
g74
(dp2199
g94
g95
ssg83
g2193
sg76
(lp2200
S'web2py_path'
p2201
asbag69
(g90
g71
NtRp2202
(dp2203
g74
(dp2204
g101
g102
ssg83
g2193
sg76
(lp2205
S':'
asbag69
(g90
g71
NtRp2206
(dp2207
g74
(dp2208
sg83
g2193
sg76
(lp2209
g69
(g70
g71
NtRp2210
(dp2211
g74
(dp2212
g82
I4
ssg83
g2206
sg76
(lp2213
g1490
asbasbasbag69
(g85
g71
NtRp2214
(dp2215
g74
(dp2216
sg83
g1443
sg76
(lp2217
g69
(g90
g71
NtRp2218
(dp2219
g74
(dp2220
g94
g95
ssg83
g2214
sg76
(lp2221
S'web2py_version'
p2222
asbag69
(g90
g71
NtRp2223
(dp2224
g74
(dp2225
g101
g102
ssg83
g2214
sg76
(lp2226
S':'
asbag69
(g90
g71
NtRp2227
(dp2228
g74
(dp2229
sg83
g2214
sg76
(lp2230
g69
(g70
g71
NtRp2231
(dp2232
g74
(dp2233
g82
I4
ssg83
g2227
sg76
(lp2234
g69
(g78
g71
NtRp2235
(dp2236
g74
(dp2237
g82
I3
ssg83
Nsg76
(lp2238
g69
(g85
g71
NtRp2239
(dp2240
g74
(dp2241
sg83
g2235
sg76
(lp2242
g69
(g90
g71
NtRp2243
(dp2244
g74
(dp2245
sg83
g2239
sg76
(lp2246
g69
(g70
g71
NtRp2247
(dp2248
g74
(dp2249
g82
I3
ssg83
g2243
sg76
(lp2250
S'2'
asbasbasbag69
(g85
g71
NtRp2251
(dp2252
g74
(dp2253
sg83
g2235
sg76
(lp2254
g69
(g90
g71
NtRp2255
(dp2256
g74
(dp2257
sg83
g2251
sg76
(lp2258
g69
(g70
g71
NtRp2259
(dp2260
g74
(dp2261
g82
I3
ssg83
g2255
sg76
(lp2262
S'3'
asbasbasbag69
(g85
g71
NtRp2263
(dp2264
g74
(dp2265
sg83
g2235
sg76
(lp2266
g69
(g90
g71
NtRp2267
(dp2268
g74
(dp2269
sg83
g2263
sg76
(lp2270
g69
(g70
g71
NtRp2271
(dp2272
g74
(dp2273
g82
I3
ssg83
g2267
sg76
(lp2274
S'2'
asbasbasbag69
(g85
g71
NtRp2275
(dp2276
g74
(dp2277
sg83
g2235
sg76
(lp2278
g69
(g90
g71
NtRp2279
(dp2280
g74
(dp2281
sg83
g2275
sg76
(lp2282
g69
(g70
g71
NtRp2283
(dp2284
g74
(dp2285
g82
I3
ssg83
g2279
sg76
(lp2286
S'datetime.datetime(2012, 12, 17, 15, 3, 30)'
p2287
asbasbasbag69
(g85
g71
NtRp2288
(dp2289
g74
(dp2290
sg83
g2235
sg76
(lp2291
g69
(g90
g71
NtRp2292
(dp2293
g74
(dp2294
sg83
g2288
sg76
(lp2295
g69
(g70
g71
NtRp2296
(dp2297
g74
(dp2298
g82
I3
ssg83
g2292
sg76
(lp2299
S'stable'
p2300
asbasbasbasbasbasbasbag69
(g85
g71
NtRp2301
(dp2302
g74
(dp2303
sg83
g1443
sg76
(lp2304
g69
(g90
g71
NtRp2305
(dp2306
g74
(dp2307
g94
g95
ssg83
g2301
sg76
(lp2308
S'wsgi_errors'
p2309
asbag69
(g90
g71
NtRp2310
(dp2311
g74
(dp2312
g101
g102
ssg83
g2301
sg76
(lp2313
S':'
asbag69
(g90
g71
NtRp2314
(dp2315
g74
(dp2316
sg83
g2301
sg76
(lp2317
g69
(g70
g71
NtRp2318
(dp2319
g74
(dp2320
g82
I4
ssg83
g2314
sg76
(lp2321
S"<open file '<stderr>', mode 'w' at 0xb789e0d0>"
p2322
asbasbasbag69
(g85
g71
NtRp2323
(dp2324
g74
(dp2325
sg83
g1443
sg76
(lp2326
g69
(g90
g71
NtRp2327
(dp2328
g74
(dp2329
g94
g95
ssg83
g2323
sg76
(lp2330
S'wsgi_file_wrapper'
p2331
asbag69
(g90
g71
NtRp2332
(dp2333
g74
(dp2334
g101
g102
ssg83
g2323
sg76
(lp2335
S':'
asbag69
(g90
g71
NtRp2336
(dp2337
g74
(dp2338
sg83
g2323
sg76
(lp2339
g69
(g70
g71
NtRp2340
(dp2341
g74
(dp2342
g82
I4
ssg83
g2336
sg76
(lp2343
S'<class wsgiref.util.FileWrapper at 0xa4afddc>'
p2344
asbasbasbag69
(g85
g71
NtRp2345
(dp2346
g74
(dp2347
sg83
g1443
sg76
(lp2348
g69
(g90
g71
NtRp2349
(dp2350
g74
(dp2351
g94
g95
ssg83
g2345
sg76
(lp2352
S'wsgi_input'
p2353
asbag69
(g90
g71
NtRp2354
(dp2355
g74
(dp2356
g101
g102
ssg83
g2345
sg76
(lp2357
S':'
asbag69
(g90
g71
NtRp2358
(dp2359
g74
(dp2360
sg83
g2345
sg76
(lp2361
g69
(g70
g71
NtRp2362
(dp2363
g74
(dp2364
g82
I4
ssg83
g2358
sg76
(lp2365
S'<socket._fileobject object at 0xb33516c>'
p2366
asbasbasbag69
(g85
g71
NtRp2367
(dp2368
g74
(dp2369
sg83
g1443
sg76
(lp2370
g69
(g90
g71
NtRp2371
(dp2372
g74
(dp2373
g94
g95
ssg83
g2367
sg76
(lp2374
S'wsgi_multiprocess'
p2375
asbag69
(g90
g71
NtRp2376
(dp2377
g74
(dp2378
g101
g102
ssg83
g2367
sg76
(lp2379
S':'
asbag69
(g90
g71
NtRp2380
(dp2381
g74
(dp2382
sg83
g2367
sg76
(lp2383
g69
(g70
g71
NtRp2384
(dp2385
g74
(dp2386
g82
I4
ssg83
g2380
sg76
(lp2387
g112
asbasbasbag69
(g85
g71
NtRp2388
(dp2389
g74
(dp2390
sg83
g1443
sg76
(lp2391
g69
(g90
g71
NtRp2392
(dp2393
g74
(dp2394
g94
g95
ssg83
g2388
sg76
(lp2395
S'wsgi_multithread'
p2396
asbag69
(g90
g71
NtRp2397
(dp2398
g74
(dp2399
g101
g102
ssg83
g2388
sg76
(lp2400
S':'
asbag69
(g90
g71
NtRp2401
(dp2402
g74
(dp2403
sg83
g2388
sg76
(lp2404
g69
(g70
g71
NtRp2405
(dp2406
g74
(dp2407
g82
I4
ssg83
g2401
sg76
(lp2408
S'True'
p2409
asbasbasbag69
(g85
g71
NtRp2410
(dp2411
g74
(dp2412
sg83
g1443
sg76
(lp2413
g69
(g90
g71
NtRp2414
(dp2415
g74
(dp2416
g94
g95
ssg83
g2410
sg76
(lp2417
S'wsgi_run_once'
p2418
asbag69
(g90
g71
NtRp2419
(dp2420
g74
(dp2421
g101
g102
ssg83
g2410
sg76
(lp2422
S':'
asbag69
(g90
g71
NtRp2423
(dp2424
g74
(dp2425
sg83
g2410
sg76
(lp2426
g69
(g70
g71
NtRp2427
(dp2428
g74
(dp2429
g82
I4
ssg83
g2423
sg76
(lp2430
g112
asbasbasbag69
(g85
g71
NtRp2431
(dp2432
g74
(dp2433
sg83
g1443
sg76
(lp2434
g69
(g90
g71
NtRp2435
(dp2436
g74
(dp2437
g94
g95
ssg83
g2431
sg76
(lp2438
S'wsgi_url_scheme'
p2439
asbag69
(g90
g71
NtRp2440
(dp2441
g74
(dp2442
g101
g102
ssg83
g2431
sg76
(lp2443
S':'
asbag69
(g90
g71
NtRp2444
(dp2445
g74
(dp2446
sg83
g2431
sg76
(lp2447
g69
(g70
g71
NtRp2448
(dp2449
g74
(dp2450
g82
I4
ssg83
g2444
sg76
(lp2451
S'http'
p2452
asbasbasbag69
(g85
g71
NtRp2453
(dp2454
g74
(dp2455
sg83
g1443
sg76
(lp2456
g69
(g90
g71
NtRp2457
(dp2458
g74
(dp2459
g94
g95
ssg83
g2453
sg76
(lp2460
S'wsgi_version'
p2461
asbag69
(g90
g71
NtRp2462
(dp2463
g74
(dp2464
g101
g102
ssg83
g2453
sg76
(lp2465
S':'
asbag69
(g90
g71
NtRp2466
(dp2467
g74
(dp2468
sg83
g2453
sg76
(lp2469
g69
(g70
g71
NtRp2470
(dp2471
g74
(dp2472
g82
I4
ssg83
g2466
sg76
(lp2473
g69
(g78
g71
NtRp2474
(dp2475
g74
(dp2476
g82
I3
ssg83
Nsg76
(lp2477
g69
(g85
g71
NtRp2478
(dp2479
g74
(dp2480
sg83
g2474
sg76
(lp2481
g69
(g90
g71
NtRp2482
(dp2483
g74
(dp2484
sg83
g2478
sg76
(lp2485
g69
(g70
g71
NtRp2486
(dp2487
g74
(dp2488
g82
I3
ssg83
g2482
sg76
(lp2489
S'1'
asbasbasbag69
(g85
g71
NtRp2490
(dp2491
g74
(dp2492
sg83
g2474
sg76
(lp2493
g69
(g90
g71
NtRp2494
(dp2495
g74
(dp2496
sg83
g2490
sg76
(lp2497
g69
(g70
g71
NtRp2498
(dp2499
g74
(dp2500
g82
I3
ssg83
g2494
sg76
(lp2501
S'0'
asbasbasbasbasbasbasbasbasbasbasbag69
(g85
g71
NtRp2502
(dp2503
g74
(dp2504
sg83
g79
sg76
(lp2505
g69
(g90
g71
NtRp2506
(dp2507
g74
(dp2508
g94
g95
ssg83
g2502
sg76
(lp2509
S'extension'
p2510
asbag69
(g90
g71
NtRp2511
(dp2512
g74
(dp2513
g101
g102
ssg83
g2502
sg76
(lp2514
S':'
asbag69
(g90
g71
NtRp2515
(dp2516
g74
(dp2517
sg83
g2502
sg76
(lp2518
g69
(g70
g71
NtRp2519
(dp2520
g74
(dp2521
g82
I5
ssg83
g2515
sg76
(lp2522
S'html'
p2523
asbasbasbag69
(g85
g71
NtRp2524
(dp2525
g74
(dp2526
sg83
g79
sg76
(lp2527
g69
(g90
g71
NtRp2528
(dp2529
g74
(dp2530
g94
g95
ssg83
g2524
sg76
(lp2531
S'folder'
p2532
asbag69
(g90
g71
NtRp2533
(dp2534
g74
(dp2535
g101
g102
ssg83
g2524
sg76
(lp2536
S':'
asbag69
(g90
g71
NtRp2537
(dp2538
g74
(dp2539
sg83
g2524
sg76
(lp2540
g69
(g70
g71
NtRp2541
(dp2542
g74
(dp2543
g82
I5
ssg83
g2537
sg76
(lp2544
S'/home/pratyush/web2py/applications/BuySell/'
p2545
asbasbasbag69
(g85
g71
NtRp2546
(dp2547
g74
(dp2548
sg83
g79
sg76
(lp2549
g69
(g90
g71
NtRp2550
(dp2551
g74
(dp2552
g94
g95
ssg83
g2546
sg76
(lp2553
S'function'
p2554
asbag69
(g90
g71
NtRp2555
(dp2556
g74
(dp2557
g101
g102
ssg83
g2546
sg76
(lp2558
S':'
asbag69
(g90
g71
NtRp2559
(dp2560
g74
(dp2561
sg83
g2546
sg76
(lp2562
g69
(g70
g71
NtRp2563
(dp2564
g74
(dp2565
g82
I5
ssg83
g2559
sg76
(lp2566
S'insert'
p2567
asbasbasbag69
(g85
g71
NtRp2568
(dp2569
g74
(dp2570
sg83
g79
sg76
(lp2571
g69
(g90
g71
NtRp2572
(dp2573
g74
(dp2574
g94
g95
ssg83
g2568
sg76
(lp2575
S'get_vars'
p2576
asbag69
(g90
g71
NtRp2577
(dp2578
g74
(dp2579
g101
g102
ssg83
g2568
sg76
(lp2580
S':'
asbag69
(g90
g71
NtRp2581
(dp2582
g74
(dp2583
sg83
g2568
sg76
(lp2584
g69
(g70
g71
NtRp2585
(dp2586
g74
(dp2587
g82
I5
ssg83
g2581
sg76
(lp2588
g69
(g78
g71
NtRp2589
(dp2590
g74
(dp2591
g82
I4
ssg83
Nsg76
(lp2592
sbasbasbasbag69
(g85
g71
NtRp2593
(dp2594
g74
(dp2595
sg83
g79
sg76
(lp2596
g69
(g90
g71
NtRp2597
(dp2598
g74
(dp2599
g94
g95
ssg83
g2593
sg76
(lp2600
S'global_settings'
p2601
asbag69
(g90
g71
NtRp2602
(dp2603
g74
(dp2604
g101
g102
ssg83
g2593
sg76
(lp2605
S':'
asbag69
(g90
g71
NtRp2606
(dp2607
g74
(dp2608
sg83
g2593
sg76
(lp2609
g69
(g70
g71
NtRp2610
(dp2611
g74
(dp2612
g82
I5
ssg83
g2606
sg76
(lp2613
g69
(g78
g71
NtRp2614
(dp2615
g74
(dp2616
g82
I4
ssg83
Nsg76
(lp2617
g69
(g85
g71
NtRp2618
(dp2619
g74
(dp2620
sg83
g2614
sg76
(lp2621
g69
(g90
g71
NtRp2622
(dp2623
g74
(dp2624
g94
g95
ssg83
g2618
sg76
(lp2625
g1455
asbag69
(g90
g71
NtRp2626
(dp2627
g74
(dp2628
g101
g102
ssg83
g2618
sg76
(lp2629
S':'
asbag69
(g90
g71
NtRp2630
(dp2631
g74
(dp2632
sg83
g2618
sg76
(lp2633
g69
(g70
g71
NtRp2634
(dp2635
g74
(dp2636
g82
I4
ssg83
g2630
sg76
(lp2637
S"set(['/home/pratyush/web2py/applications/db_project/', '/home/pratyush/web2py/applications/outreach/', '/home/pratyush/web2py/applications/welcome/', '/home/pratyush/web2py/applications/music_library/', '/home/pratyush/web2py/applications/examples/', '/home/pratyush/web2py/applications/BuySell/', '/home/pratyush/web2py/applications/admin/'])"
p2638
asbasbasbag69
(g85
g71
NtRp2639
(dp2640
g74
(dp2641
sg83
g2614
sg76
(lp2642
g69
(g90
g71
NtRp2643
(dp2644
g74
(dp2645
g94
g95
ssg83
g2639
sg76
(lp2646
g1477
asbag69
(g90
g71
NtRp2647
(dp2648
g74
(dp2649
g101
g102
ssg83
g2639
sg76
(lp2650
S':'
asbag69
(g90
g71
NtRp2651
(dp2652
g74
(dp2653
sg83
g2639
sg76
(lp2654
g69
(g70
g71
NtRp2655
(dp2656
g74
(dp2657
g82
I4
ssg83
g2651
sg76
(lp2658
g1490
asbasbasbag69
(g85
g71
NtRp2659
(dp2660
g74
(dp2661
sg83
g2614
sg76
(lp2662
g69
(g90
g71
NtRp2663
(dp2664
g74
(dp2665
g94
g95
ssg83
g2659
sg76
(lp2666
g1499
asbag69
(g90
g71
NtRp2667
(dp2668
g74
(dp2669
g101
g102
ssg83
g2659
sg76
(lp2670
S':'
asbag69
(g90
g71
NtRp2671
(dp2672
g74
(dp2673
sg83
g2659
sg76
(lp2674
g69
(g70
g71
NtRp2675
(dp2676
g74
(dp2677
g82
I4
ssg83
g2671
sg76
(lp2678
g69
(g78
g71
NtRp2679
(dp2680
g74
(dp2681
g82
I3
ssg83
Nsg76
(lp2682
sbasbasbasbag69
(g85
g71
NtRp2683
(dp2684
g74
(dp2685
sg83
g2614
sg76
(lp2686
g69
(g90
g71
NtRp2687
(dp2688
g74
(dp2689
g94
g95
ssg83
g2683
sg76
(lp2690
g1524
asbag69
(g90
g71
NtRp2691
(dp2692
g74
(dp2693
g101
g102
ssg83
g2683
sg76
(lp2694
S':'
asbag69
(g90
g71
NtRp2695
(dp2696
g74
(dp2697
sg83
g2683
sg76
(lp2698
g69
(g70
g71
NtRp2699
(dp2700
g74
(dp2701
g82
I4
ssg83
g2695
sg76
(lp2702
S"<Values at 0xa526b0c: {'verbose': False, 'ip': '127.0.0.1', 'with_scheduler': False, 'ips': [], 'shutdown_timeout': 5, 'taskbar': False, 'port': 8001, 'maxthreads': None, 'softcron': False, 'server_name': 'alanzak', 'bpython': False, 'nogui': False, 'pid_filename': 'httpserver.pid', 'extcron': False, 'runcron': False, 'run_system_tests': False, 'test': None, 'folder': '/home/pratyush/web2py', 'config': '', 'import_models': False, 'winservice': '', 'shell': None, 'run': '', 'log_filename': 'httpserver.log', 'debuglevel': 30, 'args': [''], 'socket_timeout': 5, 'ssl_ca_certificate': None, 'scheduler': None, 'profiler_filename': None, 'ssl_private_key': '', 'scheduler_groups': None, 'password': '1', 'request_queue_size': 5, 'ssl_certificate': '', 'cronjob': False, 'numthreads': None, 'quiet': False, 'interfaces': None, 'minthreads': None, 'timeout': 10, 'plain': False, 'nobanner': False}>"
p2703
asbasbasbag69
(g85
g71
NtRp2704
(dp2705
g74
(dp2706
sg83
g2614
sg76
(lp2707
g69
(g90
g71
NtRp2708
(dp2709
g74
(dp2710
g94
g95
ssg83
g2704
sg76
(lp2711
g1546
asbag69
(g90
g71
NtRp2712
(dp2713
g74
(dp2714
g101
g102
ssg83
g2704
sg76
(lp2715
S':'
asbag69
(g90
g71
NtRp2716
(dp2717
g74
(dp2718
sg83
g2704
sg76
(lp2719
g69
(g70
g71
NtRp2720
(dp2721
g74
(dp2722
g82
I4
ssg83
g2716
sg76
(lp2723
S'set([])'
p2724
asbasbasbag69
(g85
g71
NtRp2725
(dp2726
g74
(dp2727
sg83
g2614
sg76
(lp2728
g69
(g90
g71
NtRp2729
(dp2730
g74
(dp2731
g94
g95
ssg83
g2725
sg76
(lp2732
g1568
asbag69
(g90
g71
NtRp2733
(dp2734
g74
(dp2735
g101
g102
ssg83
g2725
sg76
(lp2736
S':'
asbag69
(g90
g71
NtRp2737
(dp2738
g74
(dp2739
sg83
g2725
sg76
(lp2740
g69
(g70
g71
NtRp2741
(dp2742
g74
(dp2743
g82
I4
ssg83
g2737
sg76
(lp2744
g112
asbasbasbag69
(g85
g71
NtRp2745
(dp2746
g74
(dp2747
sg83
g2614
sg76
(lp2748
g69
(g90
g71
NtRp2749
(dp2750
g74
(dp2751
g94
g95
ssg83
g2745
sg76
(lp2752
g1589
asbag69
(g90
g71
NtRp2753
(dp2754
g74
(dp2755
g101
g102
ssg83
g2745
sg76
(lp2756
S':'
asbag69
(g90
g71
NtRp2757
(dp2758
g74
(dp2759
sg83
g2745
sg76
(lp2760
g69
(g70
g71
NtRp2761
(dp2762
g74
(dp2763
g82
I4
ssg83
g2757
sg76
(lp2764
g1602
asbasbasbag69
(g85
g71
NtRp2765
(dp2766
g74
(dp2767
sg83
g2614
sg76
(lp2768
g69
(g90
g71
NtRp2769
(dp2770
g74
(dp2771
g94
g95
ssg83
g2765
sg76
(lp2772
g1831
asbag69
(g90
g71
NtRp2773
(dp2774
g74
(dp2775
g101
g102
ssg83
g2765
sg76
(lp2776
S':'
asbag69
(g90
g71
NtRp2777
(dp2778
g74
(dp2779
sg83
g2765
sg76
(lp2780
g69
(g70
g71
NtRp2781
(dp2782
g74
(dp2783
g82
I4
ssg83
g2777
sg76
(lp2784
g112
asbasbasbag69
(g85
g71
NtRp2785
(dp2786
g74
(dp2787
sg83
g2614
sg76
(lp2788
g69
(g90
g71
NtRp2789
(dp2790
g74
(dp2791
g94
g95
ssg83
g2785
sg76
(lp2792
g1852
asbag69
(g90
g71
NtRp2793
(dp2794
g74
(dp2795
g101
g102
ssg83
g2785
sg76
(lp2796
S':'
asbag69
(g90
g71
NtRp2797
(dp2798
g74
(dp2799
sg83
g2785
sg76
(lp2800
g69
(g70
g71
NtRp2801
(dp2802
g74
(dp2803
g82
I4
ssg83
g2797
sg76
(lp2804
g112
asbasbasbag69
(g85
g71
NtRp2805
(dp2806
g74
(dp2807
sg83
g2614
sg76
(lp2808
g69
(g90
g71
NtRp2809
(dp2810
g74
(dp2811
g94
g95
ssg83
g2805
sg76
(lp2812
g1873
asbag69
(g90
g71
NtRp2813
(dp2814
g74
(dp2815
g101
g102
ssg83
g2805
sg76
(lp2816
S':'
asbag69
(g90
g71
NtRp2817
(dp2818
g74
(dp2819
sg83
g2805
sg76
(lp2820
g69
(g70
g71
NtRp2821
(dp2822
g74
(dp2823
g82
I4
ssg83
g2817
sg76
(lp2824
g69
(g78
g71
NtRp2825
(dp2826
g74
(dp2827
g82
I3
ssg83
Nsg76
(lp2828
g69
(g85
g71
NtRp2829
(dp2830
g74
(dp2831
sg83
g2825
sg76
(lp2832
g69
(g90
g71
NtRp2833
(dp2834
g74
(dp2835
sg83
g2829
sg76
(lp2836
g69
(g70
g71
NtRp2837
(dp2838
g74
(dp2839
g82
I3
ssg83
g2833
sg76
(lp2840
g1902
asbasbasbag69
(g85
g71
NtRp2841
(dp2842
g74
(dp2843
sg83
g2825
sg76
(lp2844
g69
(g90
g71
NtRp2845
(dp2846
g74
(dp2847
sg83
g2841
sg76
(lp2848
g69
(g70
g71
NtRp2849
(dp2850
g74
(dp2851
g82
I3
ssg83
g2845
sg76
(lp2852
g1915
asbasbasbag69
(g85
g71
NtRp2853
(dp2854
g74
(dp2855
sg83
g2825
sg76
(lp2856
g69
(g90
g71
NtRp2857
(dp2858
g74
(dp2859
sg83
g2853
sg76
(lp2860
g69
(g70
g71
NtRp2861
(dp2862
g74
(dp2863
g82
I3
ssg83
g2857
sg76
(lp2864
g1928
asbasbasbag69
(g85
g71
NtRp2865
(dp2866
g74
(dp2867
sg83
g2825
sg76
(lp2868
g69
(g90
g71
NtRp2869
(dp2870
g74
(dp2871
sg83
g2865
sg76
(lp2872
g69
(g70
g71
NtRp2873
(dp2874
g74
(dp2875
g82
I3
ssg83
g2869
sg76
(lp2876
g1941
asbasbasbag69
(g85
g71
NtRp2877
(dp2878
g74
(dp2879
sg83
g2825
sg76
(lp2880
g69
(g90
g71
NtRp2881
(dp2882
g74
(dp2883
sg83
g2877
sg76
(lp2884
g69
(g70
g71
NtRp2885
(dp2886
g74
(dp2887
g82
I3
ssg83
g2881
sg76
(lp2888
g1954
asbasbasbasbasbasbasbag69
(g85
g71
NtRp2889
(dp2890
g74
(dp2891
sg83
g2614
sg76
(lp2892
g69
(g90
g71
NtRp2893
(dp2894
g74
(dp2895
g94
g95
ssg83
g2889
sg76
(lp2896
g2222
asbag69
(g90
g71
NtRp2897
(dp2898
g74
(dp2899
g101
g102
ssg83
g2889
sg76
(lp2900
S':'
asbag69
(g90
g71
NtRp2901
(dp2902
g74
(dp2903
sg83
g2889
sg76
(lp2904
g69
(g70
g71
NtRp2905
(dp2906
g74
(dp2907
g82
I4
ssg83
g2901
sg76
(lp2908
g69
(g78
g71
NtRp2909
(dp2910
g74
(dp2911
g82
I3
ssg83
Nsg76
(lp2912
g69
(g85
g71
NtRp2913
(dp2914
g74
(dp2915
sg83
g2909
sg76
(lp2916
g69
(g90
g71
NtRp2917
(dp2918
g74
(dp2919
sg83
g2913
sg76
(lp2920
g69
(g70
g71
NtRp2921
(dp2922
g74
(dp2923
g82
I3
ssg83
g2917
sg76
(lp2924
S'2'
asbasbasbag69
(g85
g71
NtRp2925
(dp2926
g74
(dp2927
sg83
g2909
sg76
(lp2928
g69
(g90
g71
NtRp2929
(dp2930
g74
(dp2931
sg83
g2925
sg76
(lp2932
g69
(g70
g71
NtRp2933
(dp2934
g74
(dp2935
g82
I3
ssg83
g2929
sg76
(lp2936
S'3'
asbasbasbag69
(g85
g71
NtRp2937
(dp2938
g74
(dp2939
sg83
g2909
sg76
(lp2940
g69
(g90
g71
NtRp2941
(dp2942
g74
(dp2943
sg83
g2937
sg76
(lp2944
g69
(g70
g71
NtRp2945
(dp2946
g74
(dp2947
g82
I3
ssg83
g2941
sg76
(lp2948
S'2'
asbasbasbag69
(g85
g71
NtRp2949
(dp2950
g74
(dp2951
sg83
g2909
sg76
(lp2952
g69
(g90
g71
NtRp2953
(dp2954
g74
(dp2955
sg83
g2949
sg76
(lp2956
g69
(g70
g71
NtRp2957
(dp2958
g74
(dp2959
g82
I3
ssg83
g2953
sg76
(lp2960
S'datetime.datetime(2012, 12, 17, 15, 3, 30)'
p2961
asbasbasbag69
(g85
g71
NtRp2962
(dp2963
g74
(dp2964
sg83
g2909
sg76
(lp2965
g69
(g90
g71
NtRp2966
(dp2967
g74
(dp2968
sg83
g2962
sg76
(lp2969
g69
(g70
g71
NtRp2970
(dp2971
g74
(dp2972
g82
I3
ssg83
g2966
sg76
(lp2973
g2300
asbasbasbasbasbasbasbasbasbasbasbag69
(g85
g71
NtRp2974
(dp2975
g74
(dp2976
sg83
g79
sg76
(lp2977
g69
(g90
g71
NtRp2978
(dp2979
g74
(dp2980
g94
g95
ssg83
g2974
sg76
(lp2981
S'is_https'
p2982
asbag69
(g90
g71
NtRp2983
(dp2984
g74
(dp2985
g101
g102
ssg83
g2974
sg76
(lp2986
S':'
asbag69
(g90
g71
NtRp2987
(dp2988
g74
(dp2989
sg83
g2974
sg76
(lp2990
g69
(g70
g71
NtRp2991
(dp2992
g74
(dp2993
g82
I5
ssg83
g2987
sg76
(lp2994
g112
asbasbasbag69
(g85
g71
NtRp2995
(dp2996
g74
(dp2997
sg83
g79
sg76
(lp2998
g69
(g90
g71
NtRp2999
(dp3000
g74
(dp3001
g94
g95
ssg83
g2995
sg76
(lp3002
S'is_local'
p3003
asbag69
(g90
g71
NtRp3004
(dp3005
g74
(dp3006
g101
g102
ssg83
g2995
sg76
(lp3007
S':'
asbag69
(g90
g71
NtRp3008
(dp3009
g74
(dp3010
sg83
g2995
sg76
(lp3011
g69
(g70
g71
NtRp3012
(dp3013
g74
(dp3014
g82
I5
ssg83
g3008
sg76
(lp3015
g2409
asbasbasbag69
(g85
g71
NtRp3016
(dp3017
g74
(dp3018
sg83
g79
sg76
(lp3019
g69
(g90
g71
NtRp3020
(dp3021
g74
(dp3022
g94
g95
ssg83
g3016
sg76
(lp3023
S'is_restful'
p3024
asbag69
(g90
g71
NtRp3025
(dp3026
g74
(dp3027
g101
g102
ssg83
g3016
sg76
(lp3028
S':'
asbag69
(g90
g71
NtRp3029
(dp3030
g74
(dp3031
sg83
g3016
sg76
(lp3032
g69
(g70
g71
NtRp3033
(dp3034
g74
(dp3035
g82
I5
ssg83
g3029
sg76
(lp3036
g112
asbasbasbag69
(g85
g71
NtRp3037
(dp3038
g74
(dp3039
sg83
g79
sg76
(lp3040
g69
(g90
g71
NtRp3041
(dp3042
g74
(dp3043
g94
g95
ssg83
g3037
sg76
(lp3044
S'now'
p3045
asbag69
(g90
g71
NtRp3046
(dp3047
g74
(dp3048
g101
g102
ssg83
g3037
sg76
(lp3049
S':'
asbag69
(g90
g71
NtRp3050
(dp3051
g74
(dp3052
sg83
g3037
sg76
(lp3053
g69
(g70
g71
NtRp3054
(dp3055
g74
(dp3056
g82
I5
ssg83
g3050
sg76
(lp3057
S'datetime.datetime(2013, 4, 22, 14, 15, 1, 490931)'
p3058
asbasbasbag69
(g85
g71
NtRp3059
(dp3060
g74
(dp3061
sg83
g79
sg76
(lp3062
g69
(g90
g71
NtRp3063
(dp3064
g74
(dp3065
g94
g95
ssg83
g3059
sg76
(lp3066
S'post_vars'
p3067
asbag69
(g90
g71
NtRp3068
(dp3069
g74
(dp3070
g101
g102
ssg83
g3059
sg76
(lp3071
S':'
asbag69
(g90
g71
NtRp3072
(dp3073
g74
(dp3074
sg83
g3059
sg76
(lp3075
g69
(g70
g71
NtRp3076
(dp3077
g74
(dp3078
g82
I5
ssg83
g3072
sg76
(lp3079
g69
(g78
g71
NtRp3080
(dp3081
g74
(dp3082
g82
I4
ssg83
Nsg76
(lp3083
sbasbasbasbag69
(g85
g71
NtRp3084
(dp3085
g74
(dp3086
sg83
g79
sg76
(lp3087
g69
(g90
g71
NtRp3088
(dp3089
g74
(dp3090
g94
g95
ssg83
g3084
sg76
(lp3091
S'raw_args'
p3092
asbag69
(g90
g71
NtRp3093
(dp3094
g74
(dp3095
g101
g102
ssg83
g3084
sg76
(lp3096
S':'
asbag69
(g90
g71
NtRp3097
(dp3098
g74
(dp3099
sg83
g3084
sg76
(lp3100
g69
(g70
g71
NtRp3101
(dp3102
g74
(dp3103
g82
I5
ssg83
g3097
sg76
(lp3104
S'db/item'
p3105
asbasbasbag69
(g85
g71
NtRp3106
(dp3107
g74
(dp3108
sg83
g79
sg76
(lp3109
g69
(g90
g71
NtRp3110
(dp3111
g74
(dp3112
g94
g95
ssg83
g3106
sg76
(lp3113
S'raw_extension'
p3114
asbag69
(g90
g71
NtRp3115
(dp3116
g74
(dp3117
g101
g102
ssg83
g3106
sg76
(lp3118
S':'
asbag69
(g90
g71
NtRp3119
(dp3120
g74
(dp3121
sg83
g3106
sg76
(lp3122
g69
(g70
g71
NtRp3123
(dp3124
g74
(dp3125
g82
I5
ssg83
g3119
sg76
(lp3126
S'None'
p3127
asbasbasbag69
(g85
g71
NtRp3128
(dp3129
g74
(dp3130
sg83
g79
sg76
(lp3131
g69
(g90
g71
NtRp3132
(dp3133
g74
(dp3134
g94
g95
ssg83
g3128
sg76
(lp3135
S'url'
p3136
asbag69
(g90
g71
NtRp3137
(dp3138
g74
(dp3139
g101
g102
ssg83
g3128
sg76
(lp3140
S':'
asbag69
(g90
g71
NtRp3141
(dp3142
g74
(dp3143
sg83
g3128
sg76
(lp3144
g69
(g70
g71
NtRp3145
(dp3146
g74
(dp3147
g82
I5
ssg83
g3141
sg76
(lp3148
g1976
asbasbasbag69
(g85
g71
NtRp3149
(dp3150
g74
(dp3151
sg83
g79
sg76
(lp3152
g69
(g90
g71
NtRp3153
(dp3154
g74
(dp3155
g94
g95
ssg83
g3149
sg76
(lp3156
S'utcnow'
p3157
asbag69
(g90
g71
NtRp3158
(dp3159
g74
(dp3160
g101
g102
ssg83
g3149
sg76
(lp3161
S':'
asbag69
(g90
g71
NtRp3162
(dp3163
g74
(dp3164
sg83
g3149
sg76
(lp3165
g69
(g70
g71
NtRp3166
(dp3167
g74
(dp3168
g82
I5
ssg83
g3162
sg76
(lp3169
S'datetime.datetime(2013, 4, 22, 8, 45, 1, 490971)'
p3170
asbasbasbag69
(g85
g71
NtRp3171
(dp3172
g74
(dp3173
sg83
g79
sg76
(lp3174
g69
(g90
g71
NtRp3175
(dp3176
g74
(dp3177
g94
g95
ssg83
g3171
sg76
(lp3178
S'uuid'
p3179
asbag69
(g90
g71
NtRp3180
(dp3181
g74
(dp3182
g101
g102
ssg83
g3171
sg76
(lp3183
S':'
asbag69
(g90
g71
NtRp3184
(dp3185
g74
(dp3186
sg83
g3171
sg76
(lp3187
g69
(g70
g71
NtRp3188
(dp3189
g74
(dp3190
g82
I5
ssg83
g3184
sg76
(lp3191
S'BuySell/127.0.0.1.2013-04-22.14-15-01.b2ef502b-23b6-43c2-8944-60dc0d816c1b'
p3192
asbasbasbag69
(g85
g71
NtRp3193
(dp3194
g74
(dp3195
sg83
g79
sg76
(lp3196
g69
(g90
g71
NtRp3197
(dp3198
g74
(dp3199
g94
g95
ssg83
g3193
sg76
(lp3200
S'vars'
p3201
asbag69
(g90
g71
NtRp3202
(dp3203
g74
(dp3204
g101
g102
ssg83
g3193
sg76
(lp3205
S':'
asbag69
(g90
g71
NtRp3206
(dp3207
g74
(dp3208
sg83
g3193
sg76
(lp3209
g69
(g70
g71
NtRp3210
(dp3211
g74
(dp3212
g82
I5
ssg83
g3206
sg76
(lp3213
g69
(g78
g71
NtRp3214
(dp3215
g74
(dp3216
g82
I4
ssg83
Nsg76
(lp3217
sbasbasbasbag69
(g85
g71
NtRp3218
(dp3219
g74
(dp3220
sg83
g79
sg76
(lp3221
g69
(g90
g71
NtRp3222
(dp3223
g74
(dp3224
g94
g95
ssg83
g3218
sg76
(lp3225
S'wsgi'
p3226
asbag69
(g90
g71
NtRp3227
(dp3228
g74
(dp3229
g101
g102
ssg83
g3218
sg76
(lp3230
S':'
asbag69
(g90
g71
NtRp3231
(dp3232
g74
(dp3233
sg83
g3218
sg76
(lp3234
g69
(g70
g71
NtRp3235
(dp3236
g74
(dp3237
g82
I5
ssg83
g3231
sg76
(lp3238
g69
(g78
g71
NtRp3239
(dp3240
g74
(dp3241
g82
I4
ssg83
Nsg76
(lp3242
g69
(g85
g71
NtRp3243
(dp3244
g74
(dp3245
sg83
g3239
sg76
(lp3246
g69
(g90
g71
NtRp3247
(dp3248
g74
(dp3249
g94
g95
ssg83
g3243
sg76
(lp3250
S'environ'
p3251
asbag69
(g90
g71
NtRp3252
(dp3253
g74
(dp3254
g101
g102
ssg83
g3243
sg76
(lp3255
S':'
asbag69
(g90
g71
NtRp3256
(dp3257
g74
(dp3258
sg83
g3243
sg76
(lp3259
g69
(g70
g71
NtRp3260
(dp3261
g74
(dp3262
g82
I4
ssg83
g3256
sg76
(lp3263
g69
(g78
g71
NtRp3264
(dp3265
g74
(dp3266
g82
I3
ssg83
Nsg76
(lp3267
g69
(g85
g71
NtRp3268
(dp3269
g74
(dp3270
sg83
g3264
sg76
(lp3271
g69
(g90
g71
NtRp3272
(dp3273
g74
(dp3274
g94
g95
ssg83
g3268
sg76
(lp3275
S'HTTP_ACCEPT'
p3276
asbag69
(g90
g71
NtRp3277
(dp3278
g74
(dp3279
g101
g102
ssg83
g3268
sg76
(lp3280
S':'
asbag69
(g90
g71
NtRp3281
(dp3282
g74
(dp3283
sg83
g3268
sg76
(lp3284
g69
(g70
g71
NtRp3285
(dp3286
g74
(dp3287
g82
I3
ssg83
g3281
sg76
(lp3288
g1624
asbasbasbag69
(g85
g71
NtRp3289
(dp3290
g74
(dp3291
sg83
g3264
sg76
(lp3292
g69
(g90
g71
NtRp3293
(dp3294
g74
(dp3295
g94
g95
ssg83
g3289
sg76
(lp3296
S'HTTP_ACCEPT_CHARSET'
p3297
asbag69
(g90
g71
NtRp3298
(dp3299
g74
(dp3300
g101
g102
ssg83
g3289
sg76
(lp3301
S':'
asbag69
(g90
g71
NtRp3302
(dp3303
g74
(dp3304
sg83
g3289
sg76
(lp3305
g69
(g70
g71
NtRp3306
(dp3307
g74
(dp3308
g82
I3
ssg83
g3302
sg76
(lp3309
g1646
asbasbasbag69
(g85
g71
NtRp3310
(dp3311
g74
(dp3312
sg83
g3264
sg76
(lp3313
g69
(g90
g71
NtRp3314
(dp3315
g74
(dp3316
g94
g95
ssg83
g3310
sg76
(lp3317
S'HTTP_ACCEPT_ENCODING'
p3318
asbag69
(g90
g71
NtRp3319
(dp3320
g74
(dp3321
g101
g102
ssg83
g3310
sg76
(lp3322
S':'
asbag69
(g90
g71
NtRp3323
(dp3324
g74
(dp3325
sg83
g3310
sg76
(lp3326
g69
(g70
g71
NtRp3327
(dp3328
g74
(dp3329
g82
I3
ssg83
g3323
sg76
(lp3330
g1668
asbasbasbag69
(g85
g71
NtRp3331
(dp3332
g74
(dp3333
sg83
g3264
sg76
(lp3334
g69
(g90
g71
NtRp3335
(dp3336
g74
(dp3337
g94
g95
ssg83
g3331
sg76
(lp3338
S'HTTP_ACCEPT_LANGUAGE'
p3339
asbag69
(g90
g71
NtRp3340
(dp3341
g74
(dp3342
g101
g102
ssg83
g3331
sg76
(lp3343
S':'
asbag69
(g90
g71
NtRp3344
(dp3345
g74
(dp3346
sg83
g3331
sg76
(lp3347
g69
(g70
g71
NtRp3348
(dp3349
g74
(dp3350
g82
I3
ssg83
g3344
sg76
(lp3351
g1690
asbasbasbag69
(g85
g71
NtRp3352
(dp3353
g74
(dp3354
sg83
g3264
sg76
(lp3355
g69
(g90
g71
NtRp3356
(dp3357
g74
(dp3358
g94
g95
ssg83
g3352
sg76
(lp3359
S'HTTP_CACHE_CONTROL'
p3360
asbag69
(g90
g71
NtRp3361
(dp3362
g74
(dp3363
g101
g102
ssg83
g3352
sg76
(lp3364
S':'
asbag69
(g90
g71
NtRp3365
(dp3366
g74
(dp3367
sg83
g3352
sg76
(lp3368
g69
(g70
g71
NtRp3369
(dp3370
g74
(dp3371
g82
I3
ssg83
g3365
sg76
(lp3372
g1712
asbasbasbag69
(g85
g71
NtRp3373
(dp3374
g74
(dp3375
sg83
g3264
sg76
(lp3376
g69
(g90
g71
NtRp3377
(dp3378
g74
(dp3379
g94
g95
ssg83
g3373
sg76
(lp3380
S'HTTP_CONNECTION'
p3381
asbag69
(g90
g71
NtRp3382
(dp3383
g74
(dp3384
g101
g102
ssg83
g3373
sg76
(lp3385
S':'
asbag69
(g90
g71
NtRp3386
(dp3387
g74
(dp3388
sg83
g3373
sg76
(lp3389
g69
(g70
g71
NtRp3390
(dp3391
g74
(dp3392
g82
I3
ssg83
g3386
sg76
(lp3393
g1734
asbasbasbag69
(g85
g71
NtRp3394
(dp3395
g74
(dp3396
sg83
g3264
sg76
(lp3397
g69
(g90
g71
NtRp3398
(dp3399
g74
(dp3400
g94
g95
ssg83
g3394
sg76
(lp3401
S'HTTP_COOKIE'
p3402
asbag69
(g90
g71
NtRp3403
(dp3404
g74
(dp3405
g101
g102
ssg83
g3394
sg76
(lp3406
S':'
asbag69
(g90
g71
NtRp3407
(dp3408
g74
(dp3409
sg83
g3394
sg76
(lp3410
g69
(g70
g71
NtRp3411
(dp3412
g74
(dp3413
g82
I3
ssg83
g3407
sg76
(lp3414
g1756
asbasbasbag69
(g85
g71
NtRp3415
(dp3416
g74
(dp3417
sg83
g3264
sg76
(lp3418
g69
(g90
g71
NtRp3419
(dp3420
g74
(dp3421
g94
g95
ssg83
g3415
sg76
(lp3422
S'HTTP_HOST'
p3423
asbag69
(g90
g71
NtRp3424
(dp3425
g74
(dp3426
g101
g102
ssg83
g3415
sg76
(lp3427
S':'
asbag69
(g90
g71
NtRp3428
(dp3429
g74
(dp3430
sg83
g3415
sg76
(lp3431
g69
(g70
g71
NtRp3432
(dp3433
g74
(dp3434
g82
I3
ssg83
g3428
sg76
(lp3435
g1778
asbasbasbag69
(g85
g71
NtRp3436
(dp3437
g74
(dp3438
sg83
g3264
sg76
(lp3439
g69
(g90
g71
NtRp3440
(dp3441
g74
(dp3442
g94
g95
ssg83
g3436
sg76
(lp3443
S'HTTP_REFERER'
p3444
asbag69
(g90
g71
NtRp3445
(dp3446
g74
(dp3447
g101
g102
ssg83
g3436
sg76
(lp3448
S':'
asbag69
(g90
g71
NtRp3449
(dp3450
g74
(dp3451
sg83
g3436
sg76
(lp3452
g69
(g70
g71
NtRp3453
(dp3454
g74
(dp3455
g82
I3
ssg83
g3449
sg76
(lp3456
g1800
asbasbasbag69
(g85
g71
NtRp3457
(dp3458
g74
(dp3459
sg83
g3264
sg76
(lp3460
g69
(g90
g71
NtRp3461
(dp3462
g74
(dp3463
g94
g95
ssg83
g3457
sg76
(lp3464
S'HTTP_USER_AGENT'
p3465
asbag69
(g90
g71
NtRp3466
(dp3467
g74
(dp3468
g101
g102
ssg83
g3457
sg76
(lp3469
S':'
asbag69
(g90
g71
NtRp3470
(dp3471
g74
(dp3472
sg83
g3457
sg76
(lp3473
g69
(g70
g71
NtRp3474
(dp3475
g74
(dp3476
g82
I3
ssg83
g3470
sg76
(lp3477
g1822
asbasbasbag69
(g85
g71
NtRp3478
(dp3479
g74
(dp3480
sg83
g3264
sg76
(lp3481
g69
(g90
g71
NtRp3482
(dp3483
g74
(dp3484
g94
g95
ssg83
g3478
sg76
(lp3485
S'PATH_INFO'
p3486
asbag69
(g90
g71
NtRp3487
(dp3488
g74
(dp3489
g101
g102
ssg83
g3478
sg76
(lp3490
S':'
asbag69
(g90
g71
NtRp3491
(dp3492
g74
(dp3493
sg83
g3478
sg76
(lp3494
g69
(g70
g71
NtRp3495
(dp3496
g74
(dp3497
g82
I3
ssg83
g3491
sg76
(lp3498
g1976
asbasbasbag69
(g85
g71
NtRp3499
(dp3500
g74
(dp3501
sg83
g3264
sg76
(lp3502
g69
(g90
g71
NtRp3503
(dp3504
g74
(dp3505
g94
g95
ssg83
g3499
sg76
(lp3506
S'QUERY_STRING'
p3507
asbag69
(g90
g71
NtRp3508
(dp3509
g74
(dp3510
g101
g102
ssg83
g3499
sg76
(lp3511
S':'
asbag69
(g90
g71
NtRp3512
(dp3513
g74
(dp3514
sg83
g3499
sg76
(lp3515
g69
(g70
g71
NtRp3516
(dp3517
g74
(dp3518
g82
I3
ssg83
g3512
sg76
(lp3519
S''
asbasbasbag69
(g85
g71
NtRp3520
(dp3521
g74
(dp3522
sg83
g3264
sg76
(lp3523
g69
(g90
g71
NtRp3524
(dp3525
g74
(dp3526
g94
g95
ssg83
g3520
sg76
(lp3527
S'REMOTE_ADDR'
p3528
asbag69
(g90
g71
NtRp3529
(dp3530
g74
(dp3531
g101
g102
ssg83
g3520
sg76
(lp3532
S':'
asbag69
(g90
g71
NtRp3533
(dp3534
g74
(dp3535
sg83
g3520
sg76
(lp3536
g69
(g70
g71
NtRp3537
(dp3538
g74
(dp3539
g82
I3
ssg83
g3533
sg76
(lp3540
g250
asbasbasbag69
(g85
g71
NtRp3541
(dp3542
g74
(dp3543
sg83
g3264
sg76
(lp3544
g69
(g90
g71
NtRp3545
(dp3546
g74
(dp3547
g94
g95
ssg83
g3541
sg76
(lp3548
S'REMOTE_PORT'
p3549
asbag69
(g90
g71
NtRp3550
(dp3551
g74
(dp3552
g101
g102
ssg83
g3541
sg76
(lp3553
S':'
asbag69
(g90
g71
NtRp3554
(dp3555
g74
(dp3556
sg83
g3541
sg76
(lp3557
g69
(g70
g71
NtRp3558
(dp3559
g74
(dp3560
g82
I3
ssg83
g3554
sg76
(lp3561
g2040
asbasbasbag69
(g85
g71
NtRp3562
(dp3563
g74
(dp3564
sg83
g3264
sg76
(lp3565
g69
(g90
g71
NtRp3566
(dp3567
g74
(dp3568
g94
g95
ssg83
g3562
sg76
(lp3569
S'REQUEST_METHOD'
p3570
asbag69
(g90
g71
NtRp3571
(dp3572
g74
(dp3573
g101
g102
ssg83
g3562
sg76
(lp3574
S':'
asbag69
(g90
g71
NtRp3575
(dp3576
g74
(dp3577
sg83
g3562
sg76
(lp3578
g69
(g70
g71
NtRp3579
(dp3580
g74
(dp3581
g82
I3
ssg83
g3575
sg76
(lp3582
g2062
asbasbasbag69
(g85
g71
NtRp3583
(dp3584
g74
(dp3585
sg83
g3264
sg76
(lp3586
g69
(g90
g71
NtRp3587
(dp3588
g74
(dp3589
g94
g95
ssg83
g3583
sg76
(lp3590
S'REQUEST_URI'
p3591
asbag69
(g90
g71
NtRp3592
(dp3593
g74
(dp3594
g101
g102
ssg83
g3583
sg76
(lp3595
S':'
asbag69
(g90
g71
NtRp3596
(dp3597
g74
(dp3598
sg83
g3583
sg76
(lp3599
g69
(g70
g71
NtRp3600
(dp3601
g74
(dp3602
g82
I3
ssg83
g3596
sg76
(lp3603
g1976
asbasbasbag69
(g85
g71
NtRp3604
(dp3605
g74
(dp3606
sg83
g3264
sg76
(lp3607
g69
(g90
g71
NtRp3608
(dp3609
g74
(dp3610
g94
g95
ssg83
g3604
sg76
(lp3611
S'SCRIPT_NAME'
p3612
asbag69
(g90
g71
NtRp3613
(dp3614
g74
(dp3615
g101
g102
ssg83
g3604
sg76
(lp3616
S':'
asbag69
(g90
g71
NtRp3617
(dp3618
g74
(dp3619
sg83
g3604
sg76
(lp3620
g69
(g70
g71
NtRp3621
(dp3622
g74
(dp3623
g82
I3
ssg83
g3617
sg76
(lp3624
S''
asbasbasbag69
(g85
g71
NtRp3625
(dp3626
g74
(dp3627
sg83
g3264
sg76
(lp3628
g69
(g90
g71
NtRp3629
(dp3630
g74
(dp3631
g94
g95
ssg83
g3625
sg76
(lp3632
S'SERVER_NAME'
p3633
asbag69
(g90
g71
NtRp3634
(dp3635
g74
(dp3636
g101
g102
ssg83
g3625
sg76
(lp3637
S':'
asbag69
(g90
g71
NtRp3638
(dp3639
g74
(dp3640
sg83
g3625
sg76
(lp3641
g69
(g70
g71
NtRp3642
(dp3643
g74
(dp3644
g82
I3
ssg83
g3638
sg76
(lp3645
g2126
asbasbasbag69
(g85
g71
NtRp3646
(dp3647
g74
(dp3648
sg83
g3264
sg76
(lp3649
g69
(g90
g71
NtRp3650
(dp3651
g74
(dp3652
g94
g95
ssg83
g3646
sg76
(lp3653
S'SERVER_PORT'
p3654
asbag69
(g90
g71
NtRp3655
(dp3656
g74
(dp3657
g101
g102
ssg83
g3646
sg76
(lp3658
S':'
asbag69
(g90
g71
NtRp3659
(dp3660
g74
(dp3661
sg83
g3646
sg76
(lp3662
g69
(g70
g71
NtRp3663
(dp3664
g74
(dp3665
g82
I3
ssg83
g3659
sg76
(lp3666
g2148
asbasbasbag69
(g85
g71
NtRp3667
(dp3668
g74
(dp3669
sg83
g3264
sg76
(lp3670
g69
(g90
g71
NtRp3671
(dp3672
g74
(dp3673
g94
g95
ssg83
g3667
sg76
(lp3674
S'SERVER_PROTOCOL'
p3675
asbag69
(g90
g71
NtRp3676
(dp3677
g74
(dp3678
g101
g102
ssg83
g3667
sg76
(lp3679
S':'
asbag69
(g90
g71
NtRp3680
(dp3681
g74
(dp3682
sg83
g3667
sg76
(lp3683
g69
(g70
g71
NtRp3684
(dp3685
g74
(dp3686
g82
I3
ssg83
g3680
sg76
(lp3687
g2170
asbasbasbag69
(g85
g71
NtRp3688
(dp3689
g74
(dp3690
sg83
g3264
sg76
(lp3691
g69
(g90
g71
NtRp3692
(dp3693
g74
(dp3694
g94
g95
ssg83
g3688
sg76
(lp3695
S'SERVER_SOFTWARE'
p3696
asbag69
(g90
g71
NtRp3697
(dp3698
g74
(dp3699
g101
g102
ssg83
g3688
sg76
(lp3700
S':'
asbag69
(g90
g71
NtRp3701
(dp3702
g74
(dp3703
sg83
g3688
sg76
(lp3704
g69
(g70
g71
NtRp3705
(dp3706
g74
(dp3707
g82
I3
ssg83
g3701
sg76
(lp3708
g2192
asbasbasbag69
(g85
g71
NtRp3709
(dp3710
g74
(dp3711
sg83
g3264
sg76
(lp3712
g69
(g90
g71
NtRp3713
(dp3714
g74
(dp3715
g94
g95
ssg83
g3709
sg76
(lp3716
S'wsgi.errors'
p3717
asbag69
(g90
g71
NtRp3718
(dp3719
g74
(dp3720
g101
g102
ssg83
g3709
sg76
(lp3721
S':'
asbag69
(g90
g71
NtRp3722
(dp3723
g74
(dp3724
sg83
g3709
sg76
(lp3725
g69
(g70
g71
NtRp3726
(dp3727
g74
(dp3728
g82
I3
ssg83
g3722
sg76
(lp3729
S"<open file '<stderr>', mode 'w' at 0xb789e0d0>"
p3730
asbasbasbag69
(g85
g71
NtRp3731
(dp3732
g74
(dp3733
sg83
g3264
sg76
(lp3734
g69
(g90
g71
NtRp3735
(dp3736
g74
(dp3737
g94
g95
ssg83
g3731
sg76
(lp3738
S'wsgi.file_wrapper'
p3739
asbag69
(g90
g71
NtRp3740
(dp3741
g74
(dp3742
g101
g102
ssg83
g3731
sg76
(lp3743
S':'
asbag69
(g90
g71
NtRp3744
(dp3745
g74
(dp3746
sg83
g3731
sg76
(lp3747
g69
(g70
g71
NtRp3748
(dp3749
g74
(dp3750
g82
I3
ssg83
g3744
sg76
(lp3751
S'<class wsgiref.util.FileWrapper at 0xa4afddc>'
p3752
asbasbasbag69
(g85
g71
NtRp3753
(dp3754
g74
(dp3755
sg83
g3264
sg76
(lp3756
g69
(g90
g71
NtRp3757
(dp3758
g74
(dp3759
g94
g95
ssg83
g3753
sg76
(lp3760
S'wsgi.input'
p3761
asbag69
(g90
g71
NtRp3762
(dp3763
g74
(dp3764
g101
g102
ssg83
g3753
sg76
(lp3765
S':'
asbag69
(g90
g71
NtRp3766
(dp3767
g74
(dp3768
sg83
g3753
sg76
(lp3769
g69
(g70
g71
NtRp3770
(dp3771
g74
(dp3772
g82
I3
ssg83
g3766
sg76
(lp3773
S'<cStringIO.StringO object at 0xaffc0e0>'
p3774
asbasbasbag69
(g85
g71
NtRp3775
(dp3776
g74
(dp3777
sg83
g3264
sg76
(lp3778
g69
(g90
g71
NtRp3779
(dp3780
g74
(dp3781
g94
g95
ssg83
g3775
sg76
(lp3782
S'wsgi.multiprocess'
p3783
asbag69
(g90
g71
NtRp3784
(dp3785
g74
(dp3786
g101
g102
ssg83
g3775
sg76
(lp3787
S':'
asbag69
(g90
g71
NtRp3788
(dp3789
g74
(dp3790
sg83
g3775
sg76
(lp3791
g69
(g70
g71
NtRp3792
(dp3793
g74
(dp3794
g82
I3
ssg83
g3788
sg76
(lp3795
g112
asbasbasbag69
(g85
g71
NtRp3796
(dp3797
g74
(dp3798
sg83
g3264
sg76
(lp3799
g69
(g90
g71
NtRp3800
(dp3801
g74
(dp3802
g94
g95
ssg83
g3796
sg76
(lp3803
S'wsgi.multithread'
p3804
asbag69
(g90
g71
NtRp3805
(dp3806
g74
(dp3807
g101
g102
ssg83
g3796
sg76
(lp3808
S':'
asbag69
(g90
g71
NtRp3809
(dp3810
g74
(dp3811
sg83
g3796
sg76
(lp3812
g69
(g70
g71
NtRp3813
(dp3814
g74
(dp3815
g82
I3
ssg83
g3809
sg76
(lp3816
g2409
asbasbasbag69
(g85
g71
NtRp3817
(dp3818
g74
(dp3819
sg83
g3264
sg76
(lp3820
g69
(g90
g71
NtRp3821
(dp3822
g74
(dp3823
g94
g95
ssg83
g3817
sg76
(lp3824
S'wsgi.run_once'
p3825
asbag69
(g90
g71
NtRp3826
(dp3827
g74
(dp3828
g101
g102
ssg83
g3817
sg76
(lp3829
S':'
asbag69
(g90
g71
NtRp3830
(dp3831
g74
(dp3832
sg83
g3817
sg76
(lp3833
g69
(g70
g71
NtRp3834
(dp3835
g74
(dp3836
g82
I3
ssg83
g3830
sg76
(lp3837
g112
asbasbasbag69
(g85
g71
NtRp3838
(dp3839
g74
(dp3840
sg83
g3264
sg76
(lp3841
g69
(g90
g71
NtRp3842
(dp3843
g74
(dp3844
g94
g95
ssg83
g3838
sg76
(lp3845
S'wsgi.url_scheme'
p3846
asbag69
(g90
g71
NtRp3847
(dp3848
g74
(dp3849
g101
g102
ssg83
g3838
sg76
(lp3850
S':'
asbag69
(g90
g71
NtRp3851
(dp3852
g74
(dp3853
sg83
g3838
sg76
(lp3854
g69
(g70
g71
NtRp3855
(dp3856
g74
(dp3857
g82
I3
ssg83
g3851
sg76
(lp3858
g2452
asbasbasbag69
(g85
g71
NtRp3859
(dp3860
g74
(dp3861
sg83
g3264
sg76
(lp3862
g69
(g90
g71
NtRp3863
(dp3864
g74
(dp3865
g94
g95
ssg83
g3859
sg76
(lp3866
S'wsgi.version'
p3867
asbag69
(g90
g71
NtRp3868
(dp3869
g74
(dp3870
g101
g102
ssg83
g3859
sg76
(lp3871
S':'
asbag69
(g90
g71
NtRp3872
(dp3873
g74
(dp3874
sg83
g3859
sg76
(lp3875
g69
(g70
g71
NtRp3876
(dp3877
g74
(dp3878
g82
I3
ssg83
g3872
sg76
(lp3879
S'1'
asbasbasbasbasbasbasbasbasbasbasbasbasbsS'frames'
p3880
(lp3881
(dp3882
S'file'
p3883
S'/home/pratyush/web2py/gluon/restricted.py'
p3884
sS'dump'
p3885
(dp3886
S'code'
p3887
S'"# -*- coding: utf-8 -*-\\n\\n#######################...s\'))\\n                Field(\'description\',\'text\'))"'
p3888
sS'layer'
p3889
S"'/home/pratyush/web2py/applications/BuySell/models/db.py'"
p3890
sS'global compile2'
p3891
S'<function compile2>'
p3892
sS'ccode'
p3893
S'undefined'
p3894
ssS'lnum'
p3895
I211
sS'lines'
p3896
(dp3897
I206
S"    environment['__name__'] = '__restricted__'"
p3898
sI207
S'    try:'
p3899
sI208
S'        if isinstance(code, types.CodeType):'
p3900
sI209
S'            ccode = code'
p3901
sI210
S'        else:'
p3902
sI211
S'            ccode = compile2(code, layer)'
p3903
sI212
S'        exec ccode in environment'
p3904
sI213
S'    except HTTP:'
p3905
sI214
S'        raise'
p3906
sI215
S'    except RestrictedError:'
p3907
ssS'call'
p3908
S'(code="# -*- coding: utf-8 -*-\\n\\n#######################...s\'))\\n                Field(\'description\',\'text\'))", environment={\'A\': <class \'gluon.html.A\'>, \'B\': <class \'gluon.html.B\'>, \'BEAUTIFY\': <class \'gluon.html.BEAUTIFY\'>, \'BODY\': <class \'gluon.html.BODY\'>, \'BR\': <class \'gluon.html.BR\'>, \'BUTTON\': <class \'gluon.html.BUTTON\'>, \'CAT\': <class \'gluon.html.CAT\'>, \'CENTER\': <class \'gluon.html.CENTER\'>, \'CLEANUP\': <class \'gluon.validators.CLEANUP\'>, \'CODE\': <class \'gluon.html.CODE\'>, ...}, layer=\'/home/pratyush/web2py/applications/BuySell/models/db.py\')'
p3909
sS'func'
p3910
S'restricted'
p3911
sa(dp3912
g3883
S'/home/pratyush/web2py/gluon/restricted.py'
p3913
sg3885
(dp3914
S'builtincompile'
p3915
S'<built-in function compile>'
p3916
sS'code'
p3917
S'"# -*- coding: utf-8 -*-\\n\\n#######################...s\'))\\n                Field(\'description\',\'text\'))"'
p3918
sS'code.rstrip'
p3919
S'<built-in method rstrip of str object>'
p3920
sS').replace'
p3921
g3894
sS'layer'
p3922
S"'/home/pratyush/web2py/applications/BuySell/models/db.py'"
p3923
ssg3895
I194
sg3896
(dp3924
I192
S"    The +'\\n' is necessary else compile fails when code ends in a comment."
p3925
sI193
S'    """'
p3926
sI194
S"    return compile(code.rstrip().replace('\\r\\n', '\\n') + '\\n', layer, 'exec')"
p3927
sI195
S''
sI196
S''
sI197
S"def restricted(code, environment=None, layer='Unknown'):"
p3928
sI198
S'    """'
p3929
sI189
S''
sI190
S'def compile2(code, layer):'
p3930
sI191
S'    """'
p3931
ssg3908
S'(code="# -*- coding: utf-8 -*-\\n\\n#######################...s\'))\\n                Field(\'description\',\'text\'))", layer=\'/home/pratyush/web2py/applications/BuySell/models/db.py\')'
p3932
sg3910
S'compile2'
p3933
sasS'pyver'
p3934
S'Python 2.7.2+: /usr/bin/python2.7'
p3935
sS'session'
p3936
g69
(g70
g71
NtRp3937
(dp3938
g74
(dp3939
sg76
(lp3940
g69
(g78
g71
NtRp3941
(dp3942
g74
(dp3943
g82
I5
ssg83
Nsg76
(lp3944
g69
(g85
g71
NtRp3945
(dp3946
g74
(dp3947
sg83
g3941
sg76
(lp3948
g69
(g90
g71
NtRp3949
(dp3950
g74
(dp3951
g94
g95
ssg83
g3945
sg76
(lp3952
S'auth'
p3953
asbag69
(g90
g71
NtRp3954
(dp3955
g74
(dp3956
g101
g102
ssg83
g3945
sg76
(lp3957
S':'
asbag69
(g90
g71
NtRp3958
(dp3959
g74
(dp3960
sg83
g3945
sg76
(lp3961
g69
(g70
g71
NtRp3962
(dp3963
g74
(dp3964
g82
I5
ssg83
g3958
sg76
(lp3965
g69
(g78
g71
NtRp3966
(dp3967
g74
(dp3968
g82
I4
ssg83
Nsg76
(lp3969
g69
(g85
g71
NtRp3970
(dp3971
g74
(dp3972
sg83
g3966
sg76
(lp3973
g69
(g90
g71
NtRp3974
(dp3975
g74
(dp3976
g94
g95
ssg83
g3970
sg76
(lp3977
S'expiration'
p3978
asbag69
(g90
g71
NtRp3979
(dp3980
g74
(dp3981
g101
g102
ssg83
g3970
sg76
(lp3982
S':'
asbag69
(g90
g71
NtRp3983
(dp3984
g74
(dp3985
sg83
g3970
sg76
(lp3986
g69
(g70
g71
NtRp3987
(dp3988
g74
(dp3989
g82
I4
ssg83
g3983
sg76
(lp3990
S'3600'
p3991
asbasbasbag69
(g85
g71
NtRp3992
(dp3993
g74
(dp3994
sg83
g3966
sg76
(lp3995
g69
(g90
g71
NtRp3996
(dp3997
g74
(dp3998
g94
g95
ssg83
g3992
sg76
(lp3999
S'hmac_key'
p4000
asbag69
(g90
g71
NtRp4001
(dp4002
g74
(dp4003
g101
g102
ssg83
g3992
sg76
(lp4004
S':'
asbag69
(g90
g71
NtRp4005
(dp4006
g74
(dp4007
sg83
g3992
sg76
(lp4008
g69
(g70
g71
NtRp4009
(dp4010
g74
(dp4011
g82
I4
ssg83
g4005
sg76
(lp4012
S'143b6fc1-7d39-4b81-9961-9e7f32b94083'
p4013
asbasbasbag69
(g85
g71
NtRp4014
(dp4015
g74
(dp4016
sg83
g3966
sg76
(lp4017
g69
(g90
g71
NtRp4018
(dp4019
g74
(dp4020
g94
g95
ssg83
g4014
sg76
(lp4021
S'last_visit'
p4022
asbag69
(g90
g71
NtRp4023
(dp4024
g74
(dp4025
g101
g102
ssg83
g4014
sg76
(lp4026
S':'
asbag69
(g90
g71
NtRp4027
(dp4028
g74
(dp4029
sg83
g4014
sg76
(lp4030
g69
(g70
g71
NtRp4031
(dp4032
g74
(dp4033
g82
I4
ssg83
g4027
sg76
(lp4034
S'datetime.datetime(2013, 4, 22, 14, 12, 40, 55774)'
p4035
asbasbasbag69
(g85
g71
NtRp4036
(dp4037
g74
(dp4038
sg83
g3966
sg76
(lp4039
g69
(g90
g71
NtRp4040
(dp4041
g74
(dp4042
g94
g95
ssg83
g4036
sg76
(lp4043
S'remember'
p4044
asbag69
(g90
g71
NtRp4045
(dp4046
g74
(dp4047
g101
g102
ssg83
g4036
sg76
(lp4048
S':'
asbag69
(g90
g71
NtRp4049
(dp4050
g74
(dp4051
sg83
g4036
sg76
(lp4052
g69
(g70
g71
NtRp4053
(dp4054
g74
(dp4055
g82
I4
ssg83
g4049
sg76
(lp4056
g112
asbasbasbag69
(g85
g71
NtRp4057
(dp4058
g74
(dp4059
sg83
g3966
sg76
(lp4060
g69
(g90
g71
NtRp4061
(dp4062
g74
(dp4063
g94
g95
ssg83
g4057
sg76
(lp4064
S'user'
p4065
asbag69
(g90
g71
NtRp4066
(dp4067
g74
(dp4068
g101
g102
ssg83
g4057
sg76
(lp4069
S':'
asbag69
(g90
g71
NtRp4070
(dp4071
g74
(dp4072
sg83
g4057
sg76
(lp4073
g69
(g70
g71
NtRp4074
(dp4075
g74
(dp4076
g82
I4
ssg83
g4070
sg76
(lp4077
g69
(g78
g71
NtRp4078
(dp4079
g74
(dp4080
g82
I3
ssg83
Nsg76
(lp4081
g69
(g85
g71
NtRp4082
(dp4083
g74
(dp4084
sg83
g4078
sg76
(lp4085
g69
(g90
g71
NtRp4086
(dp4087
g74
(dp4088
g94
g95
ssg83
g4082
sg76
(lp4089
S'email'
p4090
asbag69
(g90
g71
NtRp4091
(dp4092
g74
(dp4093
g101
g102
ssg83
g4082
sg76
(lp4094
S':'
asbag69
(g90
g71
NtRp4095
(dp4096
g74
(dp4097
sg83
g4082
sg76
(lp4098
g69
(g70
g71
NtRp4099
(dp4100
g74
(dp4101
g82
I3
ssg83
g4095
sg76
(lp4102
S'pratyush.nigam@gmail.com'
p4103
asbasbasbag69
(g85
g71
NtRp4104
(dp4105
g74
(dp4106
sg83
g4078
sg76
(lp4107
g69
(g90
g71
NtRp4108
(dp4109
g74
(dp4110
g94
g95
ssg83
g4104
sg76
(lp4111
S'first_name'
p4112
asbag69
(g90
g71
NtRp4113
(dp4114
g74
(dp4115
g101
g102
ssg83
g4104
sg76
(lp4116
S':'
asbag69
(g90
g71
NtRp4117
(dp4118
g74
(dp4119
sg83
g4104
sg76
(lp4120
g69
(g70
g71
NtRp4121
(dp4122
g74
(dp4123
g82
I3
ssg83
g4117
sg76
(lp4124
S'Pratyush'
p4125
asbasbasbag69
(g85
g71
NtRp4126
(dp4127
g74
(dp4128
sg83
g4078
sg76
(lp4129
g69
(g90
g71
NtRp4130
(dp4131
g74
(dp4132
g94
g95
ssg83
g4126
sg76
(lp4133
S'id'
p4134
asbag69
(g90
g71
NtRp4135
(dp4136
g74
(dp4137
g101
g102
ssg83
g4126
sg76
(lp4138
S':'
asbag69
(g90
g71
NtRp4139
(dp4140
g74
(dp4141
sg83
g4126
sg76
(lp4142
g69
(g70
g71
NtRp4143
(dp4144
g74
(dp4145
g82
I3
ssg83
g4139
sg76
(lp4146
S'1'
asbasbasbag69
(g85
g71
NtRp4147
(dp4148
g74
(dp4149
sg83
g4078
sg76
(lp4150
g69
(g90
g71
NtRp4151
(dp4152
g74
(dp4153
g94
g95
ssg83
g4147
sg76
(lp4154
S'last_name'
p4155
asbag69
(g90
g71
NtRp4156
(dp4157
g74
(dp4158
g101
g102
ssg83
g4147
sg76
(lp4159
S':'
asbag69
(g90
g71
NtRp4160
(dp4161
g74
(dp4162
sg83
g4147
sg76
(lp4163
g69
(g70
g71
NtRp4164
(dp4165
g74
(dp4166
g82
I3
ssg83
g4160
sg76
(lp4167
S'Nigam'
p4168
asbasbasbag69
(g85
g71
NtRp4169
(dp4170
g74
(dp4171
sg83
g4078
sg76
(lp4172
g69
(g90
g71
NtRp4173
(dp4174
g74
(dp4175
g94
g95
ssg83
g4169
sg76
(lp4176
S'registration_id'
p4177
asbag69
(g90
g71
NtRp4178
(dp4179
g74
(dp4180
g101
g102
ssg83
g4169
sg76
(lp4181
S':'
asbag69
(g90
g71
NtRp4182
(dp4183
g74
(dp4184
sg83
g4169
sg76
(lp4185
g69
(g70
g71
NtRp4186
(dp4187
g74
(dp4188
g82
I3
ssg83
g4182
sg76
(lp4189
S''
asbasbasbag69
(g85
g71
NtRp4190
(dp4191
g74
(dp4192
sg83
g4078
sg76
(lp4193
g69
(g90
g71
NtRp4194
(dp4195
g74
(dp4196
g94
g95
ssg83
g4190
sg76
(lp4197
S'registration_key'
p4198
asbag69
(g90
g71
NtRp4199
(dp4200
g74
(dp4201
g101
g102
ssg83
g4190
sg76
(lp4202
S':'
asbag69
(g90
g71
NtRp4203
(dp4204
g74
(dp4205
sg83
g4190
sg76
(lp4206
g69
(g70
g71
NtRp4207
(dp4208
g74
(dp4209
g82
I3
ssg83
g4203
sg76
(lp4210
S''
asbasbasbag69
(g85
g71
NtRp4211
(dp4212
g74
(dp4213
sg83
g4078
sg76
(lp4214
g69
(g90
g71
NtRp4215
(dp4216
g74
(dp4217
g94
g95
ssg83
g4211
sg76
(lp4218
S'reset_password_key'
p4219
asbag69
(g90
g71
NtRp4220
(dp4221
g74
(dp4222
g101
g102
ssg83
g4211
sg76
(lp4223
S':'
asbag69
(g90
g71
NtRp4224
(dp4225
g74
(dp4226
sg83
g4211
sg76
(lp4227
g69
(g70
g71
NtRp4228
(dp4229
g74
(dp4230
g82
I3
ssg83
g4224
sg76
(lp4231
S''
asbasbasbasbasbasbasbag69
(g85
g71
NtRp4232
(dp4233
g74
(dp4234
sg83
g3966
sg76
(lp4235
g69
(g90
g71
NtRp4236
(dp4237
g74
(dp4238
g94
g95
ssg83
g4232
sg76
(lp4239
S'user_groups'
p4240
asbag69
(g90
g71
NtRp4241
(dp4242
g74
(dp4243
g101
g102
ssg83
g4232
sg76
(lp4244
S':'
asbag69
(g90
g71
NtRp4245
(dp4246
g74
(dp4247
sg83
g4232
sg76
(lp4248
g69
(g70
g71
NtRp4249
(dp4250
g74
(dp4251
g82
I4
ssg83
g4245
sg76
(lp4252
g69
(g78
g71
NtRp4253
(dp4254
g74
(dp4255
g82
I3
ssg83
Nsg76
(lp4256
g69
(g85
g71
NtRp4257
(dp4258
g74
(dp4259
sg83
g4253
sg76
(lp4260
g69
(g90
g71
NtRp4261
(dp4262
g74
(dp4263
g94
g95
ssg83
g4257
sg76
(lp4264
S'1'
asbag69
(g90
g71
NtRp4265
(dp4266
g74
(dp4267
g101
g102
ssg83
g4257
sg76
(lp4268
S':'
asbag69
(g90
g71
NtRp4269
(dp4270
g74
(dp4271
sg83
g4257
sg76
(lp4272
g69
(g70
g71
NtRp4273
(dp4274
g74
(dp4275
g82
I3
ssg83
g4269
sg76
(lp4276
S'user_1'
p4277
asbasbasbasbasbasbasbasbasbasbasbag69
(g85
g71
NtRp4278
(dp4279
g74
(dp4280
sg83
g3941
sg76
(lp4281
g69
(g90
g71
NtRp4282
(dp4283
g74
(dp4284
g94
g95
ssg83
g4278
sg76
(lp4285
S'flash'
p4286
asbag69
(g90
g71
NtRp4287
(dp4288
g74
(dp4289
g101
g102
ssg83
g4278
sg76
(lp4290
S':'
asbag69
(g90
g71
NtRp4291
(dp4292
g74
(dp4293
sg83
g4278
sg76
(lp4294
g69
(g70
g71
NtRp4295
(dp4296
g74
(dp4297
g82
I5
ssg83
g4291
sg76
(lp4298
S'None'
p4299
asbasbasbag69
(g85
g71
NtRp4300
(dp4301
g74
(dp4302
sg83
g3941
sg76
(lp4303
g69
(g90
g71
NtRp4304
(dp4305
g74
(dp4306
g94
g95
ssg83
g4300
sg76
(lp4307
S'last_orderby'
p4308
asbag69
(g90
g71
NtRp4309
(dp4310
g74
(dp4311
g101
g102
ssg83
g4300
sg76
(lp4312
S':'
asbag69
(g90
g71
NtRp4313
(dp4314
g74
(dp4315
sg83
g4300
sg76
(lp4316
g69
(g70
g71
NtRp4317
(dp4318
g74
(dp4319
g82
I5
ssg83
g4313
sg76
(lp4320
S'None'
p4321
asbasbasbag69
(g85
g71
NtRp4322
(dp4323
g74
(dp4324
sg83
g3941
sg76
(lp4325
g69
(g90
g71
NtRp4326
(dp4327
g74
(dp4328
g94
g95
ssg83
g4322
sg76
(lp4329
S'last_query'
p4330
asbag69
(g90
g71
NtRp4331
(dp4332
g74
(dp4333
g101
g102
ssg83
g4322
sg76
(lp4334
S':'
asbag69
(g90
g71
NtRp4335
(dp4336
g74
(dp4337
sg83
g4322
sg76
(lp4338
g69
(g70
g71
NtRp4339
(dp4340
g74
(dp4341
g82
I5
ssg83
g4335
sg76
(lp4342
S'db.item.id>0'
p4343
asbasbasbasbasbsS'etype'
p4344
S"<type 'exceptions.SyntaxError'>"
p4345
sS'date'
p4346
S'Mon Apr 22 14:15:01 2013'
p4347
sS'response'
p4348
g69
(g70
g71
NtRp4349
(dp4350
g74
(dp4351
sg76
(lp4352
g69
(g78
g71
NtRp4353
(dp4354
g74
(dp4355
g82
I5
ssg83
Nsg76
(lp4356
g69
(g85
g71
NtRp4357
(dp4358
g74
(dp4359
sg83
g4353
sg76
(lp4360
g69
(g90
g71
NtRp4361
(dp4362
g74
(dp4363
g94
g95
ssg83
g4357
sg76
(lp4364
g193
asbag69
(g90
g71
NtRp4365
(dp4366
g74
(dp4367
g101
g102
ssg83
g4357
sg76
(lp4368
S':'
asbag69
(g90
g71
NtRp4369
(dp4370
g74
(dp4371
sg83
g4357
sg76
(lp4372
g69
(g70
g71
NtRp4373
(dp4374
g74
(dp4375
g82
I5
ssg83
g4369
sg76
(lp4376
S'<cStringIO.StringO object at 0xb286fe0>'
p4377
asbasbasbag69
(g85
g71
NtRp4378
(dp4379
g74
(dp4380
sg83
g4353
sg76
(lp4381
g69
(g90
g71
NtRp4382
(dp4383
g74
(dp4384
g94
g95
ssg83
g4378
sg76
(lp4385
g281
asbag69
(g90
g71
NtRp4386
(dp4387
g74
(dp4388
g101
g102
ssg83
g4378
sg76
(lp4389
S':'
asbag69
(g90
g71
NtRp4390
(dp4391
g74
(dp4392
sg83
g4378
sg76
(lp4393
g69
(g70
g71
NtRp4394
(dp4395
g74
(dp4396
g82
I5
ssg83
g4390
sg76
(lp4397
g69
(g78
g71
NtRp4398
(dp4399
g74
(dp4400
g82
I4
ssg83
Nsg76
(lp4401
g69
(g85
g71
NtRp4402
(dp4403
g74
(dp4404
sg83
g4398
sg76
(lp4405
g69
(g90
g71
NtRp4406
(dp4407
g74
(dp4408
g94
g95
ssg83
g4402
sg76
(lp4409
S'session_id_buysell'
p4410
asbag69
(g90
g71
NtRp4411
(dp4412
g74
(dp4413
g101
g102
ssg83
g4402
sg76
(lp4414
S':'
asbag69
(g90
g71
NtRp4415
(dp4416
g74
(dp4417
sg83
g4402
sg76
(lp4418
g69
(g70
g71
NtRp4419
(dp4420
g74
(dp4421
g82
I4
ssg83
g4415
sg76
(lp4422
g699
ag69
(g78
g71
NtRp4423
(dp4424
g74
(dp4425
g82
I3
ssg83
Nsg76
(lp4426
g69
(g85
g71
NtRp4427
(dp4428
g74
(dp4429
sg83
g4423
sg76
(lp4430
g69
(g90
g71
NtRp4431
(dp4432
g74
(dp4433
g94
g95
ssg83
g4427
sg76
(lp4434
g332
asbag69
(g90
g71
NtRp4435
(dp4436
g74
(dp4437
g101
g102
ssg83
g4427
sg76
(lp4438
S':'
asbag69
(g90
g71
NtRp4439
(dp4440
g74
(dp4441
sg83
g4427
sg76
(lp4442
g69
(g70
g71
NtRp4443
(dp4444
g74
(dp4445
g82
I3
ssg83
g4439
sg76
(lp4446
S''
asbasbasbag69
(g85
g71
NtRp4447
(dp4448
g74
(dp4449
sg83
g4423
sg76
(lp4450
g69
(g90
g71
NtRp4451
(dp4452
g74
(dp4453
g94
g95
ssg83
g4447
sg76
(lp4454
g353
asbag69
(g90
g71
NtRp4455
(dp4456
g74
(dp4457
g101
g102
ssg83
g4447
sg76
(lp4458
S':'
asbag69
(g90
g71
NtRp4459
(dp4460
g74
(dp4461
sg83
g4447
sg76
(lp4462
g69
(g70
g71
NtRp4463
(dp4464
g74
(dp4465
g82
I3
ssg83
g4459
sg76
(lp4466
S''
asbasbasbag69
(g85
g71
NtRp4467
(dp4468
g74
(dp4469
sg83
g4423
sg76
(lp4470
g69
(g90
g71
NtRp4471
(dp4472
g74
(dp4473
g94
g95
ssg83
g4467
sg76
(lp4474
g374
asbag69
(g90
g71
NtRp4475
(dp4476
g74
(dp4477
g101
g102
ssg83
g4467
sg76
(lp4478
S':'
asbag69
(g90
g71
NtRp4479
(dp4480
g74
(dp4481
sg83
g4467
sg76
(lp4482
g69
(g70
g71
NtRp4483
(dp4484
g74
(dp4485
g82
I3
ssg83
g4479
sg76
(lp4486
S''
asbasbasbag69
(g85
g71
NtRp4487
(dp4488
g74
(dp4489
sg83
g4423
sg76
(lp4490
g69
(g90
g71
NtRp4491
(dp4492
g74
(dp4493
g94
g95
ssg83
g4487
sg76
(lp4494
g395
asbag69
(g90
g71
NtRp4495
(dp4496
g74
(dp4497
g101
g102
ssg83
g4487
sg76
(lp4498
S':'
asbag69
(g90
g71
NtRp4499
(dp4500
g74
(dp4501
sg83
g4487
sg76
(lp4502
g69
(g70
g71
NtRp4503
(dp4504
g74
(dp4505
g82
I3
ssg83
g4499
sg76
(lp4506
S''
asbasbasbag69
(g85
g71
NtRp4507
(dp4508
g74
(dp4509
sg83
g4423
sg76
(lp4510
g69
(g90
g71
NtRp4511
(dp4512
g74
(dp4513
g94
g95
ssg83
g4507
sg76
(lp4514
g416
asbag69
(g90
g71
NtRp4515
(dp4516
g74
(dp4517
g101
g102
ssg83
g4507
sg76
(lp4518
S':'
asbag69
(g90
g71
NtRp4519
(dp4520
g74
(dp4521
sg83
g4507
sg76
(lp4522
g69
(g70
g71
NtRp4523
(dp4524
g74
(dp4525
g82
I3
ssg83
g4519
sg76
(lp4526
S''
asbasbasbag69
(g85
g71
NtRp4527
(dp4528
g74
(dp4529
sg83
g4423
sg76
(lp4530
g69
(g90
g71
NtRp4531
(dp4532
g74
(dp4533
g94
g95
ssg83
g4527
sg76
(lp4534
g437
asbag69
(g90
g71
NtRp4535
(dp4536
g74
(dp4537
g101
g102
ssg83
g4527
sg76
(lp4538
S':'
asbag69
(g90
g71
NtRp4539
(dp4540
g74
(dp4541
sg83
g4527
sg76
(lp4542
g69
(g70
g71
NtRp4543
(dp4544
g74
(dp4545
g82
I3
ssg83
g4539
sg76
(lp4546
S'/'
asbasbasbag69
(g85
g71
NtRp4547
(dp4548
g74
(dp4549
sg83
g4423
sg76
(lp4550
g69
(g90
g71
NtRp4551
(dp4552
g74
(dp4553
g94
g95
ssg83
g4547
sg76
(lp4554
g458
asbag69
(g90
g71
NtRp4555
(dp4556
g74
(dp4557
g101
g102
ssg83
g4547
sg76
(lp4558
S':'
asbag69
(g90
g71
NtRp4559
(dp4560
g74
(dp4561
sg83
g4547
sg76
(lp4562
g69
(g70
g71
NtRp4563
(dp4564
g74
(dp4565
g82
I3
ssg83
g4559
sg76
(lp4566
S''
asbasbasbag69
(g85
g71
NtRp4567
(dp4568
g74
(dp4569
sg83
g4423
sg76
(lp4570
g69
(g90
g71
NtRp4571
(dp4572
g74
(dp4573
g94
g95
ssg83
g4567
sg76
(lp4574
g479
asbag69
(g90
g71
NtRp4575
(dp4576
g74
(dp4577
g101
g102
ssg83
g4567
sg76
(lp4578
S':'
asbag69
(g90
g71
NtRp4579
(dp4580
g74
(dp4581
sg83
g4567
sg76
(lp4582
g69
(g70
g71
NtRp4583
(dp4584
g74
(dp4585
g82
I3
ssg83
g4579
sg76
(lp4586
S''
asbasbasbasbasbasbasbasbasbasbasbag69
(g85
g71
NtRp4587
(dp4588
g74
(dp4589
sg83
g4353
sg76
(lp4590
g69
(g90
g71
NtRp4591
(dp4592
g74
(dp4593
g94
g95
ssg83
g4587
sg76
(lp4594
S'delimiters'
p4595
asbag69
(g90
g71
NtRp4596
(dp4597
g74
(dp4598
g101
g102
ssg83
g4587
sg76
(lp4599
S':'
asbag69
(g90
g71
NtRp4600
(dp4601
g74
(dp4602
sg83
g4587
sg76
(lp4603
g69
(g70
g71
NtRp4604
(dp4605
g74
(dp4606
g82
I5
ssg83
g4600
sg76
(lp4607
g69
(g78
g71
NtRp4608
(dp4609
g74
(dp4610
g82
I4
ssg83
Nsg76
(lp4611
g69
(g85
g71
NtRp4612
(dp4613
g74
(dp4614
sg83
g4608
sg76
(lp4615
g69
(g90
g71
NtRp4616
(dp4617
g74
(dp4618
sg83
g4612
sg76
(lp4619
g69
(g70
g71
NtRp4620
(dp4621
g74
(dp4622
g82
I4
ssg83
g4616
sg76
(lp4623
S'{{'
p4624
asbasbasbag69
(g85
g71
NtRp4625
(dp4626
g74
(dp4627
sg83
g4608
sg76
(lp4628
g69
(g90
g71
NtRp4629
(dp4630
g74
(dp4631
sg83
g4625
sg76
(lp4632
g69
(g70
g71
NtRp4633
(dp4634
g74
(dp4635
g82
I4
ssg83
g4629
sg76
(lp4636
S'}}'
p4637
asbasbasbasbasbasbasbag69
(g85
g71
NtRp4638
(dp4639
g74
(dp4640
sg83
g4353
sg76
(lp4641
g69
(g90
g71
NtRp4642
(dp4643
g74
(dp4644
g94
g95
ssg83
g4638
sg76
(lp4645
S'files'
p4646
asbag69
(g90
g71
NtRp4647
(dp4648
g74
(dp4649
g101
g102
ssg83
g4638
sg76
(lp4650
S':'
asbag69
(g90
g71
NtRp4651
(dp4652
g74
(dp4653
sg83
g4638
sg76
(lp4654
g69
(g70
g71
NtRp4655
(dp4656
g74
(dp4657
g82
I5
ssg83
g4651
sg76
(lp4658
g69
(g78
g71
NtRp4659
(dp4660
g74
(dp4661
g82
I4
ssg83
Nsg76
(lp4662
sbasbasbasbag69
(g85
g71
NtRp4663
(dp4664
g74
(dp4665
sg83
g4353
sg76
(lp4666
g69
(g90
g71
NtRp4667
(dp4668
g74
(dp4669
g94
g95
ssg83
g4663
sg76
(lp4670
S'flash'
p4671
asbag69
(g90
g71
NtRp4672
(dp4673
g74
(dp4674
g101
g102
ssg83
g4663
sg76
(lp4675
S':'
asbag69
(g90
g71
NtRp4676
(dp4677
g74
(dp4678
sg83
g4663
sg76
(lp4679
g69
(g70
g71
NtRp4680
(dp4681
g74
(dp4682
g82
I5
ssg83
g4676
sg76
(lp4683
S''
asbasbasbag69
(g85
g71
NtRp4684
(dp4685
g74
(dp4686
sg83
g4353
sg76
(lp4687
g69
(g90
g71
NtRp4688
(dp4689
g74
(dp4690
g94
g95
ssg83
g4684
sg76
(lp4691
S'generic_patterns'
p4692
asbag69
(g90
g71
NtRp4693
(dp4694
g74
(dp4695
g101
g102
ssg83
g4684
sg76
(lp4696
S':'
asbag69
(g90
g71
NtRp4697
(dp4698
g74
(dp4699
sg83
g4684
sg76
(lp4700
g69
(g70
g71
NtRp4701
(dp4702
g74
(dp4703
g82
I5
ssg83
g4697
sg76
(lp4704
g69
(g78
g71
NtRp4705
(dp4706
g74
(dp4707
g82
I4
ssg83
Nsg76
(lp4708
sbasbasbasbag69
(g85
g71
NtRp4709
(dp4710
g74
(dp4711
sg83
g4353
sg76
(lp4712
g69
(g90
g71
NtRp4713
(dp4714
g74
(dp4715
g94
g95
ssg83
g4709
sg76
(lp4716
S'headers'
p4717
asbag69
(g90
g71
NtRp4718
(dp4719
g74
(dp4720
g101
g102
ssg83
g4709
sg76
(lp4721
S':'
asbag69
(g90
g71
NtRp4722
(dp4723
g74
(dp4724
sg83
g4709
sg76
(lp4725
g69
(g70
g71
NtRp4726
(dp4727
g74
(dp4728
g82
I5
ssg83
g4722
sg76
(lp4729
g69
(g78
g71
NtRp4730
(dp4731
g74
(dp4732
g82
I4
ssg83
Nsg76
(lp4733
g69
(g85
g71
NtRp4734
(dp4735
g74
(dp4736
sg83
g4730
sg76
(lp4737
g69
(g90
g71
NtRp4738
(dp4739
g74
(dp4740
g94
g95
ssg83
g4734
sg76
(lp4741
S'X-Powered-By'
p4742
asbag69
(g90
g71
NtRp4743
(dp4744
g74
(dp4745
g101
g102
ssg83
g4734
sg76
(lp4746
S':'
asbag69
(g90
g71
NtRp4747
(dp4748
g74
(dp4749
sg83
g4734
sg76
(lp4750
g69
(g70
g71
NtRp4751
(dp4752
g74
(dp4753
g82
I4
ssg83
g4747
sg76
(lp4754
S'web2py'
p4755
asbasbasbasbasbasbasbag69
(g85
g71
NtRp4756
(dp4757
g74
(dp4758
sg83
g4353
sg76
(lp4759
g69
(g90
g71
NtRp4760
(dp4761
g74
(dp4762
g94
g95
ssg83
g4756
sg76
(lp4763
S'menu'
p4764
asbag69
(g90
g71
NtRp4765
(dp4766
g74
(dp4767
g101
g102
ssg83
g4756
sg76
(lp4768
S':'
asbag69
(g90
g71
NtRp4769
(dp4770
g74
(dp4771
sg83
g4756
sg76
(lp4772
g69
(g70
g71
NtRp4773
(dp4774
g74
(dp4775
g82
I5
ssg83
g4769
sg76
(lp4776
g69
(g78
g71
NtRp4777
(dp4778
g74
(dp4779
g82
I4
ssg83
Nsg76
(lp4780
sbasbasbasbag69
(g85
g71
NtRp4781
(dp4782
g74
(dp4783
sg83
g4353
sg76
(lp4784
g69
(g90
g71
NtRp4785
(dp4786
g74
(dp4787
g94
g95
ssg83
g4781
sg76
(lp4788
S'meta'
p4789
asbag69
(g90
g71
NtRp4790
(dp4791
g74
(dp4792
g101
g102
ssg83
g4781
sg76
(lp4793
S':'
asbag69
(g90
g71
NtRp4794
(dp4795
g74
(dp4796
sg83
g4781
sg76
(lp4797
g69
(g70
g71
NtRp4798
(dp4799
g74
(dp4800
g82
I5
ssg83
g4794
sg76
(lp4801
g69
(g78
g71
NtRp4802
(dp4803
g74
(dp4804
g82
I4
ssg83
Nsg76
(lp4805
sbasbasbasbag69
(g85
g71
NtRp4806
(dp4807
g74
(dp4808
sg83
g4353
sg76
(lp4809
g69
(g90
g71
NtRp4810
(dp4811
g74
(dp4812
g94
g95
ssg83
g4806
sg76
(lp4813
S'models_to_run'
p4814
asbag69
(g90
g71
NtRp4815
(dp4816
g74
(dp4817
g101
g102
ssg83
g4806
sg76
(lp4818
S':'
asbag69
(g90
g71
NtRp4819
(dp4820
g74
(dp4821
sg83
g4806
sg76
(lp4822
g69
(g70
g71
NtRp4823
(dp4824
g74
(dp4825
g82
I5
ssg83
g4819
sg76
(lp4826
g69
(g78
g71
NtRp4827
(dp4828
g74
(dp4829
g82
I4
ssg83
Nsg76
(lp4830
g69
(g85
g71
NtRp4831
(dp4832
g74
(dp4833
sg83
g4827
sg76
(lp4834
g69
(g90
g71
NtRp4835
(dp4836
g74
(dp4837
sg83
g4831
sg76
(lp4838
g69
(g70
g71
NtRp4839
(dp4840
g74
(dp4841
g82
I4
ssg83
g4835
sg76
(lp4842
S'^\\w+\\.py$'
p4843
asbasbasbag69
(g85
g71
NtRp4844
(dp4845
g74
(dp4846
sg83
g4827
sg76
(lp4847
g69
(g90
g71
NtRp4848
(dp4849
g74
(dp4850
sg83
g4844
sg76
(lp4851
g69
(g70
g71
NtRp4852
(dp4853
g74
(dp4854
g82
I4
ssg83
g4848
sg76
(lp4855
S'^appadmin/\\w+\\.py$'
p4856
asbasbasbag69
(g85
g71
NtRp4857
(dp4858
g74
(dp4859
sg83
g4827
sg76
(lp4860
g69
(g90
g71
NtRp4861
(dp4862
g74
(dp4863
sg83
g4857
sg76
(lp4864
g69
(g70
g71
NtRp4865
(dp4866
g74
(dp4867
g82
I4
ssg83
g4861
sg76
(lp4868
S'^appadmin/insert/\\w+\\.py$'
p4869
asbasbasbasbasbasbasbag69
(g85
g71
NtRp4870
(dp4871
g74
(dp4872
sg83
g4353
sg76
(lp4873
g69
(g90
g71
NtRp4874
(dp4875
g74
(dp4876
g94
g95
ssg83
g4870
sg76
(lp4877
S'postprocessing'
p4878
asbag69
(g90
g71
NtRp4879
(dp4880
g74
(dp4881
g101
g102
ssg83
g4870
sg76
(lp4882
S':'
asbag69
(g90
g71
NtRp4883
(dp4884
g74
(dp4885
sg83
g4870
sg76
(lp4886
g69
(g70
g71
NtRp4887
(dp4888
g74
(dp4889
g82
I5
ssg83
g4883
sg76
(lp4890
g69
(g78
g71
NtRp4891
(dp4892
g74
(dp4893
g82
I4
ssg83
Nsg76
(lp4894
sbasbasbasbag69
(g85
g71
NtRp4895
(dp4896
g74
(dp4897
sg83
g4353
sg76
(lp4898
g69
(g90
g71
NtRp4899
(dp4900
g74
(dp4901
g94
g95
ssg83
g4895
sg76
(lp4902
S'session_cookie_expires'
p4903
asbag69
(g90
g71
NtRp4904
(dp4905
g74
(dp4906
g101
g102
ssg83
g4895
sg76
(lp4907
S':'
asbag69
(g90
g71
NtRp4908
(dp4909
g74
(dp4910
sg83
g4895
sg76
(lp4911
g69
(g70
g71
NtRp4912
(dp4913
g74
(dp4914
g82
I5
ssg83
g4908
sg76
(lp4915
S'None'
p4916
asbasbasbag69
(g85
g71
NtRp4917
(dp4918
g74
(dp4919
sg83
g4353
sg76
(lp4920
g69
(g90
g71
NtRp4921
(dp4922
g74
(dp4923
g94
g95
ssg83
g4917
sg76
(lp4924
S'session_data_name'
p4925
asbag69
(g90
g71
NtRp4926
(dp4927
g74
(dp4928
g101
g102
ssg83
g4917
sg76
(lp4929
S':'
asbag69
(g90
g71
NtRp4930
(dp4931
g74
(dp4932
sg83
g4917
sg76
(lp4933
g69
(g70
g71
NtRp4934
(dp4935
g74
(dp4936
g82
I5
ssg83
g4930
sg76
(lp4937
S'session_data_buysell'
p4938
asbasbasbag69
(g85
g71
NtRp4939
(dp4940
g74
(dp4941
sg83
g4353
sg76
(lp4942
g69
(g90
g71
NtRp4943
(dp4944
g74
(dp4945
g94
g95
ssg83
g4939
sg76
(lp4946
S'session_file'
p4947
asbag69
(g90
g71
NtRp4948
(dp4949
g74
(dp4950
g101
g102
ssg83
g4939
sg76
(lp4951
S':'
asbag69
(g90
g71
NtRp4952
(dp4953
g74
(dp4954
sg83
g4939
sg76
(lp4955
g69
(g70
g71
NtRp4956
(dp4957
g74
(dp4958
g82
I5
ssg83
g4952
sg76
(lp4959
S"<open file '/home/pratyush/web2py/applications/BuySell/sessions/127.0.0.1-d5a07803-4f5c-44c8-b05d-2876d30ca822', mode 'rb+' at 0xb447180>"
p4960
asbasbasbag69
(g85
g71
NtRp4961
(dp4962
g74
(dp4963
sg83
g4353
sg76
(lp4964
g69
(g90
g71
NtRp4965
(dp4966
g74
(dp4967
g94
g95
ssg83
g4961
sg76
(lp4968
S'session_filename'
p4969
asbag69
(g90
g71
NtRp4970
(dp4971
g74
(dp4972
g101
g102
ssg83
g4961
sg76
(lp4973
S':'
asbag69
(g90
g71
NtRp4974
(dp4975
g74
(dp4976
sg83
g4961
sg76
(lp4977
g69
(g70
g71
NtRp4978
(dp4979
g74
(dp4980
g82
I5
ssg83
g4974
sg76
(lp4981
S'/home/pratyush/web2py/applications/BuySell/sessions/127.0.0.1-d5a07803-4f5c-44c8-b05d-2876d30ca822'
p4982
asbasbasbag69
(g85
g71
NtRp4983
(dp4984
g74
(dp4985
sg83
g4353
sg76
(lp4986
g69
(g90
g71
NtRp4987
(dp4988
g74
(dp4989
g94
g95
ssg83
g4983
sg76
(lp4990
S'session_id'
p4991
asbag69
(g90
g71
NtRp4992
(dp4993
g74
(dp4994
g101
g102
ssg83
g4983
sg76
(lp4995
S':'
asbag69
(g90
g71
NtRp4996
(dp4997
g74
(dp4998
sg83
g4983
sg76
(lp4999
g69
(g70
g71
NtRp5000
(dp5001
g74
(dp5002
g82
I5
ssg83
g4996
sg76
(lp5003
g699
asbasbasbag69
(g85
g71
NtRp5004
(dp5005
g74
(dp5006
sg83
g4353
sg76
(lp5007
g69
(g90
g71
NtRp5008
(dp5009
g74
(dp5010
g94
g95
ssg83
g5004
sg76
(lp5011
S'session_id_name'
p5012
asbag69
(g90
g71
NtRp5013
(dp5014
g74
(dp5015
g101
g102
ssg83
g5004
sg76
(lp5016
S':'
asbag69
(g90
g71
NtRp5017
(dp5018
g74
(dp5019
sg83
g5004
sg76
(lp5020
g69
(g70
g71
NtRp5021
(dp5022
g74
(dp5023
g82
I5
ssg83
g5017
sg76
(lp5024
g4410
asbasbasbag69
(g85
g71
NtRp5025
(dp5026
g74
(dp5027
sg83
g4353
sg76
(lp5028
g69
(g90
g71
NtRp5029
(dp5030
g74
(dp5031
g94
g95
ssg83
g5025
sg76
(lp5032
S'session_locked'
p5033
asbag69
(g90
g71
NtRp5034
(dp5035
g74
(dp5036
g101
g102
ssg83
g5025
sg76
(lp5037
S':'
asbag69
(g90
g71
NtRp5038
(dp5039
g74
(dp5040
sg83
g5025
sg76
(lp5041
g69
(g70
g71
NtRp5042
(dp5043
g74
(dp5044
g82
I5
ssg83
g5038
sg76
(lp5045
g2409
asbasbasbag69
(g85
g71
NtRp5046
(dp5047
g74
(dp5048
sg83
g4353
sg76
(lp5049
g69
(g90
g71
NtRp5050
(dp5051
g74
(dp5052
g94
g95
ssg83
g5046
sg76
(lp5053
S'session_new'
p5054
asbag69
(g90
g71
NtRp5055
(dp5056
g74
(dp5057
g101
g102
ssg83
g5046
sg76
(lp5058
S':'
asbag69
(g90
g71
NtRp5059
(dp5060
g74
(dp5061
sg83
g5046
sg76
(lp5062
g69
(g70
g71
NtRp5063
(dp5064
g74
(dp5065
g82
I5
ssg83
g5059
sg76
(lp5066
g112
asbasbasbag69
(g85
g71
NtRp5067
(dp5068
g74
(dp5069
sg83
g4353
sg76
(lp5070
g69
(g90
g71
NtRp5071
(dp5072
g74
(dp5073
g94
g95
ssg83
g5067
sg76
(lp5074
S'session_storage_type'
p5075
asbag69
(g90
g71
NtRp5076
(dp5077
g74
(dp5078
g101
g102
ssg83
g5067
sg76
(lp5079
S':'
asbag69
(g90
g71
NtRp5080
(dp5081
g74
(dp5082
sg83
g5067
sg76
(lp5083
g69
(g70
g71
NtRp5084
(dp5085
g74
(dp5086
g82
I5
ssg83
g5080
sg76
(lp5087
g3883
asbasbasbag69
(g85
g71
NtRp5088
(dp5089
g74
(dp5090
sg83
g4353
sg76
(lp5091
g69
(g90
g71
NtRp5092
(dp5093
g74
(dp5094
g94
g95
ssg83
g5088
sg76
(lp5095
S'status'
p5096
asbag69
(g90
g71
NtRp5097
(dp5098
g74
(dp5099
g101
g102
ssg83
g5088
sg76
(lp5100
S':'
asbag69
(g90
g71
NtRp5101
(dp5102
g74
(dp5103
sg83
g5088
sg76
(lp5104
g69
(g70
g71
NtRp5105
(dp5106
g74
(dp5107
g82
I5
ssg83
g5101
sg76
(lp5108
S'200'
p5109
asbasbasbag69
(g85
g71
NtRp5110
(dp5111
g74
(dp5112
sg83
g4353
sg76
(lp5113
g69
(g90
g71
NtRp5114
(dp5115
g74
(dp5116
g94
g95
ssg83
g5110
sg76
(lp5117
S'view'
p5118
asbag69
(g90
g71
NtRp5119
(dp5120
g74
(dp5121
g101
g102
ssg83
g5110
sg76
(lp5122
S':'
asbag69
(g90
g71
NtRp5123
(dp5124
g74
(dp5125
sg83
g5110
sg76
(lp5126
g69
(g70
g71
NtRp5127
(dp5128
g74
(dp5129
g82
I5
ssg83
g5123
sg76
(lp5130
S'appadmin/insert.html'
p5131
asbasbasbasbasbsS'locals'
p5132
(dp5133
g4
S"'/home/pratyush/web2py/applications/BuySell/models/db.py'"
p5134
sg6
S'"# -*- coding: utf-8 -*-\\n\\n#######################...s\'))\\n                Field(\'description\',\'text\'))"'
p5135
sssS'traceback'
p5136
S'Traceback (most recent call last):\n  File "/home/pratyush/web2py/gluon/restricted.py", line 211, in restricted\n    ccode = compile2(code, layer)\n  File "/home/pratyush/web2py/gluon/restricted.py", line 194, in compile2\n    return compile(code.rstrip().replace(\'\\r\\n\', \'\\n\') + \'\\n\', layer, \'exec\')\n  File "/home/pratyush/web2py/applications/BuySell/models/db.py", line 167\n    Field(\'description\',\'text\'))\n        ^\nSyntaxError: invalid syntax\n'
p5137
s.