(dp1
S'output'
p2
S"<type 'exceptions.NameError'> name 'item' is not defined"
p3
sS'layer'
p4
S'/home/pratyush/web2py/applications/BuySell/views/default/list_items.html'
p5
sS'code'
p6
S'response.write(\'<!DOCTYPE html>\\n<!-- paulirish.com/2008/conditional-stylesheets-vs-css-hacks-answer-neither/ -->\\n<!--[if lt IE 7]><html class="ie ie6 ie-lte9 ie-lte8 ie-lte7 no-js" lang="\', escape=False)\nresponse.write(T.accepted_language or \'en\')\nresponse.write(\'"> <![endif]-->\\n<!--[if IE 7]><html class="ie ie7 ie-lte9 ie-lte8 ie-lte7 no-js" lang="\', escape=False)\nresponse.write(T.accepted_language or \'en\')\nresponse.write(\'"> <![endif]-->\\n<!--[if IE 8]><html class="ie ie8 ie-lte9 ie-lte8 no-js" lang="\', escape=False)\nresponse.write(T.accepted_language or \'en\')\nresponse.write(\'"> <![endif]-->\\n<!--[if IE 9]><html class="ie9 ie-lte9 no-js" lang="\', escape=False)\nresponse.write(T.accepted_language or \'en\')\nresponse.write(\'"> <![endif]-->\\n<!--[if (gt IE 9)|!(IE)]><!--> <html class="no-js" lang="\', escape=False)\nresponse.write(T.accepted_language or \'en\')\nresponse.write(\'"> <!--<![endif]-->\\n<head>\\n  <meta charset="utf-8" />\\n  <!-- www.phpied.com/conditional-comments-block-downloads/ -->\\n  <!-- Always force latest IE rendering engine\\n       (even in intranet) & Chrome Frame\\n       Remove this if you use the .htaccess -->\\n  <!--[if IE]>\\n      <meta http-equiv="X-UA-Compatible" content="IE=edge\', escape=False)\nresponse.write(not request.is_local and \',chrome=1\' or \'\')\nresponse.write(\'">\\n      <![endif]-->\\n\\n  <title>Buy/Sell</title>\\n\\n  <!-- http://dev.w3.org/html5/markup/meta.name.html -->\\n  <meta name="application-name" content="\', escape=False)\nresponse.write(request.application)\nresponse.write(\'" />\\n\\n  <!-- Speaking of Google, don\\\'t forget to set your site up:\\n       http://google.com/webmasters -->\\n  <meta name="google-site-verification" content="" />\\n\\n  <!--  Mobile Viewport Fix\\n        j.mp/mobileviewport & davidbcalhoun.com/2010/viewport-metatag\\n        device-width: Occupy full width of the screen in its current orientation\\n        initial-scale = 1.0 retains dimensions instead of zooming out if page height > device height\\n        user-scalable = yes allows the user to zoom in -->\\n  <meta name="viewport" content="width=device-width, initial-scale=1.0" />\\n\\n  <link rel="shortcut icon" href="\', escape=False)\nresponse.write(URL(\'static\',\'images/favicon.ico\'))\nresponse.write(\'" type="image/x-icon">\\n  <link rel="apple-touch-icon" href="\', escape=False)\nresponse.write(URL(\'static\',\'images/favicon.png\'))\nresponse.write(\'">\\n\\n  <!-- All JavaScript at the bottom, except for Modernizr which enables\\n       HTML5 elements & feature detects -->\\n  <script src="\', escape=False)\nresponse.write(URL(\'static\',\'js/modernizr.custom.js\'))\nresponse.write(\'"></script>\\n\\n  <!-- include stylesheets -->\\n  \', escape=False)\nresponse.files.append(URL(\'static\',\'css/web2py.css\'))\nresponse.files.append(URL(\'static\',\'css/bootstrap.min.css\'))\nresponse.files.append(URL(\'static\',\'css/bootstrap-responsive.min.css\'))\nresponse.files.append(URL(\'static\',\'css/web2py_bootstrap.css\'))\nresponse.write(\'\\n\\n  \', escape=False)\nresponse.write(\'<script type="text/javascript"><!--\\n    // These variables are used by the web2py_ajax_init function in web2py_ajax.js (which is loaded below).\\n    var w2p_ajax_confirm_message = "\', escape=False)\nresponse.write(T(\'Are you sure you want to delete this object?\'))\nresponse.write(\'";\\n    var w2p_ajax_date_format = "\', escape=False)\nresponse.write(T(\'%Y-%m-%d\'))\nresponse.write(\'";\\n    var w2p_ajax_datetime_format = "\', escape=False)\nresponse.write(T(\'%Y-%m-%d %H:%M:%S\'))\nresponse.write(\'";\\n    //--></script>\\n\', escape=False)\nresponse.files.insert(0,URL(\'static\',\'js/jquery.js\'))\nresponse.files.insert(1,URL(\'static\',\'css/calendar.css\'))\nresponse.files.insert(2,URL(\'static\',\'js/calendar.js\'))\nresponse.files.insert(3,URL(\'static\',\'js/web2py.js\'))\nresponse.include_meta()\nresponse.include_files()\nresponse.write(\'\\n\', escape=False)\nresponse.write(\'\\n\\n  \', escape=False)\n# using sidebars need to know what sidebar you want to use\nleft_sidebar_enabled = globals().get(\'left_sidebar_enabled\',False)\nright_sidebar_enabled = globals().get(\'right_sidebar_enabled\',False)\nmiddle_columns = {0:\'span12\',1:\'span9\',2:\'span6\'}[\n(left_sidebar_enabled and 1 or 0)+(right_sidebar_enabled and 1 or 0)]\nresponse.write(\'\\n\\n  <!-- uncomment here to load jquery-ui\\n       <link rel="stylesheet" href="http://ajax.googleapis.com/ajax/libs/jqueryui/1.8.16/themes/base/jquery-ui.css" type="text/css" media="all" />\\n       <script src="http://ajax.googleapis.com/ajax/libs/jqueryui/1.8.16/jquery-ui.min.js" type="text/javascript"></script>\\n       uncomment to load jquery-ui //-->\\n  <noscript><link href="\', escape=False)\nresponse.write(URL(\'static\', \'css/web2py_bootstrap_nojs.css\'))\nresponse.write(\'" rel="stylesheet" type="text/css" /></noscript>\\n  \', escape=False)\nresponse.write(\'\\n</head>\\n\\n<body>\\n  <!-- Navbar ================================================== -->\\n  <div class="navbar navbar-inverse navbar-fixed-top">\\n    <div class="flash">\', escape=False)\nresponse.write(response.flash or \'\')\nresponse.write(\'</div>\\n    <div class="navbar-inner">\\n      <div class="container">\\n        <!-- the next tag is necessary for bootstrap menus, do not remove -->\\n        <button type="button" class="btn btn-navbar" data-toggle="collapse" data-target=".nav-collapse">\\n          <span class="icon-bar"></span>\\n          <span class="icon-bar"></span>\\n          <span class="icon-bar"></span>\\n        </button>\\n\\t\', escape=False)\nresponse.write(response.logo or \'\')\nresponse.write(\'\\n        <ul id="navbar" class="nav pull-right">\', escape=False)\nresponse.write(\'auth\' in globals() and auth.navbar(mode="dropdown") or \'\')\nresponse.write(\'</ul>\\n        <div class="nav-collapse">\\n          \', escape=False)\nis_mobile=request.user_agent().is_mobile\nresponse.write(\'\\n          \', escape=False)\nif response.menu:\n    response.write(\'\\n          \', escape=False)\n    response.write(MENU(response.menu, _class=\'mobile-menu nav\' if is_mobile else \'nav\',mobile=is_mobile,li_class=\'dropdown\',ul_class=\'dropdown-menu\'))\n    response.write(\'\\n          \', escape=False)\n    pass\nresponse.write(\'\\n        </div><!--/.nav-collapse -->\\n      </div>\\n    </div>\\n  </div><!--/top navbar -->\\n\\n  <div class="container">\\n  <br /><br />\\n    <!-- Masthead ================================================== -->\\n    <!--<header class="mastheader row" id="header">\\n        <div class="span12">\\n            <div class="page-header">\\n                <h1>\\n                   Buy/Sell \\n                    <small>Your one stop to buy and sell customizable products</small>\\n                </h1>\\n            </div>\\n        </div>\\n    </header>-->\\n\\n    <section id="main" class="main row">\\n        \', escape=False)\nif left_sidebar_enabled:\n    response.write(\'\\n        <div class="span3 left-sidebar">\\n            \', escape=False)\n    response.write(\'\\n            <h3>Left Sidebar</h3>\\n            <p></p>\\n            \', escape=False)\n    response.write(\'\\n        </div>\\n        \', escape=False)\n    pass\nresponse.write(\'\\n\\n        <div class="\', escape=False)\nresponse.write(middle_columns)\nresponse.write(\'">\\n            \', escape=False)\nresponse.write(\'\\n            \', escape=False)\nresponse.write(\'\\n\', escape=False)\nresponse.write(form1)\nresponse.write(\'\\n\', escape=False)\nitems=items\nresponse.write(\'\\n    <table>\\n    \\n    \', escape=False)\nfor i in items:\n    response.write(\'\\n        <tr>    \\n        <td><img src="\', escape=False)\n    response.write(URL(\'download\',args=i.image ))\n    response.write(\'" width=200px height=auto/></td>\\n        <td>\', escape=False)\n    response.write(A(i.name,_href=URL(r=request, f=\'item_d\', args=i.id)))\n    response.write(\' </td>\\n        <td>\\n        \', escape=False)\n    if item.selling_type==\'Bid\':\n        response.write(\'\\n            \', escape=False)\n        response.write(A(\'Bid\',_href=URL(r=request, f=\'place_bid\', args=item.id)))\n        response.write(\'\\n        \', escape=False)\n        pass\n    response.write(\'\\n        \', escape=False)\n    if item.selling_type==\'Buy\':\n        response.write(\'\\n            \', escape=False)\n        response.write(A(\'Buy\',_href=URL(r=request, f=\'buy_item\', args=item.id)))\n        response.write(\'\\n        \', escape=False)\n        pass\n    response.write(\'\\n        </td>\\n        <td>\\n        \\n        \\n        \', escape=False)\n    if item.selling_type==\'Bid\':\n        response.write(\'\\n            \', escape=False)\n        for j in bid:\n            response.write(\'\\n                \', escape=False)\n            if i.id==j.item_id:\n                response.write(\'\\n                    \', escape=False)\n                response.write(DIV(\'Current\',\'Bid\',\':\',\'Rs.\',j.amount))\n                response.write(\'\\n                    \', escape=False)\n                break\n            response.write(\'\\n                \', escape=False)\n            pass\n        response.write(\'\\n            \', escape=False)\n        pass\n    response.write(\'\\n        \', escape=False)\n    pass\nresponse.write(\'\\n        \', escape=False)\nif item.selling_type==\'Buy\':\n    response.write(\'\\n            \', escape=False)\n    response.write(DIV(\'Rs.\',j.amount))\n    response.write(\'\\n        \', escape=False)\n    pass\nresponse.write(\'\\n        \\n        \\n        \\n        </td>\\n        </tr>\\n    \', escape=False)\npass\nresponse.write(\'\\n    \\n    </table>\\n        \', escape=False)\npass\nresponse.write(\'        \\n    <br />\', escape=False)\nresponse.write(\'\\n            \', escape=False)\nresponse.write(\'\\n        </div>\\n\\n        \', escape=False)\nif right_sidebar_enabled:\n    response.write(\'\\n        <div class="span3">\\n            \', escape=False)\n    response.write(\'\\n            <h3>Right Sidebar</h3>\\n            <p></p>\\n            \', escape=False)\n    response.write(\'\\n        </div>\\n        \', escape=False)\n    pass\nresponse.write(\'\\n    </section><!--/main-->\\n\\n    <!-- Footer ================================================== -->\\n    <div class="row">\\n        <footer class="footer span12" id="footer">\\n            <div class="footer-content">\\n                \', escape=False)\nresponse.write(\' <!-- this is default footer -->\\n                <div class="copyright pull-left">\', escape=False)\nresponse.write(T(\'Copyright\'))\nresponse.write(\' &#169; \', escape=False)\nresponse.write(request.now.year)\nresponse.write(\'</div>\\n                <div id="poweredBy" class="pull-right">\\n                    \', escape=False)\nresponse.write(T(\'Powered by\'))\nresponse.write(\'\\n                    <a href="http://www.web2py.com/">web2py</a>\\n                </div>\\n                \', escape=False)\nresponse.write(\'\\n            </div>\\n        </footer>\\n    </div>\\n\\n  </div> <!-- /container -->\\n\\n  <!-- The javascript =============================================\\n       (Placed at the end of the document so the pages load faster) -->\\n  <script src="\', escape=False)\nresponse.write(URL(\'static\',\'js/bootstrap.min.js\'))\nresponse.write(\'"></script>\\n  <script src="\', escape=False)\nresponse.write(URL(\'static\',\'js/web2py_bootstrap.js\'))\nresponse.write(\'"></script>\\n  <!--[if lt IE 7 ]>\\n      <script src="\', escape=False)\nresponse.write(URL(\'static\',\'js/dd_belatedpng.js\'))\nresponse.write(\'"></script>\\n      <script> DD_belatedPNG.fix(\\\'img, .png_bg\\\'); //fix any <img> or .png_bg background-images </script>\\n      <![endif]-->\\n  \\n  \', escape=False)\nif response.google_analytics_id:\n    response.write(\'\\n  <script src="\', escape=False)\n    response.write(URL(\'static\',\'js/analytics.js\'))\n    response.write(\'"></script>\\n  <script type="text/javascript">\\n  analytics.initialize({\\n    \\\'Google Analytics\\\':{trackingId:\\\'\', escape=False)\n    response.write(response.google_analytics_id)\n    response.write("\'} \\n  });</script>\\n  ", escape=False)\n    pass\nresponse.write(\'\\n  <script src="\', escape=False)\nresponse.write(URL(\'static\',\'js/share.js\',vars=dict(static=URL(\'static\',\'images\'))))\nresponse.write(\'"></script>\\n</body>\\n</html>\\n\\n\', escape=False)'
p7
sS'snapshot'
p8
(dp9
S'exception'
p10
(dp11
S'__hash__'
p12
S"<method-wrapper '__hash__' of exceptions.NameError object>"
p13
sS'__setattr__'
p14
S"<method-wrapper '__setattr__' of exceptions.NameError object>"
p15
sS'__reduce_ex__'
p16
S'<built-in method __reduce_ex__ of exceptions.NameError object>'
p17
sS'__getslice__'
p18
S"<method-wrapper '__getslice__' of exceptions.NameError object>"
p19
sS'__getitem__'
p20
S"<method-wrapper '__getitem__' of exceptions.NameError object>"
p21
sS'__setstate__'
p22
S'<built-in method __setstate__ of exceptions.NameError object>'
p23
sS'__reduce__'
p24
S'<built-in method __reduce__ of exceptions.NameError object>'
p25
sS'__str__'
p26
S"<method-wrapper '__str__' of exceptions.NameError object>"
p27
sS'__format__'
p28
S'<built-in method __format__ of exceptions.NameError object>'
p29
sS'__getattribute__'
p30
S"<method-wrapper '__getattribute__' of exceptions.NameError object>"
p31
sS'__class__'
p32
S"<type 'exceptions.NameError'>"
p33
sS'__unicode__'
p34
S'<built-in method __unicode__ of exceptions.NameError object>'
p35
sS'__delattr__'
p36
S"<method-wrapper '__delattr__' of exceptions.NameError object>"
p37
sS'__subclasshook__'
p38
S'<built-in method __subclasshook__ of type object>'
p39
sS'__repr__'
p40
S"<method-wrapper '__repr__' of exceptions.NameError object>"
p41
sS'args'
p42
S'("name \'item\' is not defined",)'
p43
sS'__dict__'
p44
S'{}'
p45
sS'__sizeof__'
p46
S'<built-in method __sizeof__ of exceptions.NameError object>'
p47
sS'__doc__'
p48
S"'Name not found globally.'"
p49
sS'__init__'
p50
S"<method-wrapper '__init__' of exceptions.NameError object>"
p51
sS'__new__'
p52
S'<built-in method __new__ of type object>'
p53
ssS'evalue'
p54
S"name 'item' is not defined"
p55
sS'request'
p56
ccopy_reg
_reconstructor
p57
(cgluon.html
BEAUTIFY
p58
c__builtin__
object
p59
NtRp60
(dp61
S'attributes'
p62
(dp63
sS'components'
p64
(lp65
g57
(cgluon.html
TABLE
p66
g59
NtRp67
(dp68
g62
(dp69
S'level'
p70
I5
ssS'parent'
p71
Nsg64
(lp72
g57
(cgluon.html
TR
p73
g59
NtRp74
(dp75
g62
(dp76
sg71
g67
sg64
(lp77
g57
(cgluon.html
TD
p78
g59
NtRp79
(dp80
g62
(dp81
S'_style'
p82
S'font-weight:bold;vertical-align:top'
p83
ssg71
g74
sg64
(lp84
S'ajax'
p85
asbag57
(g78
g59
NtRp86
(dp87
g62
(dp88
S'_valign'
p89
S'top'
p90
ssg71
g74
sg64
(lp91
S':'
asbag57
(g78
g59
NtRp92
(dp93
g62
(dp94
sg71
g74
sg64
(lp95
g57
(g58
g59
NtRp96
(dp97
g62
(dp98
g70
I5
ssg71
g92
sg64
(lp99
S'False'
p100
asbasbasbag57
(g73
g59
NtRp101
(dp102
g62
(dp103
sg71
g67
sg64
(lp104
g57
(g78
g59
NtRp105
(dp106
g62
(dp107
g82
g83
ssg71
g101
sg64
(lp108
S'application'
p109
asbag57
(g78
g59
NtRp110
(dp111
g62
(dp112
g89
g90
ssg71
g101
sg64
(lp113
S':'
asbag57
(g78
g59
NtRp114
(dp115
g62
(dp116
sg71
g101
sg64
(lp117
g57
(g58
g59
NtRp118
(dp119
g62
(dp120
g70
I5
ssg71
g114
sg64
(lp121
S'BuySell'
p122
asbasbasbag57
(g73
g59
NtRp123
(dp124
g62
(dp125
sg71
g67
sg64
(lp126
g57
(g78
g59
NtRp127
(dp128
g62
(dp129
g82
g83
ssg71
g123
sg64
(lp130
g42
asbag57
(g78
g59
NtRp131
(dp132
g62
(dp133
g89
g90
ssg71
g123
sg64
(lp134
S':'
asbag57
(g78
g59
NtRp135
(dp136
g62
(dp137
sg71
g123
sg64
(lp138
g57
(g58
g59
NtRp139
(dp140
g62
(dp141
g70
I5
ssg71
g135
sg64
(lp142
g57
(g66
g59
NtRp143
(dp144
g62
(dp145
g70
I4
ssg71
Nsg64
(lp146
sbasbasbasbag57
(g73
g59
NtRp147
(dp148
g62
(dp149
sg71
g67
sg64
(lp150
g57
(g78
g59
NtRp151
(dp152
g62
(dp153
g82
g83
ssg71
g147
sg64
(lp154
S'body'
p155
asbag57
(g78
g59
NtRp156
(dp157
g62
(dp158
g89
g90
ssg71
g147
sg64
(lp159
S':'
asbag57
(g78
g59
NtRp160
(dp161
g62
(dp162
sg71
g147
sg64
(lp163
g57
(g58
g59
NtRp164
(dp165
g62
(dp166
g70
I5
ssg71
g160
sg64
(lp167
S'<cStringIO.StringO object at 0x9dce880>'
p168
asbasbasbag57
(g73
g59
NtRp169
(dp170
g62
(dp171
sg71
g67
sg64
(lp172
g57
(g78
g59
NtRp173
(dp174
g62
(dp175
g82
g83
ssg71
g169
sg64
(lp176
S'cid'
p177
asbag57
(g78
g59
NtRp178
(dp179
g62
(dp180
g89
g90
ssg71
g169
sg64
(lp181
S':'
asbag57
(g78
g59
NtRp182
(dp183
g62
(dp184
sg71
g169
sg64
(lp185
g57
(g58
g59
NtRp186
(dp187
g62
(dp188
g70
I5
ssg71
g182
sg64
(lp189
S'None'
p190
asbasbasbag57
(g73
g59
NtRp191
(dp192
g62
(dp193
sg71
g67
sg64
(lp194
g57
(g78
g59
NtRp195
(dp196
g62
(dp197
g82
g83
ssg71
g191
sg64
(lp198
S'client'
p199
asbag57
(g78
g59
NtRp200
(dp201
g62
(dp202
g89
g90
ssg71
g191
sg64
(lp203
S':'
asbag57
(g78
g59
NtRp204
(dp205
g62
(dp206
sg71
g191
sg64
(lp207
g57
(g58
g59
NtRp208
(dp209
g62
(dp210
g70
I5
ssg71
g204
sg64
(lp211
S'127.0.0.1'
p212
asbasbasbag57
(g73
g59
NtRp213
(dp214
g62
(dp215
sg71
g67
sg64
(lp216
g57
(g78
g59
NtRp217
(dp218
g62
(dp219
g82
g83
ssg71
g213
sg64
(lp220
S'controller'
p221
asbag57
(g78
g59
NtRp222
(dp223
g62
(dp224
g89
g90
ssg71
g213
sg64
(lp225
S':'
asbag57
(g78
g59
NtRp226
(dp227
g62
(dp228
sg71
g213
sg64
(lp229
g57
(g58
g59
NtRp230
(dp231
g62
(dp232
g70
I5
ssg71
g226
sg64
(lp233
S'default'
p234
asbasbasbag57
(g73
g59
NtRp235
(dp236
g62
(dp237
sg71
g67
sg64
(lp238
g57
(g78
g59
NtRp239
(dp240
g62
(dp241
g82
g83
ssg71
g235
sg64
(lp242
S'cookies'
p243
asbag57
(g78
g59
NtRp244
(dp245
g62
(dp246
g89
g90
ssg71
g235
sg64
(lp247
S':'
asbag57
(g78
g59
NtRp248
(dp249
g62
(dp250
sg71
g235
sg64
(lp251
g57
(g58
g59
NtRp252
(dp253
g62
(dp254
g70
I5
ssg71
g248
sg64
(lp255
g57
(g66
g59
NtRp256
(dp257
g62
(dp258
g70
I4
ssg71
Nsg64
(lp259
g57
(g73
g59
NtRp260
(dp261
g62
(dp262
sg71
g256
sg64
(lp263
g57
(g78
g59
NtRp264
(dp265
g62
(dp266
g82
g83
ssg71
g260
sg64
(lp267
S'registered'
p268
asbag57
(g78
g59
NtRp269
(dp270
g62
(dp271
g89
g90
ssg71
g260
sg64
(lp272
S':'
asbag57
(g78
g59
NtRp273
(dp274
g62
(dp275
sg71
g260
sg64
(lp276
g57
(g58
g59
NtRp277
(dp278
g62
(dp279
g70
I4
ssg71
g273
sg64
(lp280
S'yes'
p281
ag57
(g66
g59
NtRp282
(dp283
g62
(dp284
g70
I3
ssg71
Nsg64
(lp285
g57
(g73
g59
NtRp286
(dp287
g62
(dp288
sg71
g282
sg64
(lp289
g57
(g78
g59
NtRp290
(dp291
g62
(dp292
g82
g83
ssg71
g286
sg64
(lp293
S'comment'
p294
asbag57
(g78
g59
NtRp295
(dp296
g62
(dp297
g89
g90
ssg71
g286
sg64
(lp298
S':'
asbag57
(g78
g59
NtRp299
(dp300
g62
(dp301
sg71
g286
sg64
(lp302
g57
(g58
g59
NtRp303
(dp304
g62
(dp305
g70
I3
ssg71
g299
sg64
(lp306
S''
asbasbasbag57
(g73
g59
NtRp307
(dp308
g62
(dp309
sg71
g282
sg64
(lp310
g57
(g78
g59
NtRp311
(dp312
g62
(dp313
g82
g83
ssg71
g307
sg64
(lp314
S'domain'
p315
asbag57
(g78
g59
NtRp316
(dp317
g62
(dp318
g89
g90
ssg71
g307
sg64
(lp319
S':'
asbag57
(g78
g59
NtRp320
(dp321
g62
(dp322
sg71
g307
sg64
(lp323
g57
(g58
g59
NtRp324
(dp325
g62
(dp326
g70
I3
ssg71
g320
sg64
(lp327
S''
asbasbasbag57
(g73
g59
NtRp328
(dp329
g62
(dp330
sg71
g282
sg64
(lp331
g57
(g78
g59
NtRp332
(dp333
g62
(dp334
g82
g83
ssg71
g328
sg64
(lp335
S'expires'
p336
asbag57
(g78
g59
NtRp337
(dp338
g62
(dp339
g89
g90
ssg71
g328
sg64
(lp340
S':'
asbag57
(g78
g59
NtRp341
(dp342
g62
(dp343
sg71
g328
sg64
(lp344
g57
(g58
g59
NtRp345
(dp346
g62
(dp347
g70
I3
ssg71
g341
sg64
(lp348
S''
asbasbasbag57
(g73
g59
NtRp349
(dp350
g62
(dp351
sg71
g282
sg64
(lp352
g57
(g78
g59
NtRp353
(dp354
g62
(dp355
g82
g83
ssg71
g349
sg64
(lp356
S'httponly'
p357
asbag57
(g78
g59
NtRp358
(dp359
g62
(dp360
g89
g90
ssg71
g349
sg64
(lp361
S':'
asbag57
(g78
g59
NtRp362
(dp363
g62
(dp364
sg71
g349
sg64
(lp365
g57
(g58
g59
NtRp366
(dp367
g62
(dp368
g70
I3
ssg71
g362
sg64
(lp369
S''
asbasbasbag57
(g73
g59
NtRp370
(dp371
g62
(dp372
sg71
g282
sg64
(lp373
g57
(g78
g59
NtRp374
(dp375
g62
(dp376
g82
g83
ssg71
g370
sg64
(lp377
S'max-age'
p378
asbag57
(g78
g59
NtRp379
(dp380
g62
(dp381
g89
g90
ssg71
g370
sg64
(lp382
S':'
asbag57
(g78
g59
NtRp383
(dp384
g62
(dp385
sg71
g370
sg64
(lp386
g57
(g58
g59
NtRp387
(dp388
g62
(dp389
g70
I3
ssg71
g383
sg64
(lp390
S''
asbasbasbag57
(g73
g59
NtRp391
(dp392
g62
(dp393
sg71
g282
sg64
(lp394
g57
(g78
g59
NtRp395
(dp396
g62
(dp397
g82
g83
ssg71
g391
sg64
(lp398
S'path'
p399
asbag57
(g78
g59
NtRp400
(dp401
g62
(dp402
g89
g90
ssg71
g391
sg64
(lp403
S':'
asbag57
(g78
g59
NtRp404
(dp405
g62
(dp406
sg71
g391
sg64
(lp407
g57
(g58
g59
NtRp408
(dp409
g62
(dp410
g70
I3
ssg71
g404
sg64
(lp411
S''
asbasbasbag57
(g73
g59
NtRp412
(dp413
g62
(dp414
sg71
g282
sg64
(lp415
g57
(g78
g59
NtRp416
(dp417
g62
(dp418
g82
g83
ssg71
g412
sg64
(lp419
S'secure'
p420
asbag57
(g78
g59
NtRp421
(dp422
g62
(dp423
g89
g90
ssg71
g412
sg64
(lp424
S':'
asbag57
(g78
g59
NtRp425
(dp426
g62
(dp427
sg71
g412
sg64
(lp428
g57
(g58
g59
NtRp429
(dp430
g62
(dp431
g70
I3
ssg71
g425
sg64
(lp432
S''
asbasbasbag57
(g73
g59
NtRp433
(dp434
g62
(dp435
sg71
g282
sg64
(lp436
g57
(g78
g59
NtRp437
(dp438
g62
(dp439
g82
g83
ssg71
g433
sg64
(lp440
S'version'
p441
asbag57
(g78
g59
NtRp442
(dp443
g62
(dp444
g89
g90
ssg71
g433
sg64
(lp445
S':'
asbag57
(g78
g59
NtRp446
(dp447
g62
(dp448
sg71
g433
sg64
(lp449
g57
(g58
g59
NtRp450
(dp451
g62
(dp452
g70
I3
ssg71
g446
sg64
(lp453
S''
asbasbasbasbasbasbasbag57
(g73
g59
NtRp454
(dp455
g62
(dp456
sg71
g256
sg64
(lp457
g57
(g78
g59
NtRp458
(dp459
g62
(dp460
g82
g83
ssg71
g454
sg64
(lp461
S'session_id_admin'
p462
asbag57
(g78
g59
NtRp463
(dp464
g62
(dp465
g89
g90
ssg71
g454
sg64
(lp466
S':'
asbag57
(g78
g59
NtRp467
(dp468
g62
(dp469
sg71
g454
sg64
(lp470
g57
(g58
g59
NtRp471
(dp472
g62
(dp473
g70
I4
ssg71
g467
sg64
(lp474
S'127.0.0.1-9ed8b734-ef8d-434e-9a7b-79af6eec8abb'
p475
ag57
(g66
g59
NtRp476
(dp477
g62
(dp478
g70
I3
ssg71
Nsg64
(lp479
g57
(g73
g59
NtRp480
(dp481
g62
(dp482
sg71
g476
sg64
(lp483
g57
(g78
g59
NtRp484
(dp485
g62
(dp486
g82
g83
ssg71
g480
sg64
(lp487
g294
asbag57
(g78
g59
NtRp488
(dp489
g62
(dp490
g89
g90
ssg71
g480
sg64
(lp491
S':'
asbag57
(g78
g59
NtRp492
(dp493
g62
(dp494
sg71
g480
sg64
(lp495
g57
(g58
g59
NtRp496
(dp497
g62
(dp498
g70
I3
ssg71
g492
sg64
(lp499
S''
asbasbasbag57
(g73
g59
NtRp500
(dp501
g62
(dp502
sg71
g476
sg64
(lp503
g57
(g78
g59
NtRp504
(dp505
g62
(dp506
g82
g83
ssg71
g500
sg64
(lp507
g315
asbag57
(g78
g59
NtRp508
(dp509
g62
(dp510
g89
g90
ssg71
g500
sg64
(lp511
S':'
asbag57
(g78
g59
NtRp512
(dp513
g62
(dp514
sg71
g500
sg64
(lp515
g57
(g58
g59
NtRp516
(dp517
g62
(dp518
g70
I3
ssg71
g512
sg64
(lp519
S''
asbasbasbag57
(g73
g59
NtRp520
(dp521
g62
(dp522
sg71
g476
sg64
(lp523
g57
(g78
g59
NtRp524
(dp525
g62
(dp526
g82
g83
ssg71
g520
sg64
(lp527
g336
asbag57
(g78
g59
NtRp528
(dp529
g62
(dp530
g89
g90
ssg71
g520
sg64
(lp531
S':'
asbag57
(g78
g59
NtRp532
(dp533
g62
(dp534
sg71
g520
sg64
(lp535
g57
(g58
g59
NtRp536
(dp537
g62
(dp538
g70
I3
ssg71
g532
sg64
(lp539
S''
asbasbasbag57
(g73
g59
NtRp540
(dp541
g62
(dp542
sg71
g476
sg64
(lp543
g57
(g78
g59
NtRp544
(dp545
g62
(dp546
g82
g83
ssg71
g540
sg64
(lp547
g357
asbag57
(g78
g59
NtRp548
(dp549
g62
(dp550
g89
g90
ssg71
g540
sg64
(lp551
S':'
asbag57
(g78
g59
NtRp552
(dp553
g62
(dp554
sg71
g540
sg64
(lp555
g57
(g58
g59
NtRp556
(dp557
g62
(dp558
g70
I3
ssg71
g552
sg64
(lp559
S''
asbasbasbag57
(g73
g59
NtRp560
(dp561
g62
(dp562
sg71
g476
sg64
(lp563
g57
(g78
g59
NtRp564
(dp565
g62
(dp566
g82
g83
ssg71
g560
sg64
(lp567
g378
asbag57
(g78
g59
NtRp568
(dp569
g62
(dp570
g89
g90
ssg71
g560
sg64
(lp571
S':'
asbag57
(g78
g59
NtRp572
(dp573
g62
(dp574
sg71
g560
sg64
(lp575
g57
(g58
g59
NtRp576
(dp577
g62
(dp578
g70
I3
ssg71
g572
sg64
(lp579
S''
asbasbasbag57
(g73
g59
NtRp580
(dp581
g62
(dp582
sg71
g476
sg64
(lp583
g57
(g78
g59
NtRp584
(dp585
g62
(dp586
g82
g83
ssg71
g580
sg64
(lp587
g399
asbag57
(g78
g59
NtRp588
(dp589
g62
(dp590
g89
g90
ssg71
g580
sg64
(lp591
S':'
asbag57
(g78
g59
NtRp592
(dp593
g62
(dp594
sg71
g580
sg64
(lp595
g57
(g58
g59
NtRp596
(dp597
g62
(dp598
g70
I3
ssg71
g592
sg64
(lp599
S''
asbasbasbag57
(g73
g59
NtRp600
(dp601
g62
(dp602
sg71
g476
sg64
(lp603
g57
(g78
g59
NtRp604
(dp605
g62
(dp606
g82
g83
ssg71
g600
sg64
(lp607
g420
asbag57
(g78
g59
NtRp608
(dp609
g62
(dp610
g89
g90
ssg71
g600
sg64
(lp611
S':'
asbag57
(g78
g59
NtRp612
(dp613
g62
(dp614
sg71
g600
sg64
(lp615
g57
(g58
g59
NtRp616
(dp617
g62
(dp618
g70
I3
ssg71
g612
sg64
(lp619
S''
asbasbasbag57
(g73
g59
NtRp620
(dp621
g62
(dp622
sg71
g476
sg64
(lp623
g57
(g78
g59
NtRp624
(dp625
g62
(dp626
g82
g83
ssg71
g620
sg64
(lp627
g441
asbag57
(g78
g59
NtRp628
(dp629
g62
(dp630
g89
g90
ssg71
g620
sg64
(lp631
S':'
asbag57
(g78
g59
NtRp632
(dp633
g62
(dp634
sg71
g620
sg64
(lp635
g57
(g58
g59
NtRp636
(dp637
g62
(dp638
g70
I3
ssg71
g632
sg64
(lp639
S''
asbasbasbasbasbasbasbag57
(g73
g59
NtRp640
(dp641
g62
(dp642
sg71
g256
sg64
(lp643
g57
(g78
g59
NtRp644
(dp645
g62
(dp646
g82
g83
ssg71
g640
sg64
(lp647
S'session_id_buysell'
p648
asbag57
(g78
g59
NtRp649
(dp650
g62
(dp651
g89
g90
ssg71
g640
sg64
(lp652
S':'
asbag57
(g78
g59
NtRp653
(dp654
g62
(dp655
sg71
g640
sg64
(lp656
g57
(g58
g59
NtRp657
(dp658
g62
(dp659
g70
I4
ssg71
g653
sg64
(lp660
S'127.0.0.1-f42b8fb6-bce7-404a-b975-99002423340f'
p661
ag57
(g66
g59
NtRp662
(dp663
g62
(dp664
g70
I3
ssg71
Nsg64
(lp665
g57
(g73
g59
NtRp666
(dp667
g62
(dp668
sg71
g662
sg64
(lp669
g57
(g78
g59
NtRp670
(dp671
g62
(dp672
g82
g83
ssg71
g666
sg64
(lp673
g294
asbag57
(g78
g59
NtRp674
(dp675
g62
(dp676
g89
g90
ssg71
g666
sg64
(lp677
S':'
asbag57
(g78
g59
NtRp678
(dp679
g62
(dp680
sg71
g666
sg64
(lp681
g57
(g58
g59
NtRp682
(dp683
g62
(dp684
g70
I3
ssg71
g678
sg64
(lp685
S''
asbasbasbag57
(g73
g59
NtRp686
(dp687
g62
(dp688
sg71
g662
sg64
(lp689
g57
(g78
g59
NtRp690
(dp691
g62
(dp692
g82
g83
ssg71
g686
sg64
(lp693
g315
asbag57
(g78
g59
NtRp694
(dp695
g62
(dp696
g89
g90
ssg71
g686
sg64
(lp697
S':'
asbag57
(g78
g59
NtRp698
(dp699
g62
(dp700
sg71
g686
sg64
(lp701
g57
(g58
g59
NtRp702
(dp703
g62
(dp704
g70
I3
ssg71
g698
sg64
(lp705
S''
asbasbasbag57
(g73
g59
NtRp706
(dp707
g62
(dp708
sg71
g662
sg64
(lp709
g57
(g78
g59
NtRp710
(dp711
g62
(dp712
g82
g83
ssg71
g706
sg64
(lp713
g336
asbag57
(g78
g59
NtRp714
(dp715
g62
(dp716
g89
g90
ssg71
g706
sg64
(lp717
S':'
asbag57
(g78
g59
NtRp718
(dp719
g62
(dp720
sg71
g706
sg64
(lp721
g57
(g58
g59
NtRp722
(dp723
g62
(dp724
g70
I3
ssg71
g718
sg64
(lp725
S''
asbasbasbag57
(g73
g59
NtRp726
(dp727
g62
(dp728
sg71
g662
sg64
(lp729
g57
(g78
g59
NtRp730
(dp731
g62
(dp732
g82
g83
ssg71
g726
sg64
(lp733
g357
asbag57
(g78
g59
NtRp734
(dp735
g62
(dp736
g89
g90
ssg71
g726
sg64
(lp737
S':'
asbag57
(g78
g59
NtRp738
(dp739
g62
(dp740
sg71
g726
sg64
(lp741
g57
(g58
g59
NtRp742
(dp743
g62
(dp744
g70
I3
ssg71
g738
sg64
(lp745
S''
asbasbasbag57
(g73
g59
NtRp746
(dp747
g62
(dp748
sg71
g662
sg64
(lp749
g57
(g78
g59
NtRp750
(dp751
g62
(dp752
g82
g83
ssg71
g746
sg64
(lp753
g378
asbag57
(g78
g59
NtRp754
(dp755
g62
(dp756
g89
g90
ssg71
g746
sg64
(lp757
S':'
asbag57
(g78
g59
NtRp758
(dp759
g62
(dp760
sg71
g746
sg64
(lp761
g57
(g58
g59
NtRp762
(dp763
g62
(dp764
g70
I3
ssg71
g758
sg64
(lp765
S''
asbasbasbag57
(g73
g59
NtRp766
(dp767
g62
(dp768
sg71
g662
sg64
(lp769
g57
(g78
g59
NtRp770
(dp771
g62
(dp772
g82
g83
ssg71
g766
sg64
(lp773
g399
asbag57
(g78
g59
NtRp774
(dp775
g62
(dp776
g89
g90
ssg71
g766
sg64
(lp777
S':'
asbag57
(g78
g59
NtRp778
(dp779
g62
(dp780
sg71
g766
sg64
(lp781
g57
(g58
g59
NtRp782
(dp783
g62
(dp784
g70
I3
ssg71
g778
sg64
(lp785
S''
asbasbasbag57
(g73
g59
NtRp786
(dp787
g62
(dp788
sg71
g662
sg64
(lp789
g57
(g78
g59
NtRp790
(dp791
g62
(dp792
g82
g83
ssg71
g786
sg64
(lp793
g420
asbag57
(g78
g59
NtRp794
(dp795
g62
(dp796
g89
g90
ssg71
g786
sg64
(lp797
S':'
asbag57
(g78
g59
NtRp798
(dp799
g62
(dp800
sg71
g786
sg64
(lp801
g57
(g58
g59
NtRp802
(dp803
g62
(dp804
g70
I3
ssg71
g798
sg64
(lp805
S''
asbasbasbag57
(g73
g59
NtRp806
(dp807
g62
(dp808
sg71
g662
sg64
(lp809
g57
(g78
g59
NtRp810
(dp811
g62
(dp812
g82
g83
ssg71
g806
sg64
(lp813
g441
asbag57
(g78
g59
NtRp814
(dp815
g62
(dp816
g89
g90
ssg71
g806
sg64
(lp817
S':'
asbag57
(g78
g59
NtRp818
(dp819
g62
(dp820
sg71
g806
sg64
(lp821
g57
(g58
g59
NtRp822
(dp823
g62
(dp824
g70
I3
ssg71
g818
sg64
(lp825
S''
asbasbasbasbasbasbasbag57
(g73
g59
NtRp826
(dp827
g62
(dp828
sg71
g256
sg64
(lp829
g57
(g78
g59
NtRp830
(dp831
g62
(dp832
g82
g83
ssg71
g826
sg64
(lp833
S'session_id_welcome'
p834
asbag57
(g78
g59
NtRp835
(dp836
g62
(dp837
g89
g90
ssg71
g826
sg64
(lp838
S':'
asbag57
(g78
g59
NtRp839
(dp840
g62
(dp841
sg71
g826
sg64
(lp842
g57
(g58
g59
NtRp843
(dp844
g62
(dp845
g70
I4
ssg71
g839
sg64
(lp846
S'127.0.0.1-7f7cc58f-84a5-4666-8759-30cfd1f98bc1'
p847
ag57
(g66
g59
NtRp848
(dp849
g62
(dp850
g70
I3
ssg71
Nsg64
(lp851
g57
(g73
g59
NtRp852
(dp853
g62
(dp854
sg71
g848
sg64
(lp855
g57
(g78
g59
NtRp856
(dp857
g62
(dp858
g82
g83
ssg71
g852
sg64
(lp859
g294
asbag57
(g78
g59
NtRp860
(dp861
g62
(dp862
g89
g90
ssg71
g852
sg64
(lp863
S':'
asbag57
(g78
g59
NtRp864
(dp865
g62
(dp866
sg71
g852
sg64
(lp867
g57
(g58
g59
NtRp868
(dp869
g62
(dp870
g70
I3
ssg71
g864
sg64
(lp871
S''
asbasbasbag57
(g73
g59
NtRp872
(dp873
g62
(dp874
sg71
g848
sg64
(lp875
g57
(g78
g59
NtRp876
(dp877
g62
(dp878
g82
g83
ssg71
g872
sg64
(lp879
g315
asbag57
(g78
g59
NtRp880
(dp881
g62
(dp882
g89
g90
ssg71
g872
sg64
(lp883
S':'
asbag57
(g78
g59
NtRp884
(dp885
g62
(dp886
sg71
g872
sg64
(lp887
g57
(g58
g59
NtRp888
(dp889
g62
(dp890
g70
I3
ssg71
g884
sg64
(lp891
S''
asbasbasbag57
(g73
g59
NtRp892
(dp893
g62
(dp894
sg71
g848
sg64
(lp895
g57
(g78
g59
NtRp896
(dp897
g62
(dp898
g82
g83
ssg71
g892
sg64
(lp899
g336
asbag57
(g78
g59
NtRp900
(dp901
g62
(dp902
g89
g90
ssg71
g892
sg64
(lp903
S':'
asbag57
(g78
g59
NtRp904
(dp905
g62
(dp906
sg71
g892
sg64
(lp907
g57
(g58
g59
NtRp908
(dp909
g62
(dp910
g70
I3
ssg71
g904
sg64
(lp911
S''
asbasbasbag57
(g73
g59
NtRp912
(dp913
g62
(dp914
sg71
g848
sg64
(lp915
g57
(g78
g59
NtRp916
(dp917
g62
(dp918
g82
g83
ssg71
g912
sg64
(lp919
g357
asbag57
(g78
g59
NtRp920
(dp921
g62
(dp922
g89
g90
ssg71
g912
sg64
(lp923
S':'
asbag57
(g78
g59
NtRp924
(dp925
g62
(dp926
sg71
g912
sg64
(lp927
g57
(g58
g59
NtRp928
(dp929
g62
(dp930
g70
I3
ssg71
g924
sg64
(lp931
S''
asbasbasbag57
(g73
g59
NtRp932
(dp933
g62
(dp934
sg71
g848
sg64
(lp935
g57
(g78
g59
NtRp936
(dp937
g62
(dp938
g82
g83
ssg71
g932
sg64
(lp939
g378
asbag57
(g78
g59
NtRp940
(dp941
g62
(dp942
g89
g90
ssg71
g932
sg64
(lp943
S':'
asbag57
(g78
g59
NtRp944
(dp945
g62
(dp946
sg71
g932
sg64
(lp947
g57
(g58
g59
NtRp948
(dp949
g62
(dp950
g70
I3
ssg71
g944
sg64
(lp951
S''
asbasbasbag57
(g73
g59
NtRp952
(dp953
g62
(dp954
sg71
g848
sg64
(lp955
g57
(g78
g59
NtRp956
(dp957
g62
(dp958
g82
g83
ssg71
g952
sg64
(lp959
g399
asbag57
(g78
g59
NtRp960
(dp961
g62
(dp962
g89
g90
ssg71
g952
sg64
(lp963
S':'
asbag57
(g78
g59
NtRp964
(dp965
g62
(dp966
sg71
g952
sg64
(lp967
g57
(g58
g59
NtRp968
(dp969
g62
(dp970
g70
I3
ssg71
g964
sg64
(lp971
S''
asbasbasbag57
(g73
g59
NtRp972
(dp973
g62
(dp974
sg71
g848
sg64
(lp975
g57
(g78
g59
NtRp976
(dp977
g62
(dp978
g82
g83
ssg71
g972
sg64
(lp979
g420
asbag57
(g78
g59
NtRp980
(dp981
g62
(dp982
g89
g90
ssg71
g972
sg64
(lp983
S':'
asbag57
(g78
g59
NtRp984
(dp985
g62
(dp986
sg71
g972
sg64
(lp987
g57
(g58
g59
NtRp988
(dp989
g62
(dp990
g70
I3
ssg71
g984
sg64
(lp991
S''
asbasbasbag57
(g73
g59
NtRp992
(dp993
g62
(dp994
sg71
g848
sg64
(lp995
g57
(g78
g59
NtRp996
(dp997
g62
(dp998
g82
g83
ssg71
g992
sg64
(lp999
g441
asbag57
(g78
g59
NtRp1000
(dp1001
g62
(dp1002
g89
g90
ssg71
g992
sg64
(lp1003
S':'
asbag57
(g78
g59
NtRp1004
(dp1005
g62
(dp1006
sg71
g992
sg64
(lp1007
g57
(g58
g59
NtRp1008
(dp1009
g62
(dp1010
g70
I3
ssg71
g1004
sg64
(lp1011
S''
asbasbasbasbasbasbasbasbasbasbasbag57
(g73
g59
NtRp1012
(dp1013
g62
(dp1014
sg71
g67
sg64
(lp1015
g57
(g78
g59
NtRp1016
(dp1017
g62
(dp1018
g82
g83
ssg71
g1012
sg64
(lp1019
S'env'
p1020
asbag57
(g78
g59
NtRp1021
(dp1022
g62
(dp1023
g89
g90
ssg71
g1012
sg64
(lp1024
S':'
asbag57
(g78
g59
NtRp1025
(dp1026
g62
(dp1027
sg71
g1012
sg64
(lp1028
g57
(g58
g59
NtRp1029
(dp1030
g62
(dp1031
g70
I5
ssg71
g1025
sg64
(lp1032
g57
(g66
g59
NtRp1033
(dp1034
g62
(dp1035
g70
I4
ssg71
Nsg64
(lp1036
g57
(g73
g59
NtRp1037
(dp1038
g62
(dp1039
sg71
g1033
sg64
(lp1040
g57
(g78
g59
NtRp1041
(dp1042
g62
(dp1043
g82
g83
ssg71
g1037
sg64
(lp1044
S'app_folders'
p1045
asbag57
(g78
g59
NtRp1046
(dp1047
g62
(dp1048
g89
g90
ssg71
g1037
sg64
(lp1049
S':'
asbag57
(g78
g59
NtRp1050
(dp1051
g62
(dp1052
sg71
g1037
sg64
(lp1053
g57
(g58
g59
NtRp1054
(dp1055
g62
(dp1056
g70
I4
ssg71
g1050
sg64
(lp1057
S"set(['/home/pratyush/web2py/applications/welcome/', '/home/pratyush/web2py/applications/BuySell/'])"
p1058
asbasbasbag57
(g73
g59
NtRp1059
(dp1060
g62
(dp1061
sg71
g1033
sg64
(lp1062
g57
(g78
g59
NtRp1063
(dp1064
g62
(dp1065
g82
g83
ssg71
g1059
sg64
(lp1066
S'applications_parent'
p1067
asbag57
(g78
g59
NtRp1068
(dp1069
g62
(dp1070
g89
g90
ssg71
g1059
sg64
(lp1071
S':'
asbag57
(g78
g59
NtRp1072
(dp1073
g62
(dp1074
sg71
g1059
sg64
(lp1075
g57
(g58
g59
NtRp1076
(dp1077
g62
(dp1078
g70
I4
ssg71
g1072
sg64
(lp1079
S'/home/pratyush/web2py'
p1080
asbasbasbag57
(g73
g59
NtRp1081
(dp1082
g62
(dp1083
sg71
g1033
sg64
(lp1084
g57
(g78
g59
NtRp1085
(dp1086
g62
(dp1087
g82
g83
ssg71
g1081
sg64
(lp1088
S'cmd_args'
p1089
asbag57
(g78
g59
NtRp1090
(dp1091
g62
(dp1092
g89
g90
ssg71
g1081
sg64
(lp1093
S':'
asbag57
(g78
g59
NtRp1094
(dp1095
g62
(dp1096
sg71
g1081
sg64
(lp1097
g57
(g58
g59
NtRp1098
(dp1099
g62
(dp1100
g70
I4
ssg71
g1094
sg64
(lp1101
g57
(g66
g59
NtRp1102
(dp1103
g62
(dp1104
g70
I3
ssg71
Nsg64
(lp1105
sbasbasbasbag57
(g73
g59
NtRp1106
(dp1107
g62
(dp1108
sg71
g1033
sg64
(lp1109
g57
(g78
g59
NtRp1110
(dp1111
g62
(dp1112
g82
g83
ssg71
g1106
sg64
(lp1113
S'cmd_options'
p1114
asbag57
(g78
g59
NtRp1115
(dp1116
g62
(dp1117
g89
g90
ssg71
g1106
sg64
(lp1118
S':'
asbag57
(g78
g59
NtRp1119
(dp1120
g62
(dp1121
sg71
g1106
sg64
(lp1122
g57
(g58
g59
NtRp1123
(dp1124
g62
(dp1125
g70
I4
ssg71
g1119
sg64
(lp1126
S"<Values at 0x9a8004c: {'verbose': False, 'ip': '127.0.0.1', 'with_scheduler': False, 'ips': [], 'shutdown_timeout': 5, 'taskbar': False, 'port': 8001, 'maxthreads': None, 'softcron': False, 'server_name': 'alanzak', 'bpython': False, 'nogui': False, 'pid_filename': 'httpserver.pid', 'extcron': False, 'runcron': False, 'run_system_tests': False, 'test': None, 'folder': '/home/pratyush/web2py', 'config': '', 'import_models': False, 'winservice': '', 'shell': None, 'run': '', 'log_filename': 'httpserver.log', 'debuglevel': 30, 'args': [''], 'socket_timeout': 5, 'ssl_ca_certificate': None, 'scheduler': None, 'profiler_filename': None, 'ssl_private_key': '', 'scheduler_groups': None, 'password': '1', 'request_queue_size': 5, 'ssl_certificate': '', 'cronjob': False, 'numthreads': None, 'quiet': False, 'interfaces': None, 'minthreads': None, 'timeout': 10, 'plain': False, 'nobanner': False}>"
p1127
asbasbasbag57
(g73
g59
NtRp1128
(dp1129
g62
(dp1130
sg71
g1033
sg64
(lp1131
g57
(g78
g59
NtRp1132
(dp1133
g62
(dp1134
g82
g83
ssg71
g1128
sg64
(lp1135
S'db_sessions'
p1136
asbag57
(g78
g59
NtRp1137
(dp1138
g62
(dp1139
g89
g90
ssg71
g1128
sg64
(lp1140
S':'
asbag57
(g78
g59
NtRp1141
(dp1142
g62
(dp1143
sg71
g1128
sg64
(lp1144
g57
(g58
g59
NtRp1145
(dp1146
g62
(dp1147
g70
I4
ssg71
g1141
sg64
(lp1148
S'set([])'
p1149
asbasbasbag57
(g73
g59
NtRp1150
(dp1151
g62
(dp1152
sg71
g1033
sg64
(lp1153
g57
(g78
g59
NtRp1154
(dp1155
g62
(dp1156
g82
g83
ssg71
g1150
sg64
(lp1157
S'debugging'
p1158
asbag57
(g78
g59
NtRp1159
(dp1160
g62
(dp1161
g89
g90
ssg71
g1150
sg64
(lp1162
S':'
asbag57
(g78
g59
NtRp1163
(dp1164
g62
(dp1165
sg71
g1150
sg64
(lp1166
g57
(g58
g59
NtRp1167
(dp1168
g62
(dp1169
g70
I4
ssg71
g1163
sg64
(lp1170
g100
asbasbasbag57
(g73
g59
NtRp1171
(dp1172
g62
(dp1173
sg71
g1033
sg64
(lp1174
g57
(g78
g59
NtRp1175
(dp1176
g62
(dp1177
g82
g83
ssg71
g1171
sg64
(lp1178
S'gluon_parent'
p1179
asbag57
(g78
g59
NtRp1180
(dp1181
g62
(dp1182
g89
g90
ssg71
g1171
sg64
(lp1183
S':'
asbag57
(g78
g59
NtRp1184
(dp1185
g62
(dp1186
sg71
g1171
sg64
(lp1187
g57
(g58
g59
NtRp1188
(dp1189
g62
(dp1190
g70
I4
ssg71
g1184
sg64
(lp1191
S'/home/pratyush/web2py'
p1192
asbasbasbag57
(g73
g59
NtRp1193
(dp1194
g62
(dp1195
sg71
g1033
sg64
(lp1196
g57
(g78
g59
NtRp1197
(dp1198
g62
(dp1199
g82
g83
ssg71
g1193
sg64
(lp1200
S'http_accept'
p1201
asbag57
(g78
g59
NtRp1202
(dp1203
g62
(dp1204
g89
g90
ssg71
g1193
sg64
(lp1205
S':'
asbag57
(g78
g59
NtRp1206
(dp1207
g62
(dp1208
sg71
g1193
sg64
(lp1209
g57
(g58
g59
NtRp1210
(dp1211
g62
(dp1212
g70
I4
ssg71
g1206
sg64
(lp1213
S'text/html,application/xhtml+xml,application/xml;q=0.9,*/*;q=0.8'
p1214
asbasbasbag57
(g73
g59
NtRp1215
(dp1216
g62
(dp1217
sg71
g1033
sg64
(lp1218
g57
(g78
g59
NtRp1219
(dp1220
g62
(dp1221
g82
g83
ssg71
g1215
sg64
(lp1222
S'http_accept_charset'
p1223
asbag57
(g78
g59
NtRp1224
(dp1225
g62
(dp1226
g89
g90
ssg71
g1215
sg64
(lp1227
S':'
asbag57
(g78
g59
NtRp1228
(dp1229
g62
(dp1230
sg71
g1215
sg64
(lp1231
g57
(g58
g59
NtRp1232
(dp1233
g62
(dp1234
g70
I4
ssg71
g1228
sg64
(lp1235
S'ISO-8859-1,utf-8;q=0.7,*;q=0.3'
p1236
asbasbasbag57
(g73
g59
NtRp1237
(dp1238
g62
(dp1239
sg71
g1033
sg64
(lp1240
g57
(g78
g59
NtRp1241
(dp1242
g62
(dp1243
g82
g83
ssg71
g1237
sg64
(lp1244
S'http_accept_encoding'
p1245
asbag57
(g78
g59
NtRp1246
(dp1247
g62
(dp1248
g89
g90
ssg71
g1237
sg64
(lp1249
S':'
asbag57
(g78
g59
NtRp1250
(dp1251
g62
(dp1252
sg71
g1237
sg64
(lp1253
g57
(g58
g59
NtRp1254
(dp1255
g62
(dp1256
g70
I4
ssg71
g1250
sg64
(lp1257
S'gzip,deflate,sdch'
p1258
asbasbasbag57
(g73
g59
NtRp1259
(dp1260
g62
(dp1261
sg71
g1033
sg64
(lp1262
g57
(g78
g59
NtRp1263
(dp1264
g62
(dp1265
g82
g83
ssg71
g1259
sg64
(lp1266
S'http_accept_language'
p1267
asbag57
(g78
g59
NtRp1268
(dp1269
g62
(dp1270
g89
g90
ssg71
g1259
sg64
(lp1271
S':'
asbag57
(g78
g59
NtRp1272
(dp1273
g62
(dp1274
sg71
g1259
sg64
(lp1275
g57
(g58
g59
NtRp1276
(dp1277
g62
(dp1278
g70
I4
ssg71
g1272
sg64
(lp1279
S'en-US,en;q=0.8'
p1280
asbasbasbag57
(g73
g59
NtRp1281
(dp1282
g62
(dp1283
sg71
g1033
sg64
(lp1284
g57
(g78
g59
NtRp1285
(dp1286
g62
(dp1287
g82
g83
ssg71
g1281
sg64
(lp1288
S'http_connection'
p1289
asbag57
(g78
g59
NtRp1290
(dp1291
g62
(dp1292
g89
g90
ssg71
g1281
sg64
(lp1293
S':'
asbag57
(g78
g59
NtRp1294
(dp1295
g62
(dp1296
sg71
g1281
sg64
(lp1297
g57
(g58
g59
NtRp1298
(dp1299
g62
(dp1300
g70
I4
ssg71
g1294
sg64
(lp1301
S'keep-alive'
p1302
asbasbasbag57
(g73
g59
NtRp1303
(dp1304
g62
(dp1305
sg71
g1033
sg64
(lp1306
g57
(g78
g59
NtRp1307
(dp1308
g62
(dp1309
g82
g83
ssg71
g1303
sg64
(lp1310
S'http_cookie'
p1311
asbag57
(g78
g59
NtRp1312
(dp1313
g62
(dp1314
g89
g90
ssg71
g1303
sg64
(lp1315
S':'
asbag57
(g78
g59
NtRp1316
(dp1317
g62
(dp1318
sg71
g1303
sg64
(lp1319
g57
(g58
g59
NtRp1320
(dp1321
g62
(dp1322
g70
I4
ssg71
g1316
sg64
(lp1323
S'registered=yes; session_id_admin=127.0.0.1-9ed8b734-ef8d-434e-9a7b-79af6eec8abb; session_id_welcome=127.0.0.1-7f7cc58f-84a5-4666-8759-30cfd1f98bc1; session_id_buysell=127.0.0.1-f42b8fb6-bce7-404a-b975-99002423340f'
p1324
asbasbasbag57
(g73
g59
NtRp1325
(dp1326
g62
(dp1327
sg71
g1033
sg64
(lp1328
g57
(g78
g59
NtRp1329
(dp1330
g62
(dp1331
g82
g83
ssg71
g1325
sg64
(lp1332
S'http_host'
p1333
asbag57
(g78
g59
NtRp1334
(dp1335
g62
(dp1336
g89
g90
ssg71
g1325
sg64
(lp1337
S':'
asbag57
(g78
g59
NtRp1338
(dp1339
g62
(dp1340
sg71
g1325
sg64
(lp1341
g57
(g58
g59
NtRp1342
(dp1343
g62
(dp1344
g70
I4
ssg71
g1338
sg64
(lp1345
S'127.0.0.1:8001'
p1346
asbasbasbag57
(g73
g59
NtRp1347
(dp1348
g62
(dp1349
sg71
g1033
sg64
(lp1350
g57
(g78
g59
NtRp1351
(dp1352
g62
(dp1353
g82
g83
ssg71
g1347
sg64
(lp1354
S'http_referer'
p1355
asbag57
(g78
g59
NtRp1356
(dp1357
g62
(dp1358
g89
g90
ssg71
g1347
sg64
(lp1359
S':'
asbag57
(g78
g59
NtRp1360
(dp1361
g62
(dp1362
sg71
g1347
sg64
(lp1363
g57
(g58
g59
NtRp1364
(dp1365
g62
(dp1366
g70
I4
ssg71
g1360
sg64
(lp1367
S'http://127.0.0.1:8001/BuySell/default/index'
p1368
asbasbasbag57
(g73
g59
NtRp1369
(dp1370
g62
(dp1371
sg71
g1033
sg64
(lp1372
g57
(g78
g59
NtRp1373
(dp1374
g62
(dp1375
g82
g83
ssg71
g1369
sg64
(lp1376
S'http_user_agent'
p1377
asbag57
(g78
g59
NtRp1378
(dp1379
g62
(dp1380
g89
g90
ssg71
g1369
sg64
(lp1381
S':'
asbag57
(g78
g59
NtRp1382
(dp1383
g62
(dp1384
sg71
g1369
sg64
(lp1385
g57
(g58
g59
NtRp1386
(dp1387
g62
(dp1388
g70
I4
ssg71
g1382
sg64
(lp1389
S'Mozilla/5.0 (X11; Linux i686) AppleWebKit/537.4 (KHTML, like Gecko) Chrome/22.0.1229.79 Safari/537.4'
p1390
asbasbasbag57
(g73
g59
NtRp1391
(dp1392
g62
(dp1393
sg71
g1033
sg64
(lp1394
g57
(g78
g59
NtRp1395
(dp1396
g62
(dp1397
g82
g83
ssg71
g1391
sg64
(lp1398
S'is_jython'
p1399
asbag57
(g78
g59
NtRp1400
(dp1401
g62
(dp1402
g89
g90
ssg71
g1391
sg64
(lp1403
S':'
asbag57
(g78
g59
NtRp1404
(dp1405
g62
(dp1406
sg71
g1391
sg64
(lp1407
g57
(g58
g59
NtRp1408
(dp1409
g62
(dp1410
g70
I4
ssg71
g1404
sg64
(lp1411
g100
asbasbasbag57
(g73
g59
NtRp1412
(dp1413
g62
(dp1414
sg71
g1033
sg64
(lp1415
g57
(g78
g59
NtRp1416
(dp1417
g62
(dp1418
g82
g83
ssg71
g1412
sg64
(lp1419
S'is_pypy'
p1420
asbag57
(g78
g59
NtRp1421
(dp1422
g62
(dp1423
g89
g90
ssg71
g1412
sg64
(lp1424
S':'
asbag57
(g78
g59
NtRp1425
(dp1426
g62
(dp1427
sg71
g1412
sg64
(lp1428
g57
(g58
g59
NtRp1429
(dp1430
g62
(dp1431
g70
I4
ssg71
g1425
sg64
(lp1432
g100
asbasbasbag57
(g73
g59
NtRp1433
(dp1434
g62
(dp1435
sg71
g1033
sg64
(lp1436
g57
(g78
g59
NtRp1437
(dp1438
g62
(dp1439
g82
g83
ssg71
g1433
sg64
(lp1440
S'local_hosts'
p1441
asbag57
(g78
g59
NtRp1442
(dp1443
g62
(dp1444
g89
g90
ssg71
g1433
sg64
(lp1445
S':'
asbag57
(g78
g59
NtRp1446
(dp1447
g62
(dp1448
sg71
g1433
sg64
(lp1449
g57
(g58
g59
NtRp1450
(dp1451
g62
(dp1452
g70
I4
ssg71
g1446
sg64
(lp1453
g57
(g66
g59
NtRp1454
(dp1455
g62
(dp1456
g70
I3
ssg71
Nsg64
(lp1457
g57
(g73
g59
NtRp1458
(dp1459
g62
(dp1460
sg71
g1454
sg64
(lp1461
g57
(g78
g59
NtRp1462
(dp1463
g62
(dp1464
sg71
g1458
sg64
(lp1465
g57
(g58
g59
NtRp1466
(dp1467
g62
(dp1468
g70
I3
ssg71
g1462
sg64
(lp1469
S'127.0.1.1'
p1470
asbasbasbag57
(g73
g59
NtRp1471
(dp1472
g62
(dp1473
sg71
g1454
sg64
(lp1474
g57
(g78
g59
NtRp1475
(dp1476
g62
(dp1477
sg71
g1471
sg64
(lp1478
g57
(g58
g59
NtRp1479
(dp1480
g62
(dp1481
g70
I3
ssg71
g1475
sg64
(lp1482
S'::1'
p1483
asbasbasbag57
(g73
g59
NtRp1484
(dp1485
g62
(dp1486
sg71
g1454
sg64
(lp1487
g57
(g78
g59
NtRp1488
(dp1489
g62
(dp1490
sg71
g1484
sg64
(lp1491
g57
(g58
g59
NtRp1492
(dp1493
g62
(dp1494
g70
I3
ssg71
g1488
sg64
(lp1495
S'alanzak'
p1496
asbasbasbag57
(g73
g59
NtRp1497
(dp1498
g62
(dp1499
sg71
g1454
sg64
(lp1500
g57
(g78
g59
NtRp1501
(dp1502
g62
(dp1503
sg71
g1497
sg64
(lp1504
g57
(g58
g59
NtRp1505
(dp1506
g62
(dp1507
g70
I3
ssg71
g1501
sg64
(lp1508
S'::ffff:127.0.0.1'
p1509
asbasbasbag57
(g73
g59
NtRp1510
(dp1511
g62
(dp1512
sg71
g1454
sg64
(lp1513
g57
(g78
g59
NtRp1514
(dp1515
g62
(dp1516
sg71
g1510
sg64
(lp1517
g57
(g58
g59
NtRp1518
(dp1519
g62
(dp1520
g70
I3
ssg71
g1514
sg64
(lp1521
S'127.0.0.1'
p1522
asbasbasbasbasbasbasbag57
(g73
g59
NtRp1523
(dp1524
g62
(dp1525
sg71
g1033
sg64
(lp1526
g57
(g78
g59
NtRp1527
(dp1528
g62
(dp1529
g82
g83
ssg71
g1523
sg64
(lp1530
S'path_info'
p1531
asbag57
(g78
g59
NtRp1532
(dp1533
g62
(dp1534
g89
g90
ssg71
g1523
sg64
(lp1535
S':'
asbag57
(g78
g59
NtRp1536
(dp1537
g62
(dp1538
sg71
g1523
sg64
(lp1539
g57
(g58
g59
NtRp1540
(dp1541
g62
(dp1542
g70
I4
ssg71
g1536
sg64
(lp1543
S'/BuySell/default/list_items'
p1544
asbasbasbag57
(g73
g59
NtRp1545
(dp1546
g62
(dp1547
sg71
g1033
sg64
(lp1548
g57
(g78
g59
NtRp1549
(dp1550
g62
(dp1551
g82
g83
ssg71
g1545
sg64
(lp1552
S'query_string'
p1553
asbag57
(g78
g59
NtRp1554
(dp1555
g62
(dp1556
g89
g90
ssg71
g1545
sg64
(lp1557
S':'
asbag57
(g78
g59
NtRp1558
(dp1559
g62
(dp1560
sg71
g1545
sg64
(lp1561
g57
(g58
g59
NtRp1562
(dp1563
g62
(dp1564
g70
I4
ssg71
g1558
sg64
(lp1565
S''
asbasbasbag57
(g73
g59
NtRp1566
(dp1567
g62
(dp1568
sg71
g1033
sg64
(lp1569
g57
(g78
g59
NtRp1570
(dp1571
g62
(dp1572
g82
g83
ssg71
g1566
sg64
(lp1573
S'remote_addr'
p1574
asbag57
(g78
g59
NtRp1575
(dp1576
g62
(dp1577
g89
g90
ssg71
g1566
sg64
(lp1578
S':'
asbag57
(g78
g59
NtRp1579
(dp1580
g62
(dp1581
sg71
g1566
sg64
(lp1582
g57
(g58
g59
NtRp1583
(dp1584
g62
(dp1585
g70
I4
ssg71
g1579
sg64
(lp1586
g212
asbasbasbag57
(g73
g59
NtRp1587
(dp1588
g62
(dp1589
sg71
g1033
sg64
(lp1590
g57
(g78
g59
NtRp1591
(dp1592
g62
(dp1593
g82
g83
ssg71
g1587
sg64
(lp1594
S'remote_port'
p1595
asbag57
(g78
g59
NtRp1596
(dp1597
g62
(dp1598
g89
g90
ssg71
g1587
sg64
(lp1599
S':'
asbag57
(g78
g59
NtRp1600
(dp1601
g62
(dp1602
sg71
g1587
sg64
(lp1603
g57
(g58
g59
NtRp1604
(dp1605
g62
(dp1606
g70
I4
ssg71
g1600
sg64
(lp1607
S'54633'
p1608
asbasbasbag57
(g73
g59
NtRp1609
(dp1610
g62
(dp1611
sg71
g1033
sg64
(lp1612
g57
(g78
g59
NtRp1613
(dp1614
g62
(dp1615
g82
g83
ssg71
g1609
sg64
(lp1616
S'request_method'
p1617
asbag57
(g78
g59
NtRp1618
(dp1619
g62
(dp1620
g89
g90
ssg71
g1609
sg64
(lp1621
S':'
asbag57
(g78
g59
NtRp1622
(dp1623
g62
(dp1624
sg71
g1609
sg64
(lp1625
g57
(g58
g59
NtRp1626
(dp1627
g62
(dp1628
g70
I4
ssg71
g1622
sg64
(lp1629
S'GET'
p1630
asbasbasbag57
(g73
g59
NtRp1631
(dp1632
g62
(dp1633
sg71
g1033
sg64
(lp1634
g57
(g78
g59
NtRp1635
(dp1636
g62
(dp1637
g82
g83
ssg71
g1631
sg64
(lp1638
S'request_uri'
p1639
asbag57
(g78
g59
NtRp1640
(dp1641
g62
(dp1642
g89
g90
ssg71
g1631
sg64
(lp1643
S':'
asbag57
(g78
g59
NtRp1644
(dp1645
g62
(dp1646
sg71
g1631
sg64
(lp1647
g57
(g58
g59
NtRp1648
(dp1649
g62
(dp1650
g70
I4
ssg71
g1644
sg64
(lp1651
g1544
asbasbasbag57
(g73
g59
NtRp1652
(dp1653
g62
(dp1654
sg71
g1033
sg64
(lp1655
g57
(g78
g59
NtRp1656
(dp1657
g62
(dp1658
g82
g83
ssg71
g1652
sg64
(lp1659
S'script_name'
p1660
asbag57
(g78
g59
NtRp1661
(dp1662
g62
(dp1663
g89
g90
ssg71
g1652
sg64
(lp1664
S':'
asbag57
(g78
g59
NtRp1665
(dp1666
g62
(dp1667
sg71
g1652
sg64
(lp1668
g57
(g58
g59
NtRp1669
(dp1670
g62
(dp1671
g70
I4
ssg71
g1665
sg64
(lp1672
S''
asbasbasbag57
(g73
g59
NtRp1673
(dp1674
g62
(dp1675
sg71
g1033
sg64
(lp1676
g57
(g78
g59
NtRp1677
(dp1678
g62
(dp1679
g82
g83
ssg71
g1673
sg64
(lp1680
S'server_name'
p1681
asbag57
(g78
g59
NtRp1682
(dp1683
g62
(dp1684
g89
g90
ssg71
g1673
sg64
(lp1685
S':'
asbag57
(g78
g59
NtRp1686
(dp1687
g62
(dp1688
sg71
g1673
sg64
(lp1689
g57
(g58
g59
NtRp1690
(dp1691
g62
(dp1692
g70
I4
ssg71
g1686
sg64
(lp1693
S'alanzak'
p1694
asbasbasbag57
(g73
g59
NtRp1695
(dp1696
g62
(dp1697
sg71
g1033
sg64
(lp1698
g57
(g78
g59
NtRp1699
(dp1700
g62
(dp1701
g82
g83
ssg71
g1695
sg64
(lp1702
S'server_port'
p1703
asbag57
(g78
g59
NtRp1704
(dp1705
g62
(dp1706
g89
g90
ssg71
g1695
sg64
(lp1707
S':'
asbag57
(g78
g59
NtRp1708
(dp1709
g62
(dp1710
sg71
g1695
sg64
(lp1711
g57
(g58
g59
NtRp1712
(dp1713
g62
(dp1714
g70
I4
ssg71
g1708
sg64
(lp1715
S'8001'
p1716
asbasbasbag57
(g73
g59
NtRp1717
(dp1718
g62
(dp1719
sg71
g1033
sg64
(lp1720
g57
(g78
g59
NtRp1721
(dp1722
g62
(dp1723
g82
g83
ssg71
g1717
sg64
(lp1724
S'server_protocol'
p1725
asbag57
(g78
g59
NtRp1726
(dp1727
g62
(dp1728
g89
g90
ssg71
g1717
sg64
(lp1729
S':'
asbag57
(g78
g59
NtRp1730
(dp1731
g62
(dp1732
sg71
g1717
sg64
(lp1733
g57
(g58
g59
NtRp1734
(dp1735
g62
(dp1736
g70
I4
ssg71
g1730
sg64
(lp1737
S'HTTP/1.1'
p1738
asbasbasbag57
(g73
g59
NtRp1739
(dp1740
g62
(dp1741
sg71
g1033
sg64
(lp1742
g57
(g78
g59
NtRp1743
(dp1744
g62
(dp1745
g82
g83
ssg71
g1739
sg64
(lp1746
S'server_software'
p1747
asbag57
(g78
g59
NtRp1748
(dp1749
g62
(dp1750
g89
g90
ssg71
g1739
sg64
(lp1751
S':'
asbag57
(g78
g59
NtRp1752
(dp1753
g62
(dp1754
sg71
g1739
sg64
(lp1755
g57
(g58
g59
NtRp1756
(dp1757
g62
(dp1758
g70
I4
ssg71
g1752
sg64
(lp1759
S'Rocket 1.2.6'
p1760
asbasbasbag57
(g73
g59
NtRp1761
(dp1762
g62
(dp1763
sg71
g1033
sg64
(lp1764
g57
(g78
g59
NtRp1765
(dp1766
g62
(dp1767
g82
g83
ssg71
g1761
sg64
(lp1768
S'web2py_path'
p1769
asbag57
(g78
g59
NtRp1770
(dp1771
g62
(dp1772
g89
g90
ssg71
g1761
sg64
(lp1773
S':'
asbag57
(g78
g59
NtRp1774
(dp1775
g62
(dp1776
sg71
g1761
sg64
(lp1777
g57
(g58
g59
NtRp1778
(dp1779
g62
(dp1780
g70
I4
ssg71
g1774
sg64
(lp1781
g1080
asbasbasbag57
(g73
g59
NtRp1782
(dp1783
g62
(dp1784
sg71
g1033
sg64
(lp1785
g57
(g78
g59
NtRp1786
(dp1787
g62
(dp1788
g82
g83
ssg71
g1782
sg64
(lp1789
S'web2py_version'
p1790
asbag57
(g78
g59
NtRp1791
(dp1792
g62
(dp1793
g89
g90
ssg71
g1782
sg64
(lp1794
S':'
asbag57
(g78
g59
NtRp1795
(dp1796
g62
(dp1797
sg71
g1782
sg64
(lp1798
g57
(g58
g59
NtRp1799
(dp1800
g62
(dp1801
g70
I4
ssg71
g1795
sg64
(lp1802
g57
(g66
g59
NtRp1803
(dp1804
g62
(dp1805
g70
I3
ssg71
Nsg64
(lp1806
g57
(g73
g59
NtRp1807
(dp1808
g62
(dp1809
sg71
g1803
sg64
(lp1810
g57
(g78
g59
NtRp1811
(dp1812
g62
(dp1813
sg71
g1807
sg64
(lp1814
g57
(g58
g59
NtRp1815
(dp1816
g62
(dp1817
g70
I3
ssg71
g1811
sg64
(lp1818
S'2'
asbasbasbag57
(g73
g59
NtRp1819
(dp1820
g62
(dp1821
sg71
g1803
sg64
(lp1822
g57
(g78
g59
NtRp1823
(dp1824
g62
(dp1825
sg71
g1819
sg64
(lp1826
g57
(g58
g59
NtRp1827
(dp1828
g62
(dp1829
g70
I3
ssg71
g1823
sg64
(lp1830
S'3'
asbasbasbag57
(g73
g59
NtRp1831
(dp1832
g62
(dp1833
sg71
g1803
sg64
(lp1834
g57
(g78
g59
NtRp1835
(dp1836
g62
(dp1837
sg71
g1831
sg64
(lp1838
g57
(g58
g59
NtRp1839
(dp1840
g62
(dp1841
g70
I3
ssg71
g1835
sg64
(lp1842
S'2'
asbasbasbag57
(g73
g59
NtRp1843
(dp1844
g62
(dp1845
sg71
g1803
sg64
(lp1846
g57
(g78
g59
NtRp1847
(dp1848
g62
(dp1849
sg71
g1843
sg64
(lp1850
g57
(g58
g59
NtRp1851
(dp1852
g62
(dp1853
g70
I3
ssg71
g1847
sg64
(lp1854
S'datetime.datetime(2012, 12, 17, 15, 3, 30)'
p1855
asbasbasbag57
(g73
g59
NtRp1856
(dp1857
g62
(dp1858
sg71
g1803
sg64
(lp1859
g57
(g78
g59
NtRp1860
(dp1861
g62
(dp1862
sg71
g1856
sg64
(lp1863
g57
(g58
g59
NtRp1864
(dp1865
g62
(dp1866
g70
I3
ssg71
g1860
sg64
(lp1867
S'stable'
p1868
asbasbasbasbasbasbasbag57
(g73
g59
NtRp1869
(dp1870
g62
(dp1871
sg71
g1033
sg64
(lp1872
g57
(g78
g59
NtRp1873
(dp1874
g62
(dp1875
g82
g83
ssg71
g1869
sg64
(lp1876
S'wsgi_errors'
p1877
asbag57
(g78
g59
NtRp1878
(dp1879
g62
(dp1880
g89
g90
ssg71
g1869
sg64
(lp1881
S':'
asbag57
(g78
g59
NtRp1882
(dp1883
g62
(dp1884
sg71
g1869
sg64
(lp1885
g57
(g58
g59
NtRp1886
(dp1887
g62
(dp1888
g70
I4
ssg71
g1882
sg64
(lp1889
S"<open file '<stderr>', mode 'w' at 0xb78080d0>"
p1890
asbasbasbag57
(g73
g59
NtRp1891
(dp1892
g62
(dp1893
sg71
g1033
sg64
(lp1894
g57
(g78
g59
NtRp1895
(dp1896
g62
(dp1897
g82
g83
ssg71
g1891
sg64
(lp1898
S'wsgi_file_wrapper'
p1899
asbag57
(g78
g59
NtRp1900
(dp1901
g62
(dp1902
g89
g90
ssg71
g1891
sg64
(lp1903
S':'
asbag57
(g78
g59
NtRp1904
(dp1905
g62
(dp1906
sg71
g1891
sg64
(lp1907
g57
(g58
g59
NtRp1908
(dp1909
g62
(dp1910
g70
I4
ssg71
g1904
sg64
(lp1911
S'<class wsgiref.util.FileWrapper at 0x9a2dcbc>'
p1912
asbasbasbag57
(g73
g59
NtRp1913
(dp1914
g62
(dp1915
sg71
g1033
sg64
(lp1916
g57
(g78
g59
NtRp1917
(dp1918
g62
(dp1919
g82
g83
ssg71
g1913
sg64
(lp1920
S'wsgi_input'
p1921
asbag57
(g78
g59
NtRp1922
(dp1923
g62
(dp1924
g89
g90
ssg71
g1913
sg64
(lp1925
S':'
asbag57
(g78
g59
NtRp1926
(dp1927
g62
(dp1928
sg71
g1913
sg64
(lp1929
g57
(g58
g59
NtRp1930
(dp1931
g62
(dp1932
g70
I4
ssg71
g1926
sg64
(lp1933
S'<socket._fileobject object at 0x9e9df2c>'
p1934
asbasbasbag57
(g73
g59
NtRp1935
(dp1936
g62
(dp1937
sg71
g1033
sg64
(lp1938
g57
(g78
g59
NtRp1939
(dp1940
g62
(dp1941
g82
g83
ssg71
g1935
sg64
(lp1942
S'wsgi_multiprocess'
p1943
asbag57
(g78
g59
NtRp1944
(dp1945
g62
(dp1946
g89
g90
ssg71
g1935
sg64
(lp1947
S':'
asbag57
(g78
g59
NtRp1948
(dp1949
g62
(dp1950
sg71
g1935
sg64
(lp1951
g57
(g58
g59
NtRp1952
(dp1953
g62
(dp1954
g70
I4
ssg71
g1948
sg64
(lp1955
g100
asbasbasbag57
(g73
g59
NtRp1956
(dp1957
g62
(dp1958
sg71
g1033
sg64
(lp1959
g57
(g78
g59
NtRp1960
(dp1961
g62
(dp1962
g82
g83
ssg71
g1956
sg64
(lp1963
S'wsgi_multithread'
p1964
asbag57
(g78
g59
NtRp1965
(dp1966
g62
(dp1967
g89
g90
ssg71
g1956
sg64
(lp1968
S':'
asbag57
(g78
g59
NtRp1969
(dp1970
g62
(dp1971
sg71
g1956
sg64
(lp1972
g57
(g58
g59
NtRp1973
(dp1974
g62
(dp1975
g70
I4
ssg71
g1969
sg64
(lp1976
S'True'
p1977
asbasbasbag57
(g73
g59
NtRp1978
(dp1979
g62
(dp1980
sg71
g1033
sg64
(lp1981
g57
(g78
g59
NtRp1982
(dp1983
g62
(dp1984
g82
g83
ssg71
g1978
sg64
(lp1985
S'wsgi_run_once'
p1986
asbag57
(g78
g59
NtRp1987
(dp1988
g62
(dp1989
g89
g90
ssg71
g1978
sg64
(lp1990
S':'
asbag57
(g78
g59
NtRp1991
(dp1992
g62
(dp1993
sg71
g1978
sg64
(lp1994
g57
(g58
g59
NtRp1995
(dp1996
g62
(dp1997
g70
I4
ssg71
g1991
sg64
(lp1998
g100
asbasbasbag57
(g73
g59
NtRp1999
(dp2000
g62
(dp2001
sg71
g1033
sg64
(lp2002
g57
(g78
g59
NtRp2003
(dp2004
g62
(dp2005
g82
g83
ssg71
g1999
sg64
(lp2006
S'wsgi_url_scheme'
p2007
asbag57
(g78
g59
NtRp2008
(dp2009
g62
(dp2010
g89
g90
ssg71
g1999
sg64
(lp2011
S':'
asbag57
(g78
g59
NtRp2012
(dp2013
g62
(dp2014
sg71
g1999
sg64
(lp2015
g57
(g58
g59
NtRp2016
(dp2017
g62
(dp2018
g70
I4
ssg71
g2012
sg64
(lp2019
S'http'
p2020
asbasbasbag57
(g73
g59
NtRp2021
(dp2022
g62
(dp2023
sg71
g1033
sg64
(lp2024
g57
(g78
g59
NtRp2025
(dp2026
g62
(dp2027
g82
g83
ssg71
g2021
sg64
(lp2028
S'wsgi_version'
p2029
asbag57
(g78
g59
NtRp2030
(dp2031
g62
(dp2032
g89
g90
ssg71
g2021
sg64
(lp2033
S':'
asbag57
(g78
g59
NtRp2034
(dp2035
g62
(dp2036
sg71
g2021
sg64
(lp2037
g57
(g58
g59
NtRp2038
(dp2039
g62
(dp2040
g70
I4
ssg71
g2034
sg64
(lp2041
g57
(g66
g59
NtRp2042
(dp2043
g62
(dp2044
g70
I3
ssg71
Nsg64
(lp2045
g57
(g73
g59
NtRp2046
(dp2047
g62
(dp2048
sg71
g2042
sg64
(lp2049
g57
(g78
g59
NtRp2050
(dp2051
g62
(dp2052
sg71
g2046
sg64
(lp2053
g57
(g58
g59
NtRp2054
(dp2055
g62
(dp2056
g70
I3
ssg71
g2050
sg64
(lp2057
S'1'
asbasbasbag57
(g73
g59
NtRp2058
(dp2059
g62
(dp2060
sg71
g2042
sg64
(lp2061
g57
(g78
g59
NtRp2062
(dp2063
g62
(dp2064
sg71
g2058
sg64
(lp2065
g57
(g58
g59
NtRp2066
(dp2067
g62
(dp2068
g70
I3
ssg71
g2062
sg64
(lp2069
S'0'
asbasbasbasbasbasbasbasbasbasbasbag57
(g73
g59
NtRp2070
(dp2071
g62
(dp2072
sg71
g67
sg64
(lp2073
g57
(g78
g59
NtRp2074
(dp2075
g62
(dp2076
g82
g83
ssg71
g2070
sg64
(lp2077
S'extension'
p2078
asbag57
(g78
g59
NtRp2079
(dp2080
g62
(dp2081
g89
g90
ssg71
g2070
sg64
(lp2082
S':'
asbag57
(g78
g59
NtRp2083
(dp2084
g62
(dp2085
sg71
g2070
sg64
(lp2086
g57
(g58
g59
NtRp2087
(dp2088
g62
(dp2089
g70
I5
ssg71
g2083
sg64
(lp2090
S'html'
p2091
asbasbasbag57
(g73
g59
NtRp2092
(dp2093
g62
(dp2094
sg71
g67
sg64
(lp2095
g57
(g78
g59
NtRp2096
(dp2097
g62
(dp2098
g82
g83
ssg71
g2092
sg64
(lp2099
S'folder'
p2100
asbag57
(g78
g59
NtRp2101
(dp2102
g62
(dp2103
g89
g90
ssg71
g2092
sg64
(lp2104
S':'
asbag57
(g78
g59
NtRp2105
(dp2106
g62
(dp2107
sg71
g2092
sg64
(lp2108
g57
(g58
g59
NtRp2109
(dp2110
g62
(dp2111
g70
I5
ssg71
g2105
sg64
(lp2112
S'/home/pratyush/web2py/applications/BuySell/'
p2113
asbasbasbag57
(g73
g59
NtRp2114
(dp2115
g62
(dp2116
sg71
g67
sg64
(lp2117
g57
(g78
g59
NtRp2118
(dp2119
g62
(dp2120
g82
g83
ssg71
g2114
sg64
(lp2121
S'function'
p2122
asbag57
(g78
g59
NtRp2123
(dp2124
g62
(dp2125
g89
g90
ssg71
g2114
sg64
(lp2126
S':'
asbag57
(g78
g59
NtRp2127
(dp2128
g62
(dp2129
sg71
g2114
sg64
(lp2130
g57
(g58
g59
NtRp2131
(dp2132
g62
(dp2133
g70
I5
ssg71
g2127
sg64
(lp2134
S'list_items'
p2135
asbasbasbag57
(g73
g59
NtRp2136
(dp2137
g62
(dp2138
sg71
g67
sg64
(lp2139
g57
(g78
g59
NtRp2140
(dp2141
g62
(dp2142
g82
g83
ssg71
g2136
sg64
(lp2143
S'get_vars'
p2144
asbag57
(g78
g59
NtRp2145
(dp2146
g62
(dp2147
g89
g90
ssg71
g2136
sg64
(lp2148
S':'
asbag57
(g78
g59
NtRp2149
(dp2150
g62
(dp2151
sg71
g2136
sg64
(lp2152
g57
(g58
g59
NtRp2153
(dp2154
g62
(dp2155
g70
I5
ssg71
g2149
sg64
(lp2156
g57
(g66
g59
NtRp2157
(dp2158
g62
(dp2159
g70
I4
ssg71
Nsg64
(lp2160
sbasbasbasbag57
(g73
g59
NtRp2161
(dp2162
g62
(dp2163
sg71
g67
sg64
(lp2164
g57
(g78
g59
NtRp2165
(dp2166
g62
(dp2167
g82
g83
ssg71
g2161
sg64
(lp2168
S'global_settings'
p2169
asbag57
(g78
g59
NtRp2170
(dp2171
g62
(dp2172
g89
g90
ssg71
g2161
sg64
(lp2173
S':'
asbag57
(g78
g59
NtRp2174
(dp2175
g62
(dp2176
sg71
g2161
sg64
(lp2177
g57
(g58
g59
NtRp2178
(dp2179
g62
(dp2180
g70
I5
ssg71
g2174
sg64
(lp2181
g57
(g66
g59
NtRp2182
(dp2183
g62
(dp2184
g70
I4
ssg71
Nsg64
(lp2185
g57
(g73
g59
NtRp2186
(dp2187
g62
(dp2188
sg71
g2182
sg64
(lp2189
g57
(g78
g59
NtRp2190
(dp2191
g62
(dp2192
g82
g83
ssg71
g2186
sg64
(lp2193
g1045
asbag57
(g78
g59
NtRp2194
(dp2195
g62
(dp2196
g89
g90
ssg71
g2186
sg64
(lp2197
S':'
asbag57
(g78
g59
NtRp2198
(dp2199
g62
(dp2200
sg71
g2186
sg64
(lp2201
g57
(g58
g59
NtRp2202
(dp2203
g62
(dp2204
g70
I4
ssg71
g2198
sg64
(lp2205
S"set(['/home/pratyush/web2py/applications/welcome/', '/home/pratyush/web2py/applications/BuySell/'])"
p2206
asbasbasbag57
(g73
g59
NtRp2207
(dp2208
g62
(dp2209
sg71
g2182
sg64
(lp2210
g57
(g78
g59
NtRp2211
(dp2212
g62
(dp2213
g82
g83
ssg71
g2207
sg64
(lp2214
g1067
asbag57
(g78
g59
NtRp2215
(dp2216
g62
(dp2217
g89
g90
ssg71
g2207
sg64
(lp2218
S':'
asbag57
(g78
g59
NtRp2219
(dp2220
g62
(dp2221
sg71
g2207
sg64
(lp2222
g57
(g58
g59
NtRp2223
(dp2224
g62
(dp2225
g70
I4
ssg71
g2219
sg64
(lp2226
g1080
asbasbasbag57
(g73
g59
NtRp2227
(dp2228
g62
(dp2229
sg71
g2182
sg64
(lp2230
g57
(g78
g59
NtRp2231
(dp2232
g62
(dp2233
g82
g83
ssg71
g2227
sg64
(lp2234
g1089
asbag57
(g78
g59
NtRp2235
(dp2236
g62
(dp2237
g89
g90
ssg71
g2227
sg64
(lp2238
S':'
asbag57
(g78
g59
NtRp2239
(dp2240
g62
(dp2241
sg71
g2227
sg64
(lp2242
g57
(g58
g59
NtRp2243
(dp2244
g62
(dp2245
g70
I4
ssg71
g2239
sg64
(lp2246
g57
(g66
g59
NtRp2247
(dp2248
g62
(dp2249
g70
I3
ssg71
Nsg64
(lp2250
sbasbasbasbag57
(g73
g59
NtRp2251
(dp2252
g62
(dp2253
sg71
g2182
sg64
(lp2254
g57
(g78
g59
NtRp2255
(dp2256
g62
(dp2257
g82
g83
ssg71
g2251
sg64
(lp2258
g1114
asbag57
(g78
g59
NtRp2259
(dp2260
g62
(dp2261
g89
g90
ssg71
g2251
sg64
(lp2262
S':'
asbag57
(g78
g59
NtRp2263
(dp2264
g62
(dp2265
sg71
g2251
sg64
(lp2266
g57
(g58
g59
NtRp2267
(dp2268
g62
(dp2269
g70
I4
ssg71
g2263
sg64
(lp2270
S"<Values at 0x9a8004c: {'verbose': False, 'ip': '127.0.0.1', 'with_scheduler': False, 'ips': [], 'shutdown_timeout': 5, 'taskbar': False, 'port': 8001, 'maxthreads': None, 'softcron': False, 'server_name': 'alanzak', 'bpython': False, 'nogui': False, 'pid_filename': 'httpserver.pid', 'extcron': False, 'runcron': False, 'run_system_tests': False, 'test': None, 'folder': '/home/pratyush/web2py', 'config': '', 'import_models': False, 'winservice': '', 'shell': None, 'run': '', 'log_filename': 'httpserver.log', 'debuglevel': 30, 'args': [''], 'socket_timeout': 5, 'ssl_ca_certificate': None, 'scheduler': None, 'profiler_filename': None, 'ssl_private_key': '', 'scheduler_groups': None, 'password': '1', 'request_queue_size': 5, 'ssl_certificate': '', 'cronjob': False, 'numthreads': None, 'quiet': False, 'interfaces': None, 'minthreads': None, 'timeout': 10, 'plain': False, 'nobanner': False}>"
p2271
asbasbasbag57
(g73
g59
NtRp2272
(dp2273
g62
(dp2274
sg71
g2182
sg64
(lp2275
g57
(g78
g59
NtRp2276
(dp2277
g62
(dp2278
g82
g83
ssg71
g2272
sg64
(lp2279
g1136
asbag57
(g78
g59
NtRp2280
(dp2281
g62
(dp2282
g89
g90
ssg71
g2272
sg64
(lp2283
S':'
asbag57
(g78
g59
NtRp2284
(dp2285
g62
(dp2286
sg71
g2272
sg64
(lp2287
g57
(g58
g59
NtRp2288
(dp2289
g62
(dp2290
g70
I4
ssg71
g2284
sg64
(lp2291
S'set([])'
p2292
asbasbasbag57
(g73
g59
NtRp2293
(dp2294
g62
(dp2295
sg71
g2182
sg64
(lp2296
g57
(g78
g59
NtRp2297
(dp2298
g62
(dp2299
g82
g83
ssg71
g2293
sg64
(lp2300
g1158
asbag57
(g78
g59
NtRp2301
(dp2302
g62
(dp2303
g89
g90
ssg71
g2293
sg64
(lp2304
S':'
asbag57
(g78
g59
NtRp2305
(dp2306
g62
(dp2307
sg71
g2293
sg64
(lp2308
g57
(g58
g59
NtRp2309
(dp2310
g62
(dp2311
g70
I4
ssg71
g2305
sg64
(lp2312
g100
asbasbasbag57
(g73
g59
NtRp2313
(dp2314
g62
(dp2315
sg71
g2182
sg64
(lp2316
g57
(g78
g59
NtRp2317
(dp2318
g62
(dp2319
g82
g83
ssg71
g2313
sg64
(lp2320
g1179
asbag57
(g78
g59
NtRp2321
(dp2322
g62
(dp2323
g89
g90
ssg71
g2313
sg64
(lp2324
S':'
asbag57
(g78
g59
NtRp2325
(dp2326
g62
(dp2327
sg71
g2313
sg64
(lp2328
g57
(g58
g59
NtRp2329
(dp2330
g62
(dp2331
g70
I4
ssg71
g2325
sg64
(lp2332
g1192
asbasbasbag57
(g73
g59
NtRp2333
(dp2334
g62
(dp2335
sg71
g2182
sg64
(lp2336
g57
(g78
g59
NtRp2337
(dp2338
g62
(dp2339
g82
g83
ssg71
g2333
sg64
(lp2340
g1399
asbag57
(g78
g59
NtRp2341
(dp2342
g62
(dp2343
g89
g90
ssg71
g2333
sg64
(lp2344
S':'
asbag57
(g78
g59
NtRp2345
(dp2346
g62
(dp2347
sg71
g2333
sg64
(lp2348
g57
(g58
g59
NtRp2349
(dp2350
g62
(dp2351
g70
I4
ssg71
g2345
sg64
(lp2352
g100
asbasbasbag57
(g73
g59
NtRp2353
(dp2354
g62
(dp2355
sg71
g2182
sg64
(lp2356
g57
(g78
g59
NtRp2357
(dp2358
g62
(dp2359
g82
g83
ssg71
g2353
sg64
(lp2360
g1420
asbag57
(g78
g59
NtRp2361
(dp2362
g62
(dp2363
g89
g90
ssg71
g2353
sg64
(lp2364
S':'
asbag57
(g78
g59
NtRp2365
(dp2366
g62
(dp2367
sg71
g2353
sg64
(lp2368
g57
(g58
g59
NtRp2369
(dp2370
g62
(dp2371
g70
I4
ssg71
g2365
sg64
(lp2372
g100
asbasbasbag57
(g73
g59
NtRp2373
(dp2374
g62
(dp2375
sg71
g2182
sg64
(lp2376
g57
(g78
g59
NtRp2377
(dp2378
g62
(dp2379
g82
g83
ssg71
g2373
sg64
(lp2380
g1441
asbag57
(g78
g59
NtRp2381
(dp2382
g62
(dp2383
g89
g90
ssg71
g2373
sg64
(lp2384
S':'
asbag57
(g78
g59
NtRp2385
(dp2386
g62
(dp2387
sg71
g2373
sg64
(lp2388
g57
(g58
g59
NtRp2389
(dp2390
g62
(dp2391
g70
I4
ssg71
g2385
sg64
(lp2392
g57
(g66
g59
NtRp2393
(dp2394
g62
(dp2395
g70
I3
ssg71
Nsg64
(lp2396
g57
(g73
g59
NtRp2397
(dp2398
g62
(dp2399
sg71
g2393
sg64
(lp2400
g57
(g78
g59
NtRp2401
(dp2402
g62
(dp2403
sg71
g2397
sg64
(lp2404
g57
(g58
g59
NtRp2405
(dp2406
g62
(dp2407
g70
I3
ssg71
g2401
sg64
(lp2408
g1470
asbasbasbag57
(g73
g59
NtRp2409
(dp2410
g62
(dp2411
sg71
g2393
sg64
(lp2412
g57
(g78
g59
NtRp2413
(dp2414
g62
(dp2415
sg71
g2409
sg64
(lp2416
g57
(g58
g59
NtRp2417
(dp2418
g62
(dp2419
g70
I3
ssg71
g2413
sg64
(lp2420
g1483
asbasbasbag57
(g73
g59
NtRp2421
(dp2422
g62
(dp2423
sg71
g2393
sg64
(lp2424
g57
(g78
g59
NtRp2425
(dp2426
g62
(dp2427
sg71
g2421
sg64
(lp2428
g57
(g58
g59
NtRp2429
(dp2430
g62
(dp2431
g70
I3
ssg71
g2425
sg64
(lp2432
g1496
asbasbasbag57
(g73
g59
NtRp2433
(dp2434
g62
(dp2435
sg71
g2393
sg64
(lp2436
g57
(g78
g59
NtRp2437
(dp2438
g62
(dp2439
sg71
g2433
sg64
(lp2440
g57
(g58
g59
NtRp2441
(dp2442
g62
(dp2443
g70
I3
ssg71
g2437
sg64
(lp2444
g1509
asbasbasbag57
(g73
g59
NtRp2445
(dp2446
g62
(dp2447
sg71
g2393
sg64
(lp2448
g57
(g78
g59
NtRp2449
(dp2450
g62
(dp2451
sg71
g2445
sg64
(lp2452
g57
(g58
g59
NtRp2453
(dp2454
g62
(dp2455
g70
I3
ssg71
g2449
sg64
(lp2456
g1522
asbasbasbasbasbasbasbag57
(g73
g59
NtRp2457
(dp2458
g62
(dp2459
sg71
g2182
sg64
(lp2460
g57
(g78
g59
NtRp2461
(dp2462
g62
(dp2463
g82
g83
ssg71
g2457
sg64
(lp2464
g1790
asbag57
(g78
g59
NtRp2465
(dp2466
g62
(dp2467
g89
g90
ssg71
g2457
sg64
(lp2468
S':'
asbag57
(g78
g59
NtRp2469
(dp2470
g62
(dp2471
sg71
g2457
sg64
(lp2472
g57
(g58
g59
NtRp2473
(dp2474
g62
(dp2475
g70
I4
ssg71
g2469
sg64
(lp2476
g57
(g66
g59
NtRp2477
(dp2478
g62
(dp2479
g70
I3
ssg71
Nsg64
(lp2480
g57
(g73
g59
NtRp2481
(dp2482
g62
(dp2483
sg71
g2477
sg64
(lp2484
g57
(g78
g59
NtRp2485
(dp2486
g62
(dp2487
sg71
g2481
sg64
(lp2488
g57
(g58
g59
NtRp2489
(dp2490
g62
(dp2491
g70
I3
ssg71
g2485
sg64
(lp2492
S'2'
asbasbasbag57
(g73
g59
NtRp2493
(dp2494
g62
(dp2495
sg71
g2477
sg64
(lp2496
g57
(g78
g59
NtRp2497
(dp2498
g62
(dp2499
sg71
g2493
sg64
(lp2500
g57
(g58
g59
NtRp2501
(dp2502
g62
(dp2503
g70
I3
ssg71
g2497
sg64
(lp2504
S'3'
asbasbasbag57
(g73
g59
NtRp2505
(dp2506
g62
(dp2507
sg71
g2477
sg64
(lp2508
g57
(g78
g59
NtRp2509
(dp2510
g62
(dp2511
sg71
g2505
sg64
(lp2512
g57
(g58
g59
NtRp2513
(dp2514
g62
(dp2515
g70
I3
ssg71
g2509
sg64
(lp2516
S'2'
asbasbasbag57
(g73
g59
NtRp2517
(dp2518
g62
(dp2519
sg71
g2477
sg64
(lp2520
g57
(g78
g59
NtRp2521
(dp2522
g62
(dp2523
sg71
g2517
sg64
(lp2524
g57
(g58
g59
NtRp2525
(dp2526
g62
(dp2527
g70
I3
ssg71
g2521
sg64
(lp2528
S'datetime.datetime(2012, 12, 17, 15, 3, 30)'
p2529
asbasbasbag57
(g73
g59
NtRp2530
(dp2531
g62
(dp2532
sg71
g2477
sg64
(lp2533
g57
(g78
g59
NtRp2534
(dp2535
g62
(dp2536
sg71
g2530
sg64
(lp2537
g57
(g58
g59
NtRp2538
(dp2539
g62
(dp2540
g70
I3
ssg71
g2534
sg64
(lp2541
g1868
asbasbasbasbasbasbasbasbasbasbasbag57
(g73
g59
NtRp2542
(dp2543
g62
(dp2544
sg71
g67
sg64
(lp2545
g57
(g78
g59
NtRp2546
(dp2547
g62
(dp2548
g82
g83
ssg71
g2542
sg64
(lp2549
S'is_https'
p2550
asbag57
(g78
g59
NtRp2551
(dp2552
g62
(dp2553
g89
g90
ssg71
g2542
sg64
(lp2554
S':'
asbag57
(g78
g59
NtRp2555
(dp2556
g62
(dp2557
sg71
g2542
sg64
(lp2558
g57
(g58
g59
NtRp2559
(dp2560
g62
(dp2561
g70
I5
ssg71
g2555
sg64
(lp2562
g100
asbasbasbag57
(g73
g59
NtRp2563
(dp2564
g62
(dp2565
sg71
g67
sg64
(lp2566
g57
(g78
g59
NtRp2567
(dp2568
g62
(dp2569
g82
g83
ssg71
g2563
sg64
(lp2570
S'is_local'
p2571
asbag57
(g78
g59
NtRp2572
(dp2573
g62
(dp2574
g89
g90
ssg71
g2563
sg64
(lp2575
S':'
asbag57
(g78
g59
NtRp2576
(dp2577
g62
(dp2578
sg71
g2563
sg64
(lp2579
g57
(g58
g59
NtRp2580
(dp2581
g62
(dp2582
g70
I5
ssg71
g2576
sg64
(lp2583
g1977
asbasbasbag57
(g73
g59
NtRp2584
(dp2585
g62
(dp2586
sg71
g67
sg64
(lp2587
g57
(g78
g59
NtRp2588
(dp2589
g62
(dp2590
g82
g83
ssg71
g2584
sg64
(lp2591
S'is_restful'
p2592
asbag57
(g78
g59
NtRp2593
(dp2594
g62
(dp2595
g89
g90
ssg71
g2584
sg64
(lp2596
S':'
asbag57
(g78
g59
NtRp2597
(dp2598
g62
(dp2599
sg71
g2584
sg64
(lp2600
g57
(g58
g59
NtRp2601
(dp2602
g62
(dp2603
g70
I5
ssg71
g2597
sg64
(lp2604
g100
asbasbasbag57
(g73
g59
NtRp2605
(dp2606
g62
(dp2607
sg71
g67
sg64
(lp2608
g57
(g78
g59
NtRp2609
(dp2610
g62
(dp2611
g82
g83
ssg71
g2605
sg64
(lp2612
S'now'
p2613
asbag57
(g78
g59
NtRp2614
(dp2615
g62
(dp2616
g89
g90
ssg71
g2605
sg64
(lp2617
S':'
asbag57
(g78
g59
NtRp2618
(dp2619
g62
(dp2620
sg71
g2605
sg64
(lp2621
g57
(g58
g59
NtRp2622
(dp2623
g62
(dp2624
g70
I5
ssg71
g2618
sg64
(lp2625
S'datetime.datetime(2013, 4, 23, 10, 27, 50, 542530)'
p2626
asbasbasbag57
(g73
g59
NtRp2627
(dp2628
g62
(dp2629
sg71
g67
sg64
(lp2630
g57
(g78
g59
NtRp2631
(dp2632
g62
(dp2633
g82
g83
ssg71
g2627
sg64
(lp2634
S'post_vars'
p2635
asbag57
(g78
g59
NtRp2636
(dp2637
g62
(dp2638
g89
g90
ssg71
g2627
sg64
(lp2639
S':'
asbag57
(g78
g59
NtRp2640
(dp2641
g62
(dp2642
sg71
g2627
sg64
(lp2643
g57
(g58
g59
NtRp2644
(dp2645
g62
(dp2646
g70
I5
ssg71
g2640
sg64
(lp2647
g57
(g66
g59
NtRp2648
(dp2649
g62
(dp2650
g70
I4
ssg71
Nsg64
(lp2651
sbasbasbasbag57
(g73
g59
NtRp2652
(dp2653
g62
(dp2654
sg71
g67
sg64
(lp2655
g57
(g78
g59
NtRp2656
(dp2657
g62
(dp2658
g82
g83
ssg71
g2652
sg64
(lp2659
S'raw_args'
p2660
asbag57
(g78
g59
NtRp2661
(dp2662
g62
(dp2663
g89
g90
ssg71
g2652
sg64
(lp2664
S':'
asbag57
(g78
g59
NtRp2665
(dp2666
g62
(dp2667
sg71
g2652
sg64
(lp2668
g57
(g58
g59
NtRp2669
(dp2670
g62
(dp2671
g70
I5
ssg71
g2665
sg64
(lp2672
S''
asbasbasbag57
(g73
g59
NtRp2673
(dp2674
g62
(dp2675
sg71
g67
sg64
(lp2676
g57
(g78
g59
NtRp2677
(dp2678
g62
(dp2679
g82
g83
ssg71
g2673
sg64
(lp2680
S'raw_extension'
p2681
asbag57
(g78
g59
NtRp2682
(dp2683
g62
(dp2684
g89
g90
ssg71
g2673
sg64
(lp2685
S':'
asbag57
(g78
g59
NtRp2686
(dp2687
g62
(dp2688
sg71
g2673
sg64
(lp2689
g57
(g58
g59
NtRp2690
(dp2691
g62
(dp2692
g70
I5
ssg71
g2686
sg64
(lp2693
S'None'
p2694
asbasbasbag57
(g73
g59
NtRp2695
(dp2696
g62
(dp2697
sg71
g67
sg64
(lp2698
g57
(g78
g59
NtRp2699
(dp2700
g62
(dp2701
g82
g83
ssg71
g2695
sg64
(lp2702
S'url'
p2703
asbag57
(g78
g59
NtRp2704
(dp2705
g62
(dp2706
g89
g90
ssg71
g2695
sg64
(lp2707
S':'
asbag57
(g78
g59
NtRp2708
(dp2709
g62
(dp2710
sg71
g2695
sg64
(lp2711
g57
(g58
g59
NtRp2712
(dp2713
g62
(dp2714
g70
I5
ssg71
g2708
sg64
(lp2715
g1544
asbasbasbag57
(g73
g59
NtRp2716
(dp2717
g62
(dp2718
sg71
g67
sg64
(lp2719
g57
(g78
g59
NtRp2720
(dp2721
g62
(dp2722
g82
g83
ssg71
g2716
sg64
(lp2723
S'utcnow'
p2724
asbag57
(g78
g59
NtRp2725
(dp2726
g62
(dp2727
g89
g90
ssg71
g2716
sg64
(lp2728
S':'
asbag57
(g78
g59
NtRp2729
(dp2730
g62
(dp2731
sg71
g2716
sg64
(lp2732
g57
(g58
g59
NtRp2733
(dp2734
g62
(dp2735
g70
I5
ssg71
g2729
sg64
(lp2736
S'datetime.datetime(2013, 4, 23, 4, 57, 50, 542569)'
p2737
asbasbasbag57
(g73
g59
NtRp2738
(dp2739
g62
(dp2740
sg71
g67
sg64
(lp2741
g57
(g78
g59
NtRp2742
(dp2743
g62
(dp2744
g82
g83
ssg71
g2738
sg64
(lp2745
S'uuid'
p2746
asbag57
(g78
g59
NtRp2747
(dp2748
g62
(dp2749
g89
g90
ssg71
g2738
sg64
(lp2750
S':'
asbag57
(g78
g59
NtRp2751
(dp2752
g62
(dp2753
sg71
g2738
sg64
(lp2754
g57
(g58
g59
NtRp2755
(dp2756
g62
(dp2757
g70
I5
ssg71
g2751
sg64
(lp2758
S'BuySell/127.0.0.1.2013-04-23.10-27-50.01a17b97-f386-479e-8511-bfe7aee55c90'
p2759
asbasbasbag57
(g73
g59
NtRp2760
(dp2761
g62
(dp2762
sg71
g67
sg64
(lp2763
g57
(g78
g59
NtRp2764
(dp2765
g62
(dp2766
g82
g83
ssg71
g2760
sg64
(lp2767
S'vars'
p2768
asbag57
(g78
g59
NtRp2769
(dp2770
g62
(dp2771
g89
g90
ssg71
g2760
sg64
(lp2772
S':'
asbag57
(g78
g59
NtRp2773
(dp2774
g62
(dp2775
sg71
g2760
sg64
(lp2776
g57
(g58
g59
NtRp2777
(dp2778
g62
(dp2779
g70
I5
ssg71
g2773
sg64
(lp2780
g57
(g66
g59
NtRp2781
(dp2782
g62
(dp2783
g70
I4
ssg71
Nsg64
(lp2784
sbasbasbasbag57
(g73
g59
NtRp2785
(dp2786
g62
(dp2787
sg71
g67
sg64
(lp2788
g57
(g78
g59
NtRp2789
(dp2790
g62
(dp2791
g82
g83
ssg71
g2785
sg64
(lp2792
S'wsgi'
p2793
asbag57
(g78
g59
NtRp2794
(dp2795
g62
(dp2796
g89
g90
ssg71
g2785
sg64
(lp2797
S':'
asbag57
(g78
g59
NtRp2798
(dp2799
g62
(dp2800
sg71
g2785
sg64
(lp2801
g57
(g58
g59
NtRp2802
(dp2803
g62
(dp2804
g70
I5
ssg71
g2798
sg64
(lp2805
g57
(g66
g59
NtRp2806
(dp2807
g62
(dp2808
g70
I4
ssg71
Nsg64
(lp2809
g57
(g73
g59
NtRp2810
(dp2811
g62
(dp2812
sg71
g2806
sg64
(lp2813
g57
(g78
g59
NtRp2814
(dp2815
g62
(dp2816
g82
g83
ssg71
g2810
sg64
(lp2817
S'environ'
p2818
asbag57
(g78
g59
NtRp2819
(dp2820
g62
(dp2821
g89
g90
ssg71
g2810
sg64
(lp2822
S':'
asbag57
(g78
g59
NtRp2823
(dp2824
g62
(dp2825
sg71
g2810
sg64
(lp2826
g57
(g58
g59
NtRp2827
(dp2828
g62
(dp2829
g70
I4
ssg71
g2823
sg64
(lp2830
g57
(g66
g59
NtRp2831
(dp2832
g62
(dp2833
g70
I3
ssg71
Nsg64
(lp2834
g57
(g73
g59
NtRp2835
(dp2836
g62
(dp2837
sg71
g2831
sg64
(lp2838
g57
(g78
g59
NtRp2839
(dp2840
g62
(dp2841
g82
g83
ssg71
g2835
sg64
(lp2842
S'HTTP_ACCEPT'
p2843
asbag57
(g78
g59
NtRp2844
(dp2845
g62
(dp2846
g89
g90
ssg71
g2835
sg64
(lp2847
S':'
asbag57
(g78
g59
NtRp2848
(dp2849
g62
(dp2850
sg71
g2835
sg64
(lp2851
g57
(g58
g59
NtRp2852
(dp2853
g62
(dp2854
g70
I3
ssg71
g2848
sg64
(lp2855
g1214
asbasbasbag57
(g73
g59
NtRp2856
(dp2857
g62
(dp2858
sg71
g2831
sg64
(lp2859
g57
(g78
g59
NtRp2860
(dp2861
g62
(dp2862
g82
g83
ssg71
g2856
sg64
(lp2863
S'HTTP_ACCEPT_CHARSET'
p2864
asbag57
(g78
g59
NtRp2865
(dp2866
g62
(dp2867
g89
g90
ssg71
g2856
sg64
(lp2868
S':'
asbag57
(g78
g59
NtRp2869
(dp2870
g62
(dp2871
sg71
g2856
sg64
(lp2872
g57
(g58
g59
NtRp2873
(dp2874
g62
(dp2875
g70
I3
ssg71
g2869
sg64
(lp2876
g1236
asbasbasbag57
(g73
g59
NtRp2877
(dp2878
g62
(dp2879
sg71
g2831
sg64
(lp2880
g57
(g78
g59
NtRp2881
(dp2882
g62
(dp2883
g82
g83
ssg71
g2877
sg64
(lp2884
S'HTTP_ACCEPT_ENCODING'
p2885
asbag57
(g78
g59
NtRp2886
(dp2887
g62
(dp2888
g89
g90
ssg71
g2877
sg64
(lp2889
S':'
asbag57
(g78
g59
NtRp2890
(dp2891
g62
(dp2892
sg71
g2877
sg64
(lp2893
g57
(g58
g59
NtRp2894
(dp2895
g62
(dp2896
g70
I3
ssg71
g2890
sg64
(lp2897
g1258
asbasbasbag57
(g73
g59
NtRp2898
(dp2899
g62
(dp2900
sg71
g2831
sg64
(lp2901
g57
(g78
g59
NtRp2902
(dp2903
g62
(dp2904
g82
g83
ssg71
g2898
sg64
(lp2905
S'HTTP_ACCEPT_LANGUAGE'
p2906
asbag57
(g78
g59
NtRp2907
(dp2908
g62
(dp2909
g89
g90
ssg71
g2898
sg64
(lp2910
S':'
asbag57
(g78
g59
NtRp2911
(dp2912
g62
(dp2913
sg71
g2898
sg64
(lp2914
g57
(g58
g59
NtRp2915
(dp2916
g62
(dp2917
g70
I3
ssg71
g2911
sg64
(lp2918
g1280
asbasbasbag57
(g73
g59
NtRp2919
(dp2920
g62
(dp2921
sg71
g2831
sg64
(lp2922
g57
(g78
g59
NtRp2923
(dp2924
g62
(dp2925
g82
g83
ssg71
g2919
sg64
(lp2926
S'HTTP_CONNECTION'
p2927
asbag57
(g78
g59
NtRp2928
(dp2929
g62
(dp2930
g89
g90
ssg71
g2919
sg64
(lp2931
S':'
asbag57
(g78
g59
NtRp2932
(dp2933
g62
(dp2934
sg71
g2919
sg64
(lp2935
g57
(g58
g59
NtRp2936
(dp2937
g62
(dp2938
g70
I3
ssg71
g2932
sg64
(lp2939
g1302
asbasbasbag57
(g73
g59
NtRp2940
(dp2941
g62
(dp2942
sg71
g2831
sg64
(lp2943
g57
(g78
g59
NtRp2944
(dp2945
g62
(dp2946
g82
g83
ssg71
g2940
sg64
(lp2947
S'HTTP_COOKIE'
p2948
asbag57
(g78
g59
NtRp2949
(dp2950
g62
(dp2951
g89
g90
ssg71
g2940
sg64
(lp2952
S':'
asbag57
(g78
g59
NtRp2953
(dp2954
g62
(dp2955
sg71
g2940
sg64
(lp2956
g57
(g58
g59
NtRp2957
(dp2958
g62
(dp2959
g70
I3
ssg71
g2953
sg64
(lp2960
g1324
asbasbasbag57
(g73
g59
NtRp2961
(dp2962
g62
(dp2963
sg71
g2831
sg64
(lp2964
g57
(g78
g59
NtRp2965
(dp2966
g62
(dp2967
g82
g83
ssg71
g2961
sg64
(lp2968
S'HTTP_HOST'
p2969
asbag57
(g78
g59
NtRp2970
(dp2971
g62
(dp2972
g89
g90
ssg71
g2961
sg64
(lp2973
S':'
asbag57
(g78
g59
NtRp2974
(dp2975
g62
(dp2976
sg71
g2961
sg64
(lp2977
g57
(g58
g59
NtRp2978
(dp2979
g62
(dp2980
g70
I3
ssg71
g2974
sg64
(lp2981
g1346
asbasbasbag57
(g73
g59
NtRp2982
(dp2983
g62
(dp2984
sg71
g2831
sg64
(lp2985
g57
(g78
g59
NtRp2986
(dp2987
g62
(dp2988
g82
g83
ssg71
g2982
sg64
(lp2989
S'HTTP_REFERER'
p2990
asbag57
(g78
g59
NtRp2991
(dp2992
g62
(dp2993
g89
g90
ssg71
g2982
sg64
(lp2994
S':'
asbag57
(g78
g59
NtRp2995
(dp2996
g62
(dp2997
sg71
g2982
sg64
(lp2998
g57
(g58
g59
NtRp2999
(dp3000
g62
(dp3001
g70
I3
ssg71
g2995
sg64
(lp3002
g1368
asbasbasbag57
(g73
g59
NtRp3003
(dp3004
g62
(dp3005
sg71
g2831
sg64
(lp3006
g57
(g78
g59
NtRp3007
(dp3008
g62
(dp3009
g82
g83
ssg71
g3003
sg64
(lp3010
S'HTTP_USER_AGENT'
p3011
asbag57
(g78
g59
NtRp3012
(dp3013
g62
(dp3014
g89
g90
ssg71
g3003
sg64
(lp3015
S':'
asbag57
(g78
g59
NtRp3016
(dp3017
g62
(dp3018
sg71
g3003
sg64
(lp3019
g57
(g58
g59
NtRp3020
(dp3021
g62
(dp3022
g70
I3
ssg71
g3016
sg64
(lp3023
g1390
asbasbasbag57
(g73
g59
NtRp3024
(dp3025
g62
(dp3026
sg71
g2831
sg64
(lp3027
g57
(g78
g59
NtRp3028
(dp3029
g62
(dp3030
g82
g83
ssg71
g3024
sg64
(lp3031
S'PATH_INFO'
p3032
asbag57
(g78
g59
NtRp3033
(dp3034
g62
(dp3035
g89
g90
ssg71
g3024
sg64
(lp3036
S':'
asbag57
(g78
g59
NtRp3037
(dp3038
g62
(dp3039
sg71
g3024
sg64
(lp3040
g57
(g58
g59
NtRp3041
(dp3042
g62
(dp3043
g70
I3
ssg71
g3037
sg64
(lp3044
g1544
asbasbasbag57
(g73
g59
NtRp3045
(dp3046
g62
(dp3047
sg71
g2831
sg64
(lp3048
g57
(g78
g59
NtRp3049
(dp3050
g62
(dp3051
g82
g83
ssg71
g3045
sg64
(lp3052
S'QUERY_STRING'
p3053
asbag57
(g78
g59
NtRp3054
(dp3055
g62
(dp3056
g89
g90
ssg71
g3045
sg64
(lp3057
S':'
asbag57
(g78
g59
NtRp3058
(dp3059
g62
(dp3060
sg71
g3045
sg64
(lp3061
g57
(g58
g59
NtRp3062
(dp3063
g62
(dp3064
g70
I3
ssg71
g3058
sg64
(lp3065
S''
asbasbasbag57
(g73
g59
NtRp3066
(dp3067
g62
(dp3068
sg71
g2831
sg64
(lp3069
g57
(g78
g59
NtRp3070
(dp3071
g62
(dp3072
g82
g83
ssg71
g3066
sg64
(lp3073
S'REMOTE_ADDR'
p3074
asbag57
(g78
g59
NtRp3075
(dp3076
g62
(dp3077
g89
g90
ssg71
g3066
sg64
(lp3078
S':'
asbag57
(g78
g59
NtRp3079
(dp3080
g62
(dp3081
sg71
g3066
sg64
(lp3082
g57
(g58
g59
NtRp3083
(dp3084
g62
(dp3085
g70
I3
ssg71
g3079
sg64
(lp3086
g212
asbasbasbag57
(g73
g59
NtRp3087
(dp3088
g62
(dp3089
sg71
g2831
sg64
(lp3090
g57
(g78
g59
NtRp3091
(dp3092
g62
(dp3093
g82
g83
ssg71
g3087
sg64
(lp3094
S'REMOTE_PORT'
p3095
asbag57
(g78
g59
NtRp3096
(dp3097
g62
(dp3098
g89
g90
ssg71
g3087
sg64
(lp3099
S':'
asbag57
(g78
g59
NtRp3100
(dp3101
g62
(dp3102
sg71
g3087
sg64
(lp3103
g57
(g58
g59
NtRp3104
(dp3105
g62
(dp3106
g70
I3
ssg71
g3100
sg64
(lp3107
g1608
asbasbasbag57
(g73
g59
NtRp3108
(dp3109
g62
(dp3110
sg71
g2831
sg64
(lp3111
g57
(g78
g59
NtRp3112
(dp3113
g62
(dp3114
g82
g83
ssg71
g3108
sg64
(lp3115
S'REQUEST_METHOD'
p3116
asbag57
(g78
g59
NtRp3117
(dp3118
g62
(dp3119
g89
g90
ssg71
g3108
sg64
(lp3120
S':'
asbag57
(g78
g59
NtRp3121
(dp3122
g62
(dp3123
sg71
g3108
sg64
(lp3124
g57
(g58
g59
NtRp3125
(dp3126
g62
(dp3127
g70
I3
ssg71
g3121
sg64
(lp3128
g1630
asbasbasbag57
(g73
g59
NtRp3129
(dp3130
g62
(dp3131
sg71
g2831
sg64
(lp3132
g57
(g78
g59
NtRp3133
(dp3134
g62
(dp3135
g82
g83
ssg71
g3129
sg64
(lp3136
S'REQUEST_URI'
p3137
asbag57
(g78
g59
NtRp3138
(dp3139
g62
(dp3140
g89
g90
ssg71
g3129
sg64
(lp3141
S':'
asbag57
(g78
g59
NtRp3142
(dp3143
g62
(dp3144
sg71
g3129
sg64
(lp3145
g57
(g58
g59
NtRp3146
(dp3147
g62
(dp3148
g70
I3
ssg71
g3142
sg64
(lp3149
g1544
asbasbasbag57
(g73
g59
NtRp3150
(dp3151
g62
(dp3152
sg71
g2831
sg64
(lp3153
g57
(g78
g59
NtRp3154
(dp3155
g62
(dp3156
g82
g83
ssg71
g3150
sg64
(lp3157
S'SCRIPT_NAME'
p3158
asbag57
(g78
g59
NtRp3159
(dp3160
g62
(dp3161
g89
g90
ssg71
g3150
sg64
(lp3162
S':'
asbag57
(g78
g59
NtRp3163
(dp3164
g62
(dp3165
sg71
g3150
sg64
(lp3166
g57
(g58
g59
NtRp3167
(dp3168
g62
(dp3169
g70
I3
ssg71
g3163
sg64
(lp3170
S''
asbasbasbag57
(g73
g59
NtRp3171
(dp3172
g62
(dp3173
sg71
g2831
sg64
(lp3174
g57
(g78
g59
NtRp3175
(dp3176
g62
(dp3177
g82
g83
ssg71
g3171
sg64
(lp3178
S'SERVER_NAME'
p3179
asbag57
(g78
g59
NtRp3180
(dp3181
g62
(dp3182
g89
g90
ssg71
g3171
sg64
(lp3183
S':'
asbag57
(g78
g59
NtRp3184
(dp3185
g62
(dp3186
sg71
g3171
sg64
(lp3187
g57
(g58
g59
NtRp3188
(dp3189
g62
(dp3190
g70
I3
ssg71
g3184
sg64
(lp3191
g1694
asbasbasbag57
(g73
g59
NtRp3192
(dp3193
g62
(dp3194
sg71
g2831
sg64
(lp3195
g57
(g78
g59
NtRp3196
(dp3197
g62
(dp3198
g82
g83
ssg71
g3192
sg64
(lp3199
S'SERVER_PORT'
p3200
asbag57
(g78
g59
NtRp3201
(dp3202
g62
(dp3203
g89
g90
ssg71
g3192
sg64
(lp3204
S':'
asbag57
(g78
g59
NtRp3205
(dp3206
g62
(dp3207
sg71
g3192
sg64
(lp3208
g57
(g58
g59
NtRp3209
(dp3210
g62
(dp3211
g70
I3
ssg71
g3205
sg64
(lp3212
g1716
asbasbasbag57
(g73
g59
NtRp3213
(dp3214
g62
(dp3215
sg71
g2831
sg64
(lp3216
g57
(g78
g59
NtRp3217
(dp3218
g62
(dp3219
g82
g83
ssg71
g3213
sg64
(lp3220
S'SERVER_PROTOCOL'
p3221
asbag57
(g78
g59
NtRp3222
(dp3223
g62
(dp3224
g89
g90
ssg71
g3213
sg64
(lp3225
S':'
asbag57
(g78
g59
NtRp3226
(dp3227
g62
(dp3228
sg71
g3213
sg64
(lp3229
g57
(g58
g59
NtRp3230
(dp3231
g62
(dp3232
g70
I3
ssg71
g3226
sg64
(lp3233
g1738
asbasbasbag57
(g73
g59
NtRp3234
(dp3235
g62
(dp3236
sg71
g2831
sg64
(lp3237
g57
(g78
g59
NtRp3238
(dp3239
g62
(dp3240
g82
g83
ssg71
g3234
sg64
(lp3241
S'SERVER_SOFTWARE'
p3242
asbag57
(g78
g59
NtRp3243
(dp3244
g62
(dp3245
g89
g90
ssg71
g3234
sg64
(lp3246
S':'
asbag57
(g78
g59
NtRp3247
(dp3248
g62
(dp3249
sg71
g3234
sg64
(lp3250
g57
(g58
g59
NtRp3251
(dp3252
g62
(dp3253
g70
I3
ssg71
g3247
sg64
(lp3254
g1760
asbasbasbag57
(g73
g59
NtRp3255
(dp3256
g62
(dp3257
sg71
g2831
sg64
(lp3258
g57
(g78
g59
NtRp3259
(dp3260
g62
(dp3261
g82
g83
ssg71
g3255
sg64
(lp3262
S'wsgi.errors'
p3263
asbag57
(g78
g59
NtRp3264
(dp3265
g62
(dp3266
g89
g90
ssg71
g3255
sg64
(lp3267
S':'
asbag57
(g78
g59
NtRp3268
(dp3269
g62
(dp3270
sg71
g3255
sg64
(lp3271
g57
(g58
g59
NtRp3272
(dp3273
g62
(dp3274
g70
I3
ssg71
g3268
sg64
(lp3275
S"<open file '<stderr>', mode 'w' at 0xb78080d0>"
p3276
asbasbasbag57
(g73
g59
NtRp3277
(dp3278
g62
(dp3279
sg71
g2831
sg64
(lp3280
g57
(g78
g59
NtRp3281
(dp3282
g62
(dp3283
g82
g83
ssg71
g3277
sg64
(lp3284
S'wsgi.file_wrapper'
p3285
asbag57
(g78
g59
NtRp3286
(dp3287
g62
(dp3288
g89
g90
ssg71
g3277
sg64
(lp3289
S':'
asbag57
(g78
g59
NtRp3290
(dp3291
g62
(dp3292
sg71
g3277
sg64
(lp3293
g57
(g58
g59
NtRp3294
(dp3295
g62
(dp3296
g70
I3
ssg71
g3290
sg64
(lp3297
S'<class wsgiref.util.FileWrapper at 0x9a2dcbc>'
p3298
asbasbasbag57
(g73
g59
NtRp3299
(dp3300
g62
(dp3301
sg71
g2831
sg64
(lp3302
g57
(g78
g59
NtRp3303
(dp3304
g62
(dp3305
g82
g83
ssg71
g3299
sg64
(lp3306
S'wsgi.input'
p3307
asbag57
(g78
g59
NtRp3308
(dp3309
g62
(dp3310
g89
g90
ssg71
g3299
sg64
(lp3311
S':'
asbag57
(g78
g59
NtRp3312
(dp3313
g62
(dp3314
sg71
g3299
sg64
(lp3315
g57
(g58
g59
NtRp3316
(dp3317
g62
(dp3318
g70
I3
ssg71
g3312
sg64
(lp3319
S'<cStringIO.StringO object at 0x9dce880>'
p3320
asbasbasbag57
(g73
g59
NtRp3321
(dp3322
g62
(dp3323
sg71
g2831
sg64
(lp3324
g57
(g78
g59
NtRp3325
(dp3326
g62
(dp3327
g82
g83
ssg71
g3321
sg64
(lp3328
S'wsgi.multiprocess'
p3329
asbag57
(g78
g59
NtRp3330
(dp3331
g62
(dp3332
g89
g90
ssg71
g3321
sg64
(lp3333
S':'
asbag57
(g78
g59
NtRp3334
(dp3335
g62
(dp3336
sg71
g3321
sg64
(lp3337
g57
(g58
g59
NtRp3338
(dp3339
g62
(dp3340
g70
I3
ssg71
g3334
sg64
(lp3341
g100
asbasbasbag57
(g73
g59
NtRp3342
(dp3343
g62
(dp3344
sg71
g2831
sg64
(lp3345
g57
(g78
g59
NtRp3346
(dp3347
g62
(dp3348
g82
g83
ssg71
g3342
sg64
(lp3349
S'wsgi.multithread'
p3350
asbag57
(g78
g59
NtRp3351
(dp3352
g62
(dp3353
g89
g90
ssg71
g3342
sg64
(lp3354
S':'
asbag57
(g78
g59
NtRp3355
(dp3356
g62
(dp3357
sg71
g3342
sg64
(lp3358
g57
(g58
g59
NtRp3359
(dp3360
g62
(dp3361
g70
I3
ssg71
g3355
sg64
(lp3362
g1977
asbasbasbag57
(g73
g59
NtRp3363
(dp3364
g62
(dp3365
sg71
g2831
sg64
(lp3366
g57
(g78
g59
NtRp3367
(dp3368
g62
(dp3369
g82
g83
ssg71
g3363
sg64
(lp3370
S'wsgi.run_once'
p3371
asbag57
(g78
g59
NtRp3372
(dp3373
g62
(dp3374
g89
g90
ssg71
g3363
sg64
(lp3375
S':'
asbag57
(g78
g59
NtRp3376
(dp3377
g62
(dp3378
sg71
g3363
sg64
(lp3379
g57
(g58
g59
NtRp3380
(dp3381
g62
(dp3382
g70
I3
ssg71
g3376
sg64
(lp3383
g100
asbasbasbag57
(g73
g59
NtRp3384
(dp3385
g62
(dp3386
sg71
g2831
sg64
(lp3387
g57
(g78
g59
NtRp3388
(dp3389
g62
(dp3390
g82
g83
ssg71
g3384
sg64
(lp3391
S'wsgi.url_scheme'
p3392
asbag57
(g78
g59
NtRp3393
(dp3394
g62
(dp3395
g89
g90
ssg71
g3384
sg64
(lp3396
S':'
asbag57
(g78
g59
NtRp3397
(dp3398
g62
(dp3399
sg71
g3384
sg64
(lp3400
g57
(g58
g59
NtRp3401
(dp3402
g62
(dp3403
g70
I3
ssg71
g3397
sg64
(lp3404
g2020
asbasbasbag57
(g73
g59
NtRp3405
(dp3406
g62
(dp3407
sg71
g2831
sg64
(lp3408
g57
(g78
g59
NtRp3409
(dp3410
g62
(dp3411
g82
g83
ssg71
g3405
sg64
(lp3412
S'wsgi.version'
p3413
asbag57
(g78
g59
NtRp3414
(dp3415
g62
(dp3416
g89
g90
ssg71
g3405
sg64
(lp3417
S':'
asbag57
(g78
g59
NtRp3418
(dp3419
g62
(dp3420
sg71
g3405
sg64
(lp3421
g57
(g58
g59
NtRp3422
(dp3423
g62
(dp3424
g70
I3
ssg71
g3418
sg64
(lp3425
S'1'
asbasbasbasbasbasbasbasbasbasbasbasbasbsS'frames'
p3426
(lp3427
(dp3428
S'file'
p3429
S'/home/pratyush/web2py/gluon/restricted.py'
p3430
sS'dump'
p3431
(dp3432
S'environment'
p3433
S"{'A': <class 'gluon.html.A'>, 'Auth': <class 'gluon.tools.Auth'>, 'B': <class 'gluon.html.B'>, 'BEAUTIFY': <class 'gluon.html.BEAUTIFY'>, 'BODY': <class 'gluon.html.BODY'>, 'BR': <class 'gluon.html.BR'>, 'BUTTON': <class 'gluon.html.BUTTON'>, 'CAT': <class 'gluon.html.CAT'>, 'CENTER': <class 'gluon.html.CENTER'>, 'CLEANUP': <class 'gluon.validators.CLEANUP'>, ...}"
p3434
sS'ccode'
p3435
S'<code object <module> at 0xa0c4968, file "/home/...s/BuySell/views/default/list_items.html", line 1>'
p3436
ssS'lnum'
p3437
I212
sS'lines'
p3438
(dp3439
I207
S'    try:'
p3440
sI208
S'        if isinstance(code, types.CodeType):'
p3441
sI209
S'            ccode = code'
p3442
sI210
S'        else:'
p3443
sI211
S'            ccode = compile2(code, layer)'
p3444
sI212
S'        exec ccode in environment'
p3445
sI213
S'    except HTTP:'
p3446
sI214
S'        raise'
p3447
sI215
S'    except RestrictedError:'
p3448
sI216
S'        # do not encapsulate (obfuscate) the original RestrictedError'
p3449
ssS'call'
p3450
S'(code=\'response.write(\\\'<!DOCTYPE html>\\\\n<!-- paulirish...."></script>\\\\n</body>\\\\n</html>\\\\n\\\\n\\\', escape=False)\', environment={\'A\': <class \'gluon.html.A\'>, \'Auth\': <class \'gluon.tools.Auth\'>, \'B\': <class \'gluon.html.B\'>, \'BEAUTIFY\': <class \'gluon.html.BEAUTIFY\'>, \'BODY\': <class \'gluon.html.BODY\'>, \'BR\': <class \'gluon.html.BR\'>, \'BUTTON\': <class \'gluon.html.BUTTON\'>, \'CAT\': <class \'gluon.html.CAT\'>, \'CENTER\': <class \'gluon.html.CENTER\'>, \'CLEANUP\': <class \'gluon.validators.CLEANUP\'>, ...}, layer=\'/home/pratyush/web2py/applications/BuySell/views/default/list_items.html\')'
p3451
sS'func'
p3452
S'restricted'
p3453
sa(dp3454
g3429
S'/home/pratyush/web2py/applications/BuySell/views/default/list_items.html'
p3455
sg3431
(dp3456
sg3437
I85
sg3438
(dp3457
I76
S"response.write('\\n', escape=False)"
p3458
sI77
S'items=items'
p3459
sI78
S"response.write('\\n    <table>\\n    \\n    ', escape=False)"
p3460
sI79
S'for i in items:'
p3461
sI80
S'    response.write(\'\\n        <tr>    \\n        <td><img src="\', escape=False)'
p3462
sI81
S"    response.write(URL('download',args=i.image ))"
p3463
sI82
S'    response.write(\'" width=200px height=auto/></td>\\n        <td>\', escape=False)'
p3464
sI83
S"    response.write(A(i.name,_href=URL(r=request, f='item_d', args=i.id)))"
p3465
sI84
S"    response.write(' </td>\\n        <td>\\n        ', escape=False)"
p3466
sI85
S"    if item.selling_type=='Bid':"
p3467
sI86
S"        response.write('\\n            ', escape=False)"
p3468
sI87
S"        response.write(A('Bid',_href=URL(r=request, f='place_bid', args=item.id)))"
p3469
sI88
S"        response.write('\\n        ', escape=False)"
p3470
sI89
S'        pass'
p3471
sI90
S"    response.write('\\n        ', escape=False)"
p3472
sI91
S"    if item.selling_type=='Buy':"
p3473
sI92
S"        response.write('\\n            ', escape=False)"
p3474
sI93
S"        response.write(A('Buy',_href=URL(r=request, f='buy_item', args=item.id)))"
p3475
sI94
S"        response.write('\\n        ', escape=False)"
p3476
sI95
S'        pass'
p3477
ssg3450
S'()'
p3478
sg3452
S'<module>'
p3479
sasS'pyver'
p3480
S'Python 2.7.2+: /usr/bin/python2.7'
p3481
sS'session'
p3482
g57
(g58
g59
NtRp3483
(dp3484
g62
(dp3485
sg64
(lp3486
g57
(g66
g59
NtRp3487
(dp3488
g62
(dp3489
g70
I5
ssg71
Nsg64
(lp3490
g57
(g73
g59
NtRp3491
(dp3492
g62
(dp3493
sg71
g3487
sg64
(lp3494
g57
(g78
g59
NtRp3495
(dp3496
g62
(dp3497
g82
g83
ssg71
g3491
sg64
(lp3498
S'auth'
p3499
asbag57
(g78
g59
NtRp3500
(dp3501
g62
(dp3502
g89
g90
ssg71
g3491
sg64
(lp3503
S':'
asbag57
(g78
g59
NtRp3504
(dp3505
g62
(dp3506
sg71
g3491
sg64
(lp3507
g57
(g58
g59
NtRp3508
(dp3509
g62
(dp3510
g70
I5
ssg71
g3504
sg64
(lp3511
g57
(g66
g59
NtRp3512
(dp3513
g62
(dp3514
g70
I4
ssg71
Nsg64
(lp3515
g57
(g73
g59
NtRp3516
(dp3517
g62
(dp3518
sg71
g3512
sg64
(lp3519
g57
(g78
g59
NtRp3520
(dp3521
g62
(dp3522
g82
g83
ssg71
g3516
sg64
(lp3523
S'expiration'
p3524
asbag57
(g78
g59
NtRp3525
(dp3526
g62
(dp3527
g89
g90
ssg71
g3516
sg64
(lp3528
S':'
asbag57
(g78
g59
NtRp3529
(dp3530
g62
(dp3531
sg71
g3516
sg64
(lp3532
g57
(g58
g59
NtRp3533
(dp3534
g62
(dp3535
g70
I4
ssg71
g3529
sg64
(lp3536
S'3600'
p3537
asbasbasbag57
(g73
g59
NtRp3538
(dp3539
g62
(dp3540
sg71
g3512
sg64
(lp3541
g57
(g78
g59
NtRp3542
(dp3543
g62
(dp3544
g82
g83
ssg71
g3538
sg64
(lp3545
S'hmac_key'
p3546
asbag57
(g78
g59
NtRp3547
(dp3548
g62
(dp3549
g89
g90
ssg71
g3538
sg64
(lp3550
S':'
asbag57
(g78
g59
NtRp3551
(dp3552
g62
(dp3553
sg71
g3538
sg64
(lp3554
g57
(g58
g59
NtRp3555
(dp3556
g62
(dp3557
g70
I4
ssg71
g3551
sg64
(lp3558
S'90ed2782-b33b-4249-8b8c-dcff0b943064'
p3559
asbasbasbag57
(g73
g59
NtRp3560
(dp3561
g62
(dp3562
sg71
g3512
sg64
(lp3563
g57
(g78
g59
NtRp3564
(dp3565
g62
(dp3566
g82
g83
ssg71
g3560
sg64
(lp3567
S'last_visit'
p3568
asbag57
(g78
g59
NtRp3569
(dp3570
g62
(dp3571
g89
g90
ssg71
g3560
sg64
(lp3572
S':'
asbag57
(g78
g59
NtRp3573
(dp3574
g62
(dp3575
sg71
g3560
sg64
(lp3576
g57
(g58
g59
NtRp3577
(dp3578
g62
(dp3579
g70
I4
ssg71
g3573
sg64
(lp3580
S'datetime.datetime(2013, 4, 23, 10, 27, 48, 926735)'
p3581
asbasbasbag57
(g73
g59
NtRp3582
(dp3583
g62
(dp3584
sg71
g3512
sg64
(lp3585
g57
(g78
g59
NtRp3586
(dp3587
g62
(dp3588
g82
g83
ssg71
g3582
sg64
(lp3589
S'remember'
p3590
asbag57
(g78
g59
NtRp3591
(dp3592
g62
(dp3593
g89
g90
ssg71
g3582
sg64
(lp3594
S':'
asbag57
(g78
g59
NtRp3595
(dp3596
g62
(dp3597
sg71
g3582
sg64
(lp3598
g57
(g58
g59
NtRp3599
(dp3600
g62
(dp3601
g70
I4
ssg71
g3595
sg64
(lp3602
g100
asbasbasbag57
(g73
g59
NtRp3603
(dp3604
g62
(dp3605
sg71
g3512
sg64
(lp3606
g57
(g78
g59
NtRp3607
(dp3608
g62
(dp3609
g82
g83
ssg71
g3603
sg64
(lp3610
S'user'
p3611
asbag57
(g78
g59
NtRp3612
(dp3613
g62
(dp3614
g89
g90
ssg71
g3603
sg64
(lp3615
S':'
asbag57
(g78
g59
NtRp3616
(dp3617
g62
(dp3618
sg71
g3603
sg64
(lp3619
g57
(g58
g59
NtRp3620
(dp3621
g62
(dp3622
g70
I4
ssg71
g3616
sg64
(lp3623
g57
(g66
g59
NtRp3624
(dp3625
g62
(dp3626
g70
I3
ssg71
Nsg64
(lp3627
g57
(g73
g59
NtRp3628
(dp3629
g62
(dp3630
sg71
g3624
sg64
(lp3631
g57
(g78
g59
NtRp3632
(dp3633
g62
(dp3634
g82
g83
ssg71
g3628
sg64
(lp3635
S'email'
p3636
asbag57
(g78
g59
NtRp3637
(dp3638
g62
(dp3639
g89
g90
ssg71
g3628
sg64
(lp3640
S':'
asbag57
(g78
g59
NtRp3641
(dp3642
g62
(dp3643
sg71
g3628
sg64
(lp3644
g57
(g58
g59
NtRp3645
(dp3646
g62
(dp3647
g70
I3
ssg71
g3641
sg64
(lp3648
S'pratyush.nigam@gmail.com'
p3649
asbasbasbag57
(g73
g59
NtRp3650
(dp3651
g62
(dp3652
sg71
g3624
sg64
(lp3653
g57
(g78
g59
NtRp3654
(dp3655
g62
(dp3656
g82
g83
ssg71
g3650
sg64
(lp3657
S'first_name'
p3658
asbag57
(g78
g59
NtRp3659
(dp3660
g62
(dp3661
g89
g90
ssg71
g3650
sg64
(lp3662
S':'
asbag57
(g78
g59
NtRp3663
(dp3664
g62
(dp3665
sg71
g3650
sg64
(lp3666
g57
(g58
g59
NtRp3667
(dp3668
g62
(dp3669
g70
I3
ssg71
g3663
sg64
(lp3670
S'Pratyush'
p3671
asbasbasbag57
(g73
g59
NtRp3672
(dp3673
g62
(dp3674
sg71
g3624
sg64
(lp3675
g57
(g78
g59
NtRp3676
(dp3677
g62
(dp3678
g82
g83
ssg71
g3672
sg64
(lp3679
S'id'
p3680
asbag57
(g78
g59
NtRp3681
(dp3682
g62
(dp3683
g89
g90
ssg71
g3672
sg64
(lp3684
S':'
asbag57
(g78
g59
NtRp3685
(dp3686
g62
(dp3687
sg71
g3672
sg64
(lp3688
g57
(g58
g59
NtRp3689
(dp3690
g62
(dp3691
g70
I3
ssg71
g3685
sg64
(lp3692
S'1'
asbasbasbag57
(g73
g59
NtRp3693
(dp3694
g62
(dp3695
sg71
g3624
sg64
(lp3696
g57
(g78
g59
NtRp3697
(dp3698
g62
(dp3699
g82
g83
ssg71
g3693
sg64
(lp3700
S'last_name'
p3701
asbag57
(g78
g59
NtRp3702
(dp3703
g62
(dp3704
g89
g90
ssg71
g3693
sg64
(lp3705
S':'
asbag57
(g78
g59
NtRp3706
(dp3707
g62
(dp3708
sg71
g3693
sg64
(lp3709
g57
(g58
g59
NtRp3710
(dp3711
g62
(dp3712
g70
I3
ssg71
g3706
sg64
(lp3713
S'Nigam'
p3714
asbasbasbag57
(g73
g59
NtRp3715
(dp3716
g62
(dp3717
sg71
g3624
sg64
(lp3718
g57
(g78
g59
NtRp3719
(dp3720
g62
(dp3721
g82
g83
ssg71
g3715
sg64
(lp3722
S'registration_id'
p3723
asbag57
(g78
g59
NtRp3724
(dp3725
g62
(dp3726
g89
g90
ssg71
g3715
sg64
(lp3727
S':'
asbag57
(g78
g59
NtRp3728
(dp3729
g62
(dp3730
sg71
g3715
sg64
(lp3731
g57
(g58
g59
NtRp3732
(dp3733
g62
(dp3734
g70
I3
ssg71
g3728
sg64
(lp3735
S''
asbasbasbag57
(g73
g59
NtRp3736
(dp3737
g62
(dp3738
sg71
g3624
sg64
(lp3739
g57
(g78
g59
NtRp3740
(dp3741
g62
(dp3742
g82
g83
ssg71
g3736
sg64
(lp3743
S'registration_key'
p3744
asbag57
(g78
g59
NtRp3745
(dp3746
g62
(dp3747
g89
g90
ssg71
g3736
sg64
(lp3748
S':'
asbag57
(g78
g59
NtRp3749
(dp3750
g62
(dp3751
sg71
g3736
sg64
(lp3752
g57
(g58
g59
NtRp3753
(dp3754
g62
(dp3755
g70
I3
ssg71
g3749
sg64
(lp3756
S''
asbasbasbag57
(g73
g59
NtRp3757
(dp3758
g62
(dp3759
sg71
g3624
sg64
(lp3760
g57
(g78
g59
NtRp3761
(dp3762
g62
(dp3763
g82
g83
ssg71
g3757
sg64
(lp3764
S'reset_password_key'
p3765
asbag57
(g78
g59
NtRp3766
(dp3767
g62
(dp3768
g89
g90
ssg71
g3757
sg64
(lp3769
S':'
asbag57
(g78
g59
NtRp3770
(dp3771
g62
(dp3772
sg71
g3757
sg64
(lp3773
g57
(g58
g59
NtRp3774
(dp3775
g62
(dp3776
g70
I3
ssg71
g3770
sg64
(lp3777
S''
asbasbasbasbasbasbasbag57
(g73
g59
NtRp3778
(dp3779
g62
(dp3780
sg71
g3512
sg64
(lp3781
g57
(g78
g59
NtRp3782
(dp3783
g62
(dp3784
g82
g83
ssg71
g3778
sg64
(lp3785
S'user_groups'
p3786
asbag57
(g78
g59
NtRp3787
(dp3788
g62
(dp3789
g89
g90
ssg71
g3778
sg64
(lp3790
S':'
asbag57
(g78
g59
NtRp3791
(dp3792
g62
(dp3793
sg71
g3778
sg64
(lp3794
g57
(g58
g59
NtRp3795
(dp3796
g62
(dp3797
g70
I4
ssg71
g3791
sg64
(lp3798
g57
(g66
g59
NtRp3799
(dp3800
g62
(dp3801
g70
I3
ssg71
Nsg64
(lp3802
g57
(g73
g59
NtRp3803
(dp3804
g62
(dp3805
sg71
g3799
sg64
(lp3806
g57
(g78
g59
NtRp3807
(dp3808
g62
(dp3809
g82
g83
ssg71
g3803
sg64
(lp3810
S'1'
asbag57
(g78
g59
NtRp3811
(dp3812
g62
(dp3813
g89
g90
ssg71
g3803
sg64
(lp3814
S':'
asbag57
(g78
g59
NtRp3815
(dp3816
g62
(dp3817
sg71
g3803
sg64
(lp3818
g57
(g58
g59
NtRp3819
(dp3820
g62
(dp3821
g70
I3
ssg71
g3815
sg64
(lp3822
S'user_1'
p3823
asbasbasbasbasbasbasbasbasbasbasbag57
(g73
g59
NtRp3824
(dp3825
g62
(dp3826
sg71
g3487
sg64
(lp3827
g57
(g78
g59
NtRp3828
(dp3829
g62
(dp3830
g82
g83
ssg71
g3824
sg64
(lp3831
S'flash'
p3832
asbag57
(g78
g59
NtRp3833
(dp3834
g62
(dp3835
g89
g90
ssg71
g3824
sg64
(lp3836
S':'
asbag57
(g78
g59
NtRp3837
(dp3838
g62
(dp3839
sg71
g3824
sg64
(lp3840
g57
(g58
g59
NtRp3841
(dp3842
g62
(dp3843
g70
I5
ssg71
g3837
sg64
(lp3844
S'None'
p3845
asbasbasbag57
(g73
g59
NtRp3846
(dp3847
g62
(dp3848
sg71
g3487
sg64
(lp3849
g57
(g78
g59
NtRp3850
(dp3851
g62
(dp3852
g82
g83
ssg71
g3846
sg64
(lp3853
S'last_orderby'
p3854
asbag57
(g78
g59
NtRp3855
(dp3856
g62
(dp3857
g89
g90
ssg71
g3846
sg64
(lp3858
S':'
asbag57
(g78
g59
NtRp3859
(dp3860
g62
(dp3861
sg71
g3846
sg64
(lp3862
g57
(g58
g59
NtRp3863
(dp3864
g62
(dp3865
g70
I5
ssg71
g3859
sg64
(lp3866
S'None'
p3867
asbasbasbag57
(g73
g59
NtRp3868
(dp3869
g62
(dp3870
sg71
g3487
sg64
(lp3871
g57
(g78
g59
NtRp3872
(dp3873
g62
(dp3874
g82
g83
ssg71
g3868
sg64
(lp3875
S'last_query'
p3876
asbag57
(g78
g59
NtRp3877
(dp3878
g62
(dp3879
g89
g90
ssg71
g3868
sg64
(lp3880
S':'
asbag57
(g78
g59
NtRp3881
(dp3882
g62
(dp3883
sg71
g3868
sg64
(lp3884
g57
(g58
g59
NtRp3885
(dp3886
g62
(dp3887
g70
I5
ssg71
g3881
sg64
(lp3888
S'db.sold.id>0'
p3889
asbasbasbasbasbsS'etype'
p3890
S"<type 'exceptions.NameError'>"
p3891
sS'date'
p3892
S'Tue Apr 23 10:27:50 2013'
p3893
sS'response'
p3894
g57
(g58
g59
NtRp3895
(dp3896
g62
(dp3897
sg64
(lp3898
g57
(g66
g59
NtRp3899
(dp3900
g62
(dp3901
g70
I5
ssg71
Nsg64
(lp3902
g57
(g73
g59
NtRp3903
(dp3904
g62
(dp3905
sg71
g3899
sg64
(lp3906
g57
(g78
g59
NtRp3907
(dp3908
g62
(dp3909
g82
g83
ssg71
g3903
sg64
(lp3910
g155
asbag57
(g78
g59
NtRp3911
(dp3912
g62
(dp3913
g89
g90
ssg71
g3903
sg64
(lp3914
S':'
asbag57
(g78
g59
NtRp3915
(dp3916
g62
(dp3917
sg71
g3903
sg64
(lp3918
g57
(g58
g59
NtRp3919
(dp3920
g62
(dp3921
g70
I5
ssg71
g3915
sg64
(lp3922
S'<cStringIO.StringO object at 0x9ec6220>'
p3923
asbasbasbag57
(g73
g59
NtRp3924
(dp3925
g62
(dp3926
sg71
g3899
sg64
(lp3927
g57
(g78
g59
NtRp3928
(dp3929
g62
(dp3930
g82
g83
ssg71
g3924
sg64
(lp3931
g243
asbag57
(g78
g59
NtRp3932
(dp3933
g62
(dp3934
g89
g90
ssg71
g3924
sg64
(lp3935
S':'
asbag57
(g78
g59
NtRp3936
(dp3937
g62
(dp3938
sg71
g3924
sg64
(lp3939
g57
(g58
g59
NtRp3940
(dp3941
g62
(dp3942
g70
I5
ssg71
g3936
sg64
(lp3943
g57
(g66
g59
NtRp3944
(dp3945
g62
(dp3946
g70
I4
ssg71
Nsg64
(lp3947
g57
(g73
g59
NtRp3948
(dp3949
g62
(dp3950
sg71
g3944
sg64
(lp3951
g57
(g78
g59
NtRp3952
(dp3953
g62
(dp3954
g82
g83
ssg71
g3948
sg64
(lp3955
S'session_id_buysell'
p3956
asbag57
(g78
g59
NtRp3957
(dp3958
g62
(dp3959
g89
g90
ssg71
g3948
sg64
(lp3960
S':'
asbag57
(g78
g59
NtRp3961
(dp3962
g62
(dp3963
sg71
g3948
sg64
(lp3964
g57
(g58
g59
NtRp3965
(dp3966
g62
(dp3967
g70
I4
ssg71
g3961
sg64
(lp3968
g661
ag57
(g66
g59
NtRp3969
(dp3970
g62
(dp3971
g70
I3
ssg71
Nsg64
(lp3972
g57
(g73
g59
NtRp3973
(dp3974
g62
(dp3975
sg71
g3969
sg64
(lp3976
g57
(g78
g59
NtRp3977
(dp3978
g62
(dp3979
g82
g83
ssg71
g3973
sg64
(lp3980
g294
asbag57
(g78
g59
NtRp3981
(dp3982
g62
(dp3983
g89
g90
ssg71
g3973
sg64
(lp3984
S':'
asbag57
(g78
g59
NtRp3985
(dp3986
g62
(dp3987
sg71
g3973
sg64
(lp3988
g57
(g58
g59
NtRp3989
(dp3990
g62
(dp3991
g70
I3
ssg71
g3985
sg64
(lp3992
S''
asbasbasbag57
(g73
g59
NtRp3993
(dp3994
g62
(dp3995
sg71
g3969
sg64
(lp3996
g57
(g78
g59
NtRp3997
(dp3998
g62
(dp3999
g82
g83
ssg71
g3993
sg64
(lp4000
g315
asbag57
(g78
g59
NtRp4001
(dp4002
g62
(dp4003
g89
g90
ssg71
g3993
sg64
(lp4004
S':'
asbag57
(g78
g59
NtRp4005
(dp4006
g62
(dp4007
sg71
g3993
sg64
(lp4008
g57
(g58
g59
NtRp4009
(dp4010
g62
(dp4011
g70
I3
ssg71
g4005
sg64
(lp4012
S''
asbasbasbag57
(g73
g59
NtRp4013
(dp4014
g62
(dp4015
sg71
g3969
sg64
(lp4016
g57
(g78
g59
NtRp4017
(dp4018
g62
(dp4019
g82
g83
ssg71
g4013
sg64
(lp4020
g336
asbag57
(g78
g59
NtRp4021
(dp4022
g62
(dp4023
g89
g90
ssg71
g4013
sg64
(lp4024
S':'
asbag57
(g78
g59
NtRp4025
(dp4026
g62
(dp4027
sg71
g4013
sg64
(lp4028
g57
(g58
g59
NtRp4029
(dp4030
g62
(dp4031
g70
I3
ssg71
g4025
sg64
(lp4032
S''
asbasbasbag57
(g73
g59
NtRp4033
(dp4034
g62
(dp4035
sg71
g3969
sg64
(lp4036
g57
(g78
g59
NtRp4037
(dp4038
g62
(dp4039
g82
g83
ssg71
g4033
sg64
(lp4040
g357
asbag57
(g78
g59
NtRp4041
(dp4042
g62
(dp4043
g89
g90
ssg71
g4033
sg64
(lp4044
S':'
asbag57
(g78
g59
NtRp4045
(dp4046
g62
(dp4047
sg71
g4033
sg64
(lp4048
g57
(g58
g59
NtRp4049
(dp4050
g62
(dp4051
g70
I3
ssg71
g4045
sg64
(lp4052
S''
asbasbasbag57
(g73
g59
NtRp4053
(dp4054
g62
(dp4055
sg71
g3969
sg64
(lp4056
g57
(g78
g59
NtRp4057
(dp4058
g62
(dp4059
g82
g83
ssg71
g4053
sg64
(lp4060
g378
asbag57
(g78
g59
NtRp4061
(dp4062
g62
(dp4063
g89
g90
ssg71
g4053
sg64
(lp4064
S':'
asbag57
(g78
g59
NtRp4065
(dp4066
g62
(dp4067
sg71
g4053
sg64
(lp4068
g57
(g58
g59
NtRp4069
(dp4070
g62
(dp4071
g70
I3
ssg71
g4065
sg64
(lp4072
S''
asbasbasbag57
(g73
g59
NtRp4073
(dp4074
g62
(dp4075
sg71
g3969
sg64
(lp4076
g57
(g78
g59
NtRp4077
(dp4078
g62
(dp4079
g82
g83
ssg71
g4073
sg64
(lp4080
g399
asbag57
(g78
g59
NtRp4081
(dp4082
g62
(dp4083
g89
g90
ssg71
g4073
sg64
(lp4084
S':'
asbag57
(g78
g59
NtRp4085
(dp4086
g62
(dp4087
sg71
g4073
sg64
(lp4088
g57
(g58
g59
NtRp4089
(dp4090
g62
(dp4091
g70
I3
ssg71
g4085
sg64
(lp4092
S'/'
asbasbasbag57
(g73
g59
NtRp4093
(dp4094
g62
(dp4095
sg71
g3969
sg64
(lp4096
g57
(g78
g59
NtRp4097
(dp4098
g62
(dp4099
g82
g83
ssg71
g4093
sg64
(lp4100
g420
asbag57
(g78
g59
NtRp4101
(dp4102
g62
(dp4103
g89
g90
ssg71
g4093
sg64
(lp4104
S':'
asbag57
(g78
g59
NtRp4105
(dp4106
g62
(dp4107
sg71
g4093
sg64
(lp4108
g57
(g58
g59
NtRp4109
(dp4110
g62
(dp4111
g70
I3
ssg71
g4105
sg64
(lp4112
S''
asbasbasbag57
(g73
g59
NtRp4113
(dp4114
g62
(dp4115
sg71
g3969
sg64
(lp4116
g57
(g78
g59
NtRp4117
(dp4118
g62
(dp4119
g82
g83
ssg71
g4113
sg64
(lp4120
g441
asbag57
(g78
g59
NtRp4121
(dp4122
g62
(dp4123
g89
g90
ssg71
g4113
sg64
(lp4124
S':'
asbag57
(g78
g59
NtRp4125
(dp4126
g62
(dp4127
sg71
g4113
sg64
(lp4128
g57
(g58
g59
NtRp4129
(dp4130
g62
(dp4131
g70
I3
ssg71
g4125
sg64
(lp4132
S''
asbasbasbasbasbasbasbasbasbasbasbag57
(g73
g59
NtRp4133
(dp4134
g62
(dp4135
sg71
g3899
sg64
(lp4136
g57
(g78
g59
NtRp4137
(dp4138
g62
(dp4139
g82
g83
ssg71
g4133
sg64
(lp4140
S'delimiters'
p4141
asbag57
(g78
g59
NtRp4142
(dp4143
g62
(dp4144
g89
g90
ssg71
g4133
sg64
(lp4145
S':'
asbag57
(g78
g59
NtRp4146
(dp4147
g62
(dp4148
sg71
g4133
sg64
(lp4149
g57
(g58
g59
NtRp4150
(dp4151
g62
(dp4152
g70
I5
ssg71
g4146
sg64
(lp4153
g57
(g66
g59
NtRp4154
(dp4155
g62
(dp4156
g70
I4
ssg71
Nsg64
(lp4157
g57
(g73
g59
NtRp4158
(dp4159
g62
(dp4160
sg71
g4154
sg64
(lp4161
g57
(g78
g59
NtRp4162
(dp4163
g62
(dp4164
sg71
g4158
sg64
(lp4165
g57
(g58
g59
NtRp4166
(dp4167
g62
(dp4168
g70
I4
ssg71
g4162
sg64
(lp4169
S'{{'
p4170
asbasbasbag57
(g73
g59
NtRp4171
(dp4172
g62
(dp4173
sg71
g4154
sg64
(lp4174
g57
(g78
g59
NtRp4175
(dp4176
g62
(dp4177
sg71
g4171
sg64
(lp4178
g57
(g58
g59
NtRp4179
(dp4180
g62
(dp4181
g70
I4
ssg71
g4175
sg64
(lp4182
S'}}'
p4183
asbasbasbasbasbasbasbag57
(g73
g59
NtRp4184
(dp4185
g62
(dp4186
sg71
g3899
sg64
(lp4187
g57
(g78
g59
NtRp4188
(dp4189
g62
(dp4190
g82
g83
ssg71
g4184
sg64
(lp4191
S'files'
p4192
asbag57
(g78
g59
NtRp4193
(dp4194
g62
(dp4195
g89
g90
ssg71
g4184
sg64
(lp4196
S':'
asbag57
(g78
g59
NtRp4197
(dp4198
g62
(dp4199
sg71
g4184
sg64
(lp4200
g57
(g58
g59
NtRp4201
(dp4202
g62
(dp4203
g70
I5
ssg71
g4197
sg64
(lp4204
g57
(g66
g59
NtRp4205
(dp4206
g62
(dp4207
g70
I4
ssg71
Nsg64
(lp4208
g57
(g73
g59
NtRp4209
(dp4210
g62
(dp4211
sg71
g4205
sg64
(lp4212
g57
(g78
g59
NtRp4213
(dp4214
g62
(dp4215
sg71
g4209
sg64
(lp4216
g57
(g58
g59
NtRp4217
(dp4218
g62
(dp4219
g70
I4
ssg71
g4213
sg64
(lp4220
S'/BuySell/static/js/jquery.js'
p4221
asbasbasbag57
(g73
g59
NtRp4222
(dp4223
g62
(dp4224
sg71
g4205
sg64
(lp4225
g57
(g78
g59
NtRp4226
(dp4227
g62
(dp4228
sg71
g4222
sg64
(lp4229
g57
(g58
g59
NtRp4230
(dp4231
g62
(dp4232
g70
I4
ssg71
g4226
sg64
(lp4233
S'/BuySell/static/css/calendar.css'
p4234
asbasbasbag57
(g73
g59
NtRp4235
(dp4236
g62
(dp4237
sg71
g4205
sg64
(lp4238
g57
(g78
g59
NtRp4239
(dp4240
g62
(dp4241
sg71
g4235
sg64
(lp4242
g57
(g58
g59
NtRp4243
(dp4244
g62
(dp4245
g70
I4
ssg71
g4239
sg64
(lp4246
S'/BuySell/static/js/calendar.js'
p4247
asbasbasbag57
(g73
g59
NtRp4248
(dp4249
g62
(dp4250
sg71
g4205
sg64
(lp4251
g57
(g78
g59
NtRp4252
(dp4253
g62
(dp4254
sg71
g4248
sg64
(lp4255
g57
(g58
g59
NtRp4256
(dp4257
g62
(dp4258
g70
I4
ssg71
g4252
sg64
(lp4259
S'/BuySell/static/js/web2py.js'
p4260
asbasbasbag57
(g73
g59
NtRp4261
(dp4262
g62
(dp4263
sg71
g4205
sg64
(lp4264
g57
(g78
g59
NtRp4265
(dp4266
g62
(dp4267
sg71
g4261
sg64
(lp4268
g57
(g58
g59
NtRp4269
(dp4270
g62
(dp4271
g70
I4
ssg71
g4265
sg64
(lp4272
S'/BuySell/static/css/web2py.css'
p4273
asbasbasbag57
(g73
g59
NtRp4274
(dp4275
g62
(dp4276
sg71
g4205
sg64
(lp4277
g57
(g78
g59
NtRp4278
(dp4279
g62
(dp4280
sg71
g4274
sg64
(lp4281
g57
(g58
g59
NtRp4282
(dp4283
g62
(dp4284
g70
I4
ssg71
g4278
sg64
(lp4285
S'/BuySell/static/css/bootstrap.min.css'
p4286
asbasbasbag57
(g73
g59
NtRp4287
(dp4288
g62
(dp4289
sg71
g4205
sg64
(lp4290
g57
(g78
g59
NtRp4291
(dp4292
g62
(dp4293
sg71
g4287
sg64
(lp4294
g57
(g58
g59
NtRp4295
(dp4296
g62
(dp4297
g70
I4
ssg71
g4291
sg64
(lp4298
S'/BuySell/static/css/bootstrap-responsive.min.css'
p4299
asbasbasbag57
(g73
g59
NtRp4300
(dp4301
g62
(dp4302
sg71
g4205
sg64
(lp4303
g57
(g78
g59
NtRp4304
(dp4305
g62
(dp4306
sg71
g4300
sg64
(lp4307
g57
(g58
g59
NtRp4308
(dp4309
g62
(dp4310
g70
I4
ssg71
g4304
sg64
(lp4311
S'/BuySell/static/css/web2py_bootstrap.css'
p4312
asbasbasbasbasbasbasbag57
(g73
g59
NtRp4313
(dp4314
g62
(dp4315
sg71
g3899
sg64
(lp4316
g57
(g78
g59
NtRp4317
(dp4318
g62
(dp4319
g82
g83
ssg71
g4313
sg64
(lp4320
S'flash'
p4321
asbag57
(g78
g59
NtRp4322
(dp4323
g62
(dp4324
g89
g90
ssg71
g4313
sg64
(lp4325
S':'
asbag57
(g78
g59
NtRp4326
(dp4327
g62
(dp4328
sg71
g4313
sg64
(lp4329
g57
(g58
g59
NtRp4330
(dp4331
g62
(dp4332
g70
I5
ssg71
g4326
sg64
(lp4333
S''
asbasbasbag57
(g73
g59
NtRp4334
(dp4335
g62
(dp4336
sg71
g3899
sg64
(lp4337
g57
(g78
g59
NtRp4338
(dp4339
g62
(dp4340
g82
g83
ssg71
g4334
sg64
(lp4341
S'generic_patterns'
p4342
asbag57
(g78
g59
NtRp4343
(dp4344
g62
(dp4345
g89
g90
ssg71
g4334
sg64
(lp4346
S':'
asbag57
(g78
g59
NtRp4347
(dp4348
g62
(dp4349
sg71
g4334
sg64
(lp4350
g57
(g58
g59
NtRp4351
(dp4352
g62
(dp4353
g70
I5
ssg71
g4347
sg64
(lp4354
g57
(g66
g59
NtRp4355
(dp4356
g62
(dp4357
g70
I4
ssg71
Nsg64
(lp4358
g57
(g73
g59
NtRp4359
(dp4360
g62
(dp4361
sg71
g4355
sg64
(lp4362
g57
(g78
g59
NtRp4363
(dp4364
g62
(dp4365
sg71
g4359
sg64
(lp4366
g57
(g58
g59
NtRp4367
(dp4368
g62
(dp4369
g70
I4
ssg71
g4363
sg64
(lp4370
S'*'
asbasbasbasbasbasbasbag57
(g73
g59
NtRp4371
(dp4372
g62
(dp4373
sg71
g3899
sg64
(lp4374
g57
(g78
g59
NtRp4375
(dp4376
g62
(dp4377
g82
g83
ssg71
g4371
sg64
(lp4378
S'google_analytics_id'
p4379
asbag57
(g78
g59
NtRp4380
(dp4381
g62
(dp4382
g89
g90
ssg71
g4371
sg64
(lp4383
S':'
asbag57
(g78
g59
NtRp4384
(dp4385
g62
(dp4386
sg71
g4371
sg64
(lp4387
g57
(g58
g59
NtRp4388
(dp4389
g62
(dp4390
g70
I5
ssg71
g4384
sg64
(lp4391
S'None'
p4392
asbasbasbag57
(g73
g59
NtRp4393
(dp4394
g62
(dp4395
sg71
g3899
sg64
(lp4396
g57
(g78
g59
NtRp4397
(dp4398
g62
(dp4399
g82
g83
ssg71
g4393
sg64
(lp4400
S'headers'
p4401
asbag57
(g78
g59
NtRp4402
(dp4403
g62
(dp4404
g89
g90
ssg71
g4393
sg64
(lp4405
S':'
asbag57
(g78
g59
NtRp4406
(dp4407
g62
(dp4408
sg71
g4393
sg64
(lp4409
g57
(g58
g59
NtRp4410
(dp4411
g62
(dp4412
g70
I5
ssg71
g4406
sg64
(lp4413
g57
(g66
g59
NtRp4414
(dp4415
g62
(dp4416
g70
I4
ssg71
Nsg64
(lp4417
g57
(g73
g59
NtRp4418
(dp4419
g62
(dp4420
sg71
g4414
sg64
(lp4421
g57
(g78
g59
NtRp4422
(dp4423
g62
(dp4424
g82
g83
ssg71
g4418
sg64
(lp4425
S'X-Powered-By'
p4426
asbag57
(g78
g59
NtRp4427
(dp4428
g62
(dp4429
g89
g90
ssg71
g4418
sg64
(lp4430
S':'
asbag57
(g78
g59
NtRp4431
(dp4432
g62
(dp4433
sg71
g4418
sg64
(lp4434
g57
(g58
g59
NtRp4435
(dp4436
g62
(dp4437
g70
I4
ssg71
g4431
sg64
(lp4438
S'web2py'
p4439
asbasbasbasbasbasbasbag57
(g73
g59
NtRp4440
(dp4441
g62
(dp4442
sg71
g3899
sg64
(lp4443
g57
(g78
g59
NtRp4444
(dp4445
g62
(dp4446
g82
g83
ssg71
g4440
sg64
(lp4447
S'logo'
p4448
asbag57
(g78
g59
NtRp4449
(dp4450
g62
(dp4451
g89
g90
ssg71
g4440
sg64
(lp4452
S':'
asbag57
(g78
g59
NtRp4453
(dp4454
g62
(dp4455
sg71
g4440
sg64
(lp4456
g57
(g58
g59
NtRp4457
(dp4458
g62
(dp4459
g70
I5
ssg71
g4453
sg64
(lp4460
g57
(cgluon.html
A
p4461
g59
NtRp4462
(dp4463
g62
(dp4464
S'_class'
p4465
S'brand'
p4466
sS'_href'
p4467
S''
ssg71
Nsg64
(lp4468
g57
(cgluon.html
B
p4469
g59
NtRp4470
(dp4471
g62
(dp4472
sg71
g4462
sg64
(lp4473
S'Buy/Sell'
p4474
asbacgluon.html
XML_unpickle
p4475
(S's\r\x00\x00\x00&trade;&nbsp;'
tRp4476
asbasbasbasbag57
(g73
g59
NtRp4477
(dp4478
g62
(dp4479
sg71
g3899
sg64
(lp4480
g57
(g78
g59
NtRp4481
(dp4482
g62
(dp4483
g82
g83
ssg71
g4477
sg64
(lp4484
S'menu'
p4485
asbag57
(g78
g59
NtRp4486
(dp4487
g62
(dp4488
g89
g90
ssg71
g4477
sg64
(lp4489
S':'
asbag57
(g78
g59
NtRp4490
(dp4491
g62
(dp4492
sg71
g4477
sg64
(lp4493
g57
(g58
g59
NtRp4494
(dp4495
g62
(dp4496
g70
I5
ssg71
g4490
sg64
(lp4497
g57
(g66
g59
NtRp4498
(dp4499
g62
(dp4500
g70
I4
ssg71
Nsg64
(lp4501
g57
(g73
g59
NtRp4502
(dp4503
g62
(dp4504
sg71
g4498
sg64
(lp4505
g57
(g78
g59
NtRp4506
(dp4507
g62
(dp4508
sg71
g4502
sg64
(lp4509
g57
(g58
g59
NtRp4510
(dp4511
g62
(dp4512
g70
I4
ssg71
g4506
sg64
(lp4513
g57
(g66
g59
NtRp4514
(dp4515
g62
(dp4516
g70
I3
ssg71
Nsg64
(lp4517
g57
(g73
g59
NtRp4518
(dp4519
g62
(dp4520
sg71
g4514
sg64
(lp4521
g57
(g78
g59
NtRp4522
(dp4523
g62
(dp4524
sg71
g4518
sg64
(lp4525
g57
(g58
g59
NtRp4526
(dp4527
g62
(dp4528
g70
I3
ssg71
g4522
sg64
(lp4529
cgluon.languages
lazyT_unpickle
p4530
(S's\x04\x00\x00\x00Home'
tRp4531
asbasbasbag57
(g73
g59
NtRp4532
(dp4533
g62
(dp4534
sg71
g4514
sg64
(lp4535
g57
(g78
g59
NtRp4536
(dp4537
g62
(dp4538
sg71
g4532
sg64
(lp4539
g57
(g58
g59
NtRp4540
(dp4541
g62
(dp4542
g70
I3
ssg71
g4536
sg64
(lp4543
g100
asbasbasbag57
(g73
g59
NtRp4544
(dp4545
g62
(dp4546
sg71
g4514
sg64
(lp4547
g57
(g78
g59
NtRp4548
(dp4549
g62
(dp4550
sg71
g4544
sg64
(lp4551
g57
(g58
g59
NtRp4552
(dp4553
g62
(dp4554
g70
I3
ssg71
g4548
sg64
(lp4555
S'/BuySell/default/index'
p4556
asbasbasbag57
(g73
g59
NtRp4557
(dp4558
g62
(dp4559
sg71
g4514
sg64
(lp4560
g57
(g78
g59
NtRp4561
(dp4562
g62
(dp4563
sg71
g4557
sg64
(lp4564
g57
(g58
g59
NtRp4565
(dp4566
g62
(dp4567
g70
I3
ssg71
g4561
sg64
(lp4568
g57
(g66
g59
NtRp4569
(dp4570
g62
(dp4571
g70
I2
ssg71
Nsg64
(lp4572
sbasbasbasbasbasbasbasbag57
(g73
g59
NtRp4573
(dp4574
g62
(dp4575
sg71
g4498
sg64
(lp4576
g57
(g78
g59
NtRp4577
(dp4578
g62
(dp4579
sg71
g4573
sg64
(lp4580
g57
(g58
g59
NtRp4581
(dp4582
g62
(dp4583
g70
I4
ssg71
g4577
sg64
(lp4584
g57
(g66
g59
NtRp4585
(dp4586
g62
(dp4587
g70
I3
ssg71
Nsg64
(lp4588
g57
(g73
g59
NtRp4589
(dp4590
g62
(dp4591
sg71
g4585
sg64
(lp4592
g57
(g78
g59
NtRp4593
(dp4594
g62
(dp4595
sg71
g4589
sg64
(lp4596
g57
(g58
g59
NtRp4597
(dp4598
g62
(dp4599
g70
I3
ssg71
g4593
sg64
(lp4600
g57
(cgluon.html
SPAN
p4601
g59
NtRp4602
(dp4603
g62
(dp4604
g4465
S'highlighted'
p4605
ssg71
g57
(g4461
g59
NtRp4606
(dp4607
g62
(dp4608
S'_onclick'
p4609
S'javascript:void(0);return false;'
p4610
sg4467
S'#'
ssg71
g57
(cgluon.html
LI
p4611
g59
NtRp4612
(dp4613
g62
(dp4614
g4465
S'dropdown'
p4615
ssg71
g57
(cgluon.html
UL
p4616
g59
NtRp4617
(dp4618
g62
(dp4619
S'mobile'
p4620
I00
sS'ul_class'
p4621
S'dropdown-menu'
p4622
sS'li_last'
p4623
S'web2py-menu-last'
p4624
sS'li_class'
p4625
g4615
sS'li_first'
p4626
S'web2py-menu-first'
p4627
sg4465
S'nav'
p4628
sS'li_active'
p4629
S'web2py-menu-active'
p4630
ssg71
Nsg64
(lp4631
g57
(g4611
g59
NtRp4632
(dp4633
g62
(dp4634
g4465
g4627
ssg71
g4617
sg64
(lp4635
g57
(g4461
g59
NtRp4636
(dp4637
g62
(dp4638
g4467
g4556
ssg71
g4632
sg64
(lp4639
g4531
asbasbag4612
asbsg64
(lp4640
g4606
ag57
(g4616
g59
NtRp4641
(dp4642
g62
(dp4643
g4465
g4622
ssg71
g4612
sg64
(lp4644
g57
(g4611
g59
NtRp4645
(dp4646
g62
(dp4647
sg71
g4641
sg64
(lp4648
g57
(g4461
g59
NtRp4649
(dp4650
g62
(dp4651
g4467
S'/BuySell/default/list_items'
p4652
ssg71
g4645
sg64
(lp4653
g4530
(S's\r\x00\x00\x00List of items'
tRp4654
asbasbag57
(g4611
g59
NtRp4655
(dp4656
g62
(dp4657
g4465
g4615
ssg71
g4641
sg64
(lp4658
g57
(g4461
g59
NtRp4659
(dp4660
g62
(dp4661
g4609
g4610
sg4467
S'#'
ssg71
g4655
sg64
(lp4662
g4530
(S't\x04\x00\x00\x00Sell'
tRp4663
asbag57
(g4616
g59
NtRp4664
(dp4665
g62
(dp4666
g4465
g4622
ssg71
g4655
sg64
(lp4667
g57
(g4611
g59
NtRp4668
(dp4669
g62
(dp4670
sg71
g4664
sg64
(lp4671
g57
(g4461
g59
NtRp4672
(dp4673
g62
(dp4674
g4467
S'/BuySell/default/add_item'
p4675
ssg71
g4668
sg64
(lp4676
g4530
(S's\x08\x00\x00\x00Add Item'
tRp4677
asbasbag57
(g4611
g59
NtRp4678
(dp4679
g62
(dp4680
sg71
g4664
sg64
(lp4681
g57
(g4461
g59
NtRp4682
(dp4683
g62
(dp4684
g4467
S'/BuySell/default/listed_items'
p4685
ssg71
g4678
sg64
(lp4686
g4530
(S's\x11\x00\x00\x00Your Listed Items'
tRp4687
asbasbag57
(g4611
g59
NtRp4688
(dp4689
g62
(dp4690
sg71
g4664
sg64
(lp4691
g57
(g4461
g59
NtRp4692
(dp4693
g62
(dp4694
g4467
S'/BuySell/default/item_sold'
p4695
ssg71
g4688
sg64
(lp4696
g4530
(S's\n\x00\x00\x00Items Sold'
tRp4697
asbasbag57
(g4611
g59
NtRp4698
(dp4699
g62
(dp4700
sg71
g4664
sg64
(lp4701
g57
(g4461
g59
NtRp4702
(dp4703
g62
(dp4704
g4467
S'/BuySell/default/fulfil_wishes'
p4705
ssg71
g4698
sg64
(lp4706
g4530
(S's\r\x00\x00\x00Fulfil Wishes'
tRp4707
asbasbasbasbag57
(g4611
g59
NtRp4708
(dp4709
g62
(dp4710
g4465
g4615
ssg71
g4641
sg64
(lp4711
g57
(g4461
g59
NtRp4712
(dp4713
g62
(dp4714
g4609
g4610
sg4467
S'#'
ssg71
g4708
sg64
(lp4715
S'Buy'
p4716
asbag57
(g4616
g59
NtRp4717
(dp4718
g62
(dp4719
g4465
g4622
ssg71
g4708
sg64
(lp4720
g57
(g4611
g59
NtRp4721
(dp4722
g62
(dp4723
sg71
g4717
sg64
(lp4724
g57
(g4461
g59
NtRp4725
(dp4726
g62
(dp4727
g4467
S'/BuySell/default/add_wish'
p4728
ssg71
g4721
sg64
(lp4729
g4530
(S's\x0b\x00\x00\x00Make a wish'
tRp4730
asbasbag57
(g4611
g59
NtRp4731
(dp4732
g62
(dp4733
sg71
g4717
sg64
(lp4734
g57
(g4461
g59
NtRp4735
(dp4736
g62
(dp4737
g4467
S'/BuySell/default/wish_list'
p4738
ssg71
g4731
sg64
(lp4739
g4530
(S's\x0e\x00\x00\x00Your Wish List'
tRp4740
asbasbag57
(g4611
g59
NtRp4741
(dp4742
g62
(dp4743
sg71
g4717
sg64
(lp4744
g57
(g4461
g59
NtRp4745
(dp4746
g62
(dp4747
g4467
S'/BuySell/default/fulfilled'
p4748
ssg71
g4741
sg64
(lp4749
g4530
(S's\x10\x00\x00\x00Fulfilled Wishes'
tRp4750
asbasbag57
(g4611
g59
NtRp4751
(dp4752
g62
(dp4753
sg71
g4717
sg64
(lp4754
g57
(g4461
g59
NtRp4755
(dp4756
g62
(dp4757
g4467
S'/BuySell/default/item_bought'
p4758
ssg71
g4751
sg64
(lp4759
g4530
(S's\x15\x00\x00\x00Items Bought/Bids Won'
tRp4760
asbasbasbasbag57
(g4611
g59
NtRp4761
(dp4762
g62
(dp4763
g4465
g4615
ssg71
g4641
sg64
(lp4764
g57
(g4461
g59
NtRp4765
(dp4766
g62
(dp4767
g4467
S'http://www.web2py.com/book'
p4768
ssg71
g4761
sg64
(lp4769
g4530
(S's\x0e\x00\x00\x00All Categories'
tRp4770
asbag57
(g4616
g59
NtRp4771
(dp4772
g62
(dp4773
g4465
g4622
ssg71
g4761
sg64
(lp4774
g57
(g4611
g59
NtRp4775
(dp4776
g62
(dp4777
sg71
g4771
sg64
(lp4778
g57
(g4461
g59
NtRp4779
(dp4780
g62
(dp4781
g4467
S'/BuySell/default/categories/1'
p4782
ssg71
g4775
sg64
(lp4783
g4530
(S's\x0f\x00\x00\x00Arts and Crafts'
tRp4784
asbasbag57
(g4611
g59
NtRp4785
(dp4786
g62
(dp4787
sg71
g4771
sg64
(lp4788
g57
(g4461
g59
NtRp4789
(dp4790
g62
(dp4791
g4467
S'/BuySell/default/categories/2'
p4792
ssg71
g4785
sg64
(lp4793
g4530
(S't\x08\x00\x00\x00Clothing'
tRp4794
asbasbag57
(g4611
g59
NtRp4795
(dp4796
g62
(dp4797
sg71
g4771
sg64
(lp4798
g57
(g4461
g59
NtRp4799
(dp4800
g62
(dp4801
g4467
S'/BuySell/default/categories/3'
p4802
ssg71
g4795
sg64
(lp4803
g4530
(S't\x08\x00\x00\x00Footwear'
tRp4804
asbasbag57
(g4611
g59
NtRp4805
(dp4806
g62
(dp4807
sg71
g4771
sg64
(lp4808
g57
(g4461
g59
NtRp4809
(dp4810
g62
(dp4811
g4467
S'/BuySell/default/categories/4'
p4812
ssg71
g4805
sg64
(lp4813
g4530
(S't\x05\x00\x00\x00Gifts'
tRp4814
asbasbasbasbag57
(g4611
g59
NtRp4815
(dp4816
g62
(dp4817
g4465
g4615
ssg71
g4641
sg64
(lp4818
g57
(g4461
g59
NtRp4819
(dp4820
g62
(dp4821
g4609
g4610
sg4467
S'#'
ssg71
g4815
sg64
(lp4822
g4530
(S's\t\x00\x00\x00Community'
tRp4823
asbag57
(g4616
g59
NtRp4824
(dp4825
g62
(dp4826
g4465
g4622
ssg71
g4815
sg64
(lp4827
g57
(g4611
g59
NtRp4828
(dp4829
g62
(dp4830
sg71
g4824
sg64
(lp4831
g57
(g4461
g59
NtRp4832
(dp4833
g62
(dp4834
g4467
S'http://twitter.com/buy_sell'
p4835
ssg71
g4828
sg64
(lp4836
g4530
(S's\x07\x00\x00\x00Twitter'
tRp4837
asbasbag57
(g4611
g59
NtRp4838
(dp4839
g62
(dp4840
sg71
g4824
sg64
(lp4841
g57
(g4461
g59
NtRp4842
(dp4843
g62
(dp4844
g4467
S'http://webchat.freenode.net/?channels=buysell'
p4845
ssg71
g4838
sg64
(lp4846
g4530
(S's\t\x00\x00\x00Live Chat'
tRp4847
asbasbasbasbag57
(g4611
g59
NtRp4848
(dp4849
g62
(dp4850
g4465
g4615
ssg71
g4641
sg64
(lp4851
g57
(g4461
g59
NtRp4852
(dp4853
g62
(dp4854
g4609
g4610
sg4467
S'#'
ssg71
g4848
sg64
(lp4855
g4530
(S't\x04\x00\x00\x00Help'
tRp4856
asbag57
(g4616
g59
NtRp4857
(dp4858
g62
(dp4859
g4465
g4622
ssg71
g4848
sg64
(lp4860
g57
(g4611
g59
NtRp4861
(dp4862
g62
(dp4863
sg71
g4857
sg64
(lp4864
g57
(g4461
g59
NtRp4865
(dp4866
g62
(dp4867
g4467
S'/BuySell/default/index'
p4868
ssg71
g4861
sg64
(lp4869
S'FAQ'
p4870
asbasbag57
(g4611
g59
NtRp4871
(dp4872
g62
(dp4873
sg71
g4857
sg64
(lp4874
g57
(g4461
g59
NtRp4875
(dp4876
g62
(dp4877
g4467
S'/BuySell/default/report'
p4878
ssg71
g4871
sg64
(lp4879
S'Report a Problem'
p4880
asbasbasbasbasbasbsg64
(lp4881
g4602
asbsg64
(lp4882
S'Navigate'
p4883
asbasbasbasbag57
(g73
g59
NtRp4884
(dp4885
g62
(dp4886
sg71
g4585
sg64
(lp4887
g57
(g78
g59
NtRp4888
(dp4889
g62
(dp4890
sg71
g4884
sg64
(lp4891
g57
(g58
g59
NtRp4892
(dp4893
g62
(dp4894
g70
I3
ssg71
g4888
sg64
(lp4895
g100
asbasbasbag57
(g73
g59
NtRp4896
(dp4897
g62
(dp4898
sg71
g4585
sg64
(lp4899
g57
(g78
g59
NtRp4900
(dp4901
g62
(dp4902
sg71
g4896
sg64
(lp4903
g57
(g58
g59
NtRp4904
(dp4905
g62
(dp4906
g70
I3
ssg71
g4900
sg64
(lp4907
S''
asbasbasbag57
(g73
g59
NtRp4908
(dp4909
g62
(dp4910
sg71
g4585
sg64
(lp4911
g57
(g78
g59
NtRp4912
(dp4913
g62
(dp4914
sg71
g4908
sg64
(lp4915
g57
(g58
g59
NtRp4916
(dp4917
g62
(dp4918
g70
I3
ssg71
g4912
sg64
(lp4919
g57
(g66
g59
NtRp4920
(dp4921
g62
(dp4922
g70
I2
ssg71
Nsg64
(lp4923
g57
(g73
g59
NtRp4924
(dp4925
g62
(dp4926
sg71
g4920
sg64
(lp4927
g57
(g78
g59
NtRp4928
(dp4929
g62
(dp4930
sg71
g4924
sg64
(lp4931
g57
(g58
g59
NtRp4932
(dp4933
g62
(dp4934
g70
I2
ssg71
g4928
sg64
(lp4935
g57
(g66
g59
NtRp4936
(dp4937
g62
(dp4938
g70
I1
ssg71
Nsg64
(lp4939
g57
(g73
g59
NtRp4940
(dp4941
g62
(dp4942
sg71
g4936
sg64
(lp4943
g57
(g78
g59
NtRp4944
(dp4945
g62
(dp4946
sg71
g4940
sg64
(lp4947
g57
(g58
g59
NtRp4948
(dp4949
g62
(dp4950
g70
I1
ssg71
g4944
sg64
(lp4951
g4654
asbasbasbag57
(g73
g59
NtRp4952
(dp4953
g62
(dp4954
sg71
g4936
sg64
(lp4955
g57
(g78
g59
NtRp4956
(dp4957
g62
(dp4958
sg71
g4952
sg64
(lp4959
g57
(g58
g59
NtRp4960
(dp4961
g62
(dp4962
g70
I1
ssg71
g4956
sg64
(lp4963
I00
asbasbasbag57
(g73
g59
NtRp4964
(dp4965
g62
(dp4966
sg71
g4936
sg64
(lp4967
g57
(g78
g59
NtRp4968
(dp4969
g62
(dp4970
sg71
g4964
sg64
(lp4971
g57
(g58
g59
NtRp4972
(dp4973
g62
(dp4974
g70
I1
ssg71
g4968
sg64
(lp4975
g4652
asbasbasbasbasbasbasbag57
(g73
g59
NtRp4976
(dp4977
g62
(dp4978
sg71
g4920
sg64
(lp4979
g57
(g78
g59
NtRp4980
(dp4981
g62
(dp4982
sg71
g4976
sg64
(lp4983
g57
(g58
g59
NtRp4984
(dp4985
g62
(dp4986
g70
I2
ssg71
g4980
sg64
(lp4987
g57
(g66
g59
NtRp4988
(dp4989
g62
(dp4990
g70
I1
ssg71
Nsg64
(lp4991
g57
(g73
g59
NtRp4992
(dp4993
g62
(dp4994
sg71
g4988
sg64
(lp4995
g57
(g78
g59
NtRp4996
(dp4997
g62
(dp4998
sg71
g4992
sg64
(lp4999
g57
(g58
g59
NtRp5000
(dp5001
g62
(dp5002
g70
I1
ssg71
g4996
sg64
(lp5003
g4663
asbasbasbag57
(g73
g59
NtRp5004
(dp5005
g62
(dp5006
sg71
g4988
sg64
(lp5007
g57
(g78
g59
NtRp5008
(dp5009
g62
(dp5010
sg71
g5004
sg64
(lp5011
g57
(g58
g59
NtRp5012
(dp5013
g62
(dp5014
g70
I1
ssg71
g5008
sg64
(lp5015
I00
asbasbasbag57
(g73
g59
NtRp5016
(dp5017
g62
(dp5018
sg71
g4988
sg64
(lp5019
g57
(g78
g59
NtRp5020
(dp5021
g62
(dp5022
sg71
g5016
sg64
(lp5023
g57
(g58
g59
NtRp5024
(dp5025
g62
(dp5026
g70
I1
ssg71
g5020
sg64
(lp5027
S''
asbasbasbag57
(g73
g59
NtRp5028
(dp5029
g62
(dp5030
sg71
g4988
sg64
(lp5031
g57
(g78
g59
NtRp5032
(dp5033
g62
(dp5034
sg71
g5028
sg64
(lp5035
g57
(g58
g59
NtRp5036
(dp5037
g62
(dp5038
g70
I1
ssg71
g5032
sg64
(lp5039
(lp5040
(g4677
I00
g4675
tp5041
a(g4687
I00
g4685
tp5042
a(g4697
I00
g4695
tp5043
a(g4707
I00
g4705
tp5044
aasbasbasbasbasbasbasbag57
(g73
g59
NtRp5045
(dp5046
g62
(dp5047
sg71
g4920
sg64
(lp5048
g57
(g78
g59
NtRp5049
(dp5050
g62
(dp5051
sg71
g5045
sg64
(lp5052
g57
(g58
g59
NtRp5053
(dp5054
g62
(dp5055
g70
I2
ssg71
g5049
sg64
(lp5056
g57
(g66
g59
NtRp5057
(dp5058
g62
(dp5059
g70
I1
ssg71
Nsg64
(lp5060
g57
(g73
g59
NtRp5061
(dp5062
g62
(dp5063
sg71
g5057
sg64
(lp5064
g57
(g78
g59
NtRp5065
(dp5066
g62
(dp5067
sg71
g5061
sg64
(lp5068
g57
(g58
g59
NtRp5069
(dp5070
g62
(dp5071
g70
I1
ssg71
g5065
sg64
(lp5072
g4716
asbasbasbag57
(g73
g59
NtRp5073
(dp5074
g62
(dp5075
sg71
g5057
sg64
(lp5076
g57
(g78
g59
NtRp5077
(dp5078
g62
(dp5079
sg71
g5073
sg64
(lp5080
g57
(g58
g59
NtRp5081
(dp5082
g62
(dp5083
g70
I1
ssg71
g5077
sg64
(lp5084
I00
asbasbasbag57
(g73
g59
NtRp5085
(dp5086
g62
(dp5087
sg71
g5057
sg64
(lp5088
g57
(g78
g59
NtRp5089
(dp5090
g62
(dp5091
sg71
g5085
sg64
(lp5092
g57
(g58
g59
NtRp5093
(dp5094
g62
(dp5095
g70
I1
ssg71
g5089
sg64
(lp5096
S''
asbasbasbag57
(g73
g59
NtRp5097
(dp5098
g62
(dp5099
sg71
g5057
sg64
(lp5100
g57
(g78
g59
NtRp5101
(dp5102
g62
(dp5103
sg71
g5097
sg64
(lp5104
g57
(g58
g59
NtRp5105
(dp5106
g62
(dp5107
g70
I1
ssg71
g5101
sg64
(lp5108
(lp5109
(g4730
I00
g4728
tp5110
a(g4740
I00
g4738
tp5111
a(g4750
I00
g4748
tp5112
a(g4760
I00
g4758
tp5113
aasbasbasbasbasbasbasbag57
(g73
g59
NtRp5114
(dp5115
g62
(dp5116
sg71
g4920
sg64
(lp5117
g57
(g78
g59
NtRp5118
(dp5119
g62
(dp5120
sg71
g5114
sg64
(lp5121
g57
(g58
g59
NtRp5122
(dp5123
g62
(dp5124
g70
I2
ssg71
g5118
sg64
(lp5125
g57
(g66
g59
NtRp5126
(dp5127
g62
(dp5128
g70
I1
ssg71
Nsg64
(lp5129
g57
(g73
g59
NtRp5130
(dp5131
g62
(dp5132
sg71
g5126
sg64
(lp5133
g57
(g78
g59
NtRp5134
(dp5135
g62
(dp5136
sg71
g5130
sg64
(lp5137
g57
(g58
g59
NtRp5138
(dp5139
g62
(dp5140
g70
I1
ssg71
g5134
sg64
(lp5141
g4770
asbasbasbag57
(g73
g59
NtRp5142
(dp5143
g62
(dp5144
sg71
g5126
sg64
(lp5145
g57
(g78
g59
NtRp5146
(dp5147
g62
(dp5148
sg71
g5142
sg64
(lp5149
g57
(g58
g59
NtRp5150
(dp5151
g62
(dp5152
g70
I1
ssg71
g5146
sg64
(lp5153
I00
asbasbasbag57
(g73
g59
NtRp5154
(dp5155
g62
(dp5156
sg71
g5126
sg64
(lp5157
g57
(g78
g59
NtRp5158
(dp5159
g62
(dp5160
sg71
g5154
sg64
(lp5161
g57
(g58
g59
NtRp5162
(dp5163
g62
(dp5164
g70
I1
ssg71
g5158
sg64
(lp5165
g4768
asbasbasbag57
(g73
g59
NtRp5166
(dp5167
g62
(dp5168
sg71
g5126
sg64
(lp5169
g57
(g78
g59
NtRp5170
(dp5171
g62
(dp5172
sg71
g5166
sg64
(lp5173
g57
(g58
g59
NtRp5174
(dp5175
g62
(dp5176
g70
I1
ssg71
g5170
sg64
(lp5177
(lp5178
(g4784
I00
g4782
tp5179
a(g4794
I00
g4792
tp5180
a(g4804
I00
g4802
tp5181
a(g4814
I00
g4812
tp5182
aasbasbasbasbasbasbasbag57
(g73
g59
NtRp5183
(dp5184
g62
(dp5185
sg71
g4920
sg64
(lp5186
g57
(g78
g59
NtRp5187
(dp5188
g62
(dp5189
sg71
g5183
sg64
(lp5190
g57
(g58
g59
NtRp5191
(dp5192
g62
(dp5193
g70
I2
ssg71
g5187
sg64
(lp5194
g57
(g66
g59
NtRp5195
(dp5196
g62
(dp5197
g70
I1
ssg71
Nsg64
(lp5198
g57
(g73
g59
NtRp5199
(dp5200
g62
(dp5201
sg71
g5195
sg64
(lp5202
g57
(g78
g59
NtRp5203
(dp5204
g62
(dp5205
sg71
g5199
sg64
(lp5206
g57
(g58
g59
NtRp5207
(dp5208
g62
(dp5209
g70
I1
ssg71
g5203
sg64
(lp5210
g4823
asbasbasbag57
(g73
g59
NtRp5211
(dp5212
g62
(dp5213
sg71
g5195
sg64
(lp5214
g57
(g78
g59
NtRp5215
(dp5216
g62
(dp5217
sg71
g5211
sg64
(lp5218
g57
(g58
g59
NtRp5219
(dp5220
g62
(dp5221
g70
I1
ssg71
g5215
sg64
(lp5222
I00
asbasbasbag57
(g73
g59
NtRp5223
(dp5224
g62
(dp5225
sg71
g5195
sg64
(lp5226
g57
(g78
g59
NtRp5227
(dp5228
g62
(dp5229
sg71
g5223
sg64
(lp5230
g57
(g58
g59
NtRp5231
(dp5232
g62
(dp5233
g70
I1
ssg71
g5227
sg64
(lp5234
Nasbasbasbag57
(g73
g59
NtRp5235
(dp5236
g62
(dp5237
sg71
g5195
sg64
(lp5238
g57
(g78
g59
NtRp5239
(dp5240
g62
(dp5241
sg71
g5235
sg64
(lp5242
g57
(g58
g59
NtRp5243
(dp5244
g62
(dp5245
g70
I1
ssg71
g5239
sg64
(lp5246
(lp5247
(g4837
I00
g4835
tp5248
a(g4847
I00
g4845
tp5249
aasbasbasbasbasbasbasbag57
(g73
g59
NtRp5250
(dp5251
g62
(dp5252
sg71
g4920
sg64
(lp5253
g57
(g78
g59
NtRp5254
(dp5255
g62
(dp5256
sg71
g5250
sg64
(lp5257
g57
(g58
g59
NtRp5258
(dp5259
g62
(dp5260
g70
I2
ssg71
g5254
sg64
(lp5261
g57
(g66
g59
NtRp5262
(dp5263
g62
(dp5264
g70
I1
ssg71
Nsg64
(lp5265
g57
(g73
g59
NtRp5266
(dp5267
g62
(dp5268
sg71
g5262
sg64
(lp5269
g57
(g78
g59
NtRp5270
(dp5271
g62
(dp5272
sg71
g5266
sg64
(lp5273
g57
(g58
g59
NtRp5274
(dp5275
g62
(dp5276
g70
I1
ssg71
g5270
sg64
(lp5277
g4856
asbasbasbag57
(g73
g59
NtRp5278
(dp5279
g62
(dp5280
sg71
g5262
sg64
(lp5281
g57
(g78
g59
NtRp5282
(dp5283
g62
(dp5284
sg71
g5278
sg64
(lp5285
g57
(g58
g59
NtRp5286
(dp5287
g62
(dp5288
g70
I1
ssg71
g5282
sg64
(lp5289
I00
asbasbasbag57
(g73
g59
NtRp5290
(dp5291
g62
(dp5292
sg71
g5262
sg64
(lp5293
g57
(g78
g59
NtRp5294
(dp5295
g62
(dp5296
sg71
g5290
sg64
(lp5297
g57
(g58
g59
NtRp5298
(dp5299
g62
(dp5300
g70
I1
ssg71
g5294
sg64
(lp5301
Nasbasbasbag57
(g73
g59
NtRp5302
(dp5303
g62
(dp5304
sg71
g5262
sg64
(lp5305
g57
(g78
g59
NtRp5306
(dp5307
g62
(dp5308
sg71
g5302
sg64
(lp5309
g57
(g58
g59
NtRp5310
(dp5311
g62
(dp5312
g70
I1
ssg71
g5306
sg64
(lp5313
(lp5314
(g4870
I00
g4868
tp5315
a(g4880
I00
g4878
tp5316
aasbasbasbasbasbasbasbasbasbasbasbasbasbasbasbasbasbasbasbag57
(g73
g59
NtRp5317
(dp5318
g62
(dp5319
sg71
g3899
sg64
(lp5320
g57
(g78
g59
NtRp5321
(dp5322
g62
(dp5323
g82
g83
ssg71
g5317
sg64
(lp5324
S'meta'
p5325
asbag57
(g78
g59
NtRp5326
(dp5327
g62
(dp5328
g89
g90
ssg71
g5317
sg64
(lp5329
S':'
asbag57
(g78
g59
NtRp5330
(dp5331
g62
(dp5332
sg71
g5317
sg64
(lp5333
g57
(g58
g59
NtRp5334
(dp5335
g62
(dp5336
g70
I5
ssg71
g5330
sg64
(lp5337
g57
(g66
g59
NtRp5338
(dp5339
g62
(dp5340
g70
I4
ssg71
Nsg64
(lp5341
g57
(g73
g59
NtRp5342
(dp5343
g62
(dp5344
sg71
g5338
sg64
(lp5345
g57
(g78
g59
NtRp5346
(dp5347
g62
(dp5348
g82
g83
ssg71
g5342
sg64
(lp5349
S'author'
p5350
asbag57
(g78
g59
NtRp5351
(dp5352
g62
(dp5353
g89
g90
ssg71
g5342
sg64
(lp5354
S':'
asbag57
(g78
g59
NtRp5355
(dp5356
g62
(dp5357
sg71
g5342
sg64
(lp5358
g57
(g58
g59
NtRp5359
(dp5360
g62
(dp5361
g70
I4
ssg71
g5355
sg64
(lp5362
S'Your Name <you@example.com>'
p5363
asbasbasbag57
(g73
g59
NtRp5364
(dp5365
g62
(dp5366
sg71
g5338
sg64
(lp5367
g57
(g78
g59
NtRp5368
(dp5369
g62
(dp5370
g82
g83
ssg71
g5364
sg64
(lp5371
S'description'
p5372
asbag57
(g78
g59
NtRp5373
(dp5374
g62
(dp5375
g89
g90
ssg71
g5364
sg64
(lp5376
S':'
asbag57
(g78
g59
NtRp5377
(dp5378
g62
(dp5379
sg71
g5364
sg64
(lp5380
g57
(g58
g59
NtRp5381
(dp5382
g62
(dp5383
g70
I4
ssg71
g5377
sg64
(lp5384
S'a cool new app'
p5385
asbasbasbag57
(g73
g59
NtRp5386
(dp5387
g62
(dp5388
sg71
g5338
sg64
(lp5389
g57
(g78
g59
NtRp5390
(dp5391
g62
(dp5392
g82
g83
ssg71
g5386
sg64
(lp5393
S'generator'
p5394
asbag57
(g78
g59
NtRp5395
(dp5396
g62
(dp5397
g89
g90
ssg71
g5386
sg64
(lp5398
S':'
asbag57
(g78
g59
NtRp5399
(dp5400
g62
(dp5401
sg71
g5386
sg64
(lp5402
g57
(g58
g59
NtRp5403
(dp5404
g62
(dp5405
g70
I4
ssg71
g5399
sg64
(lp5406
S'Web2py Web Framework'
p5407
asbasbasbag57
(g73
g59
NtRp5408
(dp5409
g62
(dp5410
sg71
g5338
sg64
(lp5411
g57
(g78
g59
NtRp5412
(dp5413
g62
(dp5414
g82
g83
ssg71
g5408
sg64
(lp5415
S'keywords'
p5416
asbag57
(g78
g59
NtRp5417
(dp5418
g62
(dp5419
g89
g90
ssg71
g5408
sg64
(lp5420
S':'
asbag57
(g78
g59
NtRp5421
(dp5422
g62
(dp5423
sg71
g5408
sg64
(lp5424
g57
(g58
g59
NtRp5425
(dp5426
g62
(dp5427
g70
I4
ssg71
g5421
sg64
(lp5428
S'web2py, python, framework'
p5429
asbasbasbasbasbasbasbag57
(g73
g59
NtRp5430
(dp5431
g62
(dp5432
sg71
g3899
sg64
(lp5433
g57
(g78
g59
NtRp5434
(dp5435
g62
(dp5436
g82
g83
ssg71
g5430
sg64
(lp5437
S'models_to_run'
p5438
asbag57
(g78
g59
NtRp5439
(dp5440
g62
(dp5441
g89
g90
ssg71
g5430
sg64
(lp5442
S':'
asbag57
(g78
g59
NtRp5443
(dp5444
g62
(dp5445
sg71
g5430
sg64
(lp5446
g57
(g58
g59
NtRp5447
(dp5448
g62
(dp5449
g70
I5
ssg71
g5443
sg64
(lp5450
g57
(g66
g59
NtRp5451
(dp5452
g62
(dp5453
g70
I4
ssg71
Nsg64
(lp5454
g57
(g73
g59
NtRp5455
(dp5456
g62
(dp5457
sg71
g5451
sg64
(lp5458
g57
(g78
g59
NtRp5459
(dp5460
g62
(dp5461
sg71
g5455
sg64
(lp5462
g57
(g58
g59
NtRp5463
(dp5464
g62
(dp5465
g70
I4
ssg71
g5459
sg64
(lp5466
S'^\\w+\\.py$'
p5467
asbasbasbag57
(g73
g59
NtRp5468
(dp5469
g62
(dp5470
sg71
g5451
sg64
(lp5471
g57
(g78
g59
NtRp5472
(dp5473
g62
(dp5474
sg71
g5468
sg64
(lp5475
g57
(g58
g59
NtRp5476
(dp5477
g62
(dp5478
g70
I4
ssg71
g5472
sg64
(lp5479
S'^default/\\w+\\.py$'
p5480
asbasbasbag57
(g73
g59
NtRp5481
(dp5482
g62
(dp5483
sg71
g5451
sg64
(lp5484
g57
(g78
g59
NtRp5485
(dp5486
g62
(dp5487
sg71
g5481
sg64
(lp5488
g57
(g58
g59
NtRp5489
(dp5490
g62
(dp5491
g70
I4
ssg71
g5485
sg64
(lp5492
S'^default/list_items/\\w+\\.py$'
p5493
asbasbasbasbasbasbasbag57
(g73
g59
NtRp5494
(dp5495
g62
(dp5496
sg71
g3899
sg64
(lp5497
g57
(g78
g59
NtRp5498
(dp5499
g62
(dp5500
g82
g83
ssg71
g5494
sg64
(lp5501
S'postprocessing'
p5502
asbag57
(g78
g59
NtRp5503
(dp5504
g62
(dp5505
g89
g90
ssg71
g5494
sg64
(lp5506
S':'
asbag57
(g78
g59
NtRp5507
(dp5508
g62
(dp5509
sg71
g5494
sg64
(lp5510
g57
(g58
g59
NtRp5511
(dp5512
g62
(dp5513
g70
I5
ssg71
g5507
sg64
(lp5514
g57
(g66
g59
NtRp5515
(dp5516
g62
(dp5517
g70
I4
ssg71
Nsg64
(lp5518
sbasbasbasbag57
(g73
g59
NtRp5519
(dp5520
g62
(dp5521
sg71
g3899
sg64
(lp5522
g57
(g78
g59
NtRp5523
(dp5524
g62
(dp5525
g82
g83
ssg71
g5519
sg64
(lp5526
S'session_cookie_expires'
p5527
asbag57
(g78
g59
NtRp5528
(dp5529
g62
(dp5530
g89
g90
ssg71
g5519
sg64
(lp5531
S':'
asbag57
(g78
g59
NtRp5532
(dp5533
g62
(dp5534
sg71
g5519
sg64
(lp5535
g57
(g58
g59
NtRp5536
(dp5537
g62
(dp5538
g70
I5
ssg71
g5532
sg64
(lp5539
S'None'
p5540
asbasbasbag57
(g73
g59
NtRp5541
(dp5542
g62
(dp5543
sg71
g3899
sg64
(lp5544
g57
(g78
g59
NtRp5545
(dp5546
g62
(dp5547
g82
g83
ssg71
g5541
sg64
(lp5548
S'session_data_name'
p5549
asbag57
(g78
g59
NtRp5550
(dp5551
g62
(dp5552
g89
g90
ssg71
g5541
sg64
(lp5553
S':'
asbag57
(g78
g59
NtRp5554
(dp5555
g62
(dp5556
sg71
g5541
sg64
(lp5557
g57
(g58
g59
NtRp5558
(dp5559
g62
(dp5560
g70
I5
ssg71
g5554
sg64
(lp5561
S'session_data_buysell'
p5562
asbasbasbag57
(g73
g59
NtRp5563
(dp5564
g62
(dp5565
sg71
g3899
sg64
(lp5566
g57
(g78
g59
NtRp5567
(dp5568
g62
(dp5569
g82
g83
ssg71
g5563
sg64
(lp5570
S'session_file'
p5571
asbag57
(g78
g59
NtRp5572
(dp5573
g62
(dp5574
g89
g90
ssg71
g5563
sg64
(lp5575
S':'
asbag57
(g78
g59
NtRp5576
(dp5577
g62
(dp5578
sg71
g5563
sg64
(lp5579
g57
(g58
g59
NtRp5580
(dp5581
g62
(dp5582
g70
I5
ssg71
g5576
sg64
(lp5583
S"<open file '/home/pratyush/web2py/applications/BuySell/sessions/127.0.0.1-f42b8fb6-bce7-404a-b975-99002423340f', mode 'rb+' at 0x9ea68b8>"
p5584
asbasbasbag57
(g73
g59
NtRp5585
(dp5586
g62
(dp5587
sg71
g3899
sg64
(lp5588
g57
(g78
g59
NtRp5589
(dp5590
g62
(dp5591
g82
g83
ssg71
g5585
sg64
(lp5592
S'session_filename'
p5593
asbag57
(g78
g59
NtRp5594
(dp5595
g62
(dp5596
g89
g90
ssg71
g5585
sg64
(lp5597
S':'
asbag57
(g78
g59
NtRp5598
(dp5599
g62
(dp5600
sg71
g5585
sg64
(lp5601
g57
(g58
g59
NtRp5602
(dp5603
g62
(dp5604
g70
I5
ssg71
g5598
sg64
(lp5605
S'/home/pratyush/web2py/applications/BuySell/sessions/127.0.0.1-f42b8fb6-bce7-404a-b975-99002423340f'
p5606
asbasbasbag57
(g73
g59
NtRp5607
(dp5608
g62
(dp5609
sg71
g3899
sg64
(lp5610
g57
(g78
g59
NtRp5611
(dp5612
g62
(dp5613
g82
g83
ssg71
g5607
sg64
(lp5614
S'session_id'
p5615
asbag57
(g78
g59
NtRp5616
(dp5617
g62
(dp5618
g89
g90
ssg71
g5607
sg64
(lp5619
S':'
asbag57
(g78
g59
NtRp5620
(dp5621
g62
(dp5622
sg71
g5607
sg64
(lp5623
g57
(g58
g59
NtRp5624
(dp5625
g62
(dp5626
g70
I5
ssg71
g5620
sg64
(lp5627
g661
asbasbasbag57
(g73
g59
NtRp5628
(dp5629
g62
(dp5630
sg71
g3899
sg64
(lp5631
g57
(g78
g59
NtRp5632
(dp5633
g62
(dp5634
g82
g83
ssg71
g5628
sg64
(lp5635
S'session_id_name'
p5636
asbag57
(g78
g59
NtRp5637
(dp5638
g62
(dp5639
g89
g90
ssg71
g5628
sg64
(lp5640
S':'
asbag57
(g78
g59
NtRp5641
(dp5642
g62
(dp5643
sg71
g5628
sg64
(lp5644
g57
(g58
g59
NtRp5645
(dp5646
g62
(dp5647
g70
I5
ssg71
g5641
sg64
(lp5648
g3956
asbasbasbag57
(g73
g59
NtRp5649
(dp5650
g62
(dp5651
sg71
g3899
sg64
(lp5652
g57
(g78
g59
NtRp5653
(dp5654
g62
(dp5655
g82
g83
ssg71
g5649
sg64
(lp5656
S'session_locked'
p5657
asbag57
(g78
g59
NtRp5658
(dp5659
g62
(dp5660
g89
g90
ssg71
g5649
sg64
(lp5661
S':'
asbag57
(g78
g59
NtRp5662
(dp5663
g62
(dp5664
sg71
g5649
sg64
(lp5665
g57
(g58
g59
NtRp5666
(dp5667
g62
(dp5668
g70
I5
ssg71
g5662
sg64
(lp5669
g1977
asbasbasbag57
(g73
g59
NtRp5670
(dp5671
g62
(dp5672
sg71
g3899
sg64
(lp5673
g57
(g78
g59
NtRp5674
(dp5675
g62
(dp5676
g82
g83
ssg71
g5670
sg64
(lp5677
S'session_new'
p5678
asbag57
(g78
g59
NtRp5679
(dp5680
g62
(dp5681
g89
g90
ssg71
g5670
sg64
(lp5682
S':'
asbag57
(g78
g59
NtRp5683
(dp5684
g62
(dp5685
sg71
g5670
sg64
(lp5686
g57
(g58
g59
NtRp5687
(dp5688
g62
(dp5689
g70
I5
ssg71
g5683
sg64
(lp5690
g100
asbasbasbag57
(g73
g59
NtRp5691
(dp5692
g62
(dp5693
sg71
g3899
sg64
(lp5694
g57
(g78
g59
NtRp5695
(dp5696
g62
(dp5697
g82
g83
ssg71
g5691
sg64
(lp5698
S'session_storage_type'
p5699
asbag57
(g78
g59
NtRp5700
(dp5701
g62
(dp5702
g89
g90
ssg71
g5691
sg64
(lp5703
S':'
asbag57
(g78
g59
NtRp5704
(dp5705
g62
(dp5706
sg71
g5691
sg64
(lp5707
g57
(g58
g59
NtRp5708
(dp5709
g62
(dp5710
g70
I5
ssg71
g5704
sg64
(lp5711
g3429
asbasbasbag57
(g73
g59
NtRp5712
(dp5713
g62
(dp5714
sg71
g3899
sg64
(lp5715
g57
(g78
g59
NtRp5716
(dp5717
g62
(dp5718
g82
g83
ssg71
g5712
sg64
(lp5719
S'status'
p5720
asbag57
(g78
g59
NtRp5721
(dp5722
g62
(dp5723
g89
g90
ssg71
g5712
sg64
(lp5724
S':'
asbag57
(g78
g59
NtRp5725
(dp5726
g62
(dp5727
sg71
g5712
sg64
(lp5728
g57
(g58
g59
NtRp5729
(dp5730
g62
(dp5731
g70
I5
ssg71
g5725
sg64
(lp5732
S'200'
p5733
asbasbasbag57
(g73
g59
NtRp5734
(dp5735
g62
(dp5736
sg71
g3899
sg64
(lp5737
g57
(g78
g59
NtRp5738
(dp5739
g62
(dp5740
g82
g83
ssg71
g5734
sg64
(lp5741
S'subtitle'
p5742
asbag57
(g78
g59
NtRp5743
(dp5744
g62
(dp5745
g89
g90
ssg71
g5734
sg64
(lp5746
S':'
asbag57
(g78
g59
NtRp5747
(dp5748
g62
(dp5749
sg71
g5734
sg64
(lp5750
g57
(g58
g59
NtRp5751
(dp5752
g62
(dp5753
g70
I5
ssg71
g5747
sg64
(lp5754
g4530
(S's\r\x00\x00\x00customize me!'
tRp5755
asbasbasbag57
(g73
g59
NtRp5756
(dp5757
g62
(dp5758
sg71
g3899
sg64
(lp5759
g57
(g78
g59
NtRp5760
(dp5761
g62
(dp5762
g82
g83
ssg71
g5756
sg64
(lp5763
S'title'
p5764
asbag57
(g78
g59
NtRp5765
(dp5766
g62
(dp5767
g89
g90
ssg71
g5756
sg64
(lp5768
S':'
asbag57
(g78
g59
NtRp5769
(dp5770
g62
(dp5771
sg71
g5756
sg64
(lp5772
g57
(g58
g59
NtRp5773
(dp5774
g62
(dp5775
g70
I5
ssg71
g5769
sg64
(lp5776
S'Buysell'
p5777
asbasbasbag57
(g73
g59
NtRp5778
(dp5779
g62
(dp5780
sg71
g3899
sg64
(lp5781
g57
(g78
g59
NtRp5782
(dp5783
g62
(dp5784
g82
g83
ssg71
g5778
sg64
(lp5785
S'view'
p5786
asbag57
(g78
g59
NtRp5787
(dp5788
g62
(dp5789
g89
g90
ssg71
g5778
sg64
(lp5790
S':'
asbag57
(g78
g59
NtRp5791
(dp5792
g62
(dp5793
sg71
g5778
sg64
(lp5794
g57
(g58
g59
NtRp5795
(dp5796
g62
(dp5797
g70
I5
ssg71
g5791
sg64
(lp5798
S'default/list_items.html'
p5799
asbasbasbasbasbsS'locals'
p5800
(dp5801
S'Service'
p5802
S"<class 'gluon.tools.Service'>"
p5803
sS'OBJECT'
p5804
S"<class 'gluon.html.OBJECT'>"
p5805
sS'SQLDB'
p5806
S"<class 'gluon.dal.DAL'>"
p5807
sg3482
S"<Storage {'last_query': 'db.sold.id>0', '_user_a...login]': '15aa343b-d344-492d-ba54-b74265b26641'}>"
p5808
sS'LINK'
p5809
S"<class 'gluon.html.LINK'>"
p5810
sS'BR'
p5811
S"<class 'gluon.html.BR'>"
p5812
sS'local_import'
p5813
S'<function <lambda>>'
p5814
sS'OPTGROUP'
p5815
S"<class 'gluon.html.OPTGROUP'>"
p5816
sS'__package__'
p5817
S'None'
p5818
sS'PRE'
p5819
S"<class 'gluon.html.PRE'>"
p5820
sS'IS_INT_IN_RANGE'
p5821
S"<class 'gluon.validators.IS_INT_IN_RANGE'>"
p5822
sS'left_sidebar_enabled'
p5823
g100
sS'IS_LOWER'
p5824
S"<class 'gluon.validators.IS_LOWER'>"
p5825
sS'IS_STRONG'
p5826
S"<class 'gluon.validators.IS_STRONG'>"
p5827
sS'cache'
p5828
S'<gluon.cache.Cache object>'
p5829
sS'IS_IN_DB'
p5830
S"<class 'gluon.validators.IS_IN_DB'>"
p5831
sS'TAG'
p5832
S'<gluon.html.__TAG__ object>'
p5833
sS'SQLField'
p5834
S"<class 'gluon.dal.Field'>"
p5835
sS'mail'
p5836
S'<gluon.tools.Mail object>'
p5837
sS'BODY'
p5838
S"<class 'gluon.html.BODY'>"
p5839
sS'IS_DATE_IN_RANGE'
p5840
S"<class 'gluon.validators.IS_DATE_IN_RANGE'>"
p5841
sS'IFRAME'
p5842
S"<class 'gluon.html.IFRAME'>"
p5843
sS'URL'
p5844
S'<function URL>'
p5845
sS'__file__'
p5846
S"'/home/pratyush/web2py/applications/BuySell/views/default/list_items.html'"
p5847
sS'db'
p5848
S'<DAL uri="sqlite://storage.sqlite">'
p5849
sS'auth'
p5850
S'<gluon.tools.Auth object>'
p5851
sS'P'
S"<class 'gluon.html.P'>"
p5852
sS'TFOOT'
p5853
S"<class 'gluon.html.TFOOT'>"
p5854
sS'XHTML'
p5855
S"<class 'gluon.html.XHTML'>"
p5856
sS'ON'
p5857
g1977
sS'OL'
p5858
S"<class 'gluon.html.OL'>"
p5859
sS'TEXTAREA'
p5860
S"<class 'gluon.html.TEXTAREA'>"
p5861
sS'MENU'
p5862
S"<class 'gluon.html.MENU'>"
p5863
sS'form1'
p5864
S'<gluon.html.FORM object>'
p5865
sS'IS_IMAGE'
p5866
S"<class 'gluon.validators.IS_IMAGE'>"
p5867
sS'EM'
p5868
S"<class 'gluon.html.EM'>"
p5869
sS'CODE'
p5870
S"<class 'gluon.html.CODE'>"
p5871
sS'HTTP'
p5872
S"<class 'gluon.http.HTTP'>"
p5873
sS'HR'
p5874
S"<class 'gluon.html.HR'>"
p5875
sS'IS_DATETIME'
p5876
S"<class 'gluon.validators.IS_DATETIME'>"
p5877
sS'STYLE'
p5878
S"<class 'gluon.html.STYLE'>"
p5879
sS'LABEL'
p5880
S"<class 'gluon.html.LABEL'>"
p5881
sS'CLEANUP'
p5882
S"<class 'gluon.validators.CLEANUP'>"
p5883
sS'plugins'
p5884
S'<gluon.tools.PluginManager object>'
p5885
sS'SELECT'
p5886
S"<class 'gluon.html.SELECT'>"
p5887
sS'use_janrain'
p5888
S'<function use_janrain>'
p5889
sS'CENTER'
p5890
S"<class 'gluon.html.CENTER'>"
p5891
sS'prettydate'
p5892
S'<function prettydate>'
p5893
sS'Crud'
p5894
S"<class 'gluon.tools.Crud'>"
p5895
sS'Auth'
p5896
S"<class 'gluon.tools.Auth'>"
p5897
sS'DEVELOPMENT_MENU'
p5898
g1977
sS'__builtins__'
p5899
S"{'ArithmeticError': <type 'exceptions.ArithmeticError'>, 'AssertionError': <type 'exceptions.AssertionError'>, 'AttributeError': <type 'exceptions.AttributeError'>, 'BaseException': <type 'exceptions.BaseException'>, 'BufferError': <type 'exceptions.BufferError'>, 'BytesWarning': <type 'exceptions.BytesWarning'>, 'DeprecationWarning': <type 'exceptions.DeprecationWarning'>, 'EOFError': <type 'exceptions.EOFError'>, 'Ellipsis': Ellipsis, 'EnvironmentError': <type 'exceptions.EnvironmentError'>, ...}"
p5900
sS'HTML'
p5901
S"<class 'gluon.html.HTML'>"
p5902
sS'SQLFORM'
p5903
S"<class 'gluon.sqlhtml.SQLFORM'>"
p5904
sS'LOAD'
p5905
S'<function LOAD>'
p5906
sS'redirect'
p5907
S'<function redirect>'
p5908
sS'FIELDSET'
p5909
S"<class 'gluon.html.FIELDSET'>"
p5910
sS'IS_EQUAL_TO'
p5911
S"<class 'gluon.validators.IS_EQUAL_TO'>"
p5912
sS'embed64'
p5913
S'<function embed64>'
p5914
sS'IS_LIST_OF'
p5915
S"<class 'gluon.validators.IS_LIST_OF'>"
p5916
sS'INPUT'
p5917
S"<class 'gluon.html.INPUT'>"
p5918
sS'EMBED'
p5919
S"<class 'gluon.html.EMBED'>"
p5920
sS'_'
S'<function _>'
p5921
sS'H2'
p5922
S"<class 'gluon.html.H2'>"
p5923
sS'H3'
p5924
S"<class 'gluon.html.H3'>"
p5925
sS'BUTTON'
p5926
S"<class 'gluon.html.BUTTON'>"
p5927
sS'H1'
p5928
S"<class 'gluon.html.H1'>"
p5929
sS'H6'
p5930
S"<class 'gluon.html.H6'>"
p5931
sS'H4'
p5932
S"<class 'gluon.html.H4'>"
p5933
sS'H5'
p5934
S"<class 'gluon.html.H5'>"
p5935
sS'UL'
p5936
S"<class 'gluon.html.UL'>"
p5937
sS'IS_UPPER'
p5938
S"<class 'gluon.validators.IS_UPPER'>"
p5939
sS'xmlescape'
p5940
S'<function xmlescape>'
p5941
sS'IS_TIME'
p5942
S"<class 'gluon.validators.IS_TIME'>"
p5943
sS'OPTION'
p5944
S"<class 'gluon.html.OPTION'>"
p5945
sS'TITLE'
p5946
S"<class 'gluon.html.TITLE'>"
p5947
sS'CRYPT'
p5948
S"<class 'gluon.validators.CRYPT'>"
p5949
sS'IS_EMPTY_OR'
p5950
S"<class 'gluon.validators.IS_EMPTY_OR'>"
p5951
sS'MARKMIN'
p5952
S"<class 'gluon.html.MARKMIN'>"
p5953
sS'__name__'
p5954
S"'__restricted__'"
p5955
sS'STRONG'
p5956
S"<class 'gluon.html.STRONG'>"
p5957
sS'COL'
p5958
S"<class 'gluon.html.COL'>"
p5959
sS'service'
p5960
S'<gluon.tools.Service object>'
p5961
sS'SCRIPT'
p5962
S"<class 'gluon.html.SCRIPT'>"
p5963
sS'is_mobile'
p5964
g100
sS'TABLE'
p5965
S"<class 'gluon.html.TABLE'>"
p5966
sS'IS_IPV4'
p5967
S"<class 'gluon.validators.IS_IPV4'>"
p5968
sS'IS_LENGTH'
p5969
S"<class 'gluon.validators.IS_LENGTH'>"
p5970
sS'XML'
p5971
S"<class 'gluon.html.XML'>"
p5972
sS'B'
S"<class 'gluon.html.B'>"
p5973
sS'IMG'
p5974
S"<class 'gluon.html.IMG'>"
p5975
sS'SQLTABLE'
p5976
S"<class 'gluon.sqlhtml.SQLTABLE'>"
p5977
sS'IS_MATCH'
p5978
S"<class 'gluon.validators.IS_MATCH'>"
p5979
sS'IS_ALPHANUMERIC'
p5980
S"<class 'gluon.validators.IS_ALPHANUMERIC'>"
p5981
sS'SPAN'
p5982
S"<class 'gluon.html.SPAN'>"
p5983
sS'bids'
p5984
S'<Rows (1)>'
p5985
sS'IS_SLUG'
p5986
S"<class 'gluon.validators.IS_SLUG'>"
p5987
sS'BEAUTIFY'
p5988
S"<class 'gluon.html.BEAUTIFY'>"
p5989
sS'META'
p5990
S"<class 'gluon.html.META'>"
p5991
sS'items'
p5992
S'<Rows (4)>'
p5993
sS'IS_DATE'
p5994
S"<class 'gluon.validators.IS_DATE'>"
p5995
sS'IS_EMAIL'
p5996
S"<class 'gluon.validators.IS_EMAIL'>"
p5997
sS'IS_NOT_EMPTY'
p5998
S"<class 'gluon.validators.IS_NOT_EMPTY'>"
p5999
sS'IS_FLOAT_IN_RANGE'
p6000
S"<class 'gluon.validators.IS_FLOAT_IN_RANGE'>"
p6001
sS'TBODY'
p6002
S"<class 'gluon.html.TBODY'>"
p6003
sS'CAT'
p6004
S"<class 'gluon.html.CAT'>"
p6005
sS'Field'
p6006
S"<class 'gluon.dal.Field'>"
p6007
sS'middle_columns'
p6008
S"'span12'"
p6009
sS'DIV'
p6010
S"<class 'gluon.html.DIV'>"
p6011
sS'LEGEND'
p6012
S"<class 'gluon.html.LEGEND'>"
p6013
sS'COLGROUP'
p6014
S"<class 'gluon.html.COLGROUP'>"
p6015
sS'DAL'
p6016
S"<class 'gluon.dal.DAL'>"
p6017
sS'TT'
p6018
S"<class 'gluon.html.TT'>"
p6019
sS'TR'
p6020
S"<class 'gluon.html.TR'>"
p6021
sS'LI'
p6022
S"<class 'gluon.html.LI'>"
p6023
sS'right_sidebar_enabled'
p6024
g100
sS'TH'
p6025
S"<class 'gluon.html.TH'>"
p6026
sS'TD'
p6027
S"<class 'gluon.html.TD'>"
p6028
sS'PluginManager'
p6029
S"<class 'gluon.tools.PluginManager'>"
p6030
sS'IS_URL'
p6031
S"<class 'gluon.validators.IS_URL'>"
p6032
sS'A'
S"<class 'gluon.html.A'>"
p6033
sS'HEAD'
p6034
S"<class 'gluon.html.HEAD'>"
p6035
sS'IS_DATETIME_IN_RANGE'
p6036
S"<class 'gluon.validators.IS_DATETIME_IN_RANGE'>"
p6037
sS'FORM'
p6038
S"<class 'gluon.html.FORM'>"
p6039
sS'I'
S"<class 'gluon.html.I'>"
p6040
sS'crud'
p6041
S'<gluon.tools.Crud object>'
p6042
sS'IS_NOT_IN_DB'
p6043
S"<class 'gluon.validators.IS_NOT_IN_DB'>"
p6044
sg3894
S"<Storage {'body': <cStringIO.StringO object at 0...t 0x9de772c>, 'view': 'default/list_items.html'}>"
p6045
sS'THEAD'
p6046
S"<class 'gluon.html.THEAD'>"
p6047
sS'IS_NULL_OR'
p6048
S"<class 'gluon.validators.IS_EMPTY_OR'>"
p6049
sS'i'
S"<Row {'category': 'Clothing', 'name': 'Adidas Sh..., 'price': 2000, 'id': 8, 'description': 'aaaa'}>"
p6050
sg56
S"<Storage {'function': 'list_items', 'body': <cSt...plications/BuySell/', 'post_vars': <Storage {}>}>"
p6051
sS'IS_EXPR'
p6052
S"<class 'gluon.validators.IS_EXPR'>"
p6053
sS'T'
S'<gluon.languages.translator object>'
p6054
sS'IS_IN_SET'
p6055
S"<class 'gluon.validators.IS_IN_SET'>"
p6056
sS'IS_UPLOAD_FILENAME'
p6057
S"<class 'gluon.validators.IS_UPLOAD_FILENAME'>"
p6058
sS'IS_DECIMAL_IN_RANGE'
p6059
S"<class 'gluon.validators.IS_DECIMAL_IN_RANGE'>"
p6060
sssS'traceback'
p6061
S'Traceback (most recent call last):\n  File "/home/pratyush/web2py/gluon/restricted.py", line 212, in restricted\n    exec ccode in environment\n  File "/home/pratyush/web2py/applications/BuySell/views/default/list_items.html", line 85, in <module>\nNameError: name \'item\' is not defined\n'
p6062
s.