(dp1
S'output'
p2
S"<type 'exceptions.SyntaxError'> invalid syntax (default.py, line 115)"
p3
sS'layer'
p4
S'/home/pratyush/web2py/applications/BuySell/controllers/default.py'
p5
sS'code'
p6
S'# -*- coding: utf-8 -*-\n# this file is released under public domain and you can use without limitations\n\n#########################################################################\n## This is a samples controller\n## - index is the default action of any application\n## - user is required for authentication and authorization\n## - download is for downloading files uploaded in the db (does streaming)\n## - call exposes all registered services (none by default)\n#########################################################################\n\n\ndef index():\n    """\n    example action using the internationalization operator T and flash\n    rendered by views/default/index.html or views/generic.html\n\n    if you need a simple wiki simple replace the two lines below with:\n    return auth.wiki()\n    """\n    response.flash = T("Welcome to web2py!")\n    return dict(message=T(\'Hello World\'))\n\n\ndef user():\n    """\n    exposes:\n    http://..../[app]/default/user/login\n    http://..../[app]/default/user/logout\n    http://..../[app]/default/user/register\n    http://..../[app]/default/user/profile\n    http://..../[app]/default/user/retrieve_password\n    http://..../[app]/default/user/change_password\n    use @auth.requires_login()\n        @auth.requires_membership(\'group name\')\n        @auth.requires_permission(\'read\',\'table name\',record_id)\n    to decorate functions that need access control\n    """\n    return dict(form=auth())\n\n\ndef download():\n    """\n    allows downloading of uploaded files\n    http://..../[app]/default/download/[filename]\n    """\n    return response.download(request, db)\n\n\ndef call():\n    """\n    exposes services. for example:\n    http://..../[app]/default/call/jsonrpc\n    decorate with @services.jsonrpc the functions to expose\n    supports xml, json, xmlrpc, jsonrpc, amfrpc, rss, csv\n    """\n    return service()\n\n\n@auth.requires_signature()\ndef data():\n    """\n    http://..../[app]/default/data/tables\n    http://..../[app]/default/data/create/[table]\n    http://..../[app]/default/data/read/[table]/[id]\n    http://..../[app]/default/data/update/[table]/[id]\n    http://..../[app]/default/data/delete/[table]/[id]\n    http://..../[app]/default/data/select/[table]\n    http://..../[app]/default/data/search/[table]\n    but URLs must be signed, i.e. linked with\n      A(\'table\',_href=URL(\'data/tables\',user_signature=True))\n    or with the signed load operator\n      LOAD(\'default\',\'data.load\',args=\'tables\',ajax=True,user_signature=True)\n    """\n    return dict(form=crud())\n\n@auth.requires_login()\ndef list_items():\n    #items = db().select(db.item.ALL)\n    \n    name=TD(\'Search item:\')\n    namebox=TD(INPUT(_id=\'item_title\',_name=\'item[name]\',_size=\'50\',_type=\'text\',requires=IS_NOT_EMPTY()),DIV_class=\'auto_complete\',_id=\'item_name_auto_complete\')   \n    submit=TD(INPUT(_type=\'submit\',_name=\'submit\',_value=\'Submit\'))\n    #descr=TD(\'Search Publication(s) by Author:\')\n    #descrbox=TD(INPUT(_id=\'_des\',_name=\'music[descr]\',_size=\'30\',_type=\'text\'),DIV(_class=\'auto_complete\',_id=\'movie_descr_auto_complete\'))\n    \n    form1=FORM(TABLE(TR(name,namebox,submit)))\n    \n    items=db().select(db.item.ALL,orderby=db.item.name)\n    \n    if form1.accepts(request.vars,session):\n        search=request.vars[\'item[name]\']\n        items=db(db.item.name.upper().like(\'%\'+search.upper()+\'%\')).select(db.item.ALL,orderby=db.item.name)\n\n    return dict(form1=form1,items=items)\n\n@auth.requires_login()\ndef item_d():\n    item=db(request.args(0)==db.item.id).select(db.item.ALL).first()\n    seller = db(item.seller==db.auth_user).select(db.auth_user.ALL).first()\n    return dict(item=item,seller=seller)\n\n@auth.requires_login()\ndef seller():\n    seller = db(request.args(0)==db.auth_user.id).select(db.auth_user.ALL).first()\n    \n    avg = 0\n    count = 0\n    sellr = db(request.args(0)==db.rating.seller).select(db.rating.ALL)\n    for i in sellr:\n        avg = avg + int(i.rate)\n        count = count + 1\n    if count > 0:\n        av = (float(avg)/float(count))\n    else\n        av = 0.0\n    \n    form = SQLFORM(db.rating)\n    \n    form.vars.seller = request.args(0)\n    \n    if form.accepts(request.vars):\n        response.flash = \'Success\\n\'\n    return dict(av=av,seller=seller,form=form)\n\n@auth.requires_login()\ndef add_item():\n    form = SQLFORM(db.item)\n    if form.accepts(request.vars):\n        response.flash = \'Success\\n\'\n    return dict(form=form)\n\n@auth.requires_login()\ndef listed_items():\n    seller = db(db.auth_user.id==db.item.seller).select(db.item.ALL)\n    return dict(seller=seller)\nresponse._vars=response._caller(seller)\n'
p7
sS'snapshot'
p8
(dp9
S'exception'
p10
(dp11
S'__getslice__'
p12
S"<method-wrapper '__getslice__' of exceptions.SyntaxError object>"
p13
sS'text'
p14
S"'    else\\n'"
p15
sS'__str__'
p16
S"<method-wrapper '__str__' of exceptions.SyntaxError object>"
p17
sS'__reduce__'
p18
S'<built-in method __reduce__ of exceptions.SyntaxError object>'
p19
sS'__dict__'
p20
S'{}'
p21
sS'__sizeof__'
p22
S'<built-in method __sizeof__ of exceptions.SyntaxError object>'
p23
sS'__init__'
p24
S"<method-wrapper '__init__' of exceptions.SyntaxError object>"
p25
sS'__setattr__'
p26
S"<method-wrapper '__setattr__' of exceptions.SyntaxError object>"
p27
sS'__reduce_ex__'
p28
S'<built-in method __reduce_ex__ of exceptions.SyntaxError object>'
p29
sS'__new__'
p30
S'<built-in method __new__ of type object>'
p31
sS'__format__'
p32
S'<built-in method __format__ of exceptions.SyntaxError object>'
p33
sS'__class__'
p34
S"<type 'exceptions.SyntaxError'>"
p35
sS'filename'
p36
S"'/home/pratyush/web2py/applications/BuySell/controllers/default.py'"
p37
sS'lineno'
p38
S'115'
p39
sS'msg'
p40
S"'invalid syntax'"
p41
sS'__doc__'
p42
S"'Invalid syntax.'"
p43
sS'__getitem__'
p44
S"<method-wrapper '__getitem__' of exceptions.SyntaxError object>"
p45
sS'__setstate__'
p46
S'<built-in method __setstate__ of exceptions.SyntaxError object>'
p47
sS'__getattribute__'
p48
S"<method-wrapper '__getattribute__' of exceptions.SyntaxError object>"
p49
sS'print_file_and_line'
p50
S'None'
p51
sS'args'
p52
S"('invalid syntax', ('/home/pratyush/web2py/applications/BuySell/controllers/default.py', 115, 9, '    else\\n'))"
p53
sS'__subclasshook__'
p54
S'<built-in method __subclasshook__ of type object>'
p55
sS'offset'
p56
S'9'
sS'__unicode__'
p57
S'<built-in method __unicode__ of exceptions.SyntaxError object>'
p58
sS'__delattr__'
p59
S"<method-wrapper '__delattr__' of exceptions.SyntaxError object>"
p60
sS'__repr__'
p61
S"<method-wrapper '__repr__' of exceptions.SyntaxError object>"
p62
sS'__hash__'
p63
S"<method-wrapper '__hash__' of exceptions.SyntaxError object>"
p64
ssS'evalue'
p65
S'invalid syntax (default.py, line 115)'
p66
sS'request'
p67
ccopy_reg
_reconstructor
p68
(cgluon.html
BEAUTIFY
p69
c__builtin__
object
p70
NtRp71
(dp72
S'attributes'
p73
(dp74
sS'components'
p75
(lp76
g68
(cgluon.html
TABLE
p77
g70
NtRp78
(dp79
g73
(dp80
S'level'
p81
I5
ssS'parent'
p82
Nsg75
(lp83
g68
(cgluon.html
TR
p84
g70
NtRp85
(dp86
g73
(dp87
sg82
g78
sg75
(lp88
g68
(cgluon.html
TD
p89
g70
NtRp90
(dp91
g73
(dp92
S'_style'
p93
S'font-weight:bold;vertical-align:top'
p94
ssg82
g85
sg75
(lp95
S'ajax'
p96
asbag68
(g89
g70
NtRp97
(dp98
g73
(dp99
S'_valign'
p100
S'top'
p101
ssg82
g85
sg75
(lp102
S':'
asbag68
(g89
g70
NtRp103
(dp104
g73
(dp105
sg82
g85
sg75
(lp106
g68
(g69
g70
NtRp107
(dp108
g73
(dp109
g81
I5
ssg82
g103
sg75
(lp110
S'False'
p111
asbasbasbag68
(g84
g70
NtRp112
(dp113
g73
(dp114
sg82
g78
sg75
(lp115
g68
(g89
g70
NtRp116
(dp117
g73
(dp118
g93
g94
ssg82
g112
sg75
(lp119
S'application'
p120
asbag68
(g89
g70
NtRp121
(dp122
g73
(dp123
g100
g101
ssg82
g112
sg75
(lp124
S':'
asbag68
(g89
g70
NtRp125
(dp126
g73
(dp127
sg82
g112
sg75
(lp128
g68
(g69
g70
NtRp129
(dp130
g73
(dp131
g81
I5
ssg82
g125
sg75
(lp132
S'BuySell'
p133
asbasbasbag68
(g84
g70
NtRp134
(dp135
g73
(dp136
sg82
g78
sg75
(lp137
g68
(g89
g70
NtRp138
(dp139
g73
(dp140
g93
g94
ssg82
g134
sg75
(lp141
g52
asbag68
(g89
g70
NtRp142
(dp143
g73
(dp144
g100
g101
ssg82
g134
sg75
(lp145
S':'
asbag68
(g89
g70
NtRp146
(dp147
g73
(dp148
sg82
g134
sg75
(lp149
g68
(g69
g70
NtRp150
(dp151
g73
(dp152
g81
I5
ssg82
g146
sg75
(lp153
g68
(g77
g70
NtRp154
(dp155
g73
(dp156
g81
I4
ssg82
Nsg75
(lp157
g68
(g84
g70
NtRp158
(dp159
g73
(dp160
sg82
g154
sg75
(lp161
g68
(g89
g70
NtRp162
(dp163
g73
(dp164
sg82
g158
sg75
(lp165
g68
(g69
g70
NtRp166
(dp167
g73
(dp168
g81
I4
ssg82
g162
sg75
(lp169
S'1'
asbasbasbasbasbasbasbag68
(g84
g70
NtRp170
(dp171
g73
(dp172
sg82
g78
sg75
(lp173
g68
(g89
g70
NtRp174
(dp175
g73
(dp176
g93
g94
ssg82
g170
sg75
(lp177
S'body'
p178
asbag68
(g89
g70
NtRp179
(dp180
g73
(dp181
g100
g101
ssg82
g170
sg75
(lp182
S':'
asbag68
(g89
g70
NtRp183
(dp184
g73
(dp185
sg82
g170
sg75
(lp186
g68
(g69
g70
NtRp187
(dp188
g73
(dp189
g81
I5
ssg82
g183
sg75
(lp190
S'<cStringIO.StringO object at 0xb27ade0>'
p191
asbasbasbag68
(g84
g70
NtRp192
(dp193
g73
(dp194
sg82
g78
sg75
(lp195
g68
(g89
g70
NtRp196
(dp197
g73
(dp198
g93
g94
ssg82
g192
sg75
(lp199
S'cid'
p200
asbag68
(g89
g70
NtRp201
(dp202
g73
(dp203
g100
g101
ssg82
g192
sg75
(lp204
S':'
asbag68
(g89
g70
NtRp205
(dp206
g73
(dp207
sg82
g192
sg75
(lp208
g68
(g69
g70
NtRp209
(dp210
g73
(dp211
g81
I5
ssg82
g205
sg75
(lp212
S'None'
p213
asbasbasbag68
(g84
g70
NtRp214
(dp215
g73
(dp216
sg82
g78
sg75
(lp217
g68
(g89
g70
NtRp218
(dp219
g73
(dp220
g93
g94
ssg82
g214
sg75
(lp221
S'client'
p222
asbag68
(g89
g70
NtRp223
(dp224
g73
(dp225
g100
g101
ssg82
g214
sg75
(lp226
S':'
asbag68
(g89
g70
NtRp227
(dp228
g73
(dp229
sg82
g214
sg75
(lp230
g68
(g69
g70
NtRp231
(dp232
g73
(dp233
g81
I5
ssg82
g227
sg75
(lp234
S'127.0.0.1'
p235
asbasbasbag68
(g84
g70
NtRp236
(dp237
g73
(dp238
sg82
g78
sg75
(lp239
g68
(g89
g70
NtRp240
(dp241
g73
(dp242
g93
g94
ssg82
g236
sg75
(lp243
S'controller'
p244
asbag68
(g89
g70
NtRp245
(dp246
g73
(dp247
g100
g101
ssg82
g236
sg75
(lp248
S':'
asbag68
(g89
g70
NtRp249
(dp250
g73
(dp251
sg82
g236
sg75
(lp252
g68
(g69
g70
NtRp253
(dp254
g73
(dp255
g81
I5
ssg82
g249
sg75
(lp256
S'default'
p257
asbasbasbag68
(g84
g70
NtRp258
(dp259
g73
(dp260
sg82
g78
sg75
(lp261
g68
(g89
g70
NtRp262
(dp263
g73
(dp264
g93
g94
ssg82
g258
sg75
(lp265
S'cookies'
p266
asbag68
(g89
g70
NtRp267
(dp268
g73
(dp269
g100
g101
ssg82
g258
sg75
(lp270
S':'
asbag68
(g89
g70
NtRp271
(dp272
g73
(dp273
sg82
g258
sg75
(lp274
g68
(g69
g70
NtRp275
(dp276
g73
(dp277
g81
I5
ssg82
g271
sg75
(lp278
g68
(g77
g70
NtRp279
(dp280
g73
(dp281
g81
I4
ssg82
Nsg75
(lp282
g68
(g84
g70
NtRp283
(dp284
g73
(dp285
sg82
g279
sg75
(lp286
g68
(g89
g70
NtRp287
(dp288
g73
(dp289
g93
g94
ssg82
g283
sg75
(lp290
S'registered'
p291
asbag68
(g89
g70
NtRp292
(dp293
g73
(dp294
g100
g101
ssg82
g283
sg75
(lp295
S':'
asbag68
(g89
g70
NtRp296
(dp297
g73
(dp298
sg82
g283
sg75
(lp299
g68
(g69
g70
NtRp300
(dp301
g73
(dp302
g81
I4
ssg82
g296
sg75
(lp303
S'yes'
p304
ag68
(g77
g70
NtRp305
(dp306
g73
(dp307
g81
I3
ssg82
Nsg75
(lp308
g68
(g84
g70
NtRp309
(dp310
g73
(dp311
sg82
g305
sg75
(lp312
g68
(g89
g70
NtRp313
(dp314
g73
(dp315
g93
g94
ssg82
g309
sg75
(lp316
S'comment'
p317
asbag68
(g89
g70
NtRp318
(dp319
g73
(dp320
g100
g101
ssg82
g309
sg75
(lp321
S':'
asbag68
(g89
g70
NtRp322
(dp323
g73
(dp324
sg82
g309
sg75
(lp325
g68
(g69
g70
NtRp326
(dp327
g73
(dp328
g81
I3
ssg82
g322
sg75
(lp329
S''
asbasbasbag68
(g84
g70
NtRp330
(dp331
g73
(dp332
sg82
g305
sg75
(lp333
g68
(g89
g70
NtRp334
(dp335
g73
(dp336
g93
g94
ssg82
g330
sg75
(lp337
S'domain'
p338
asbag68
(g89
g70
NtRp339
(dp340
g73
(dp341
g100
g101
ssg82
g330
sg75
(lp342
S':'
asbag68
(g89
g70
NtRp343
(dp344
g73
(dp345
sg82
g330
sg75
(lp346
g68
(g69
g70
NtRp347
(dp348
g73
(dp349
g81
I3
ssg82
g343
sg75
(lp350
S''
asbasbasbag68
(g84
g70
NtRp351
(dp352
g73
(dp353
sg82
g305
sg75
(lp354
g68
(g89
g70
NtRp355
(dp356
g73
(dp357
g93
g94
ssg82
g351
sg75
(lp358
S'expires'
p359
asbag68
(g89
g70
NtRp360
(dp361
g73
(dp362
g100
g101
ssg82
g351
sg75
(lp363
S':'
asbag68
(g89
g70
NtRp364
(dp365
g73
(dp366
sg82
g351
sg75
(lp367
g68
(g69
g70
NtRp368
(dp369
g73
(dp370
g81
I3
ssg82
g364
sg75
(lp371
S''
asbasbasbag68
(g84
g70
NtRp372
(dp373
g73
(dp374
sg82
g305
sg75
(lp375
g68
(g89
g70
NtRp376
(dp377
g73
(dp378
g93
g94
ssg82
g372
sg75
(lp379
S'httponly'
p380
asbag68
(g89
g70
NtRp381
(dp382
g73
(dp383
g100
g101
ssg82
g372
sg75
(lp384
S':'
asbag68
(g89
g70
NtRp385
(dp386
g73
(dp387
sg82
g372
sg75
(lp388
g68
(g69
g70
NtRp389
(dp390
g73
(dp391
g81
I3
ssg82
g385
sg75
(lp392
S''
asbasbasbag68
(g84
g70
NtRp393
(dp394
g73
(dp395
sg82
g305
sg75
(lp396
g68
(g89
g70
NtRp397
(dp398
g73
(dp399
g93
g94
ssg82
g393
sg75
(lp400
S'max-age'
p401
asbag68
(g89
g70
NtRp402
(dp403
g73
(dp404
g100
g101
ssg82
g393
sg75
(lp405
S':'
asbag68
(g89
g70
NtRp406
(dp407
g73
(dp408
sg82
g393
sg75
(lp409
g68
(g69
g70
NtRp410
(dp411
g73
(dp412
g81
I3
ssg82
g406
sg75
(lp413
S''
asbasbasbag68
(g84
g70
NtRp414
(dp415
g73
(dp416
sg82
g305
sg75
(lp417
g68
(g89
g70
NtRp418
(dp419
g73
(dp420
g93
g94
ssg82
g414
sg75
(lp421
S'path'
p422
asbag68
(g89
g70
NtRp423
(dp424
g73
(dp425
g100
g101
ssg82
g414
sg75
(lp426
S':'
asbag68
(g89
g70
NtRp427
(dp428
g73
(dp429
sg82
g414
sg75
(lp430
g68
(g69
g70
NtRp431
(dp432
g73
(dp433
g81
I3
ssg82
g427
sg75
(lp434
S''
asbasbasbag68
(g84
g70
NtRp435
(dp436
g73
(dp437
sg82
g305
sg75
(lp438
g68
(g89
g70
NtRp439
(dp440
g73
(dp441
g93
g94
ssg82
g435
sg75
(lp442
S'secure'
p443
asbag68
(g89
g70
NtRp444
(dp445
g73
(dp446
g100
g101
ssg82
g435
sg75
(lp447
S':'
asbag68
(g89
g70
NtRp448
(dp449
g73
(dp450
sg82
g435
sg75
(lp451
g68
(g69
g70
NtRp452
(dp453
g73
(dp454
g81
I3
ssg82
g448
sg75
(lp455
S''
asbasbasbag68
(g84
g70
NtRp456
(dp457
g73
(dp458
sg82
g305
sg75
(lp459
g68
(g89
g70
NtRp460
(dp461
g73
(dp462
g93
g94
ssg82
g456
sg75
(lp463
S'version'
p464
asbag68
(g89
g70
NtRp465
(dp466
g73
(dp467
g100
g101
ssg82
g456
sg75
(lp468
S':'
asbag68
(g89
g70
NtRp469
(dp470
g73
(dp471
sg82
g456
sg75
(lp472
g68
(g69
g70
NtRp473
(dp474
g73
(dp475
g81
I3
ssg82
g469
sg75
(lp476
S''
asbasbasbasbasbasbasbag68
(g84
g70
NtRp477
(dp478
g73
(dp479
sg82
g279
sg75
(lp480
g68
(g89
g70
NtRp481
(dp482
g73
(dp483
g93
g94
ssg82
g477
sg75
(lp484
S'session_id_admin'
p485
asbag68
(g89
g70
NtRp486
(dp487
g73
(dp488
g100
g101
ssg82
g477
sg75
(lp489
S':'
asbag68
(g89
g70
NtRp490
(dp491
g73
(dp492
sg82
g477
sg75
(lp493
g68
(g69
g70
NtRp494
(dp495
g73
(dp496
g81
I4
ssg82
g490
sg75
(lp497
S'127.0.0.1-5c3e6318-3a14-4ff1-97a6-1063e44c4cd9'
p498
ag68
(g77
g70
NtRp499
(dp500
g73
(dp501
g81
I3
ssg82
Nsg75
(lp502
g68
(g84
g70
NtRp503
(dp504
g73
(dp505
sg82
g499
sg75
(lp506
g68
(g89
g70
NtRp507
(dp508
g73
(dp509
g93
g94
ssg82
g503
sg75
(lp510
g317
asbag68
(g89
g70
NtRp511
(dp512
g73
(dp513
g100
g101
ssg82
g503
sg75
(lp514
S':'
asbag68
(g89
g70
NtRp515
(dp516
g73
(dp517
sg82
g503
sg75
(lp518
g68
(g69
g70
NtRp519
(dp520
g73
(dp521
g81
I3
ssg82
g515
sg75
(lp522
S''
asbasbasbag68
(g84
g70
NtRp523
(dp524
g73
(dp525
sg82
g499
sg75
(lp526
g68
(g89
g70
NtRp527
(dp528
g73
(dp529
g93
g94
ssg82
g523
sg75
(lp530
g338
asbag68
(g89
g70
NtRp531
(dp532
g73
(dp533
g100
g101
ssg82
g523
sg75
(lp534
S':'
asbag68
(g89
g70
NtRp535
(dp536
g73
(dp537
sg82
g523
sg75
(lp538
g68
(g69
g70
NtRp539
(dp540
g73
(dp541
g81
I3
ssg82
g535
sg75
(lp542
S''
asbasbasbag68
(g84
g70
NtRp543
(dp544
g73
(dp545
sg82
g499
sg75
(lp546
g68
(g89
g70
NtRp547
(dp548
g73
(dp549
g93
g94
ssg82
g543
sg75
(lp550
g359
asbag68
(g89
g70
NtRp551
(dp552
g73
(dp553
g100
g101
ssg82
g543
sg75
(lp554
S':'
asbag68
(g89
g70
NtRp555
(dp556
g73
(dp557
sg82
g543
sg75
(lp558
g68
(g69
g70
NtRp559
(dp560
g73
(dp561
g81
I3
ssg82
g555
sg75
(lp562
S''
asbasbasbag68
(g84
g70
NtRp563
(dp564
g73
(dp565
sg82
g499
sg75
(lp566
g68
(g89
g70
NtRp567
(dp568
g73
(dp569
g93
g94
ssg82
g563
sg75
(lp570
g380
asbag68
(g89
g70
NtRp571
(dp572
g73
(dp573
g100
g101
ssg82
g563
sg75
(lp574
S':'
asbag68
(g89
g70
NtRp575
(dp576
g73
(dp577
sg82
g563
sg75
(lp578
g68
(g69
g70
NtRp579
(dp580
g73
(dp581
g81
I3
ssg82
g575
sg75
(lp582
S''
asbasbasbag68
(g84
g70
NtRp583
(dp584
g73
(dp585
sg82
g499
sg75
(lp586
g68
(g89
g70
NtRp587
(dp588
g73
(dp589
g93
g94
ssg82
g583
sg75
(lp590
g401
asbag68
(g89
g70
NtRp591
(dp592
g73
(dp593
g100
g101
ssg82
g583
sg75
(lp594
S':'
asbag68
(g89
g70
NtRp595
(dp596
g73
(dp597
sg82
g583
sg75
(lp598
g68
(g69
g70
NtRp599
(dp600
g73
(dp601
g81
I3
ssg82
g595
sg75
(lp602
S''
asbasbasbag68
(g84
g70
NtRp603
(dp604
g73
(dp605
sg82
g499
sg75
(lp606
g68
(g89
g70
NtRp607
(dp608
g73
(dp609
g93
g94
ssg82
g603
sg75
(lp610
g422
asbag68
(g89
g70
NtRp611
(dp612
g73
(dp613
g100
g101
ssg82
g603
sg75
(lp614
S':'
asbag68
(g89
g70
NtRp615
(dp616
g73
(dp617
sg82
g603
sg75
(lp618
g68
(g69
g70
NtRp619
(dp620
g73
(dp621
g81
I3
ssg82
g615
sg75
(lp622
S''
asbasbasbag68
(g84
g70
NtRp623
(dp624
g73
(dp625
sg82
g499
sg75
(lp626
g68
(g89
g70
NtRp627
(dp628
g73
(dp629
g93
g94
ssg82
g623
sg75
(lp630
g443
asbag68
(g89
g70
NtRp631
(dp632
g73
(dp633
g100
g101
ssg82
g623
sg75
(lp634
S':'
asbag68
(g89
g70
NtRp635
(dp636
g73
(dp637
sg82
g623
sg75
(lp638
g68
(g69
g70
NtRp639
(dp640
g73
(dp641
g81
I3
ssg82
g635
sg75
(lp642
S''
asbasbasbag68
(g84
g70
NtRp643
(dp644
g73
(dp645
sg82
g499
sg75
(lp646
g68
(g89
g70
NtRp647
(dp648
g73
(dp649
g93
g94
ssg82
g643
sg75
(lp650
g464
asbag68
(g89
g70
NtRp651
(dp652
g73
(dp653
g100
g101
ssg82
g643
sg75
(lp654
S':'
asbag68
(g89
g70
NtRp655
(dp656
g73
(dp657
sg82
g643
sg75
(lp658
g68
(g69
g70
NtRp659
(dp660
g73
(dp661
g81
I3
ssg82
g655
sg75
(lp662
S''
asbasbasbasbasbasbasbag68
(g84
g70
NtRp663
(dp664
g73
(dp665
sg82
g279
sg75
(lp666
g68
(g89
g70
NtRp667
(dp668
g73
(dp669
g93
g94
ssg82
g663
sg75
(lp670
S'session_id_buysell'
p671
asbag68
(g89
g70
NtRp672
(dp673
g73
(dp674
g100
g101
ssg82
g663
sg75
(lp675
S':'
asbag68
(g89
g70
NtRp676
(dp677
g73
(dp678
sg82
g663
sg75
(lp679
g68
(g69
g70
NtRp680
(dp681
g73
(dp682
g81
I4
ssg82
g676
sg75
(lp683
S'127.0.0.1-d5a07803-4f5c-44c8-b05d-2876d30ca822'
p684
ag68
(g77
g70
NtRp685
(dp686
g73
(dp687
g81
I3
ssg82
Nsg75
(lp688
g68
(g84
g70
NtRp689
(dp690
g73
(dp691
sg82
g685
sg75
(lp692
g68
(g89
g70
NtRp693
(dp694
g73
(dp695
g93
g94
ssg82
g689
sg75
(lp696
g317
asbag68
(g89
g70
NtRp697
(dp698
g73
(dp699
g100
g101
ssg82
g689
sg75
(lp700
S':'
asbag68
(g89
g70
NtRp701
(dp702
g73
(dp703
sg82
g689
sg75
(lp704
g68
(g69
g70
NtRp705
(dp706
g73
(dp707
g81
I3
ssg82
g701
sg75
(lp708
S''
asbasbasbag68
(g84
g70
NtRp709
(dp710
g73
(dp711
sg82
g685
sg75
(lp712
g68
(g89
g70
NtRp713
(dp714
g73
(dp715
g93
g94
ssg82
g709
sg75
(lp716
g338
asbag68
(g89
g70
NtRp717
(dp718
g73
(dp719
g100
g101
ssg82
g709
sg75
(lp720
S':'
asbag68
(g89
g70
NtRp721
(dp722
g73
(dp723
sg82
g709
sg75
(lp724
g68
(g69
g70
NtRp725
(dp726
g73
(dp727
g81
I3
ssg82
g721
sg75
(lp728
S''
asbasbasbag68
(g84
g70
NtRp729
(dp730
g73
(dp731
sg82
g685
sg75
(lp732
g68
(g89
g70
NtRp733
(dp734
g73
(dp735
g93
g94
ssg82
g729
sg75
(lp736
g359
asbag68
(g89
g70
NtRp737
(dp738
g73
(dp739
g100
g101
ssg82
g729
sg75
(lp740
S':'
asbag68
(g89
g70
NtRp741
(dp742
g73
(dp743
sg82
g729
sg75
(lp744
g68
(g69
g70
NtRp745
(dp746
g73
(dp747
g81
I3
ssg82
g741
sg75
(lp748
S''
asbasbasbag68
(g84
g70
NtRp749
(dp750
g73
(dp751
sg82
g685
sg75
(lp752
g68
(g89
g70
NtRp753
(dp754
g73
(dp755
g93
g94
ssg82
g749
sg75
(lp756
g380
asbag68
(g89
g70
NtRp757
(dp758
g73
(dp759
g100
g101
ssg82
g749
sg75
(lp760
S':'
asbag68
(g89
g70
NtRp761
(dp762
g73
(dp763
sg82
g749
sg75
(lp764
g68
(g69
g70
NtRp765
(dp766
g73
(dp767
g81
I3
ssg82
g761
sg75
(lp768
S''
asbasbasbag68
(g84
g70
NtRp769
(dp770
g73
(dp771
sg82
g685
sg75
(lp772
g68
(g89
g70
NtRp773
(dp774
g73
(dp775
g93
g94
ssg82
g769
sg75
(lp776
g401
asbag68
(g89
g70
NtRp777
(dp778
g73
(dp779
g100
g101
ssg82
g769
sg75
(lp780
S':'
asbag68
(g89
g70
NtRp781
(dp782
g73
(dp783
sg82
g769
sg75
(lp784
g68
(g69
g70
NtRp785
(dp786
g73
(dp787
g81
I3
ssg82
g781
sg75
(lp788
S''
asbasbasbag68
(g84
g70
NtRp789
(dp790
g73
(dp791
sg82
g685
sg75
(lp792
g68
(g89
g70
NtRp793
(dp794
g73
(dp795
g93
g94
ssg82
g789
sg75
(lp796
g422
asbag68
(g89
g70
NtRp797
(dp798
g73
(dp799
g100
g101
ssg82
g789
sg75
(lp800
S':'
asbag68
(g89
g70
NtRp801
(dp802
g73
(dp803
sg82
g789
sg75
(lp804
g68
(g69
g70
NtRp805
(dp806
g73
(dp807
g81
I3
ssg82
g801
sg75
(lp808
S''
asbasbasbag68
(g84
g70
NtRp809
(dp810
g73
(dp811
sg82
g685
sg75
(lp812
g68
(g89
g70
NtRp813
(dp814
g73
(dp815
g93
g94
ssg82
g809
sg75
(lp816
g443
asbag68
(g89
g70
NtRp817
(dp818
g73
(dp819
g100
g101
ssg82
g809
sg75
(lp820
S':'
asbag68
(g89
g70
NtRp821
(dp822
g73
(dp823
sg82
g809
sg75
(lp824
g68
(g69
g70
NtRp825
(dp826
g73
(dp827
g81
I3
ssg82
g821
sg75
(lp828
S''
asbasbasbag68
(g84
g70
NtRp829
(dp830
g73
(dp831
sg82
g685
sg75
(lp832
g68
(g89
g70
NtRp833
(dp834
g73
(dp835
g93
g94
ssg82
g829
sg75
(lp836
g464
asbag68
(g89
g70
NtRp837
(dp838
g73
(dp839
g100
g101
ssg82
g829
sg75
(lp840
S':'
asbag68
(g89
g70
NtRp841
(dp842
g73
(dp843
sg82
g829
sg75
(lp844
g68
(g69
g70
NtRp845
(dp846
g73
(dp847
g81
I3
ssg82
g841
sg75
(lp848
S''
asbasbasbasbasbasbasbag68
(g84
g70
NtRp849
(dp850
g73
(dp851
sg82
g279
sg75
(lp852
g68
(g89
g70
NtRp853
(dp854
g73
(dp855
g93
g94
ssg82
g849
sg75
(lp856
S'session_id_music_library'
p857
asbag68
(g89
g70
NtRp858
(dp859
g73
(dp860
g100
g101
ssg82
g849
sg75
(lp861
S':'
asbag68
(g89
g70
NtRp862
(dp863
g73
(dp864
sg82
g849
sg75
(lp865
g68
(g69
g70
NtRp866
(dp867
g73
(dp868
g81
I4
ssg82
g862
sg75
(lp869
S'127.0.0.1-dd9b4880-33cf-4894-a8a9-2640c5c78a01'
p870
ag68
(g77
g70
NtRp871
(dp872
g73
(dp873
g81
I3
ssg82
Nsg75
(lp874
g68
(g84
g70
NtRp875
(dp876
g73
(dp877
sg82
g871
sg75
(lp878
g68
(g89
g70
NtRp879
(dp880
g73
(dp881
g93
g94
ssg82
g875
sg75
(lp882
g317
asbag68
(g89
g70
NtRp883
(dp884
g73
(dp885
g100
g101
ssg82
g875
sg75
(lp886
S':'
asbag68
(g89
g70
NtRp887
(dp888
g73
(dp889
sg82
g875
sg75
(lp890
g68
(g69
g70
NtRp891
(dp892
g73
(dp893
g81
I3
ssg82
g887
sg75
(lp894
S''
asbasbasbag68
(g84
g70
NtRp895
(dp896
g73
(dp897
sg82
g871
sg75
(lp898
g68
(g89
g70
NtRp899
(dp900
g73
(dp901
g93
g94
ssg82
g895
sg75
(lp902
g338
asbag68
(g89
g70
NtRp903
(dp904
g73
(dp905
g100
g101
ssg82
g895
sg75
(lp906
S':'
asbag68
(g89
g70
NtRp907
(dp908
g73
(dp909
sg82
g895
sg75
(lp910
g68
(g69
g70
NtRp911
(dp912
g73
(dp913
g81
I3
ssg82
g907
sg75
(lp914
S''
asbasbasbag68
(g84
g70
NtRp915
(dp916
g73
(dp917
sg82
g871
sg75
(lp918
g68
(g89
g70
NtRp919
(dp920
g73
(dp921
g93
g94
ssg82
g915
sg75
(lp922
g359
asbag68
(g89
g70
NtRp923
(dp924
g73
(dp925
g100
g101
ssg82
g915
sg75
(lp926
S':'
asbag68
(g89
g70
NtRp927
(dp928
g73
(dp929
sg82
g915
sg75
(lp930
g68
(g69
g70
NtRp931
(dp932
g73
(dp933
g81
I3
ssg82
g927
sg75
(lp934
S''
asbasbasbag68
(g84
g70
NtRp935
(dp936
g73
(dp937
sg82
g871
sg75
(lp938
g68
(g89
g70
NtRp939
(dp940
g73
(dp941
g93
g94
ssg82
g935
sg75
(lp942
g380
asbag68
(g89
g70
NtRp943
(dp944
g73
(dp945
g100
g101
ssg82
g935
sg75
(lp946
S':'
asbag68
(g89
g70
NtRp947
(dp948
g73
(dp949
sg82
g935
sg75
(lp950
g68
(g69
g70
NtRp951
(dp952
g73
(dp953
g81
I3
ssg82
g947
sg75
(lp954
S''
asbasbasbag68
(g84
g70
NtRp955
(dp956
g73
(dp957
sg82
g871
sg75
(lp958
g68
(g89
g70
NtRp959
(dp960
g73
(dp961
g93
g94
ssg82
g955
sg75
(lp962
g401
asbag68
(g89
g70
NtRp963
(dp964
g73
(dp965
g100
g101
ssg82
g955
sg75
(lp966
S':'
asbag68
(g89
g70
NtRp967
(dp968
g73
(dp969
sg82
g955
sg75
(lp970
g68
(g69
g70
NtRp971
(dp972
g73
(dp973
g81
I3
ssg82
g967
sg75
(lp974
S''
asbasbasbag68
(g84
g70
NtRp975
(dp976
g73
(dp977
sg82
g871
sg75
(lp978
g68
(g89
g70
NtRp979
(dp980
g73
(dp981
g93
g94
ssg82
g975
sg75
(lp982
g422
asbag68
(g89
g70
NtRp983
(dp984
g73
(dp985
g100
g101
ssg82
g975
sg75
(lp986
S':'
asbag68
(g89
g70
NtRp987
(dp988
g73
(dp989
sg82
g975
sg75
(lp990
g68
(g69
g70
NtRp991
(dp992
g73
(dp993
g81
I3
ssg82
g987
sg75
(lp994
S''
asbasbasbag68
(g84
g70
NtRp995
(dp996
g73
(dp997
sg82
g871
sg75
(lp998
g68
(g89
g70
NtRp999
(dp1000
g73
(dp1001
g93
g94
ssg82
g995
sg75
(lp1002
g443
asbag68
(g89
g70
NtRp1003
(dp1004
g73
(dp1005
g100
g101
ssg82
g995
sg75
(lp1006
S':'
asbag68
(g89
g70
NtRp1007
(dp1008
g73
(dp1009
sg82
g995
sg75
(lp1010
g68
(g69
g70
NtRp1011
(dp1012
g73
(dp1013
g81
I3
ssg82
g1007
sg75
(lp1014
S''
asbasbasbag68
(g84
g70
NtRp1015
(dp1016
g73
(dp1017
sg82
g871
sg75
(lp1018
g68
(g89
g70
NtRp1019
(dp1020
g73
(dp1021
g93
g94
ssg82
g1015
sg75
(lp1022
g464
asbag68
(g89
g70
NtRp1023
(dp1024
g73
(dp1025
g100
g101
ssg82
g1015
sg75
(lp1026
S':'
asbag68
(g89
g70
NtRp1027
(dp1028
g73
(dp1029
sg82
g1015
sg75
(lp1030
g68
(g69
g70
NtRp1031
(dp1032
g73
(dp1033
g81
I3
ssg82
g1027
sg75
(lp1034
S''
asbasbasbasbasbasbasbag68
(g84
g70
NtRp1035
(dp1036
g73
(dp1037
sg82
g279
sg75
(lp1038
g68
(g89
g70
NtRp1039
(dp1040
g73
(dp1041
g93
g94
ssg82
g1035
sg75
(lp1042
S'session_id_outreach'
p1043
asbag68
(g89
g70
NtRp1044
(dp1045
g73
(dp1046
g100
g101
ssg82
g1035
sg75
(lp1047
S':'
asbag68
(g89
g70
NtRp1048
(dp1049
g73
(dp1050
sg82
g1035
sg75
(lp1051
g68
(g69
g70
NtRp1052
(dp1053
g73
(dp1054
g81
I4
ssg82
g1048
sg75
(lp1055
S'127.0.0.1-00c3bb02-539e-4bc1-ab10-e3c500bd1248'
p1056
ag68
(g77
g70
NtRp1057
(dp1058
g73
(dp1059
g81
I3
ssg82
Nsg75
(lp1060
g68
(g84
g70
NtRp1061
(dp1062
g73
(dp1063
sg82
g1057
sg75
(lp1064
g68
(g89
g70
NtRp1065
(dp1066
g73
(dp1067
g93
g94
ssg82
g1061
sg75
(lp1068
g317
asbag68
(g89
g70
NtRp1069
(dp1070
g73
(dp1071
g100
g101
ssg82
g1061
sg75
(lp1072
S':'
asbag68
(g89
g70
NtRp1073
(dp1074
g73
(dp1075
sg82
g1061
sg75
(lp1076
g68
(g69
g70
NtRp1077
(dp1078
g73
(dp1079
g81
I3
ssg82
g1073
sg75
(lp1080
S''
asbasbasbag68
(g84
g70
NtRp1081
(dp1082
g73
(dp1083
sg82
g1057
sg75
(lp1084
g68
(g89
g70
NtRp1085
(dp1086
g73
(dp1087
g93
g94
ssg82
g1081
sg75
(lp1088
g338
asbag68
(g89
g70
NtRp1089
(dp1090
g73
(dp1091
g100
g101
ssg82
g1081
sg75
(lp1092
S':'
asbag68
(g89
g70
NtRp1093
(dp1094
g73
(dp1095
sg82
g1081
sg75
(lp1096
g68
(g69
g70
NtRp1097
(dp1098
g73
(dp1099
g81
I3
ssg82
g1093
sg75
(lp1100
S''
asbasbasbag68
(g84
g70
NtRp1101
(dp1102
g73
(dp1103
sg82
g1057
sg75
(lp1104
g68
(g89
g70
NtRp1105
(dp1106
g73
(dp1107
g93
g94
ssg82
g1101
sg75
(lp1108
g359
asbag68
(g89
g70
NtRp1109
(dp1110
g73
(dp1111
g100
g101
ssg82
g1101
sg75
(lp1112
S':'
asbag68
(g89
g70
NtRp1113
(dp1114
g73
(dp1115
sg82
g1101
sg75
(lp1116
g68
(g69
g70
NtRp1117
(dp1118
g73
(dp1119
g81
I3
ssg82
g1113
sg75
(lp1120
S''
asbasbasbag68
(g84
g70
NtRp1121
(dp1122
g73
(dp1123
sg82
g1057
sg75
(lp1124
g68
(g89
g70
NtRp1125
(dp1126
g73
(dp1127
g93
g94
ssg82
g1121
sg75
(lp1128
g380
asbag68
(g89
g70
NtRp1129
(dp1130
g73
(dp1131
g100
g101
ssg82
g1121
sg75
(lp1132
S':'
asbag68
(g89
g70
NtRp1133
(dp1134
g73
(dp1135
sg82
g1121
sg75
(lp1136
g68
(g69
g70
NtRp1137
(dp1138
g73
(dp1139
g81
I3
ssg82
g1133
sg75
(lp1140
S''
asbasbasbag68
(g84
g70
NtRp1141
(dp1142
g73
(dp1143
sg82
g1057
sg75
(lp1144
g68
(g89
g70
NtRp1145
(dp1146
g73
(dp1147
g93
g94
ssg82
g1141
sg75
(lp1148
g401
asbag68
(g89
g70
NtRp1149
(dp1150
g73
(dp1151
g100
g101
ssg82
g1141
sg75
(lp1152
S':'
asbag68
(g89
g70
NtRp1153
(dp1154
g73
(dp1155
sg82
g1141
sg75
(lp1156
g68
(g69
g70
NtRp1157
(dp1158
g73
(dp1159
g81
I3
ssg82
g1153
sg75
(lp1160
S''
asbasbasbag68
(g84
g70
NtRp1161
(dp1162
g73
(dp1163
sg82
g1057
sg75
(lp1164
g68
(g89
g70
NtRp1165
(dp1166
g73
(dp1167
g93
g94
ssg82
g1161
sg75
(lp1168
g422
asbag68
(g89
g70
NtRp1169
(dp1170
g73
(dp1171
g100
g101
ssg82
g1161
sg75
(lp1172
S':'
asbag68
(g89
g70
NtRp1173
(dp1174
g73
(dp1175
sg82
g1161
sg75
(lp1176
g68
(g69
g70
NtRp1177
(dp1178
g73
(dp1179
g81
I3
ssg82
g1173
sg75
(lp1180
S''
asbasbasbag68
(g84
g70
NtRp1181
(dp1182
g73
(dp1183
sg82
g1057
sg75
(lp1184
g68
(g89
g70
NtRp1185
(dp1186
g73
(dp1187
g93
g94
ssg82
g1181
sg75
(lp1188
g443
asbag68
(g89
g70
NtRp1189
(dp1190
g73
(dp1191
g100
g101
ssg82
g1181
sg75
(lp1192
S':'
asbag68
(g89
g70
NtRp1193
(dp1194
g73
(dp1195
sg82
g1181
sg75
(lp1196
g68
(g69
g70
NtRp1197
(dp1198
g73
(dp1199
g81
I3
ssg82
g1193
sg75
(lp1200
S''
asbasbasbag68
(g84
g70
NtRp1201
(dp1202
g73
(dp1203
sg82
g1057
sg75
(lp1204
g68
(g89
g70
NtRp1205
(dp1206
g73
(dp1207
g93
g94
ssg82
g1201
sg75
(lp1208
g464
asbag68
(g89
g70
NtRp1209
(dp1210
g73
(dp1211
g100
g101
ssg82
g1201
sg75
(lp1212
S':'
asbag68
(g89
g70
NtRp1213
(dp1214
g73
(dp1215
sg82
g1201
sg75
(lp1216
g68
(g69
g70
NtRp1217
(dp1218
g73
(dp1219
g81
I3
ssg82
g1213
sg75
(lp1220
S''
asbasbasbasbasbasbasbag68
(g84
g70
NtRp1221
(dp1222
g73
(dp1223
sg82
g279
sg75
(lp1224
g68
(g89
g70
NtRp1225
(dp1226
g73
(dp1227
g93
g94
ssg82
g1221
sg75
(lp1228
S'session_id_welcome'
p1229
asbag68
(g89
g70
NtRp1230
(dp1231
g73
(dp1232
g100
g101
ssg82
g1221
sg75
(lp1233
S':'
asbag68
(g89
g70
NtRp1234
(dp1235
g73
(dp1236
sg82
g1221
sg75
(lp1237
g68
(g69
g70
NtRp1238
(dp1239
g73
(dp1240
g81
I4
ssg82
g1234
sg75
(lp1241
S'127.0.0.1-9c7bb553-b7cb-4343-8d32-a78739900983'
p1242
ag68
(g77
g70
NtRp1243
(dp1244
g73
(dp1245
g81
I3
ssg82
Nsg75
(lp1246
g68
(g84
g70
NtRp1247
(dp1248
g73
(dp1249
sg82
g1243
sg75
(lp1250
g68
(g89
g70
NtRp1251
(dp1252
g73
(dp1253
g93
g94
ssg82
g1247
sg75
(lp1254
g317
asbag68
(g89
g70
NtRp1255
(dp1256
g73
(dp1257
g100
g101
ssg82
g1247
sg75
(lp1258
S':'
asbag68
(g89
g70
NtRp1259
(dp1260
g73
(dp1261
sg82
g1247
sg75
(lp1262
g68
(g69
g70
NtRp1263
(dp1264
g73
(dp1265
g81
I3
ssg82
g1259
sg75
(lp1266
S''
asbasbasbag68
(g84
g70
NtRp1267
(dp1268
g73
(dp1269
sg82
g1243
sg75
(lp1270
g68
(g89
g70
NtRp1271
(dp1272
g73
(dp1273
g93
g94
ssg82
g1267
sg75
(lp1274
g338
asbag68
(g89
g70
NtRp1275
(dp1276
g73
(dp1277
g100
g101
ssg82
g1267
sg75
(lp1278
S':'
asbag68
(g89
g70
NtRp1279
(dp1280
g73
(dp1281
sg82
g1267
sg75
(lp1282
g68
(g69
g70
NtRp1283
(dp1284
g73
(dp1285
g81
I3
ssg82
g1279
sg75
(lp1286
S''
asbasbasbag68
(g84
g70
NtRp1287
(dp1288
g73
(dp1289
sg82
g1243
sg75
(lp1290
g68
(g89
g70
NtRp1291
(dp1292
g73
(dp1293
g93
g94
ssg82
g1287
sg75
(lp1294
g359
asbag68
(g89
g70
NtRp1295
(dp1296
g73
(dp1297
g100
g101
ssg82
g1287
sg75
(lp1298
S':'
asbag68
(g89
g70
NtRp1299
(dp1300
g73
(dp1301
sg82
g1287
sg75
(lp1302
g68
(g69
g70
NtRp1303
(dp1304
g73
(dp1305
g81
I3
ssg82
g1299
sg75
(lp1306
S''
asbasbasbag68
(g84
g70
NtRp1307
(dp1308
g73
(dp1309
sg82
g1243
sg75
(lp1310
g68
(g89
g70
NtRp1311
(dp1312
g73
(dp1313
g93
g94
ssg82
g1307
sg75
(lp1314
g380
asbag68
(g89
g70
NtRp1315
(dp1316
g73
(dp1317
g100
g101
ssg82
g1307
sg75
(lp1318
S':'
asbag68
(g89
g70
NtRp1319
(dp1320
g73
(dp1321
sg82
g1307
sg75
(lp1322
g68
(g69
g70
NtRp1323
(dp1324
g73
(dp1325
g81
I3
ssg82
g1319
sg75
(lp1326
S''
asbasbasbag68
(g84
g70
NtRp1327
(dp1328
g73
(dp1329
sg82
g1243
sg75
(lp1330
g68
(g89
g70
NtRp1331
(dp1332
g73
(dp1333
g93
g94
ssg82
g1327
sg75
(lp1334
g401
asbag68
(g89
g70
NtRp1335
(dp1336
g73
(dp1337
g100
g101
ssg82
g1327
sg75
(lp1338
S':'
asbag68
(g89
g70
NtRp1339
(dp1340
g73
(dp1341
sg82
g1327
sg75
(lp1342
g68
(g69
g70
NtRp1343
(dp1344
g73
(dp1345
g81
I3
ssg82
g1339
sg75
(lp1346
S''
asbasbasbag68
(g84
g70
NtRp1347
(dp1348
g73
(dp1349
sg82
g1243
sg75
(lp1350
g68
(g89
g70
NtRp1351
(dp1352
g73
(dp1353
g93
g94
ssg82
g1347
sg75
(lp1354
g422
asbag68
(g89
g70
NtRp1355
(dp1356
g73
(dp1357
g100
g101
ssg82
g1347
sg75
(lp1358
S':'
asbag68
(g89
g70
NtRp1359
(dp1360
g73
(dp1361
sg82
g1347
sg75
(lp1362
g68
(g69
g70
NtRp1363
(dp1364
g73
(dp1365
g81
I3
ssg82
g1359
sg75
(lp1366
S''
asbasbasbag68
(g84
g70
NtRp1367
(dp1368
g73
(dp1369
sg82
g1243
sg75
(lp1370
g68
(g89
g70
NtRp1371
(dp1372
g73
(dp1373
g93
g94
ssg82
g1367
sg75
(lp1374
g443
asbag68
(g89
g70
NtRp1375
(dp1376
g73
(dp1377
g100
g101
ssg82
g1367
sg75
(lp1378
S':'
asbag68
(g89
g70
NtRp1379
(dp1380
g73
(dp1381
sg82
g1367
sg75
(lp1382
g68
(g69
g70
NtRp1383
(dp1384
g73
(dp1385
g81
I3
ssg82
g1379
sg75
(lp1386
S''
asbasbasbag68
(g84
g70
NtRp1387
(dp1388
g73
(dp1389
sg82
g1243
sg75
(lp1390
g68
(g89
g70
NtRp1391
(dp1392
g73
(dp1393
g93
g94
ssg82
g1387
sg75
(lp1394
g464
asbag68
(g89
g70
NtRp1395
(dp1396
g73
(dp1397
g100
g101
ssg82
g1387
sg75
(lp1398
S':'
asbag68
(g89
g70
NtRp1399
(dp1400
g73
(dp1401
sg82
g1387
sg75
(lp1402
g68
(g69
g70
NtRp1403
(dp1404
g73
(dp1405
g81
I3
ssg82
g1399
sg75
(lp1406
S''
asbasbasbasbasbasbasbasbasbasbasbag68
(g84
g70
NtRp1407
(dp1408
g73
(dp1409
sg82
g78
sg75
(lp1410
g68
(g89
g70
NtRp1411
(dp1412
g73
(dp1413
g93
g94
ssg82
g1407
sg75
(lp1414
S'env'
p1415
asbag68
(g89
g70
NtRp1416
(dp1417
g73
(dp1418
g100
g101
ssg82
g1407
sg75
(lp1419
S':'
asbag68
(g89
g70
NtRp1420
(dp1421
g73
(dp1422
sg82
g1407
sg75
(lp1423
g68
(g69
g70
NtRp1424
(dp1425
g73
(dp1426
g81
I5
ssg82
g1420
sg75
(lp1427
g68
(g77
g70
NtRp1428
(dp1429
g73
(dp1430
g81
I4
ssg82
Nsg75
(lp1431
g68
(g84
g70
NtRp1432
(dp1433
g73
(dp1434
sg82
g1428
sg75
(lp1435
g68
(g89
g70
NtRp1436
(dp1437
g73
(dp1438
g93
g94
ssg82
g1432
sg75
(lp1439
S'app_folders'
p1440
asbag68
(g89
g70
NtRp1441
(dp1442
g73
(dp1443
g100
g101
ssg82
g1432
sg75
(lp1444
S':'
asbag68
(g89
g70
NtRp1445
(dp1446
g73
(dp1447
sg82
g1432
sg75
(lp1448
g68
(g69
g70
NtRp1449
(dp1450
g73
(dp1451
g81
I4
ssg82
g1445
sg75
(lp1452
S"set(['/home/pratyush/web2py/applications/db_project/', '/home/pratyush/web2py/applications/outreach/', '/home/pratyush/web2py/applications/welcome/', '/home/pratyush/web2py/applications/music_library/', '/home/pratyush/web2py/applications/examples/', '/home/pratyush/web2py/applications/BuySell/', '/home/pratyush/web2py/applications/admin/'])"
p1453
asbasbasbag68
(g84
g70
NtRp1454
(dp1455
g73
(dp1456
sg82
g1428
sg75
(lp1457
g68
(g89
g70
NtRp1458
(dp1459
g73
(dp1460
g93
g94
ssg82
g1454
sg75
(lp1461
S'applications_parent'
p1462
asbag68
(g89
g70
NtRp1463
(dp1464
g73
(dp1465
g100
g101
ssg82
g1454
sg75
(lp1466
S':'
asbag68
(g89
g70
NtRp1467
(dp1468
g73
(dp1469
sg82
g1454
sg75
(lp1470
g68
(g69
g70
NtRp1471
(dp1472
g73
(dp1473
g81
I4
ssg82
g1467
sg75
(lp1474
S'/home/pratyush/web2py'
p1475
asbasbasbag68
(g84
g70
NtRp1476
(dp1477
g73
(dp1478
sg82
g1428
sg75
(lp1479
g68
(g89
g70
NtRp1480
(dp1481
g73
(dp1482
g93
g94
ssg82
g1476
sg75
(lp1483
S'cmd_args'
p1484
asbag68
(g89
g70
NtRp1485
(dp1486
g73
(dp1487
g100
g101
ssg82
g1476
sg75
(lp1488
S':'
asbag68
(g89
g70
NtRp1489
(dp1490
g73
(dp1491
sg82
g1476
sg75
(lp1492
g68
(g69
g70
NtRp1493
(dp1494
g73
(dp1495
g81
I4
ssg82
g1489
sg75
(lp1496
g68
(g77
g70
NtRp1497
(dp1498
g73
(dp1499
g81
I3
ssg82
Nsg75
(lp1500
sbasbasbasbag68
(g84
g70
NtRp1501
(dp1502
g73
(dp1503
sg82
g1428
sg75
(lp1504
g68
(g89
g70
NtRp1505
(dp1506
g73
(dp1507
g93
g94
ssg82
g1501
sg75
(lp1508
S'cmd_options'
p1509
asbag68
(g89
g70
NtRp1510
(dp1511
g73
(dp1512
g100
g101
ssg82
g1501
sg75
(lp1513
S':'
asbag68
(g89
g70
NtRp1514
(dp1515
g73
(dp1516
sg82
g1501
sg75
(lp1517
g68
(g69
g70
NtRp1518
(dp1519
g73
(dp1520
g81
I4
ssg82
g1514
sg75
(lp1521
S"<Values at 0xa526b0c: {'verbose': False, 'ip': '127.0.0.1', 'with_scheduler': False, 'ips': [], 'shutdown_timeout': 5, 'taskbar': False, 'port': 8001, 'maxthreads': None, 'softcron': False, 'server_name': 'alanzak', 'bpython': False, 'nogui': False, 'pid_filename': 'httpserver.pid', 'extcron': False, 'runcron': False, 'run_system_tests': False, 'test': None, 'folder': '/home/pratyush/web2py', 'config': '', 'import_models': False, 'winservice': '', 'shell': None, 'run': '', 'log_filename': 'httpserver.log', 'debuglevel': 30, 'args': [''], 'socket_timeout': 5, 'ssl_ca_certificate': None, 'scheduler': None, 'profiler_filename': None, 'ssl_private_key': '', 'scheduler_groups': None, 'password': '1', 'request_queue_size': 5, 'ssl_certificate': '', 'cronjob': False, 'numthreads': None, 'quiet': False, 'interfaces': None, 'minthreads': None, 'timeout': 10, 'plain': False, 'nobanner': False}>"
p1522
asbasbasbag68
(g84
g70
NtRp1523
(dp1524
g73
(dp1525
sg82
g1428
sg75
(lp1526
g68
(g89
g70
NtRp1527
(dp1528
g73
(dp1529
g93
g94
ssg82
g1523
sg75
(lp1530
S'db_sessions'
p1531
asbag68
(g89
g70
NtRp1532
(dp1533
g73
(dp1534
g100
g101
ssg82
g1523
sg75
(lp1535
S':'
asbag68
(g89
g70
NtRp1536
(dp1537
g73
(dp1538
sg82
g1523
sg75
(lp1539
g68
(g69
g70
NtRp1540
(dp1541
g73
(dp1542
g81
I4
ssg82
g1536
sg75
(lp1543
S'set([])'
p1544
asbasbasbag68
(g84
g70
NtRp1545
(dp1546
g73
(dp1547
sg82
g1428
sg75
(lp1548
g68
(g89
g70
NtRp1549
(dp1550
g73
(dp1551
g93
g94
ssg82
g1545
sg75
(lp1552
S'debugging'
p1553
asbag68
(g89
g70
NtRp1554
(dp1555
g73
(dp1556
g100
g101
ssg82
g1545
sg75
(lp1557
S':'
asbag68
(g89
g70
NtRp1558
(dp1559
g73
(dp1560
sg82
g1545
sg75
(lp1561
g68
(g69
g70
NtRp1562
(dp1563
g73
(dp1564
g81
I4
ssg82
g1558
sg75
(lp1565
g111
asbasbasbag68
(g84
g70
NtRp1566
(dp1567
g73
(dp1568
sg82
g1428
sg75
(lp1569
g68
(g89
g70
NtRp1570
(dp1571
g73
(dp1572
g93
g94
ssg82
g1566
sg75
(lp1573
S'gluon_parent'
p1574
asbag68
(g89
g70
NtRp1575
(dp1576
g73
(dp1577
g100
g101
ssg82
g1566
sg75
(lp1578
S':'
asbag68
(g89
g70
NtRp1579
(dp1580
g73
(dp1581
sg82
g1566
sg75
(lp1582
g68
(g69
g70
NtRp1583
(dp1584
g73
(dp1585
g81
I4
ssg82
g1579
sg75
(lp1586
S'/home/pratyush/web2py'
p1587
asbasbasbag68
(g84
g70
NtRp1588
(dp1589
g73
(dp1590
sg82
g1428
sg75
(lp1591
g68
(g89
g70
NtRp1592
(dp1593
g73
(dp1594
g93
g94
ssg82
g1588
sg75
(lp1595
S'http_accept'
p1596
asbag68
(g89
g70
NtRp1597
(dp1598
g73
(dp1599
g100
g101
ssg82
g1588
sg75
(lp1600
S':'
asbag68
(g89
g70
NtRp1601
(dp1602
g73
(dp1603
sg82
g1588
sg75
(lp1604
g68
(g69
g70
NtRp1605
(dp1606
g73
(dp1607
g81
I4
ssg82
g1601
sg75
(lp1608
S'text/html,application/xhtml+xml,application/xml;q=0.9,*/*;q=0.8'
p1609
asbasbasbag68
(g84
g70
NtRp1610
(dp1611
g73
(dp1612
sg82
g1428
sg75
(lp1613
g68
(g89
g70
NtRp1614
(dp1615
g73
(dp1616
g93
g94
ssg82
g1610
sg75
(lp1617
S'http_accept_charset'
p1618
asbag68
(g89
g70
NtRp1619
(dp1620
g73
(dp1621
g100
g101
ssg82
g1610
sg75
(lp1622
S':'
asbag68
(g89
g70
NtRp1623
(dp1624
g73
(dp1625
sg82
g1610
sg75
(lp1626
g68
(g69
g70
NtRp1627
(dp1628
g73
(dp1629
g81
I4
ssg82
g1623
sg75
(lp1630
S'ISO-8859-1,utf-8;q=0.7,*;q=0.3'
p1631
asbasbasbag68
(g84
g70
NtRp1632
(dp1633
g73
(dp1634
sg82
g1428
sg75
(lp1635
g68
(g89
g70
NtRp1636
(dp1637
g73
(dp1638
g93
g94
ssg82
g1632
sg75
(lp1639
S'http_accept_encoding'
p1640
asbag68
(g89
g70
NtRp1641
(dp1642
g73
(dp1643
g100
g101
ssg82
g1632
sg75
(lp1644
S':'
asbag68
(g89
g70
NtRp1645
(dp1646
g73
(dp1647
sg82
g1632
sg75
(lp1648
g68
(g69
g70
NtRp1649
(dp1650
g73
(dp1651
g81
I4
ssg82
g1645
sg75
(lp1652
S'gzip,deflate,sdch'
p1653
asbasbasbag68
(g84
g70
NtRp1654
(dp1655
g73
(dp1656
sg82
g1428
sg75
(lp1657
g68
(g89
g70
NtRp1658
(dp1659
g73
(dp1660
g93
g94
ssg82
g1654
sg75
(lp1661
S'http_accept_language'
p1662
asbag68
(g89
g70
NtRp1663
(dp1664
g73
(dp1665
g100
g101
ssg82
g1654
sg75
(lp1666
S':'
asbag68
(g89
g70
NtRp1667
(dp1668
g73
(dp1669
sg82
g1654
sg75
(lp1670
g68
(g69
g70
NtRp1671
(dp1672
g73
(dp1673
g81
I4
ssg82
g1667
sg75
(lp1674
S'en-US,en;q=0.8'
p1675
asbasbasbag68
(g84
g70
NtRp1676
(dp1677
g73
(dp1678
sg82
g1428
sg75
(lp1679
g68
(g89
g70
NtRp1680
(dp1681
g73
(dp1682
g93
g94
ssg82
g1676
sg75
(lp1683
S'http_cache_control'
p1684
asbag68
(g89
g70
NtRp1685
(dp1686
g73
(dp1687
g100
g101
ssg82
g1676
sg75
(lp1688
S':'
asbag68
(g89
g70
NtRp1689
(dp1690
g73
(dp1691
sg82
g1676
sg75
(lp1692
g68
(g69
g70
NtRp1693
(dp1694
g73
(dp1695
g81
I4
ssg82
g1689
sg75
(lp1696
S'max-age=0'
p1697
asbasbasbag68
(g84
g70
NtRp1698
(dp1699
g73
(dp1700
sg82
g1428
sg75
(lp1701
g68
(g89
g70
NtRp1702
(dp1703
g73
(dp1704
g93
g94
ssg82
g1698
sg75
(lp1705
S'http_connection'
p1706
asbag68
(g89
g70
NtRp1707
(dp1708
g73
(dp1709
g100
g101
ssg82
g1698
sg75
(lp1710
S':'
asbag68
(g89
g70
NtRp1711
(dp1712
g73
(dp1713
sg82
g1698
sg75
(lp1714
g68
(g69
g70
NtRp1715
(dp1716
g73
(dp1717
g81
I4
ssg82
g1711
sg75
(lp1718
S'keep-alive'
p1719
asbasbasbag68
(g84
g70
NtRp1720
(dp1721
g73
(dp1722
sg82
g1428
sg75
(lp1723
g68
(g89
g70
NtRp1724
(dp1725
g73
(dp1726
g93
g94
ssg82
g1720
sg75
(lp1727
S'http_cookie'
p1728
asbag68
(g89
g70
NtRp1729
(dp1730
g73
(dp1731
g100
g101
ssg82
g1720
sg75
(lp1732
S':'
asbag68
(g89
g70
NtRp1733
(dp1734
g73
(dp1735
sg82
g1720
sg75
(lp1736
g68
(g69
g70
NtRp1737
(dp1738
g73
(dp1739
g81
I4
ssg82
g1733
sg75
(lp1740
S'registered=yes; session_id_outreach=127.0.0.1-00c3bb02-539e-4bc1-ab10-e3c500bd1248; session_id_welcome=127.0.0.1-9c7bb553-b7cb-4343-8d32-a78739900983; session_id_music_library=127.0.0.1-dd9b4880-33cf-4894-a8a9-2640c5c78a01; session_id_buysell=127.0.0.1-d5a07803-4f5c-44c8-b05d-2876d30ca822; session_id_admin=127.0.0.1-5c3e6318-3a14-4ff1-97a6-1063e44c4cd9'
p1741
asbasbasbag68
(g84
g70
NtRp1742
(dp1743
g73
(dp1744
sg82
g1428
sg75
(lp1745
g68
(g89
g70
NtRp1746
(dp1747
g73
(dp1748
g93
g94
ssg82
g1742
sg75
(lp1749
S'http_host'
p1750
asbag68
(g89
g70
NtRp1751
(dp1752
g73
(dp1753
g100
g101
ssg82
g1742
sg75
(lp1754
S':'
asbag68
(g89
g70
NtRp1755
(dp1756
g73
(dp1757
sg82
g1742
sg75
(lp1758
g68
(g69
g70
NtRp1759
(dp1760
g73
(dp1761
g81
I4
ssg82
g1755
sg75
(lp1762
S'127.0.0.1:8001'
p1763
asbasbasbag68
(g84
g70
NtRp1764
(dp1765
g73
(dp1766
sg82
g1428
sg75
(lp1767
g68
(g89
g70
NtRp1768
(dp1769
g73
(dp1770
g93
g94
ssg82
g1764
sg75
(lp1771
S'http_referer'
p1772
asbag68
(g89
g70
NtRp1773
(dp1774
g73
(dp1775
g100
g101
ssg82
g1764
sg75
(lp1776
S':'
asbag68
(g89
g70
NtRp1777
(dp1778
g73
(dp1779
sg82
g1764
sg75
(lp1780
g68
(g69
g70
NtRp1781
(dp1782
g73
(dp1783
g81
I4
ssg82
g1777
sg75
(lp1784
S'http://127.0.0.1:8001/BuySell/default/list_items'
p1785
asbasbasbag68
(g84
g70
NtRp1786
(dp1787
g73
(dp1788
sg82
g1428
sg75
(lp1789
g68
(g89
g70
NtRp1790
(dp1791
g73
(dp1792
g93
g94
ssg82
g1786
sg75
(lp1793
S'http_user_agent'
p1794
asbag68
(g89
g70
NtRp1795
(dp1796
g73
(dp1797
g100
g101
ssg82
g1786
sg75
(lp1798
S':'
asbag68
(g89
g70
NtRp1799
(dp1800
g73
(dp1801
sg82
g1786
sg75
(lp1802
g68
(g69
g70
NtRp1803
(dp1804
g73
(dp1805
g81
I4
ssg82
g1799
sg75
(lp1806
S'Mozilla/5.0 (X11; Linux i686) AppleWebKit/537.4 (KHTML, like Gecko) Chrome/22.0.1229.79 Safari/537.4'
p1807
asbasbasbag68
(g84
g70
NtRp1808
(dp1809
g73
(dp1810
sg82
g1428
sg75
(lp1811
g68
(g89
g70
NtRp1812
(dp1813
g73
(dp1814
g93
g94
ssg82
g1808
sg75
(lp1815
S'is_jython'
p1816
asbag68
(g89
g70
NtRp1817
(dp1818
g73
(dp1819
g100
g101
ssg82
g1808
sg75
(lp1820
S':'
asbag68
(g89
g70
NtRp1821
(dp1822
g73
(dp1823
sg82
g1808
sg75
(lp1824
g68
(g69
g70
NtRp1825
(dp1826
g73
(dp1827
g81
I4
ssg82
g1821
sg75
(lp1828
g111
asbasbasbag68
(g84
g70
NtRp1829
(dp1830
g73
(dp1831
sg82
g1428
sg75
(lp1832
g68
(g89
g70
NtRp1833
(dp1834
g73
(dp1835
g93
g94
ssg82
g1829
sg75
(lp1836
S'is_pypy'
p1837
asbag68
(g89
g70
NtRp1838
(dp1839
g73
(dp1840
g100
g101
ssg82
g1829
sg75
(lp1841
S':'
asbag68
(g89
g70
NtRp1842
(dp1843
g73
(dp1844
sg82
g1829
sg75
(lp1845
g68
(g69
g70
NtRp1846
(dp1847
g73
(dp1848
g81
I4
ssg82
g1842
sg75
(lp1849
g111
asbasbasbag68
(g84
g70
NtRp1850
(dp1851
g73
(dp1852
sg82
g1428
sg75
(lp1853
g68
(g89
g70
NtRp1854
(dp1855
g73
(dp1856
g93
g94
ssg82
g1850
sg75
(lp1857
S'local_hosts'
p1858
asbag68
(g89
g70
NtRp1859
(dp1860
g73
(dp1861
g100
g101
ssg82
g1850
sg75
(lp1862
S':'
asbag68
(g89
g70
NtRp1863
(dp1864
g73
(dp1865
sg82
g1850
sg75
(lp1866
g68
(g69
g70
NtRp1867
(dp1868
g73
(dp1869
g81
I4
ssg82
g1863
sg75
(lp1870
g68
(g77
g70
NtRp1871
(dp1872
g73
(dp1873
g81
I3
ssg82
Nsg75
(lp1874
g68
(g84
g70
NtRp1875
(dp1876
g73
(dp1877
sg82
g1871
sg75
(lp1878
g68
(g89
g70
NtRp1879
(dp1880
g73
(dp1881
sg82
g1875
sg75
(lp1882
g68
(g69
g70
NtRp1883
(dp1884
g73
(dp1885
g81
I3
ssg82
g1879
sg75
(lp1886
S'127.0.1.1'
p1887
asbasbasbag68
(g84
g70
NtRp1888
(dp1889
g73
(dp1890
sg82
g1871
sg75
(lp1891
g68
(g89
g70
NtRp1892
(dp1893
g73
(dp1894
sg82
g1888
sg75
(lp1895
g68
(g69
g70
NtRp1896
(dp1897
g73
(dp1898
g81
I3
ssg82
g1892
sg75
(lp1899
S'::1'
p1900
asbasbasbag68
(g84
g70
NtRp1901
(dp1902
g73
(dp1903
sg82
g1871
sg75
(lp1904
g68
(g89
g70
NtRp1905
(dp1906
g73
(dp1907
sg82
g1901
sg75
(lp1908
g68
(g69
g70
NtRp1909
(dp1910
g73
(dp1911
g81
I3
ssg82
g1905
sg75
(lp1912
S'alanzak'
p1913
asbasbasbag68
(g84
g70
NtRp1914
(dp1915
g73
(dp1916
sg82
g1871
sg75
(lp1917
g68
(g89
g70
NtRp1918
(dp1919
g73
(dp1920
sg82
g1914
sg75
(lp1921
g68
(g69
g70
NtRp1922
(dp1923
g73
(dp1924
g81
I3
ssg82
g1918
sg75
(lp1925
S'::ffff:127.0.0.1'
p1926
asbasbasbag68
(g84
g70
NtRp1927
(dp1928
g73
(dp1929
sg82
g1871
sg75
(lp1930
g68
(g89
g70
NtRp1931
(dp1932
g73
(dp1933
sg82
g1927
sg75
(lp1934
g68
(g69
g70
NtRp1935
(dp1936
g73
(dp1937
g81
I3
ssg82
g1931
sg75
(lp1938
S'127.0.0.1'
p1939
asbasbasbasbasbasbasbag68
(g84
g70
NtRp1940
(dp1941
g73
(dp1942
sg82
g1428
sg75
(lp1943
g68
(g89
g70
NtRp1944
(dp1945
g73
(dp1946
g93
g94
ssg82
g1940
sg75
(lp1947
S'path_info'
p1948
asbag68
(g89
g70
NtRp1949
(dp1950
g73
(dp1951
g100
g101
ssg82
g1940
sg75
(lp1952
S':'
asbag68
(g89
g70
NtRp1953
(dp1954
g73
(dp1955
sg82
g1940
sg75
(lp1956
g68
(g69
g70
NtRp1957
(dp1958
g73
(dp1959
g81
I4
ssg82
g1953
sg75
(lp1960
S'/BuySell/default/seller/1'
p1961
asbasbasbag68
(g84
g70
NtRp1962
(dp1963
g73
(dp1964
sg82
g1428
sg75
(lp1965
g68
(g89
g70
NtRp1966
(dp1967
g73
(dp1968
g93
g94
ssg82
g1962
sg75
(lp1969
S'query_string'
p1970
asbag68
(g89
g70
NtRp1971
(dp1972
g73
(dp1973
g100
g101
ssg82
g1962
sg75
(lp1974
S':'
asbag68
(g89
g70
NtRp1975
(dp1976
g73
(dp1977
sg82
g1962
sg75
(lp1978
g68
(g69
g70
NtRp1979
(dp1980
g73
(dp1981
g81
I4
ssg82
g1975
sg75
(lp1982
S''
asbasbasbag68
(g84
g70
NtRp1983
(dp1984
g73
(dp1985
sg82
g1428
sg75
(lp1986
g68
(g89
g70
NtRp1987
(dp1988
g73
(dp1989
g93
g94
ssg82
g1983
sg75
(lp1990
S'remote_addr'
p1991
asbag68
(g89
g70
NtRp1992
(dp1993
g73
(dp1994
g100
g101
ssg82
g1983
sg75
(lp1995
S':'
asbag68
(g89
g70
NtRp1996
(dp1997
g73
(dp1998
sg82
g1983
sg75
(lp1999
g68
(g69
g70
NtRp2000
(dp2001
g73
(dp2002
g81
I4
ssg82
g1996
sg75
(lp2003
g235
asbasbasbag68
(g84
g70
NtRp2004
(dp2005
g73
(dp2006
sg82
g1428
sg75
(lp2007
g68
(g89
g70
NtRp2008
(dp2009
g73
(dp2010
g93
g94
ssg82
g2004
sg75
(lp2011
S'remote_port'
p2012
asbag68
(g89
g70
NtRp2013
(dp2014
g73
(dp2015
g100
g101
ssg82
g2004
sg75
(lp2016
S':'
asbag68
(g89
g70
NtRp2017
(dp2018
g73
(dp2019
sg82
g2004
sg75
(lp2020
g68
(g69
g70
NtRp2021
(dp2022
g73
(dp2023
g81
I4
ssg82
g2017
sg75
(lp2024
S'37151'
p2025
asbasbasbag68
(g84
g70
NtRp2026
(dp2027
g73
(dp2028
sg82
g1428
sg75
(lp2029
g68
(g89
g70
NtRp2030
(dp2031
g73
(dp2032
g93
g94
ssg82
g2026
sg75
(lp2033
S'request_method'
p2034
asbag68
(g89
g70
NtRp2035
(dp2036
g73
(dp2037
g100
g101
ssg82
g2026
sg75
(lp2038
S':'
asbag68
(g89
g70
NtRp2039
(dp2040
g73
(dp2041
sg82
g2026
sg75
(lp2042
g68
(g69
g70
NtRp2043
(dp2044
g73
(dp2045
g81
I4
ssg82
g2039
sg75
(lp2046
S'GET'
p2047
asbasbasbag68
(g84
g70
NtRp2048
(dp2049
g73
(dp2050
sg82
g1428
sg75
(lp2051
g68
(g89
g70
NtRp2052
(dp2053
g73
(dp2054
g93
g94
ssg82
g2048
sg75
(lp2055
S'request_uri'
p2056
asbag68
(g89
g70
NtRp2057
(dp2058
g73
(dp2059
g100
g101
ssg82
g2048
sg75
(lp2060
S':'
asbag68
(g89
g70
NtRp2061
(dp2062
g73
(dp2063
sg82
g2048
sg75
(lp2064
g68
(g69
g70
NtRp2065
(dp2066
g73
(dp2067
g81
I4
ssg82
g2061
sg75
(lp2068
g1961
asbasbasbag68
(g84
g70
NtRp2069
(dp2070
g73
(dp2071
sg82
g1428
sg75
(lp2072
g68
(g89
g70
NtRp2073
(dp2074
g73
(dp2075
g93
g94
ssg82
g2069
sg75
(lp2076
S'script_name'
p2077
asbag68
(g89
g70
NtRp2078
(dp2079
g73
(dp2080
g100
g101
ssg82
g2069
sg75
(lp2081
S':'
asbag68
(g89
g70
NtRp2082
(dp2083
g73
(dp2084
sg82
g2069
sg75
(lp2085
g68
(g69
g70
NtRp2086
(dp2087
g73
(dp2088
g81
I4
ssg82
g2082
sg75
(lp2089
S''
asbasbasbag68
(g84
g70
NtRp2090
(dp2091
g73
(dp2092
sg82
g1428
sg75
(lp2093
g68
(g89
g70
NtRp2094
(dp2095
g73
(dp2096
g93
g94
ssg82
g2090
sg75
(lp2097
S'server_name'
p2098
asbag68
(g89
g70
NtRp2099
(dp2100
g73
(dp2101
g100
g101
ssg82
g2090
sg75
(lp2102
S':'
asbag68
(g89
g70
NtRp2103
(dp2104
g73
(dp2105
sg82
g2090
sg75
(lp2106
g68
(g69
g70
NtRp2107
(dp2108
g73
(dp2109
g81
I4
ssg82
g2103
sg75
(lp2110
S'alanzak'
p2111
asbasbasbag68
(g84
g70
NtRp2112
(dp2113
g73
(dp2114
sg82
g1428
sg75
(lp2115
g68
(g89
g70
NtRp2116
(dp2117
g73
(dp2118
g93
g94
ssg82
g2112
sg75
(lp2119
S'server_port'
p2120
asbag68
(g89
g70
NtRp2121
(dp2122
g73
(dp2123
g100
g101
ssg82
g2112
sg75
(lp2124
S':'
asbag68
(g89
g70
NtRp2125
(dp2126
g73
(dp2127
sg82
g2112
sg75
(lp2128
g68
(g69
g70
NtRp2129
(dp2130
g73
(dp2131
g81
I4
ssg82
g2125
sg75
(lp2132
S'8001'
p2133
asbasbasbag68
(g84
g70
NtRp2134
(dp2135
g73
(dp2136
sg82
g1428
sg75
(lp2137
g68
(g89
g70
NtRp2138
(dp2139
g73
(dp2140
g93
g94
ssg82
g2134
sg75
(lp2141
S'server_protocol'
p2142
asbag68
(g89
g70
NtRp2143
(dp2144
g73
(dp2145
g100
g101
ssg82
g2134
sg75
(lp2146
S':'
asbag68
(g89
g70
NtRp2147
(dp2148
g73
(dp2149
sg82
g2134
sg75
(lp2150
g68
(g69
g70
NtRp2151
(dp2152
g73
(dp2153
g81
I4
ssg82
g2147
sg75
(lp2154
S'HTTP/1.1'
p2155
asbasbasbag68
(g84
g70
NtRp2156
(dp2157
g73
(dp2158
sg82
g1428
sg75
(lp2159
g68
(g89
g70
NtRp2160
(dp2161
g73
(dp2162
g93
g94
ssg82
g2156
sg75
(lp2163
S'server_software'
p2164
asbag68
(g89
g70
NtRp2165
(dp2166
g73
(dp2167
g100
g101
ssg82
g2156
sg75
(lp2168
S':'
asbag68
(g89
g70
NtRp2169
(dp2170
g73
(dp2171
sg82
g2156
sg75
(lp2172
g68
(g69
g70
NtRp2173
(dp2174
g73
(dp2175
g81
I4
ssg82
g2169
sg75
(lp2176
S'Rocket 1.2.6'
p2177
asbasbasbag68
(g84
g70
NtRp2178
(dp2179
g73
(dp2180
sg82
g1428
sg75
(lp2181
g68
(g89
g70
NtRp2182
(dp2183
g73
(dp2184
g93
g94
ssg82
g2178
sg75
(lp2185
S'web2py_path'
p2186
asbag68
(g89
g70
NtRp2187
(dp2188
g73
(dp2189
g100
g101
ssg82
g2178
sg75
(lp2190
S':'
asbag68
(g89
g70
NtRp2191
(dp2192
g73
(dp2193
sg82
g2178
sg75
(lp2194
g68
(g69
g70
NtRp2195
(dp2196
g73
(dp2197
g81
I4
ssg82
g2191
sg75
(lp2198
g1475
asbasbasbag68
(g84
g70
NtRp2199
(dp2200
g73
(dp2201
sg82
g1428
sg75
(lp2202
g68
(g89
g70
NtRp2203
(dp2204
g73
(dp2205
g93
g94
ssg82
g2199
sg75
(lp2206
S'web2py_version'
p2207
asbag68
(g89
g70
NtRp2208
(dp2209
g73
(dp2210
g100
g101
ssg82
g2199
sg75
(lp2211
S':'
asbag68
(g89
g70
NtRp2212
(dp2213
g73
(dp2214
sg82
g2199
sg75
(lp2215
g68
(g69
g70
NtRp2216
(dp2217
g73
(dp2218
g81
I4
ssg82
g2212
sg75
(lp2219
g68
(g77
g70
NtRp2220
(dp2221
g73
(dp2222
g81
I3
ssg82
Nsg75
(lp2223
g68
(g84
g70
NtRp2224
(dp2225
g73
(dp2226
sg82
g2220
sg75
(lp2227
g68
(g89
g70
NtRp2228
(dp2229
g73
(dp2230
sg82
g2224
sg75
(lp2231
g68
(g69
g70
NtRp2232
(dp2233
g73
(dp2234
g81
I3
ssg82
g2228
sg75
(lp2235
S'2'
asbasbasbag68
(g84
g70
NtRp2236
(dp2237
g73
(dp2238
sg82
g2220
sg75
(lp2239
g68
(g89
g70
NtRp2240
(dp2241
g73
(dp2242
sg82
g2236
sg75
(lp2243
g68
(g69
g70
NtRp2244
(dp2245
g73
(dp2246
g81
I3
ssg82
g2240
sg75
(lp2247
S'3'
asbasbasbag68
(g84
g70
NtRp2248
(dp2249
g73
(dp2250
sg82
g2220
sg75
(lp2251
g68
(g89
g70
NtRp2252
(dp2253
g73
(dp2254
sg82
g2248
sg75
(lp2255
g68
(g69
g70
NtRp2256
(dp2257
g73
(dp2258
g81
I3
ssg82
g2252
sg75
(lp2259
S'2'
asbasbasbag68
(g84
g70
NtRp2260
(dp2261
g73
(dp2262
sg82
g2220
sg75
(lp2263
g68
(g89
g70
NtRp2264
(dp2265
g73
(dp2266
sg82
g2260
sg75
(lp2267
g68
(g69
g70
NtRp2268
(dp2269
g73
(dp2270
g81
I3
ssg82
g2264
sg75
(lp2271
S'datetime.datetime(2012, 12, 17, 15, 3, 30)'
p2272
asbasbasbag68
(g84
g70
NtRp2273
(dp2274
g73
(dp2275
sg82
g2220
sg75
(lp2276
g68
(g89
g70
NtRp2277
(dp2278
g73
(dp2279
sg82
g2273
sg75
(lp2280
g68
(g69
g70
NtRp2281
(dp2282
g73
(dp2283
g81
I3
ssg82
g2277
sg75
(lp2284
S'stable'
p2285
asbasbasbasbasbasbasbag68
(g84
g70
NtRp2286
(dp2287
g73
(dp2288
sg82
g1428
sg75
(lp2289
g68
(g89
g70
NtRp2290
(dp2291
g73
(dp2292
g93
g94
ssg82
g2286
sg75
(lp2293
S'wsgi_errors'
p2294
asbag68
(g89
g70
NtRp2295
(dp2296
g73
(dp2297
g100
g101
ssg82
g2286
sg75
(lp2298
S':'
asbag68
(g89
g70
NtRp2299
(dp2300
g73
(dp2301
sg82
g2286
sg75
(lp2302
g68
(g69
g70
NtRp2303
(dp2304
g73
(dp2305
g81
I4
ssg82
g2299
sg75
(lp2306
S"<open file '<stderr>', mode 'w' at 0xb789e0d0>"
p2307
asbasbasbag68
(g84
g70
NtRp2308
(dp2309
g73
(dp2310
sg82
g1428
sg75
(lp2311
g68
(g89
g70
NtRp2312
(dp2313
g73
(dp2314
g93
g94
ssg82
g2308
sg75
(lp2315
S'wsgi_file_wrapper'
p2316
asbag68
(g89
g70
NtRp2317
(dp2318
g73
(dp2319
g100
g101
ssg82
g2308
sg75
(lp2320
S':'
asbag68
(g89
g70
NtRp2321
(dp2322
g73
(dp2323
sg82
g2308
sg75
(lp2324
g68
(g69
g70
NtRp2325
(dp2326
g73
(dp2327
g81
I4
ssg82
g2321
sg75
(lp2328
S'<class wsgiref.util.FileWrapper at 0xa4afddc>'
p2329
asbasbasbag68
(g84
g70
NtRp2330
(dp2331
g73
(dp2332
sg82
g1428
sg75
(lp2333
g68
(g89
g70
NtRp2334
(dp2335
g73
(dp2336
g93
g94
ssg82
g2330
sg75
(lp2337
S'wsgi_input'
p2338
asbag68
(g89
g70
NtRp2339
(dp2340
g73
(dp2341
g100
g101
ssg82
g2330
sg75
(lp2342
S':'
asbag68
(g89
g70
NtRp2343
(dp2344
g73
(dp2345
sg82
g2330
sg75
(lp2346
g68
(g69
g70
NtRp2347
(dp2348
g73
(dp2349
g81
I4
ssg82
g2343
sg75
(lp2350
S'<socket._fileobject object at 0xa8351ec>'
p2351
asbasbasbag68
(g84
g70
NtRp2352
(dp2353
g73
(dp2354
sg82
g1428
sg75
(lp2355
g68
(g89
g70
NtRp2356
(dp2357
g73
(dp2358
g93
g94
ssg82
g2352
sg75
(lp2359
S'wsgi_multiprocess'
p2360
asbag68
(g89
g70
NtRp2361
(dp2362
g73
(dp2363
g100
g101
ssg82
g2352
sg75
(lp2364
S':'
asbag68
(g89
g70
NtRp2365
(dp2366
g73
(dp2367
sg82
g2352
sg75
(lp2368
g68
(g69
g70
NtRp2369
(dp2370
g73
(dp2371
g81
I4
ssg82
g2365
sg75
(lp2372
g111
asbasbasbag68
(g84
g70
NtRp2373
(dp2374
g73
(dp2375
sg82
g1428
sg75
(lp2376
g68
(g89
g70
NtRp2377
(dp2378
g73
(dp2379
g93
g94
ssg82
g2373
sg75
(lp2380
S'wsgi_multithread'
p2381
asbag68
(g89
g70
NtRp2382
(dp2383
g73
(dp2384
g100
g101
ssg82
g2373
sg75
(lp2385
S':'
asbag68
(g89
g70
NtRp2386
(dp2387
g73
(dp2388
sg82
g2373
sg75
(lp2389
g68
(g69
g70
NtRp2390
(dp2391
g73
(dp2392
g81
I4
ssg82
g2386
sg75
(lp2393
S'True'
p2394
asbasbasbag68
(g84
g70
NtRp2395
(dp2396
g73
(dp2397
sg82
g1428
sg75
(lp2398
g68
(g89
g70
NtRp2399
(dp2400
g73
(dp2401
g93
g94
ssg82
g2395
sg75
(lp2402
S'wsgi_run_once'
p2403
asbag68
(g89
g70
NtRp2404
(dp2405
g73
(dp2406
g100
g101
ssg82
g2395
sg75
(lp2407
S':'
asbag68
(g89
g70
NtRp2408
(dp2409
g73
(dp2410
sg82
g2395
sg75
(lp2411
g68
(g69
g70
NtRp2412
(dp2413
g73
(dp2414
g81
I4
ssg82
g2408
sg75
(lp2415
g111
asbasbasbag68
(g84
g70
NtRp2416
(dp2417
g73
(dp2418
sg82
g1428
sg75
(lp2419
g68
(g89
g70
NtRp2420
(dp2421
g73
(dp2422
g93
g94
ssg82
g2416
sg75
(lp2423
S'wsgi_url_scheme'
p2424
asbag68
(g89
g70
NtRp2425
(dp2426
g73
(dp2427
g100
g101
ssg82
g2416
sg75
(lp2428
S':'
asbag68
(g89
g70
NtRp2429
(dp2430
g73
(dp2431
sg82
g2416
sg75
(lp2432
g68
(g69
g70
NtRp2433
(dp2434
g73
(dp2435
g81
I4
ssg82
g2429
sg75
(lp2436
S'http'
p2437
asbasbasbag68
(g84
g70
NtRp2438
(dp2439
g73
(dp2440
sg82
g1428
sg75
(lp2441
g68
(g89
g70
NtRp2442
(dp2443
g73
(dp2444
g93
g94
ssg82
g2438
sg75
(lp2445
S'wsgi_version'
p2446
asbag68
(g89
g70
NtRp2447
(dp2448
g73
(dp2449
g100
g101
ssg82
g2438
sg75
(lp2450
S':'
asbag68
(g89
g70
NtRp2451
(dp2452
g73
(dp2453
sg82
g2438
sg75
(lp2454
g68
(g69
g70
NtRp2455
(dp2456
g73
(dp2457
g81
I4
ssg82
g2451
sg75
(lp2458
g68
(g77
g70
NtRp2459
(dp2460
g73
(dp2461
g81
I3
ssg82
Nsg75
(lp2462
g68
(g84
g70
NtRp2463
(dp2464
g73
(dp2465
sg82
g2459
sg75
(lp2466
g68
(g89
g70
NtRp2467
(dp2468
g73
(dp2469
sg82
g2463
sg75
(lp2470
g68
(g69
g70
NtRp2471
(dp2472
g73
(dp2473
g81
I3
ssg82
g2467
sg75
(lp2474
S'1'
asbasbasbag68
(g84
g70
NtRp2475
(dp2476
g73
(dp2477
sg82
g2459
sg75
(lp2478
g68
(g89
g70
NtRp2479
(dp2480
g73
(dp2481
sg82
g2475
sg75
(lp2482
g68
(g69
g70
NtRp2483
(dp2484
g73
(dp2485
g81
I3
ssg82
g2479
sg75
(lp2486
S'0'
asbasbasbasbasbasbasbasbasbasbasbag68
(g84
g70
NtRp2487
(dp2488
g73
(dp2489
sg82
g78
sg75
(lp2490
g68
(g89
g70
NtRp2491
(dp2492
g73
(dp2493
g93
g94
ssg82
g2487
sg75
(lp2494
S'extension'
p2495
asbag68
(g89
g70
NtRp2496
(dp2497
g73
(dp2498
g100
g101
ssg82
g2487
sg75
(lp2499
S':'
asbag68
(g89
g70
NtRp2500
(dp2501
g73
(dp2502
sg82
g2487
sg75
(lp2503
g68
(g69
g70
NtRp2504
(dp2505
g73
(dp2506
g81
I5
ssg82
g2500
sg75
(lp2507
S'html'
p2508
asbasbasbag68
(g84
g70
NtRp2509
(dp2510
g73
(dp2511
sg82
g78
sg75
(lp2512
g68
(g89
g70
NtRp2513
(dp2514
g73
(dp2515
g93
g94
ssg82
g2509
sg75
(lp2516
S'folder'
p2517
asbag68
(g89
g70
NtRp2518
(dp2519
g73
(dp2520
g100
g101
ssg82
g2509
sg75
(lp2521
S':'
asbag68
(g89
g70
NtRp2522
(dp2523
g73
(dp2524
sg82
g2509
sg75
(lp2525
g68
(g69
g70
NtRp2526
(dp2527
g73
(dp2528
g81
I5
ssg82
g2522
sg75
(lp2529
S'/home/pratyush/web2py/applications/BuySell/'
p2530
asbasbasbag68
(g84
g70
NtRp2531
(dp2532
g73
(dp2533
sg82
g78
sg75
(lp2534
g68
(g89
g70
NtRp2535
(dp2536
g73
(dp2537
g93
g94
ssg82
g2531
sg75
(lp2538
S'function'
p2539
asbag68
(g89
g70
NtRp2540
(dp2541
g73
(dp2542
g100
g101
ssg82
g2531
sg75
(lp2543
S':'
asbag68
(g89
g70
NtRp2544
(dp2545
g73
(dp2546
sg82
g2531
sg75
(lp2547
g68
(g69
g70
NtRp2548
(dp2549
g73
(dp2550
g81
I5
ssg82
g2544
sg75
(lp2551
S'seller'
p2552
asbasbasbag68
(g84
g70
NtRp2553
(dp2554
g73
(dp2555
sg82
g78
sg75
(lp2556
g68
(g89
g70
NtRp2557
(dp2558
g73
(dp2559
g93
g94
ssg82
g2553
sg75
(lp2560
S'get_vars'
p2561
asbag68
(g89
g70
NtRp2562
(dp2563
g73
(dp2564
g100
g101
ssg82
g2553
sg75
(lp2565
S':'
asbag68
(g89
g70
NtRp2566
(dp2567
g73
(dp2568
sg82
g2553
sg75
(lp2569
g68
(g69
g70
NtRp2570
(dp2571
g73
(dp2572
g81
I5
ssg82
g2566
sg75
(lp2573
g68
(g77
g70
NtRp2574
(dp2575
g73
(dp2576
g81
I4
ssg82
Nsg75
(lp2577
sbasbasbasbag68
(g84
g70
NtRp2578
(dp2579
g73
(dp2580
sg82
g78
sg75
(lp2581
g68
(g89
g70
NtRp2582
(dp2583
g73
(dp2584
g93
g94
ssg82
g2578
sg75
(lp2585
S'global_settings'
p2586
asbag68
(g89
g70
NtRp2587
(dp2588
g73
(dp2589
g100
g101
ssg82
g2578
sg75
(lp2590
S':'
asbag68
(g89
g70
NtRp2591
(dp2592
g73
(dp2593
sg82
g2578
sg75
(lp2594
g68
(g69
g70
NtRp2595
(dp2596
g73
(dp2597
g81
I5
ssg82
g2591
sg75
(lp2598
g68
(g77
g70
NtRp2599
(dp2600
g73
(dp2601
g81
I4
ssg82
Nsg75
(lp2602
g68
(g84
g70
NtRp2603
(dp2604
g73
(dp2605
sg82
g2599
sg75
(lp2606
g68
(g89
g70
NtRp2607
(dp2608
g73
(dp2609
g93
g94
ssg82
g2603
sg75
(lp2610
g1440
asbag68
(g89
g70
NtRp2611
(dp2612
g73
(dp2613
g100
g101
ssg82
g2603
sg75
(lp2614
S':'
asbag68
(g89
g70
NtRp2615
(dp2616
g73
(dp2617
sg82
g2603
sg75
(lp2618
g68
(g69
g70
NtRp2619
(dp2620
g73
(dp2621
g81
I4
ssg82
g2615
sg75
(lp2622
S"set(['/home/pratyush/web2py/applications/db_project/', '/home/pratyush/web2py/applications/outreach/', '/home/pratyush/web2py/applications/welcome/', '/home/pratyush/web2py/applications/music_library/', '/home/pratyush/web2py/applications/examples/', '/home/pratyush/web2py/applications/BuySell/', '/home/pratyush/web2py/applications/admin/'])"
p2623
asbasbasbag68
(g84
g70
NtRp2624
(dp2625
g73
(dp2626
sg82
g2599
sg75
(lp2627
g68
(g89
g70
NtRp2628
(dp2629
g73
(dp2630
g93
g94
ssg82
g2624
sg75
(lp2631
g1462
asbag68
(g89
g70
NtRp2632
(dp2633
g73
(dp2634
g100
g101
ssg82
g2624
sg75
(lp2635
S':'
asbag68
(g89
g70
NtRp2636
(dp2637
g73
(dp2638
sg82
g2624
sg75
(lp2639
g68
(g69
g70
NtRp2640
(dp2641
g73
(dp2642
g81
I4
ssg82
g2636
sg75
(lp2643
g1475
asbasbasbag68
(g84
g70
NtRp2644
(dp2645
g73
(dp2646
sg82
g2599
sg75
(lp2647
g68
(g89
g70
NtRp2648
(dp2649
g73
(dp2650
g93
g94
ssg82
g2644
sg75
(lp2651
g1484
asbag68
(g89
g70
NtRp2652
(dp2653
g73
(dp2654
g100
g101
ssg82
g2644
sg75
(lp2655
S':'
asbag68
(g89
g70
NtRp2656
(dp2657
g73
(dp2658
sg82
g2644
sg75
(lp2659
g68
(g69
g70
NtRp2660
(dp2661
g73
(dp2662
g81
I4
ssg82
g2656
sg75
(lp2663
g68
(g77
g70
NtRp2664
(dp2665
g73
(dp2666
g81
I3
ssg82
Nsg75
(lp2667
sbasbasbasbag68
(g84
g70
NtRp2668
(dp2669
g73
(dp2670
sg82
g2599
sg75
(lp2671
g68
(g89
g70
NtRp2672
(dp2673
g73
(dp2674
g93
g94
ssg82
g2668
sg75
(lp2675
g1509
asbag68
(g89
g70
NtRp2676
(dp2677
g73
(dp2678
g100
g101
ssg82
g2668
sg75
(lp2679
S':'
asbag68
(g89
g70
NtRp2680
(dp2681
g73
(dp2682
sg82
g2668
sg75
(lp2683
g68
(g69
g70
NtRp2684
(dp2685
g73
(dp2686
g81
I4
ssg82
g2680
sg75
(lp2687
S"<Values at 0xa526b0c: {'verbose': False, 'ip': '127.0.0.1', 'with_scheduler': False, 'ips': [], 'shutdown_timeout': 5, 'taskbar': False, 'port': 8001, 'maxthreads': None, 'softcron': False, 'server_name': 'alanzak', 'bpython': False, 'nogui': False, 'pid_filename': 'httpserver.pid', 'extcron': False, 'runcron': False, 'run_system_tests': False, 'test': None, 'folder': '/home/pratyush/web2py', 'config': '', 'import_models': False, 'winservice': '', 'shell': None, 'run': '', 'log_filename': 'httpserver.log', 'debuglevel': 30, 'args': [''], 'socket_timeout': 5, 'ssl_ca_certificate': None, 'scheduler': None, 'profiler_filename': None, 'ssl_private_key': '', 'scheduler_groups': None, 'password': '1', 'request_queue_size': 5, 'ssl_certificate': '', 'cronjob': False, 'numthreads': None, 'quiet': False, 'interfaces': None, 'minthreads': None, 'timeout': 10, 'plain': False, 'nobanner': False}>"
p2688
asbasbasbag68
(g84
g70
NtRp2689
(dp2690
g73
(dp2691
sg82
g2599
sg75
(lp2692
g68
(g89
g70
NtRp2693
(dp2694
g73
(dp2695
g93
g94
ssg82
g2689
sg75
(lp2696
g1531
asbag68
(g89
g70
NtRp2697
(dp2698
g73
(dp2699
g100
g101
ssg82
g2689
sg75
(lp2700
S':'
asbag68
(g89
g70
NtRp2701
(dp2702
g73
(dp2703
sg82
g2689
sg75
(lp2704
g68
(g69
g70
NtRp2705
(dp2706
g73
(dp2707
g81
I4
ssg82
g2701
sg75
(lp2708
S'set([])'
p2709
asbasbasbag68
(g84
g70
NtRp2710
(dp2711
g73
(dp2712
sg82
g2599
sg75
(lp2713
g68
(g89
g70
NtRp2714
(dp2715
g73
(dp2716
g93
g94
ssg82
g2710
sg75
(lp2717
g1553
asbag68
(g89
g70
NtRp2718
(dp2719
g73
(dp2720
g100
g101
ssg82
g2710
sg75
(lp2721
S':'
asbag68
(g89
g70
NtRp2722
(dp2723
g73
(dp2724
sg82
g2710
sg75
(lp2725
g68
(g69
g70
NtRp2726
(dp2727
g73
(dp2728
g81
I4
ssg82
g2722
sg75
(lp2729
g111
asbasbasbag68
(g84
g70
NtRp2730
(dp2731
g73
(dp2732
sg82
g2599
sg75
(lp2733
g68
(g89
g70
NtRp2734
(dp2735
g73
(dp2736
g93
g94
ssg82
g2730
sg75
(lp2737
g1574
asbag68
(g89
g70
NtRp2738
(dp2739
g73
(dp2740
g100
g101
ssg82
g2730
sg75
(lp2741
S':'
asbag68
(g89
g70
NtRp2742
(dp2743
g73
(dp2744
sg82
g2730
sg75
(lp2745
g68
(g69
g70
NtRp2746
(dp2747
g73
(dp2748
g81
I4
ssg82
g2742
sg75
(lp2749
g1587
asbasbasbag68
(g84
g70
NtRp2750
(dp2751
g73
(dp2752
sg82
g2599
sg75
(lp2753
g68
(g89
g70
NtRp2754
(dp2755
g73
(dp2756
g93
g94
ssg82
g2750
sg75
(lp2757
g1816
asbag68
(g89
g70
NtRp2758
(dp2759
g73
(dp2760
g100
g101
ssg82
g2750
sg75
(lp2761
S':'
asbag68
(g89
g70
NtRp2762
(dp2763
g73
(dp2764
sg82
g2750
sg75
(lp2765
g68
(g69
g70
NtRp2766
(dp2767
g73
(dp2768
g81
I4
ssg82
g2762
sg75
(lp2769
g111
asbasbasbag68
(g84
g70
NtRp2770
(dp2771
g73
(dp2772
sg82
g2599
sg75
(lp2773
g68
(g89
g70
NtRp2774
(dp2775
g73
(dp2776
g93
g94
ssg82
g2770
sg75
(lp2777
g1837
asbag68
(g89
g70
NtRp2778
(dp2779
g73
(dp2780
g100
g101
ssg82
g2770
sg75
(lp2781
S':'
asbag68
(g89
g70
NtRp2782
(dp2783
g73
(dp2784
sg82
g2770
sg75
(lp2785
g68
(g69
g70
NtRp2786
(dp2787
g73
(dp2788
g81
I4
ssg82
g2782
sg75
(lp2789
g111
asbasbasbag68
(g84
g70
NtRp2790
(dp2791
g73
(dp2792
sg82
g2599
sg75
(lp2793
g68
(g89
g70
NtRp2794
(dp2795
g73
(dp2796
g93
g94
ssg82
g2790
sg75
(lp2797
g1858
asbag68
(g89
g70
NtRp2798
(dp2799
g73
(dp2800
g100
g101
ssg82
g2790
sg75
(lp2801
S':'
asbag68
(g89
g70
NtRp2802
(dp2803
g73
(dp2804
sg82
g2790
sg75
(lp2805
g68
(g69
g70
NtRp2806
(dp2807
g73
(dp2808
g81
I4
ssg82
g2802
sg75
(lp2809
g68
(g77
g70
NtRp2810
(dp2811
g73
(dp2812
g81
I3
ssg82
Nsg75
(lp2813
g68
(g84
g70
NtRp2814
(dp2815
g73
(dp2816
sg82
g2810
sg75
(lp2817
g68
(g89
g70
NtRp2818
(dp2819
g73
(dp2820
sg82
g2814
sg75
(lp2821
g68
(g69
g70
NtRp2822
(dp2823
g73
(dp2824
g81
I3
ssg82
g2818
sg75
(lp2825
g1887
asbasbasbag68
(g84
g70
NtRp2826
(dp2827
g73
(dp2828
sg82
g2810
sg75
(lp2829
g68
(g89
g70
NtRp2830
(dp2831
g73
(dp2832
sg82
g2826
sg75
(lp2833
g68
(g69
g70
NtRp2834
(dp2835
g73
(dp2836
g81
I3
ssg82
g2830
sg75
(lp2837
g1900
asbasbasbag68
(g84
g70
NtRp2838
(dp2839
g73
(dp2840
sg82
g2810
sg75
(lp2841
g68
(g89
g70
NtRp2842
(dp2843
g73
(dp2844
sg82
g2838
sg75
(lp2845
g68
(g69
g70
NtRp2846
(dp2847
g73
(dp2848
g81
I3
ssg82
g2842
sg75
(lp2849
g1913
asbasbasbag68
(g84
g70
NtRp2850
(dp2851
g73
(dp2852
sg82
g2810
sg75
(lp2853
g68
(g89
g70
NtRp2854
(dp2855
g73
(dp2856
sg82
g2850
sg75
(lp2857
g68
(g69
g70
NtRp2858
(dp2859
g73
(dp2860
g81
I3
ssg82
g2854
sg75
(lp2861
g1926
asbasbasbag68
(g84
g70
NtRp2862
(dp2863
g73
(dp2864
sg82
g2810
sg75
(lp2865
g68
(g89
g70
NtRp2866
(dp2867
g73
(dp2868
sg82
g2862
sg75
(lp2869
g68
(g69
g70
NtRp2870
(dp2871
g73
(dp2872
g81
I3
ssg82
g2866
sg75
(lp2873
g1939
asbasbasbasbasbasbasbag68
(g84
g70
NtRp2874
(dp2875
g73
(dp2876
sg82
g2599
sg75
(lp2877
g68
(g89
g70
NtRp2878
(dp2879
g73
(dp2880
g93
g94
ssg82
g2874
sg75
(lp2881
g2207
asbag68
(g89
g70
NtRp2882
(dp2883
g73
(dp2884
g100
g101
ssg82
g2874
sg75
(lp2885
S':'
asbag68
(g89
g70
NtRp2886
(dp2887
g73
(dp2888
sg82
g2874
sg75
(lp2889
g68
(g69
g70
NtRp2890
(dp2891
g73
(dp2892
g81
I4
ssg82
g2886
sg75
(lp2893
g68
(g77
g70
NtRp2894
(dp2895
g73
(dp2896
g81
I3
ssg82
Nsg75
(lp2897
g68
(g84
g70
NtRp2898
(dp2899
g73
(dp2900
sg82
g2894
sg75
(lp2901
g68
(g89
g70
NtRp2902
(dp2903
g73
(dp2904
sg82
g2898
sg75
(lp2905
g68
(g69
g70
NtRp2906
(dp2907
g73
(dp2908
g81
I3
ssg82
g2902
sg75
(lp2909
S'2'
asbasbasbag68
(g84
g70
NtRp2910
(dp2911
g73
(dp2912
sg82
g2894
sg75
(lp2913
g68
(g89
g70
NtRp2914
(dp2915
g73
(dp2916
sg82
g2910
sg75
(lp2917
g68
(g69
g70
NtRp2918
(dp2919
g73
(dp2920
g81
I3
ssg82
g2914
sg75
(lp2921
S'3'
asbasbasbag68
(g84
g70
NtRp2922
(dp2923
g73
(dp2924
sg82
g2894
sg75
(lp2925
g68
(g89
g70
NtRp2926
(dp2927
g73
(dp2928
sg82
g2922
sg75
(lp2929
g68
(g69
g70
NtRp2930
(dp2931
g73
(dp2932
g81
I3
ssg82
g2926
sg75
(lp2933
S'2'
asbasbasbag68
(g84
g70
NtRp2934
(dp2935
g73
(dp2936
sg82
g2894
sg75
(lp2937
g68
(g89
g70
NtRp2938
(dp2939
g73
(dp2940
sg82
g2934
sg75
(lp2941
g68
(g69
g70
NtRp2942
(dp2943
g73
(dp2944
g81
I3
ssg82
g2938
sg75
(lp2945
S'datetime.datetime(2012, 12, 17, 15, 3, 30)'
p2946
asbasbasbag68
(g84
g70
NtRp2947
(dp2948
g73
(dp2949
sg82
g2894
sg75
(lp2950
g68
(g89
g70
NtRp2951
(dp2952
g73
(dp2953
sg82
g2947
sg75
(lp2954
g68
(g69
g70
NtRp2955
(dp2956
g73
(dp2957
g81
I3
ssg82
g2951
sg75
(lp2958
g2285
asbasbasbasbasbasbasbasbasbasbasbag68
(g84
g70
NtRp2959
(dp2960
g73
(dp2961
sg82
g78
sg75
(lp2962
g68
(g89
g70
NtRp2963
(dp2964
g73
(dp2965
g93
g94
ssg82
g2959
sg75
(lp2966
S'is_https'
p2967
asbag68
(g89
g70
NtRp2968
(dp2969
g73
(dp2970
g100
g101
ssg82
g2959
sg75
(lp2971
S':'
asbag68
(g89
g70
NtRp2972
(dp2973
g73
(dp2974
sg82
g2959
sg75
(lp2975
g68
(g69
g70
NtRp2976
(dp2977
g73
(dp2978
g81
I5
ssg82
g2972
sg75
(lp2979
g111
asbasbasbag68
(g84
g70
NtRp2980
(dp2981
g73
(dp2982
sg82
g78
sg75
(lp2983
g68
(g89
g70
NtRp2984
(dp2985
g73
(dp2986
g93
g94
ssg82
g2980
sg75
(lp2987
S'is_local'
p2988
asbag68
(g89
g70
NtRp2989
(dp2990
g73
(dp2991
g100
g101
ssg82
g2980
sg75
(lp2992
S':'
asbag68
(g89
g70
NtRp2993
(dp2994
g73
(dp2995
sg82
g2980
sg75
(lp2996
g68
(g69
g70
NtRp2997
(dp2998
g73
(dp2999
g81
I5
ssg82
g2993
sg75
(lp3000
g2394
asbasbasbag68
(g84
g70
NtRp3001
(dp3002
g73
(dp3003
sg82
g78
sg75
(lp3004
g68
(g89
g70
NtRp3005
(dp3006
g73
(dp3007
g93
g94
ssg82
g3001
sg75
(lp3008
S'is_restful'
p3009
asbag68
(g89
g70
NtRp3010
(dp3011
g73
(dp3012
g100
g101
ssg82
g3001
sg75
(lp3013
S':'
asbag68
(g89
g70
NtRp3014
(dp3015
g73
(dp3016
sg82
g3001
sg75
(lp3017
g68
(g69
g70
NtRp3018
(dp3019
g73
(dp3020
g81
I5
ssg82
g3014
sg75
(lp3021
g111
asbasbasbag68
(g84
g70
NtRp3022
(dp3023
g73
(dp3024
sg82
g78
sg75
(lp3025
g68
(g89
g70
NtRp3026
(dp3027
g73
(dp3028
g93
g94
ssg82
g3022
sg75
(lp3029
S'now'
p3030
asbag68
(g89
g70
NtRp3031
(dp3032
g73
(dp3033
g100
g101
ssg82
g3022
sg75
(lp3034
S':'
asbag68
(g89
g70
NtRp3035
(dp3036
g73
(dp3037
sg82
g3022
sg75
(lp3038
g68
(g69
g70
NtRp3039
(dp3040
g73
(dp3041
g81
I5
ssg82
g3035
sg75
(lp3042
S'datetime.datetime(2013, 4, 22, 15, 37, 47, 433366)'
p3043
asbasbasbag68
(g84
g70
NtRp3044
(dp3045
g73
(dp3046
sg82
g78
sg75
(lp3047
g68
(g89
g70
NtRp3048
(dp3049
g73
(dp3050
g93
g94
ssg82
g3044
sg75
(lp3051
S'post_vars'
p3052
asbag68
(g89
g70
NtRp3053
(dp3054
g73
(dp3055
g100
g101
ssg82
g3044
sg75
(lp3056
S':'
asbag68
(g89
g70
NtRp3057
(dp3058
g73
(dp3059
sg82
g3044
sg75
(lp3060
g68
(g69
g70
NtRp3061
(dp3062
g73
(dp3063
g81
I5
ssg82
g3057
sg75
(lp3064
g68
(g77
g70
NtRp3065
(dp3066
g73
(dp3067
g81
I4
ssg82
Nsg75
(lp3068
sbasbasbasbag68
(g84
g70
NtRp3069
(dp3070
g73
(dp3071
sg82
g78
sg75
(lp3072
g68
(g89
g70
NtRp3073
(dp3074
g73
(dp3075
g93
g94
ssg82
g3069
sg75
(lp3076
S'raw_args'
p3077
asbag68
(g89
g70
NtRp3078
(dp3079
g73
(dp3080
g100
g101
ssg82
g3069
sg75
(lp3081
S':'
asbag68
(g89
g70
NtRp3082
(dp3083
g73
(dp3084
sg82
g3069
sg75
(lp3085
g68
(g69
g70
NtRp3086
(dp3087
g73
(dp3088
g81
I5
ssg82
g3082
sg75
(lp3089
S'1'
asbasbasbag68
(g84
g70
NtRp3090
(dp3091
g73
(dp3092
sg82
g78
sg75
(lp3093
g68
(g89
g70
NtRp3094
(dp3095
g73
(dp3096
g93
g94
ssg82
g3090
sg75
(lp3097
S'raw_extension'
p3098
asbag68
(g89
g70
NtRp3099
(dp3100
g73
(dp3101
g100
g101
ssg82
g3090
sg75
(lp3102
S':'
asbag68
(g89
g70
NtRp3103
(dp3104
g73
(dp3105
sg82
g3090
sg75
(lp3106
g68
(g69
g70
NtRp3107
(dp3108
g73
(dp3109
g81
I5
ssg82
g3103
sg75
(lp3110
S'None'
p3111
asbasbasbag68
(g84
g70
NtRp3112
(dp3113
g73
(dp3114
sg82
g78
sg75
(lp3115
g68
(g89
g70
NtRp3116
(dp3117
g73
(dp3118
g93
g94
ssg82
g3112
sg75
(lp3119
S'url'
p3120
asbag68
(g89
g70
NtRp3121
(dp3122
g73
(dp3123
g100
g101
ssg82
g3112
sg75
(lp3124
S':'
asbag68
(g89
g70
NtRp3125
(dp3126
g73
(dp3127
sg82
g3112
sg75
(lp3128
g68
(g69
g70
NtRp3129
(dp3130
g73
(dp3131
g81
I5
ssg82
g3125
sg75
(lp3132
g1961
asbasbasbag68
(g84
g70
NtRp3133
(dp3134
g73
(dp3135
sg82
g78
sg75
(lp3136
g68
(g89
g70
NtRp3137
(dp3138
g73
(dp3139
g93
g94
ssg82
g3133
sg75
(lp3140
S'utcnow'
p3141
asbag68
(g89
g70
NtRp3142
(dp3143
g73
(dp3144
g100
g101
ssg82
g3133
sg75
(lp3145
S':'
asbag68
(g89
g70
NtRp3146
(dp3147
g73
(dp3148
sg82
g3133
sg75
(lp3149
g68
(g69
g70
NtRp3150
(dp3151
g73
(dp3152
g81
I5
ssg82
g3146
sg75
(lp3153
S'datetime.datetime(2013, 4, 22, 10, 7, 47, 433403)'
p3154
asbasbasbag68
(g84
g70
NtRp3155
(dp3156
g73
(dp3157
sg82
g78
sg75
(lp3158
g68
(g89
g70
NtRp3159
(dp3160
g73
(dp3161
g93
g94
ssg82
g3155
sg75
(lp3162
S'uuid'
p3163
asbag68
(g89
g70
NtRp3164
(dp3165
g73
(dp3166
g100
g101
ssg82
g3155
sg75
(lp3167
S':'
asbag68
(g89
g70
NtRp3168
(dp3169
g73
(dp3170
sg82
g3155
sg75
(lp3171
g68
(g69
g70
NtRp3172
(dp3173
g73
(dp3174
g81
I5
ssg82
g3168
sg75
(lp3175
S'BuySell/127.0.0.1.2013-04-22.15-37-47.7797cd54-9147-4f8c-adf8-20f123eec512'
p3176
asbasbasbag68
(g84
g70
NtRp3177
(dp3178
g73
(dp3179
sg82
g78
sg75
(lp3180
g68
(g89
g70
NtRp3181
(dp3182
g73
(dp3183
g93
g94
ssg82
g3177
sg75
(lp3184
S'vars'
p3185
asbag68
(g89
g70
NtRp3186
(dp3187
g73
(dp3188
g100
g101
ssg82
g3177
sg75
(lp3189
S':'
asbag68
(g89
g70
NtRp3190
(dp3191
g73
(dp3192
sg82
g3177
sg75
(lp3193
g68
(g69
g70
NtRp3194
(dp3195
g73
(dp3196
g81
I5
ssg82
g3190
sg75
(lp3197
g68
(g77
g70
NtRp3198
(dp3199
g73
(dp3200
g81
I4
ssg82
Nsg75
(lp3201
sbasbasbasbag68
(g84
g70
NtRp3202
(dp3203
g73
(dp3204
sg82
g78
sg75
(lp3205
g68
(g89
g70
NtRp3206
(dp3207
g73
(dp3208
g93
g94
ssg82
g3202
sg75
(lp3209
S'wsgi'
p3210
asbag68
(g89
g70
NtRp3211
(dp3212
g73
(dp3213
g100
g101
ssg82
g3202
sg75
(lp3214
S':'
asbag68
(g89
g70
NtRp3215
(dp3216
g73
(dp3217
sg82
g3202
sg75
(lp3218
g68
(g69
g70
NtRp3219
(dp3220
g73
(dp3221
g81
I5
ssg82
g3215
sg75
(lp3222
g68
(g77
g70
NtRp3223
(dp3224
g73
(dp3225
g81
I4
ssg82
Nsg75
(lp3226
g68
(g84
g70
NtRp3227
(dp3228
g73
(dp3229
sg82
g3223
sg75
(lp3230
g68
(g89
g70
NtRp3231
(dp3232
g73
(dp3233
g93
g94
ssg82
g3227
sg75
(lp3234
S'environ'
p3235
asbag68
(g89
g70
NtRp3236
(dp3237
g73
(dp3238
g100
g101
ssg82
g3227
sg75
(lp3239
S':'
asbag68
(g89
g70
NtRp3240
(dp3241
g73
(dp3242
sg82
g3227
sg75
(lp3243
g68
(g69
g70
NtRp3244
(dp3245
g73
(dp3246
g81
I4
ssg82
g3240
sg75
(lp3247
g68
(g77
g70
NtRp3248
(dp3249
g73
(dp3250
g81
I3
ssg82
Nsg75
(lp3251
g68
(g84
g70
NtRp3252
(dp3253
g73
(dp3254
sg82
g3248
sg75
(lp3255
g68
(g89
g70
NtRp3256
(dp3257
g73
(dp3258
g93
g94
ssg82
g3252
sg75
(lp3259
S'HTTP_ACCEPT'
p3260
asbag68
(g89
g70
NtRp3261
(dp3262
g73
(dp3263
g100
g101
ssg82
g3252
sg75
(lp3264
S':'
asbag68
(g89
g70
NtRp3265
(dp3266
g73
(dp3267
sg82
g3252
sg75
(lp3268
g68
(g69
g70
NtRp3269
(dp3270
g73
(dp3271
g81
I3
ssg82
g3265
sg75
(lp3272
g1609
asbasbasbag68
(g84
g70
NtRp3273
(dp3274
g73
(dp3275
sg82
g3248
sg75
(lp3276
g68
(g89
g70
NtRp3277
(dp3278
g73
(dp3279
g93
g94
ssg82
g3273
sg75
(lp3280
S'HTTP_ACCEPT_CHARSET'
p3281
asbag68
(g89
g70
NtRp3282
(dp3283
g73
(dp3284
g100
g101
ssg82
g3273
sg75
(lp3285
S':'
asbag68
(g89
g70
NtRp3286
(dp3287
g73
(dp3288
sg82
g3273
sg75
(lp3289
g68
(g69
g70
NtRp3290
(dp3291
g73
(dp3292
g81
I3
ssg82
g3286
sg75
(lp3293
g1631
asbasbasbag68
(g84
g70
NtRp3294
(dp3295
g73
(dp3296
sg82
g3248
sg75
(lp3297
g68
(g89
g70
NtRp3298
(dp3299
g73
(dp3300
g93
g94
ssg82
g3294
sg75
(lp3301
S'HTTP_ACCEPT_ENCODING'
p3302
asbag68
(g89
g70
NtRp3303
(dp3304
g73
(dp3305
g100
g101
ssg82
g3294
sg75
(lp3306
S':'
asbag68
(g89
g70
NtRp3307
(dp3308
g73
(dp3309
sg82
g3294
sg75
(lp3310
g68
(g69
g70
NtRp3311
(dp3312
g73
(dp3313
g81
I3
ssg82
g3307
sg75
(lp3314
g1653
asbasbasbag68
(g84
g70
NtRp3315
(dp3316
g73
(dp3317
sg82
g3248
sg75
(lp3318
g68
(g89
g70
NtRp3319
(dp3320
g73
(dp3321
g93
g94
ssg82
g3315
sg75
(lp3322
S'HTTP_ACCEPT_LANGUAGE'
p3323
asbag68
(g89
g70
NtRp3324
(dp3325
g73
(dp3326
g100
g101
ssg82
g3315
sg75
(lp3327
S':'
asbag68
(g89
g70
NtRp3328
(dp3329
g73
(dp3330
sg82
g3315
sg75
(lp3331
g68
(g69
g70
NtRp3332
(dp3333
g73
(dp3334
g81
I3
ssg82
g3328
sg75
(lp3335
g1675
asbasbasbag68
(g84
g70
NtRp3336
(dp3337
g73
(dp3338
sg82
g3248
sg75
(lp3339
g68
(g89
g70
NtRp3340
(dp3341
g73
(dp3342
g93
g94
ssg82
g3336
sg75
(lp3343
S'HTTP_CACHE_CONTROL'
p3344
asbag68
(g89
g70
NtRp3345
(dp3346
g73
(dp3347
g100
g101
ssg82
g3336
sg75
(lp3348
S':'
asbag68
(g89
g70
NtRp3349
(dp3350
g73
(dp3351
sg82
g3336
sg75
(lp3352
g68
(g69
g70
NtRp3353
(dp3354
g73
(dp3355
g81
I3
ssg82
g3349
sg75
(lp3356
g1697
asbasbasbag68
(g84
g70
NtRp3357
(dp3358
g73
(dp3359
sg82
g3248
sg75
(lp3360
g68
(g89
g70
NtRp3361
(dp3362
g73
(dp3363
g93
g94
ssg82
g3357
sg75
(lp3364
S'HTTP_CONNECTION'
p3365
asbag68
(g89
g70
NtRp3366
(dp3367
g73
(dp3368
g100
g101
ssg82
g3357
sg75
(lp3369
S':'
asbag68
(g89
g70
NtRp3370
(dp3371
g73
(dp3372
sg82
g3357
sg75
(lp3373
g68
(g69
g70
NtRp3374
(dp3375
g73
(dp3376
g81
I3
ssg82
g3370
sg75
(lp3377
g1719
asbasbasbag68
(g84
g70
NtRp3378
(dp3379
g73
(dp3380
sg82
g3248
sg75
(lp3381
g68
(g89
g70
NtRp3382
(dp3383
g73
(dp3384
g93
g94
ssg82
g3378
sg75
(lp3385
S'HTTP_COOKIE'
p3386
asbag68
(g89
g70
NtRp3387
(dp3388
g73
(dp3389
g100
g101
ssg82
g3378
sg75
(lp3390
S':'
asbag68
(g89
g70
NtRp3391
(dp3392
g73
(dp3393
sg82
g3378
sg75
(lp3394
g68
(g69
g70
NtRp3395
(dp3396
g73
(dp3397
g81
I3
ssg82
g3391
sg75
(lp3398
g1741
asbasbasbag68
(g84
g70
NtRp3399
(dp3400
g73
(dp3401
sg82
g3248
sg75
(lp3402
g68
(g89
g70
NtRp3403
(dp3404
g73
(dp3405
g93
g94
ssg82
g3399
sg75
(lp3406
S'HTTP_HOST'
p3407
asbag68
(g89
g70
NtRp3408
(dp3409
g73
(dp3410
g100
g101
ssg82
g3399
sg75
(lp3411
S':'
asbag68
(g89
g70
NtRp3412
(dp3413
g73
(dp3414
sg82
g3399
sg75
(lp3415
g68
(g69
g70
NtRp3416
(dp3417
g73
(dp3418
g81
I3
ssg82
g3412
sg75
(lp3419
g1763
asbasbasbag68
(g84
g70
NtRp3420
(dp3421
g73
(dp3422
sg82
g3248
sg75
(lp3423
g68
(g89
g70
NtRp3424
(dp3425
g73
(dp3426
g93
g94
ssg82
g3420
sg75
(lp3427
S'HTTP_REFERER'
p3428
asbag68
(g89
g70
NtRp3429
(dp3430
g73
(dp3431
g100
g101
ssg82
g3420
sg75
(lp3432
S':'
asbag68
(g89
g70
NtRp3433
(dp3434
g73
(dp3435
sg82
g3420
sg75
(lp3436
g68
(g69
g70
NtRp3437
(dp3438
g73
(dp3439
g81
I3
ssg82
g3433
sg75
(lp3440
g1785
asbasbasbag68
(g84
g70
NtRp3441
(dp3442
g73
(dp3443
sg82
g3248
sg75
(lp3444
g68
(g89
g70
NtRp3445
(dp3446
g73
(dp3447
g93
g94
ssg82
g3441
sg75
(lp3448
S'HTTP_USER_AGENT'
p3449
asbag68
(g89
g70
NtRp3450
(dp3451
g73
(dp3452
g100
g101
ssg82
g3441
sg75
(lp3453
S':'
asbag68
(g89
g70
NtRp3454
(dp3455
g73
(dp3456
sg82
g3441
sg75
(lp3457
g68
(g69
g70
NtRp3458
(dp3459
g73
(dp3460
g81
I3
ssg82
g3454
sg75
(lp3461
g1807
asbasbasbag68
(g84
g70
NtRp3462
(dp3463
g73
(dp3464
sg82
g3248
sg75
(lp3465
g68
(g89
g70
NtRp3466
(dp3467
g73
(dp3468
g93
g94
ssg82
g3462
sg75
(lp3469
S'PATH_INFO'
p3470
asbag68
(g89
g70
NtRp3471
(dp3472
g73
(dp3473
g100
g101
ssg82
g3462
sg75
(lp3474
S':'
asbag68
(g89
g70
NtRp3475
(dp3476
g73
(dp3477
sg82
g3462
sg75
(lp3478
g68
(g69
g70
NtRp3479
(dp3480
g73
(dp3481
g81
I3
ssg82
g3475
sg75
(lp3482
g1961
asbasbasbag68
(g84
g70
NtRp3483
(dp3484
g73
(dp3485
sg82
g3248
sg75
(lp3486
g68
(g89
g70
NtRp3487
(dp3488
g73
(dp3489
g93
g94
ssg82
g3483
sg75
(lp3490
S'QUERY_STRING'
p3491
asbag68
(g89
g70
NtRp3492
(dp3493
g73
(dp3494
g100
g101
ssg82
g3483
sg75
(lp3495
S':'
asbag68
(g89
g70
NtRp3496
(dp3497
g73
(dp3498
sg82
g3483
sg75
(lp3499
g68
(g69
g70
NtRp3500
(dp3501
g73
(dp3502
g81
I3
ssg82
g3496
sg75
(lp3503
S''
asbasbasbag68
(g84
g70
NtRp3504
(dp3505
g73
(dp3506
sg82
g3248
sg75
(lp3507
g68
(g89
g70
NtRp3508
(dp3509
g73
(dp3510
g93
g94
ssg82
g3504
sg75
(lp3511
S'REMOTE_ADDR'
p3512
asbag68
(g89
g70
NtRp3513
(dp3514
g73
(dp3515
g100
g101
ssg82
g3504
sg75
(lp3516
S':'
asbag68
(g89
g70
NtRp3517
(dp3518
g73
(dp3519
sg82
g3504
sg75
(lp3520
g68
(g69
g70
NtRp3521
(dp3522
g73
(dp3523
g81
I3
ssg82
g3517
sg75
(lp3524
g235
asbasbasbag68
(g84
g70
NtRp3525
(dp3526
g73
(dp3527
sg82
g3248
sg75
(lp3528
g68
(g89
g70
NtRp3529
(dp3530
g73
(dp3531
g93
g94
ssg82
g3525
sg75
(lp3532
S'REMOTE_PORT'
p3533
asbag68
(g89
g70
NtRp3534
(dp3535
g73
(dp3536
g100
g101
ssg82
g3525
sg75
(lp3537
S':'
asbag68
(g89
g70
NtRp3538
(dp3539
g73
(dp3540
sg82
g3525
sg75
(lp3541
g68
(g69
g70
NtRp3542
(dp3543
g73
(dp3544
g81
I3
ssg82
g3538
sg75
(lp3545
g2025
asbasbasbag68
(g84
g70
NtRp3546
(dp3547
g73
(dp3548
sg82
g3248
sg75
(lp3549
g68
(g89
g70
NtRp3550
(dp3551
g73
(dp3552
g93
g94
ssg82
g3546
sg75
(lp3553
S'REQUEST_METHOD'
p3554
asbag68
(g89
g70
NtRp3555
(dp3556
g73
(dp3557
g100
g101
ssg82
g3546
sg75
(lp3558
S':'
asbag68
(g89
g70
NtRp3559
(dp3560
g73
(dp3561
sg82
g3546
sg75
(lp3562
g68
(g69
g70
NtRp3563
(dp3564
g73
(dp3565
g81
I3
ssg82
g3559
sg75
(lp3566
g2047
asbasbasbag68
(g84
g70
NtRp3567
(dp3568
g73
(dp3569
sg82
g3248
sg75
(lp3570
g68
(g89
g70
NtRp3571
(dp3572
g73
(dp3573
g93
g94
ssg82
g3567
sg75
(lp3574
S'REQUEST_URI'
p3575
asbag68
(g89
g70
NtRp3576
(dp3577
g73
(dp3578
g100
g101
ssg82
g3567
sg75
(lp3579
S':'
asbag68
(g89
g70
NtRp3580
(dp3581
g73
(dp3582
sg82
g3567
sg75
(lp3583
g68
(g69
g70
NtRp3584
(dp3585
g73
(dp3586
g81
I3
ssg82
g3580
sg75
(lp3587
g1961
asbasbasbag68
(g84
g70
NtRp3588
(dp3589
g73
(dp3590
sg82
g3248
sg75
(lp3591
g68
(g89
g70
NtRp3592
(dp3593
g73
(dp3594
g93
g94
ssg82
g3588
sg75
(lp3595
S'SCRIPT_NAME'
p3596
asbag68
(g89
g70
NtRp3597
(dp3598
g73
(dp3599
g100
g101
ssg82
g3588
sg75
(lp3600
S':'
asbag68
(g89
g70
NtRp3601
(dp3602
g73
(dp3603
sg82
g3588
sg75
(lp3604
g68
(g69
g70
NtRp3605
(dp3606
g73
(dp3607
g81
I3
ssg82
g3601
sg75
(lp3608
S''
asbasbasbag68
(g84
g70
NtRp3609
(dp3610
g73
(dp3611
sg82
g3248
sg75
(lp3612
g68
(g89
g70
NtRp3613
(dp3614
g73
(dp3615
g93
g94
ssg82
g3609
sg75
(lp3616
S'SERVER_NAME'
p3617
asbag68
(g89
g70
NtRp3618
(dp3619
g73
(dp3620
g100
g101
ssg82
g3609
sg75
(lp3621
S':'
asbag68
(g89
g70
NtRp3622
(dp3623
g73
(dp3624
sg82
g3609
sg75
(lp3625
g68
(g69
g70
NtRp3626
(dp3627
g73
(dp3628
g81
I3
ssg82
g3622
sg75
(lp3629
g2111
asbasbasbag68
(g84
g70
NtRp3630
(dp3631
g73
(dp3632
sg82
g3248
sg75
(lp3633
g68
(g89
g70
NtRp3634
(dp3635
g73
(dp3636
g93
g94
ssg82
g3630
sg75
(lp3637
S'SERVER_PORT'
p3638
asbag68
(g89
g70
NtRp3639
(dp3640
g73
(dp3641
g100
g101
ssg82
g3630
sg75
(lp3642
S':'
asbag68
(g89
g70
NtRp3643
(dp3644
g73
(dp3645
sg82
g3630
sg75
(lp3646
g68
(g69
g70
NtRp3647
(dp3648
g73
(dp3649
g81
I3
ssg82
g3643
sg75
(lp3650
g2133
asbasbasbag68
(g84
g70
NtRp3651
(dp3652
g73
(dp3653
sg82
g3248
sg75
(lp3654
g68
(g89
g70
NtRp3655
(dp3656
g73
(dp3657
g93
g94
ssg82
g3651
sg75
(lp3658
S'SERVER_PROTOCOL'
p3659
asbag68
(g89
g70
NtRp3660
(dp3661
g73
(dp3662
g100
g101
ssg82
g3651
sg75
(lp3663
S':'
asbag68
(g89
g70
NtRp3664
(dp3665
g73
(dp3666
sg82
g3651
sg75
(lp3667
g68
(g69
g70
NtRp3668
(dp3669
g73
(dp3670
g81
I3
ssg82
g3664
sg75
(lp3671
g2155
asbasbasbag68
(g84
g70
NtRp3672
(dp3673
g73
(dp3674
sg82
g3248
sg75
(lp3675
g68
(g89
g70
NtRp3676
(dp3677
g73
(dp3678
g93
g94
ssg82
g3672
sg75
(lp3679
S'SERVER_SOFTWARE'
p3680
asbag68
(g89
g70
NtRp3681
(dp3682
g73
(dp3683
g100
g101
ssg82
g3672
sg75
(lp3684
S':'
asbag68
(g89
g70
NtRp3685
(dp3686
g73
(dp3687
sg82
g3672
sg75
(lp3688
g68
(g69
g70
NtRp3689
(dp3690
g73
(dp3691
g81
I3
ssg82
g3685
sg75
(lp3692
g2177
asbasbasbag68
(g84
g70
NtRp3693
(dp3694
g73
(dp3695
sg82
g3248
sg75
(lp3696
g68
(g89
g70
NtRp3697
(dp3698
g73
(dp3699
g93
g94
ssg82
g3693
sg75
(lp3700
S'wsgi.errors'
p3701
asbag68
(g89
g70
NtRp3702
(dp3703
g73
(dp3704
g100
g101
ssg82
g3693
sg75
(lp3705
S':'
asbag68
(g89
g70
NtRp3706
(dp3707
g73
(dp3708
sg82
g3693
sg75
(lp3709
g68
(g69
g70
NtRp3710
(dp3711
g73
(dp3712
g81
I3
ssg82
g3706
sg75
(lp3713
S"<open file '<stderr>', mode 'w' at 0xb789e0d0>"
p3714
asbasbasbag68
(g84
g70
NtRp3715
(dp3716
g73
(dp3717
sg82
g3248
sg75
(lp3718
g68
(g89
g70
NtRp3719
(dp3720
g73
(dp3721
g93
g94
ssg82
g3715
sg75
(lp3722
S'wsgi.file_wrapper'
p3723
asbag68
(g89
g70
NtRp3724
(dp3725
g73
(dp3726
g100
g101
ssg82
g3715
sg75
(lp3727
S':'
asbag68
(g89
g70
NtRp3728
(dp3729
g73
(dp3730
sg82
g3715
sg75
(lp3731
g68
(g69
g70
NtRp3732
(dp3733
g73
(dp3734
g81
I3
ssg82
g3728
sg75
(lp3735
S'<class wsgiref.util.FileWrapper at 0xa4afddc>'
p3736
asbasbasbag68
(g84
g70
NtRp3737
(dp3738
g73
(dp3739
sg82
g3248
sg75
(lp3740
g68
(g89
g70
NtRp3741
(dp3742
g73
(dp3743
g93
g94
ssg82
g3737
sg75
(lp3744
S'wsgi.input'
p3745
asbag68
(g89
g70
NtRp3746
(dp3747
g73
(dp3748
g100
g101
ssg82
g3737
sg75
(lp3749
S':'
asbag68
(g89
g70
NtRp3750
(dp3751
g73
(dp3752
sg82
g3737
sg75
(lp3753
g68
(g69
g70
NtRp3754
(dp3755
g73
(dp3756
g81
I3
ssg82
g3750
sg75
(lp3757
S'<cStringIO.StringO object at 0xb27ade0>'
p3758
asbasbasbag68
(g84
g70
NtRp3759
(dp3760
g73
(dp3761
sg82
g3248
sg75
(lp3762
g68
(g89
g70
NtRp3763
(dp3764
g73
(dp3765
g93
g94
ssg82
g3759
sg75
(lp3766
S'wsgi.multiprocess'
p3767
asbag68
(g89
g70
NtRp3768
(dp3769
g73
(dp3770
g100
g101
ssg82
g3759
sg75
(lp3771
S':'
asbag68
(g89
g70
NtRp3772
(dp3773
g73
(dp3774
sg82
g3759
sg75
(lp3775
g68
(g69
g70
NtRp3776
(dp3777
g73
(dp3778
g81
I3
ssg82
g3772
sg75
(lp3779
g111
asbasbasbag68
(g84
g70
NtRp3780
(dp3781
g73
(dp3782
sg82
g3248
sg75
(lp3783
g68
(g89
g70
NtRp3784
(dp3785
g73
(dp3786
g93
g94
ssg82
g3780
sg75
(lp3787
S'wsgi.multithread'
p3788
asbag68
(g89
g70
NtRp3789
(dp3790
g73
(dp3791
g100
g101
ssg82
g3780
sg75
(lp3792
S':'
asbag68
(g89
g70
NtRp3793
(dp3794
g73
(dp3795
sg82
g3780
sg75
(lp3796
g68
(g69
g70
NtRp3797
(dp3798
g73
(dp3799
g81
I3
ssg82
g3793
sg75
(lp3800
g2394
asbasbasbag68
(g84
g70
NtRp3801
(dp3802
g73
(dp3803
sg82
g3248
sg75
(lp3804
g68
(g89
g70
NtRp3805
(dp3806
g73
(dp3807
g93
g94
ssg82
g3801
sg75
(lp3808
S'wsgi.run_once'
p3809
asbag68
(g89
g70
NtRp3810
(dp3811
g73
(dp3812
g100
g101
ssg82
g3801
sg75
(lp3813
S':'
asbag68
(g89
g70
NtRp3814
(dp3815
g73
(dp3816
sg82
g3801
sg75
(lp3817
g68
(g69
g70
NtRp3818
(dp3819
g73
(dp3820
g81
I3
ssg82
g3814
sg75
(lp3821
g111
asbasbasbag68
(g84
g70
NtRp3822
(dp3823
g73
(dp3824
sg82
g3248
sg75
(lp3825
g68
(g89
g70
NtRp3826
(dp3827
g73
(dp3828
g93
g94
ssg82
g3822
sg75
(lp3829
S'wsgi.url_scheme'
p3830
asbag68
(g89
g70
NtRp3831
(dp3832
g73
(dp3833
g100
g101
ssg82
g3822
sg75
(lp3834
S':'
asbag68
(g89
g70
NtRp3835
(dp3836
g73
(dp3837
sg82
g3822
sg75
(lp3838
g68
(g69
g70
NtRp3839
(dp3840
g73
(dp3841
g81
I3
ssg82
g3835
sg75
(lp3842
g2437
asbasbasbag68
(g84
g70
NtRp3843
(dp3844
g73
(dp3845
sg82
g3248
sg75
(lp3846
g68
(g89
g70
NtRp3847
(dp3848
g73
(dp3849
g93
g94
ssg82
g3843
sg75
(lp3850
S'wsgi.version'
p3851
asbag68
(g89
g70
NtRp3852
(dp3853
g73
(dp3854
g100
g101
ssg82
g3843
sg75
(lp3855
S':'
asbag68
(g89
g70
NtRp3856
(dp3857
g73
(dp3858
sg82
g3843
sg75
(lp3859
g68
(g69
g70
NtRp3860
(dp3861
g73
(dp3862
g81
I3
ssg82
g3856
sg75
(lp3863
S'1'
asbasbasbasbasbasbasbasbasbasbasbasbasbsS'frames'
p3864
(lp3865
(dp3866
S'file'
p3867
S'/home/pratyush/web2py/gluon/restricted.py'
p3868
sS'dump'
p3869
(dp3870
S'code'
p3871
S"'# -*- coding: utf-8 -*-\\n# this file is released ...=seller)\\nresponse._vars=response._caller(seller)\\n'"
p3872
sS'layer'
p3873
S"'/home/pratyush/web2py/applications/BuySell/controllers/default.py'"
p3874
sS'global compile2'
p3875
S'<function compile2>'
p3876
sS'ccode'
p3877
S'undefined'
p3878
ssS'lnum'
p3879
I211
sS'lines'
p3880
(dp3881
I206
S"    environment['__name__'] = '__restricted__'"
p3882
sI207
S'    try:'
p3883
sI208
S'        if isinstance(code, types.CodeType):'
p3884
sI209
S'            ccode = code'
p3885
sI210
S'        else:'
p3886
sI211
S'            ccode = compile2(code, layer)'
p3887
sI212
S'        exec ccode in environment'
p3888
sI213
S'    except HTTP:'
p3889
sI214
S'        raise'
p3890
sI215
S'    except RestrictedError:'
p3891
ssS'call'
p3892
S"(code='# -*- coding: utf-8 -*-\\n# this file is released ...=seller)\\nresponse._vars=response._caller(seller)\\n', environment={'A': <class 'gluon.html.A'>, 'Auth': <class 'gluon.tools.Auth'>, 'B': <class 'gluon.html.B'>, 'BEAUTIFY': <class 'gluon.html.BEAUTIFY'>, 'BODY': <class 'gluon.html.BODY'>, 'BR': <class 'gluon.html.BR'>, 'BUTTON': <class 'gluon.html.BUTTON'>, 'CAT': <class 'gluon.html.CAT'>, 'CENTER': <class 'gluon.html.CENTER'>, 'CLEANUP': <class 'gluon.validators.CLEANUP'>, ...}, layer='/home/pratyush/web2py/applications/BuySell/controllers/default.py')"
p3893
sS'func'
p3894
S'restricted'
p3895
sa(dp3896
g3867
S'/home/pratyush/web2py/gluon/restricted.py'
p3897
sg3869
(dp3898
S'builtincompile'
p3899
S'<built-in function compile>'
p3900
sS'code'
p3901
S"'# -*- coding: utf-8 -*-\\n# this file is released ...=seller)\\nresponse._vars=response._caller(seller)\\n'"
p3902
sS'code.rstrip'
p3903
S'<built-in method rstrip of str object>'
p3904
sS').replace'
p3905
g3878
sS'layer'
p3906
S"'/home/pratyush/web2py/applications/BuySell/controllers/default.py'"
p3907
ssg3879
I194
sg3880
(dp3908
I192
S"    The +'\\n' is necessary else compile fails when code ends in a comment."
p3909
sI193
S'    """'
p3910
sI194
S"    return compile(code.rstrip().replace('\\r\\n', '\\n') + '\\n', layer, 'exec')"
p3911
sI195
S''
sI196
S''
sI197
S"def restricted(code, environment=None, layer='Unknown'):"
p3912
sI198
S'    """'
p3913
sI189
S''
sI190
S'def compile2(code, layer):'
p3914
sI191
S'    """'
p3915
ssg3892
S"(code='# -*- coding: utf-8 -*-\\n# this file is released ...=seller)\\nresponse._vars=response._caller(seller)\\n', layer='/home/pratyush/web2py/applications/BuySell/controllers/default.py')"
p3916
sg3894
S'compile2'
p3917
sasS'pyver'
p3918
S'Python 2.7.2+: /usr/bin/python2.7'
p3919
sS'session'
p3920
g68
(g69
g70
NtRp3921
(dp3922
g73
(dp3923
sg75
(lp3924
g68
(g77
g70
NtRp3925
(dp3926
g73
(dp3927
g81
I5
ssg82
Nsg75
(lp3928
g68
(g84
g70
NtRp3929
(dp3930
g73
(dp3931
sg82
g3925
sg75
(lp3932
g68
(g89
g70
NtRp3933
(dp3934
g73
(dp3935
g93
g94
ssg82
g3929
sg75
(lp3936
S'auth'
p3937
asbag68
(g89
g70
NtRp3938
(dp3939
g73
(dp3940
g100
g101
ssg82
g3929
sg75
(lp3941
S':'
asbag68
(g89
g70
NtRp3942
(dp3943
g73
(dp3944
sg82
g3929
sg75
(lp3945
g68
(g69
g70
NtRp3946
(dp3947
g73
(dp3948
g81
I5
ssg82
g3942
sg75
(lp3949
g68
(g77
g70
NtRp3950
(dp3951
g73
(dp3952
g81
I4
ssg82
Nsg75
(lp3953
g68
(g84
g70
NtRp3954
(dp3955
g73
(dp3956
sg82
g3950
sg75
(lp3957
g68
(g89
g70
NtRp3958
(dp3959
g73
(dp3960
g93
g94
ssg82
g3954
sg75
(lp3961
S'expiration'
p3962
asbag68
(g89
g70
NtRp3963
(dp3964
g73
(dp3965
g100
g101
ssg82
g3954
sg75
(lp3966
S':'
asbag68
(g89
g70
NtRp3967
(dp3968
g73
(dp3969
sg82
g3954
sg75
(lp3970
g68
(g69
g70
NtRp3971
(dp3972
g73
(dp3973
g81
I4
ssg82
g3967
sg75
(lp3974
S'3600'
p3975
asbasbasbag68
(g84
g70
NtRp3976
(dp3977
g73
(dp3978
sg82
g3950
sg75
(lp3979
g68
(g89
g70
NtRp3980
(dp3981
g73
(dp3982
g93
g94
ssg82
g3976
sg75
(lp3983
S'hmac_key'
p3984
asbag68
(g89
g70
NtRp3985
(dp3986
g73
(dp3987
g100
g101
ssg82
g3976
sg75
(lp3988
S':'
asbag68
(g89
g70
NtRp3989
(dp3990
g73
(dp3991
sg82
g3976
sg75
(lp3992
g68
(g69
g70
NtRp3993
(dp3994
g73
(dp3995
g81
I4
ssg82
g3989
sg75
(lp3996
S'143b6fc1-7d39-4b81-9961-9e7f32b94083'
p3997
asbasbasbag68
(g84
g70
NtRp3998
(dp3999
g73
(dp4000
sg82
g3950
sg75
(lp4001
g68
(g89
g70
NtRp4002
(dp4003
g73
(dp4004
g93
g94
ssg82
g3998
sg75
(lp4005
S'last_visit'
p4006
asbag68
(g89
g70
NtRp4007
(dp4008
g73
(dp4009
g100
g101
ssg82
g3998
sg75
(lp4010
S':'
asbag68
(g89
g70
NtRp4011
(dp4012
g73
(dp4013
sg82
g3998
sg75
(lp4014
g68
(g69
g70
NtRp4015
(dp4016
g73
(dp4017
g81
I4
ssg82
g4011
sg75
(lp4018
S'datetime.datetime(2013, 4, 22, 15, 35, 8, 326939)'
p4019
asbasbasbag68
(g84
g70
NtRp4020
(dp4021
g73
(dp4022
sg82
g3950
sg75
(lp4023
g68
(g89
g70
NtRp4024
(dp4025
g73
(dp4026
g93
g94
ssg82
g4020
sg75
(lp4027
S'remember'
p4028
asbag68
(g89
g70
NtRp4029
(dp4030
g73
(dp4031
g100
g101
ssg82
g4020
sg75
(lp4032
S':'
asbag68
(g89
g70
NtRp4033
(dp4034
g73
(dp4035
sg82
g4020
sg75
(lp4036
g68
(g69
g70
NtRp4037
(dp4038
g73
(dp4039
g81
I4
ssg82
g4033
sg75
(lp4040
g111
asbasbasbag68
(g84
g70
NtRp4041
(dp4042
g73
(dp4043
sg82
g3950
sg75
(lp4044
g68
(g89
g70
NtRp4045
(dp4046
g73
(dp4047
g93
g94
ssg82
g4041
sg75
(lp4048
S'user'
p4049
asbag68
(g89
g70
NtRp4050
(dp4051
g73
(dp4052
g100
g101
ssg82
g4041
sg75
(lp4053
S':'
asbag68
(g89
g70
NtRp4054
(dp4055
g73
(dp4056
sg82
g4041
sg75
(lp4057
g68
(g69
g70
NtRp4058
(dp4059
g73
(dp4060
g81
I4
ssg82
g4054
sg75
(lp4061
g68
(g77
g70
NtRp4062
(dp4063
g73
(dp4064
g81
I3
ssg82
Nsg75
(lp4065
g68
(g84
g70
NtRp4066
(dp4067
g73
(dp4068
sg82
g4062
sg75
(lp4069
g68
(g89
g70
NtRp4070
(dp4071
g73
(dp4072
g93
g94
ssg82
g4066
sg75
(lp4073
S'email'
p4074
asbag68
(g89
g70
NtRp4075
(dp4076
g73
(dp4077
g100
g101
ssg82
g4066
sg75
(lp4078
S':'
asbag68
(g89
g70
NtRp4079
(dp4080
g73
(dp4081
sg82
g4066
sg75
(lp4082
g68
(g69
g70
NtRp4083
(dp4084
g73
(dp4085
g81
I3
ssg82
g4079
sg75
(lp4086
S'pratyush.nigam@gmail.com'
p4087
asbasbasbag68
(g84
g70
NtRp4088
(dp4089
g73
(dp4090
sg82
g4062
sg75
(lp4091
g68
(g89
g70
NtRp4092
(dp4093
g73
(dp4094
g93
g94
ssg82
g4088
sg75
(lp4095
S'first_name'
p4096
asbag68
(g89
g70
NtRp4097
(dp4098
g73
(dp4099
g100
g101
ssg82
g4088
sg75
(lp4100
S':'
asbag68
(g89
g70
NtRp4101
(dp4102
g73
(dp4103
sg82
g4088
sg75
(lp4104
g68
(g69
g70
NtRp4105
(dp4106
g73
(dp4107
g81
I3
ssg82
g4101
sg75
(lp4108
S'Pratyush'
p4109
asbasbasbag68
(g84
g70
NtRp4110
(dp4111
g73
(dp4112
sg82
g4062
sg75
(lp4113
g68
(g89
g70
NtRp4114
(dp4115
g73
(dp4116
g93
g94
ssg82
g4110
sg75
(lp4117
S'id'
p4118
asbag68
(g89
g70
NtRp4119
(dp4120
g73
(dp4121
g100
g101
ssg82
g4110
sg75
(lp4122
S':'
asbag68
(g89
g70
NtRp4123
(dp4124
g73
(dp4125
sg82
g4110
sg75
(lp4126
g68
(g69
g70
NtRp4127
(dp4128
g73
(dp4129
g81
I3
ssg82
g4123
sg75
(lp4130
S'1'
asbasbasbag68
(g84
g70
NtRp4131
(dp4132
g73
(dp4133
sg82
g4062
sg75
(lp4134
g68
(g89
g70
NtRp4135
(dp4136
g73
(dp4137
g93
g94
ssg82
g4131
sg75
(lp4138
S'last_name'
p4139
asbag68
(g89
g70
NtRp4140
(dp4141
g73
(dp4142
g100
g101
ssg82
g4131
sg75
(lp4143
S':'
asbag68
(g89
g70
NtRp4144
(dp4145
g73
(dp4146
sg82
g4131
sg75
(lp4147
g68
(g69
g70
NtRp4148
(dp4149
g73
(dp4150
g81
I3
ssg82
g4144
sg75
(lp4151
S'Nigam'
p4152
asbasbasbag68
(g84
g70
NtRp4153
(dp4154
g73
(dp4155
sg82
g4062
sg75
(lp4156
g68
(g89
g70
NtRp4157
(dp4158
g73
(dp4159
g93
g94
ssg82
g4153
sg75
(lp4160
S'registration_id'
p4161
asbag68
(g89
g70
NtRp4162
(dp4163
g73
(dp4164
g100
g101
ssg82
g4153
sg75
(lp4165
S':'
asbag68
(g89
g70
NtRp4166
(dp4167
g73
(dp4168
sg82
g4153
sg75
(lp4169
g68
(g69
g70
NtRp4170
(dp4171
g73
(dp4172
g81
I3
ssg82
g4166
sg75
(lp4173
S''
asbasbasbag68
(g84
g70
NtRp4174
(dp4175
g73
(dp4176
sg82
g4062
sg75
(lp4177
g68
(g89
g70
NtRp4178
(dp4179
g73
(dp4180
g93
g94
ssg82
g4174
sg75
(lp4181
S'registration_key'
p4182
asbag68
(g89
g70
NtRp4183
(dp4184
g73
(dp4185
g100
g101
ssg82
g4174
sg75
(lp4186
S':'
asbag68
(g89
g70
NtRp4187
(dp4188
g73
(dp4189
sg82
g4174
sg75
(lp4190
g68
(g69
g70
NtRp4191
(dp4192
g73
(dp4193
g81
I3
ssg82
g4187
sg75
(lp4194
S''
asbasbasbag68
(g84
g70
NtRp4195
(dp4196
g73
(dp4197
sg82
g4062
sg75
(lp4198
g68
(g89
g70
NtRp4199
(dp4200
g73
(dp4201
g93
g94
ssg82
g4195
sg75
(lp4202
S'reset_password_key'
p4203
asbag68
(g89
g70
NtRp4204
(dp4205
g73
(dp4206
g100
g101
ssg82
g4195
sg75
(lp4207
S':'
asbag68
(g89
g70
NtRp4208
(dp4209
g73
(dp4210
sg82
g4195
sg75
(lp4211
g68
(g69
g70
NtRp4212
(dp4213
g73
(dp4214
g81
I3
ssg82
g4208
sg75
(lp4215
S''
asbasbasbasbasbasbasbag68
(g84
g70
NtRp4216
(dp4217
g73
(dp4218
sg82
g3950
sg75
(lp4219
g68
(g89
g70
NtRp4220
(dp4221
g73
(dp4222
g93
g94
ssg82
g4216
sg75
(lp4223
S'user_groups'
p4224
asbag68
(g89
g70
NtRp4225
(dp4226
g73
(dp4227
g100
g101
ssg82
g4216
sg75
(lp4228
S':'
asbag68
(g89
g70
NtRp4229
(dp4230
g73
(dp4231
sg82
g4216
sg75
(lp4232
g68
(g69
g70
NtRp4233
(dp4234
g73
(dp4235
g81
I4
ssg82
g4229
sg75
(lp4236
g68
(g77
g70
NtRp4237
(dp4238
g73
(dp4239
g81
I3
ssg82
Nsg75
(lp4240
g68
(g84
g70
NtRp4241
(dp4242
g73
(dp4243
sg82
g4237
sg75
(lp4244
g68
(g89
g70
NtRp4245
(dp4246
g73
(dp4247
g93
g94
ssg82
g4241
sg75
(lp4248
S'1'
asbag68
(g89
g70
NtRp4249
(dp4250
g73
(dp4251
g100
g101
ssg82
g4241
sg75
(lp4252
S':'
asbag68
(g89
g70
NtRp4253
(dp4254
g73
(dp4255
sg82
g4241
sg75
(lp4256
g68
(g69
g70
NtRp4257
(dp4258
g73
(dp4259
g81
I3
ssg82
g4253
sg75
(lp4260
S'user_1'
p4261
asbasbasbasbasbasbasbasbasbasbasbag68
(g84
g70
NtRp4262
(dp4263
g73
(dp4264
sg82
g3925
sg75
(lp4265
g68
(g89
g70
NtRp4266
(dp4267
g73
(dp4268
g93
g94
ssg82
g4262
sg75
(lp4269
S'flash'
p4270
asbag68
(g89
g70
NtRp4271
(dp4272
g73
(dp4273
g100
g101
ssg82
g4262
sg75
(lp4274
S':'
asbag68
(g89
g70
NtRp4275
(dp4276
g73
(dp4277
sg82
g4262
sg75
(lp4278
g68
(g69
g70
NtRp4279
(dp4280
g73
(dp4281
g81
I5
ssg82
g4275
sg75
(lp4282
S'None'
p4283
asbasbasbag68
(g84
g70
NtRp4284
(dp4285
g73
(dp4286
sg82
g3925
sg75
(lp4287
g68
(g89
g70
NtRp4288
(dp4289
g73
(dp4290
g93
g94
ssg82
g4284
sg75
(lp4291
S'last_orderby'
p4292
asbag68
(g89
g70
NtRp4293
(dp4294
g73
(dp4295
g100
g101
ssg82
g4284
sg75
(lp4296
S':'
asbag68
(g89
g70
NtRp4297
(dp4298
g73
(dp4299
sg82
g4284
sg75
(lp4300
g68
(g69
g70
NtRp4301
(dp4302
g73
(dp4303
g81
I5
ssg82
g4297
sg75
(lp4304
S'None'
p4305
asbasbasbag68
(g84
g70
NtRp4306
(dp4307
g73
(dp4308
sg82
g3925
sg75
(lp4309
g68
(g89
g70
NtRp4310
(dp4311
g73
(dp4312
g93
g94
ssg82
g4306
sg75
(lp4313
S'last_query'
p4314
asbag68
(g89
g70
NtRp4315
(dp4316
g73
(dp4317
g100
g101
ssg82
g4306
sg75
(lp4318
S':'
asbag68
(g89
g70
NtRp4319
(dp4320
g73
(dp4321
sg82
g4306
sg75
(lp4322
g68
(g69
g70
NtRp4323
(dp4324
g73
(dp4325
g81
I5
ssg82
g4319
sg75
(lp4326
S'db.rating.id>0'
p4327
asbasbasbasbasbsS'etype'
p4328
S"<type 'exceptions.SyntaxError'>"
p4329
sS'date'
p4330
S'Mon Apr 22 15:37:47 2013'
p4331
sS'response'
p4332
g68
(g69
g70
NtRp4333
(dp4334
g73
(dp4335
sg75
(lp4336
g68
(g77
g70
NtRp4337
(dp4338
g73
(dp4339
g81
I5
ssg82
Nsg75
(lp4340
g68
(g84
g70
NtRp4341
(dp4342
g73
(dp4343
sg82
g4337
sg75
(lp4344
g68
(g89
g70
NtRp4345
(dp4346
g73
(dp4347
g93
g94
ssg82
g4341
sg75
(lp4348
g178
asbag68
(g89
g70
NtRp4349
(dp4350
g73
(dp4351
g100
g101
ssg82
g4341
sg75
(lp4352
S':'
asbag68
(g89
g70
NtRp4353
(dp4354
g73
(dp4355
sg82
g4341
sg75
(lp4356
g68
(g69
g70
NtRp4357
(dp4358
g73
(dp4359
g81
I5
ssg82
g4353
sg75
(lp4360
S'<cStringIO.StringO object at 0xa88c8e0>'
p4361
asbasbasbag68
(g84
g70
NtRp4362
(dp4363
g73
(dp4364
sg82
g4337
sg75
(lp4365
g68
(g89
g70
NtRp4366
(dp4367
g73
(dp4368
g93
g94
ssg82
g4362
sg75
(lp4369
g266
asbag68
(g89
g70
NtRp4370
(dp4371
g73
(dp4372
g100
g101
ssg82
g4362
sg75
(lp4373
S':'
asbag68
(g89
g70
NtRp4374
(dp4375
g73
(dp4376
sg82
g4362
sg75
(lp4377
g68
(g69
g70
NtRp4378
(dp4379
g73
(dp4380
g81
I5
ssg82
g4374
sg75
(lp4381
g68
(g77
g70
NtRp4382
(dp4383
g73
(dp4384
g81
I4
ssg82
Nsg75
(lp4385
g68
(g84
g70
NtRp4386
(dp4387
g73
(dp4388
sg82
g4382
sg75
(lp4389
g68
(g89
g70
NtRp4390
(dp4391
g73
(dp4392
g93
g94
ssg82
g4386
sg75
(lp4393
S'session_id_buysell'
p4394
asbag68
(g89
g70
NtRp4395
(dp4396
g73
(dp4397
g100
g101
ssg82
g4386
sg75
(lp4398
S':'
asbag68
(g89
g70
NtRp4399
(dp4400
g73
(dp4401
sg82
g4386
sg75
(lp4402
g68
(g69
g70
NtRp4403
(dp4404
g73
(dp4405
g81
I4
ssg82
g4399
sg75
(lp4406
g684
ag68
(g77
g70
NtRp4407
(dp4408
g73
(dp4409
g81
I3
ssg82
Nsg75
(lp4410
g68
(g84
g70
NtRp4411
(dp4412
g73
(dp4413
sg82
g4407
sg75
(lp4414
g68
(g89
g70
NtRp4415
(dp4416
g73
(dp4417
g93
g94
ssg82
g4411
sg75
(lp4418
g317
asbag68
(g89
g70
NtRp4419
(dp4420
g73
(dp4421
g100
g101
ssg82
g4411
sg75
(lp4422
S':'
asbag68
(g89
g70
NtRp4423
(dp4424
g73
(dp4425
sg82
g4411
sg75
(lp4426
g68
(g69
g70
NtRp4427
(dp4428
g73
(dp4429
g81
I3
ssg82
g4423
sg75
(lp4430
S''
asbasbasbag68
(g84
g70
NtRp4431
(dp4432
g73
(dp4433
sg82
g4407
sg75
(lp4434
g68
(g89
g70
NtRp4435
(dp4436
g73
(dp4437
g93
g94
ssg82
g4431
sg75
(lp4438
g338
asbag68
(g89
g70
NtRp4439
(dp4440
g73
(dp4441
g100
g101
ssg82
g4431
sg75
(lp4442
S':'
asbag68
(g89
g70
NtRp4443
(dp4444
g73
(dp4445
sg82
g4431
sg75
(lp4446
g68
(g69
g70
NtRp4447
(dp4448
g73
(dp4449
g81
I3
ssg82
g4443
sg75
(lp4450
S''
asbasbasbag68
(g84
g70
NtRp4451
(dp4452
g73
(dp4453
sg82
g4407
sg75
(lp4454
g68
(g89
g70
NtRp4455
(dp4456
g73
(dp4457
g93
g94
ssg82
g4451
sg75
(lp4458
g359
asbag68
(g89
g70
NtRp4459
(dp4460
g73
(dp4461
g100
g101
ssg82
g4451
sg75
(lp4462
S':'
asbag68
(g89
g70
NtRp4463
(dp4464
g73
(dp4465
sg82
g4451
sg75
(lp4466
g68
(g69
g70
NtRp4467
(dp4468
g73
(dp4469
g81
I3
ssg82
g4463
sg75
(lp4470
S''
asbasbasbag68
(g84
g70
NtRp4471
(dp4472
g73
(dp4473
sg82
g4407
sg75
(lp4474
g68
(g89
g70
NtRp4475
(dp4476
g73
(dp4477
g93
g94
ssg82
g4471
sg75
(lp4478
g380
asbag68
(g89
g70
NtRp4479
(dp4480
g73
(dp4481
g100
g101
ssg82
g4471
sg75
(lp4482
S':'
asbag68
(g89
g70
NtRp4483
(dp4484
g73
(dp4485
sg82
g4471
sg75
(lp4486
g68
(g69
g70
NtRp4487
(dp4488
g73
(dp4489
g81
I3
ssg82
g4483
sg75
(lp4490
S''
asbasbasbag68
(g84
g70
NtRp4491
(dp4492
g73
(dp4493
sg82
g4407
sg75
(lp4494
g68
(g89
g70
NtRp4495
(dp4496
g73
(dp4497
g93
g94
ssg82
g4491
sg75
(lp4498
g401
asbag68
(g89
g70
NtRp4499
(dp4500
g73
(dp4501
g100
g101
ssg82
g4491
sg75
(lp4502
S':'
asbag68
(g89
g70
NtRp4503
(dp4504
g73
(dp4505
sg82
g4491
sg75
(lp4506
g68
(g69
g70
NtRp4507
(dp4508
g73
(dp4509
g81
I3
ssg82
g4503
sg75
(lp4510
S''
asbasbasbag68
(g84
g70
NtRp4511
(dp4512
g73
(dp4513
sg82
g4407
sg75
(lp4514
g68
(g89
g70
NtRp4515
(dp4516
g73
(dp4517
g93
g94
ssg82
g4511
sg75
(lp4518
g422
asbag68
(g89
g70
NtRp4519
(dp4520
g73
(dp4521
g100
g101
ssg82
g4511
sg75
(lp4522
S':'
asbag68
(g89
g70
NtRp4523
(dp4524
g73
(dp4525
sg82
g4511
sg75
(lp4526
g68
(g69
g70
NtRp4527
(dp4528
g73
(dp4529
g81
I3
ssg82
g4523
sg75
(lp4530
S'/'
asbasbasbag68
(g84
g70
NtRp4531
(dp4532
g73
(dp4533
sg82
g4407
sg75
(lp4534
g68
(g89
g70
NtRp4535
(dp4536
g73
(dp4537
g93
g94
ssg82
g4531
sg75
(lp4538
g443
asbag68
(g89
g70
NtRp4539
(dp4540
g73
(dp4541
g100
g101
ssg82
g4531
sg75
(lp4542
S':'
asbag68
(g89
g70
NtRp4543
(dp4544
g73
(dp4545
sg82
g4531
sg75
(lp4546
g68
(g69
g70
NtRp4547
(dp4548
g73
(dp4549
g81
I3
ssg82
g4543
sg75
(lp4550
S''
asbasbasbag68
(g84
g70
NtRp4551
(dp4552
g73
(dp4553
sg82
g4407
sg75
(lp4554
g68
(g89
g70
NtRp4555
(dp4556
g73
(dp4557
g93
g94
ssg82
g4551
sg75
(lp4558
g464
asbag68
(g89
g70
NtRp4559
(dp4560
g73
(dp4561
g100
g101
ssg82
g4551
sg75
(lp4562
S':'
asbag68
(g89
g70
NtRp4563
(dp4564
g73
(dp4565
sg82
g4551
sg75
(lp4566
g68
(g69
g70
NtRp4567
(dp4568
g73
(dp4569
g81
I3
ssg82
g4563
sg75
(lp4570
S''
asbasbasbasbasbasbasbasbasbasbasbag68
(g84
g70
NtRp4571
(dp4572
g73
(dp4573
sg82
g4337
sg75
(lp4574
g68
(g89
g70
NtRp4575
(dp4576
g73
(dp4577
g93
g94
ssg82
g4571
sg75
(lp4578
S'delimiters'
p4579
asbag68
(g89
g70
NtRp4580
(dp4581
g73
(dp4582
g100
g101
ssg82
g4571
sg75
(lp4583
S':'
asbag68
(g89
g70
NtRp4584
(dp4585
g73
(dp4586
sg82
g4571
sg75
(lp4587
g68
(g69
g70
NtRp4588
(dp4589
g73
(dp4590
g81
I5
ssg82
g4584
sg75
(lp4591
g68
(g77
g70
NtRp4592
(dp4593
g73
(dp4594
g81
I4
ssg82
Nsg75
(lp4595
g68
(g84
g70
NtRp4596
(dp4597
g73
(dp4598
sg82
g4592
sg75
(lp4599
g68
(g89
g70
NtRp4600
(dp4601
g73
(dp4602
sg82
g4596
sg75
(lp4603
g68
(g69
g70
NtRp4604
(dp4605
g73
(dp4606
g81
I4
ssg82
g4600
sg75
(lp4607
S'{{'
p4608
asbasbasbag68
(g84
g70
NtRp4609
(dp4610
g73
(dp4611
sg82
g4592
sg75
(lp4612
g68
(g89
g70
NtRp4613
(dp4614
g73
(dp4615
sg82
g4609
sg75
(lp4616
g68
(g69
g70
NtRp4617
(dp4618
g73
(dp4619
g81
I4
ssg82
g4613
sg75
(lp4620
S'}}'
p4621
asbasbasbasbasbasbasbag68
(g84
g70
NtRp4622
(dp4623
g73
(dp4624
sg82
g4337
sg75
(lp4625
g68
(g89
g70
NtRp4626
(dp4627
g73
(dp4628
g93
g94
ssg82
g4622
sg75
(lp4629
S'files'
p4630
asbag68
(g89
g70
NtRp4631
(dp4632
g73
(dp4633
g100
g101
ssg82
g4622
sg75
(lp4634
S':'
asbag68
(g89
g70
NtRp4635
(dp4636
g73
(dp4637
sg82
g4622
sg75
(lp4638
g68
(g69
g70
NtRp4639
(dp4640
g73
(dp4641
g81
I5
ssg82
g4635
sg75
(lp4642
g68
(g77
g70
NtRp4643
(dp4644
g73
(dp4645
g81
I4
ssg82
Nsg75
(lp4646
sbasbasbasbag68
(g84
g70
NtRp4647
(dp4648
g73
(dp4649
sg82
g4337
sg75
(lp4650
g68
(g89
g70
NtRp4651
(dp4652
g73
(dp4653
g93
g94
ssg82
g4647
sg75
(lp4654
S'flash'
p4655
asbag68
(g89
g70
NtRp4656
(dp4657
g73
(dp4658
g100
g101
ssg82
g4647
sg75
(lp4659
S':'
asbag68
(g89
g70
NtRp4660
(dp4661
g73
(dp4662
sg82
g4647
sg75
(lp4663
g68
(g69
g70
NtRp4664
(dp4665
g73
(dp4666
g81
I5
ssg82
g4660
sg75
(lp4667
S''
asbasbasbag68
(g84
g70
NtRp4668
(dp4669
g73
(dp4670
sg82
g4337
sg75
(lp4671
g68
(g89
g70
NtRp4672
(dp4673
g73
(dp4674
g93
g94
ssg82
g4668
sg75
(lp4675
S'generic_patterns'
p4676
asbag68
(g89
g70
NtRp4677
(dp4678
g73
(dp4679
g100
g101
ssg82
g4668
sg75
(lp4680
S':'
asbag68
(g89
g70
NtRp4681
(dp4682
g73
(dp4683
sg82
g4668
sg75
(lp4684
g68
(g69
g70
NtRp4685
(dp4686
g73
(dp4687
g81
I5
ssg82
g4681
sg75
(lp4688
g68
(g77
g70
NtRp4689
(dp4690
g73
(dp4691
g81
I4
ssg82
Nsg75
(lp4692
g68
(g84
g70
NtRp4693
(dp4694
g73
(dp4695
sg82
g4689
sg75
(lp4696
g68
(g89
g70
NtRp4697
(dp4698
g73
(dp4699
sg82
g4693
sg75
(lp4700
g68
(g69
g70
NtRp4701
(dp4702
g73
(dp4703
g81
I4
ssg82
g4697
sg75
(lp4704
S'*'
asbasbasbasbasbasbasbag68
(g84
g70
NtRp4705
(dp4706
g73
(dp4707
sg82
g4337
sg75
(lp4708
g68
(g89
g70
NtRp4709
(dp4710
g73
(dp4711
g93
g94
ssg82
g4705
sg75
(lp4712
S'google_analytics_id'
p4713
asbag68
(g89
g70
NtRp4714
(dp4715
g73
(dp4716
g100
g101
ssg82
g4705
sg75
(lp4717
S':'
asbag68
(g89
g70
NtRp4718
(dp4719
g73
(dp4720
sg82
g4705
sg75
(lp4721
g68
(g69
g70
NtRp4722
(dp4723
g73
(dp4724
g81
I5
ssg82
g4718
sg75
(lp4725
S'None'
p4726
asbasbasbag68
(g84
g70
NtRp4727
(dp4728
g73
(dp4729
sg82
g4337
sg75
(lp4730
g68
(g89
g70
NtRp4731
(dp4732
g73
(dp4733
g93
g94
ssg82
g4727
sg75
(lp4734
S'headers'
p4735
asbag68
(g89
g70
NtRp4736
(dp4737
g73
(dp4738
g100
g101
ssg82
g4727
sg75
(lp4739
S':'
asbag68
(g89
g70
NtRp4740
(dp4741
g73
(dp4742
sg82
g4727
sg75
(lp4743
g68
(g69
g70
NtRp4744
(dp4745
g73
(dp4746
g81
I5
ssg82
g4740
sg75
(lp4747
g68
(g77
g70
NtRp4748
(dp4749
g73
(dp4750
g81
I4
ssg82
Nsg75
(lp4751
g68
(g84
g70
NtRp4752
(dp4753
g73
(dp4754
sg82
g4748
sg75
(lp4755
g68
(g89
g70
NtRp4756
(dp4757
g73
(dp4758
g93
g94
ssg82
g4752
sg75
(lp4759
S'X-Powered-By'
p4760
asbag68
(g89
g70
NtRp4761
(dp4762
g73
(dp4763
g100
g101
ssg82
g4752
sg75
(lp4764
S':'
asbag68
(g89
g70
NtRp4765
(dp4766
g73
(dp4767
sg82
g4752
sg75
(lp4768
g68
(g69
g70
NtRp4769
(dp4770
g73
(dp4771
g81
I4
ssg82
g4765
sg75
(lp4772
S'web2py'
p4773
asbasbasbasbasbasbasbag68
(g84
g70
NtRp4774
(dp4775
g73
(dp4776
sg82
g4337
sg75
(lp4777
g68
(g89
g70
NtRp4778
(dp4779
g73
(dp4780
g93
g94
ssg82
g4774
sg75
(lp4781
S'logo'
p4782
asbag68
(g89
g70
NtRp4783
(dp4784
g73
(dp4785
g100
g101
ssg82
g4774
sg75
(lp4786
S':'
asbag68
(g89
g70
NtRp4787
(dp4788
g73
(dp4789
sg82
g4774
sg75
(lp4790
g68
(g69
g70
NtRp4791
(dp4792
g73
(dp4793
g81
I5
ssg82
g4787
sg75
(lp4794
g68
(cgluon.html
A
p4795
g70
NtRp4796
(dp4797
g73
(dp4798
S'_class'
p4799
S'brand'
p4800
sS'_href'
p4801
S''
ssg82
Nsg75
(lp4802
g68
(cgluon.html
B
p4803
g70
NtRp4804
(dp4805
g73
(dp4806
sg82
g4796
sg75
(lp4807
S'Buy/Sell'
p4808
asbacgluon.html
XML_unpickle
p4809
(S's\r\x00\x00\x00&trade;&nbsp;'
tRp4810
asbasbasbasbag68
(g84
g70
NtRp4811
(dp4812
g73
(dp4813
sg82
g4337
sg75
(lp4814
g68
(g89
g70
NtRp4815
(dp4816
g73
(dp4817
g93
g94
ssg82
g4811
sg75
(lp4818
S'menu'
p4819
asbag68
(g89
g70
NtRp4820
(dp4821
g73
(dp4822
g100
g101
ssg82
g4811
sg75
(lp4823
S':'
asbag68
(g89
g70
NtRp4824
(dp4825
g73
(dp4826
sg82
g4811
sg75
(lp4827
g68
(g69
g70
NtRp4828
(dp4829
g73
(dp4830
g81
I5
ssg82
g4824
sg75
(lp4831
g68
(g77
g70
NtRp4832
(dp4833
g73
(dp4834
g81
I4
ssg82
Nsg75
(lp4835
g68
(g84
g70
NtRp4836
(dp4837
g73
(dp4838
sg82
g4832
sg75
(lp4839
g68
(g89
g70
NtRp4840
(dp4841
g73
(dp4842
sg82
g4836
sg75
(lp4843
g68
(g69
g70
NtRp4844
(dp4845
g73
(dp4846
g81
I4
ssg82
g4840
sg75
(lp4847
g68
(g77
g70
NtRp4848
(dp4849
g73
(dp4850
g81
I3
ssg82
Nsg75
(lp4851
g68
(g84
g70
NtRp4852
(dp4853
g73
(dp4854
sg82
g4848
sg75
(lp4855
g68
(g89
g70
NtRp4856
(dp4857
g73
(dp4858
sg82
g4852
sg75
(lp4859
g68
(g69
g70
NtRp4860
(dp4861
g73
(dp4862
g81
I3
ssg82
g4856
sg75
(lp4863
cgluon.languages
lazyT_unpickle
p4864
(S's\x04\x00\x00\x00Home'
tRp4865
asbasbasbag68
(g84
g70
NtRp4866
(dp4867
g73
(dp4868
sg82
g4848
sg75
(lp4869
g68
(g89
g70
NtRp4870
(dp4871
g73
(dp4872
sg82
g4866
sg75
(lp4873
g68
(g69
g70
NtRp4874
(dp4875
g73
(dp4876
g81
I3
ssg82
g4870
sg75
(lp4877
g111
asbasbasbag68
(g84
g70
NtRp4878
(dp4879
g73
(dp4880
sg82
g4848
sg75
(lp4881
g68
(g89
g70
NtRp4882
(dp4883
g73
(dp4884
sg82
g4878
sg75
(lp4885
g68
(g69
g70
NtRp4886
(dp4887
g73
(dp4888
g81
I3
ssg82
g4882
sg75
(lp4889
S'/BuySell/default/index'
p4890
asbasbasbag68
(g84
g70
NtRp4891
(dp4892
g73
(dp4893
sg82
g4848
sg75
(lp4894
g68
(g89
g70
NtRp4895
(dp4896
g73
(dp4897
sg82
g4891
sg75
(lp4898
g68
(g69
g70
NtRp4899
(dp4900
g73
(dp4901
g81
I3
ssg82
g4895
sg75
(lp4902
g68
(g77
g70
NtRp4903
(dp4904
g73
(dp4905
g81
I2
ssg82
Nsg75
(lp4906
sbasbasbasbasbasbasbasbag68
(g84
g70
NtRp4907
(dp4908
g73
(dp4909
sg82
g4832
sg75
(lp4910
g68
(g89
g70
NtRp4911
(dp4912
g73
(dp4913
sg82
g4907
sg75
(lp4914
g68
(g69
g70
NtRp4915
(dp4916
g73
(dp4917
g81
I4
ssg82
g4911
sg75
(lp4918
g68
(g77
g70
NtRp4919
(dp4920
g73
(dp4921
g81
I3
ssg82
Nsg75
(lp4922
g68
(g84
g70
NtRp4923
(dp4924
g73
(dp4925
sg82
g4919
sg75
(lp4926
g68
(g89
g70
NtRp4927
(dp4928
g73
(dp4929
sg82
g4923
sg75
(lp4930
g68
(g69
g70
NtRp4931
(dp4932
g73
(dp4933
g81
I3
ssg82
g4927
sg75
(lp4934
g68
(cgluon.html
SPAN
p4935
g70
NtRp4936
(dp4937
g73
(dp4938
g4799
S'highlighted'
p4939
ssg82
Nsg75
(lp4940
S'Navigate'
p4941
asbasbasbasbag68
(g84
g70
NtRp4942
(dp4943
g73
(dp4944
sg82
g4919
sg75
(lp4945
g68
(g89
g70
NtRp4946
(dp4947
g73
(dp4948
sg82
g4942
sg75
(lp4949
g68
(g69
g70
NtRp4950
(dp4951
g73
(dp4952
g81
I3
ssg82
g4946
sg75
(lp4953
g111
asbasbasbag68
(g84
g70
NtRp4954
(dp4955
g73
(dp4956
sg82
g4919
sg75
(lp4957
g68
(g89
g70
NtRp4958
(dp4959
g73
(dp4960
sg82
g4954
sg75
(lp4961
g68
(g69
g70
NtRp4962
(dp4963
g73
(dp4964
g81
I3
ssg82
g4958
sg75
(lp4965
S''
asbasbasbag68
(g84
g70
NtRp4966
(dp4967
g73
(dp4968
sg82
g4919
sg75
(lp4969
g68
(g89
g70
NtRp4970
(dp4971
g73
(dp4972
sg82
g4966
sg75
(lp4973
g68
(g69
g70
NtRp4974
(dp4975
g73
(dp4976
g81
I3
ssg82
g4970
sg75
(lp4977
g68
(g77
g70
NtRp4978
(dp4979
g73
(dp4980
g81
I2
ssg82
Nsg75
(lp4981
g68
(g84
g70
NtRp4982
(dp4983
g73
(dp4984
sg82
g4978
sg75
(lp4985
g68
(g89
g70
NtRp4986
(dp4987
g73
(dp4988
sg82
g4982
sg75
(lp4989
g68
(g69
g70
NtRp4990
(dp4991
g73
(dp4992
g81
I2
ssg82
g4986
sg75
(lp4993
g68
(g77
g70
NtRp4994
(dp4995
g73
(dp4996
g81
I1
ssg82
Nsg75
(lp4997
g68
(g84
g70
NtRp4998
(dp4999
g73
(dp5000
sg82
g4994
sg75
(lp5001
g68
(g89
g70
NtRp5002
(dp5003
g73
(dp5004
sg82
g4998
sg75
(lp5005
g68
(g69
g70
NtRp5006
(dp5007
g73
(dp5008
g81
I1
ssg82
g5002
sg75
(lp5009
g4864
(S's\r\x00\x00\x00List of items'
tRp5010
asbasbasbag68
(g84
g70
NtRp5011
(dp5012
g73
(dp5013
sg82
g4994
sg75
(lp5014
g68
(g89
g70
NtRp5015
(dp5016
g73
(dp5017
sg82
g5011
sg75
(lp5018
g68
(g69
g70
NtRp5019
(dp5020
g73
(dp5021
g81
I1
ssg82
g5015
sg75
(lp5022
I00
asbasbasbag68
(g84
g70
NtRp5023
(dp5024
g73
(dp5025
sg82
g4994
sg75
(lp5026
g68
(g89
g70
NtRp5027
(dp5028
g73
(dp5029
sg82
g5023
sg75
(lp5030
g68
(g69
g70
NtRp5031
(dp5032
g73
(dp5033
g81
I1
ssg82
g5027
sg75
(lp5034
S'/BuySell/default/list_items'
p5035
asbasbasbasbasbasbasbag68
(g84
g70
NtRp5036
(dp5037
g73
(dp5038
sg82
g4978
sg75
(lp5039
g68
(g89
g70
NtRp5040
(dp5041
g73
(dp5042
sg82
g5036
sg75
(lp5043
g68
(g69
g70
NtRp5044
(dp5045
g73
(dp5046
g81
I2
ssg82
g5040
sg75
(lp5047
g68
(g77
g70
NtRp5048
(dp5049
g73
(dp5050
g81
I1
ssg82
Nsg75
(lp5051
g68
(g84
g70
NtRp5052
(dp5053
g73
(dp5054
sg82
g5048
sg75
(lp5055
g68
(g89
g70
NtRp5056
(dp5057
g73
(dp5058
sg82
g5052
sg75
(lp5059
g68
(g69
g70
NtRp5060
(dp5061
g73
(dp5062
g81
I1
ssg82
g5056
sg75
(lp5063
g4864
(S't\x04\x00\x00\x00Sell'
tRp5064
asbasbasbag68
(g84
g70
NtRp5065
(dp5066
g73
(dp5067
sg82
g5048
sg75
(lp5068
g68
(g89
g70
NtRp5069
(dp5070
g73
(dp5071
sg82
g5065
sg75
(lp5072
g68
(g69
g70
NtRp5073
(dp5074
g73
(dp5075
g81
I1
ssg82
g5069
sg75
(lp5076
I00
asbasbasbag68
(g84
g70
NtRp5077
(dp5078
g73
(dp5079
sg82
g5048
sg75
(lp5080
g68
(g89
g70
NtRp5081
(dp5082
g73
(dp5083
sg82
g5077
sg75
(lp5084
g68
(g69
g70
NtRp5085
(dp5086
g73
(dp5087
g81
I1
ssg82
g5081
sg75
(lp5088
S'/admin/default/design/BuySell'
p5089
asbasbasbag68
(g84
g70
NtRp5090
(dp5091
g73
(dp5092
sg82
g5048
sg75
(lp5093
g68
(g89
g70
NtRp5094
(dp5095
g73
(dp5096
sg82
g5090
sg75
(lp5097
g68
(g69
g70
NtRp5098
(dp5099
g73
(dp5100
g81
I1
ssg82
g5094
sg75
(lp5101
(lp5102
(g4864
(S's\x08\x00\x00\x00Add Item'
tRp5103
I00
S'/BuySell/default/add_item'
tp5104
a(g4864
(S's\x0c\x00\x00\x00Listed Items'
tRp5105
I00
S'/BuySell/default/listed_items'
tp5106
a(g4864
(S's\x06\x00\x00\x00Layout'
tRp5107
I00
S'/admin/default/edit/BuySell/views/layout.html'
tp5108
a(g4864
(S's\n\x00\x00\x00Stylesheet'
tRp5109
I00
S'/admin/default/edit/BuySell/static/css/web2py.css'
tp5110
a(g4864
(S's\x08\x00\x00\x00DB Model'
tRp5111
I00
S'/admin/default/edit/BuySell/models/db.py'
tp5112
a(g4864
(S's\n\x00\x00\x00Menu Model'
tRp5113
I00
S'/admin/default/edit/BuySell/models/menu.py'
tp5114
a(g4864
(S's\x08\x00\x00\x00Database'
tRp5115
I00
S'/BuySell/appadmin/index'
tp5116
a(g4864
(S's\x06\x00\x00\x00Errors'
tRp5117
I00
S'/admin/default/errors/BuySell'
tp5118
a(g4864
(S's\x05\x00\x00\x00About'
tRp5119
I00
S'/admin/default/about/BuySell'
tp5120
aasbasbasbasbasbasbasbag68
(g84
g70
NtRp5121
(dp5122
g73
(dp5123
sg82
g4978
sg75
(lp5124
g68
(g89
g70
NtRp5125
(dp5126
g73
(dp5127
sg82
g5121
sg75
(lp5128
g68
(g69
g70
NtRp5129
(dp5130
g73
(dp5131
g81
I2
ssg82
g5125
sg75
(lp5132
g68
(g77
g70
NtRp5133
(dp5134
g73
(dp5135
g81
I1
ssg82
Nsg75
(lp5136
g68
(g84
g70
NtRp5137
(dp5138
g73
(dp5139
sg82
g5133
sg75
(lp5140
g68
(g89
g70
NtRp5141
(dp5142
g73
(dp5143
sg82
g5137
sg75
(lp5144
g68
(g69
g70
NtRp5145
(dp5146
g73
(dp5147
g81
I1
ssg82
g5141
sg75
(lp5148
S'Buy'
p5149
asbasbasbag68
(g84
g70
NtRp5150
(dp5151
g73
(dp5152
sg82
g5133
sg75
(lp5153
g68
(g89
g70
NtRp5154
(dp5155
g73
(dp5156
sg82
g5150
sg75
(lp5157
g68
(g69
g70
NtRp5158
(dp5159
g73
(dp5160
g81
I1
ssg82
g5154
sg75
(lp5161
I00
asbasbasbag68
(g84
g70
NtRp5162
(dp5163
g73
(dp5164
sg82
g5133
sg75
(lp5165
g68
(g89
g70
NtRp5166
(dp5167
g73
(dp5168
sg82
g5162
sg75
(lp5169
g68
(g69
g70
NtRp5170
(dp5171
g73
(dp5172
g81
I1
ssg82
g5166
sg75
(lp5173
S'http://www.web2py.com'
p5174
asbasbasbag68
(g84
g70
NtRp5175
(dp5176
g73
(dp5177
sg82
g5133
sg75
(lp5178
g68
(g89
g70
NtRp5179
(dp5180
g73
(dp5181
sg82
g5175
sg75
(lp5182
g68
(g69
g70
NtRp5183
(dp5184
g73
(dp5185
g81
I1
ssg82
g5179
sg75
(lp5186
(lp5187
(g4864
(S's\x08\x00\x00\x00Download'
tRp5188
I00
S'http://www.web2py.com/examples/default/download'
p5189
tp5190
a(g4864
(S's\x07\x00\x00\x00Support'
tRp5191
I00
S'http://www.web2py.com/examples/default/support'
p5192
tp5193
a(g4864
(S's\x04\x00\x00\x00Demo'
tRp5194
I00
S'http://web2py.com/demo_admin'
p5195
tp5196
a(g4864
(S's\x0e\x00\x00\x00Quick Examples'
tRp5197
I00
S'http://web2py.com/examples/default/examples'
p5198
tp5199
a(g4864
(S's\x03\x00\x00\x00FAQ'
tRp5200
I00
S'http://web2py.com/AlterEgo'
p5201
tp5202
a(g4864
(S's\x06\x00\x00\x00Videos'
tRp5203
I00
S'http://www.web2py.com/examples/default/videos/'
p5204
tp5205
a(g4864
(S's\x11\x00\x00\x00Free Applications'
tRp5206
I00
S'http://web2py.com/appliances'
p5207
tp5208
a(g4864
(S's\x07\x00\x00\x00Plugins'
tRp5209
I00
S'http://web2py.com/plugins'
p5210
tp5211
a(g4864
(S's\x07\x00\x00\x00Layouts'
tRp5212
I00
S'http://web2py.com/layouts'
p5213
tp5214
a(g4864
(S's\x07\x00\x00\x00Recipes'
tRp5215
I00
S'http://web2pyslices.com/'
p5216
tp5217
a(g4864
(S's\x08\x00\x00\x00Semantic'
tRp5218
I00
S'http://web2py.com/semantic'
p5219
tp5220
aasbasbasbasbasbasbasbag68
(g84
g70
NtRp5221
(dp5222
g73
(dp5223
sg82
g4978
sg75
(lp5224
g68
(g89
g70
NtRp5225
(dp5226
g73
(dp5227
sg82
g5221
sg75
(lp5228
g68
(g69
g70
NtRp5229
(dp5230
g73
(dp5231
g81
I2
ssg82
g5225
sg75
(lp5232
g68
(g77
g70
NtRp5233
(dp5234
g73
(dp5235
g81
I1
ssg82
Nsg75
(lp5236
g68
(g84
g70
NtRp5237
(dp5238
g73
(dp5239
sg82
g5233
sg75
(lp5240
g68
(g89
g70
NtRp5241
(dp5242
g73
(dp5243
sg82
g5237
sg75
(lp5244
g68
(g69
g70
NtRp5245
(dp5246
g73
(dp5247
g81
I1
ssg82
g5241
sg75
(lp5248
g4864
(S's\x0e\x00\x00\x00All Categories'
tRp5249
asbasbasbag68
(g84
g70
NtRp5250
(dp5251
g73
(dp5252
sg82
g5233
sg75
(lp5253
g68
(g89
g70
NtRp5254
(dp5255
g73
(dp5256
sg82
g5250
sg75
(lp5257
g68
(g69
g70
NtRp5258
(dp5259
g73
(dp5260
g81
I1
ssg82
g5254
sg75
(lp5261
I00
asbasbasbag68
(g84
g70
NtRp5262
(dp5263
g73
(dp5264
sg82
g5233
sg75
(lp5265
g68
(g89
g70
NtRp5266
(dp5267
g73
(dp5268
sg82
g5262
sg75
(lp5269
g68
(g69
g70
NtRp5270
(dp5271
g73
(dp5272
g81
I1
ssg82
g5266
sg75
(lp5273
S'http://www.web2py.com/book'
p5274
asbasbasbag68
(g84
g70
NtRp5275
(dp5276
g73
(dp5277
sg82
g5233
sg75
(lp5278
g68
(g89
g70
NtRp5279
(dp5280
g73
(dp5281
sg82
g5275
sg75
(lp5282
g68
(g69
g70
NtRp5283
(dp5284
g73
(dp5285
g81
I1
ssg82
g5279
sg75
(lp5286
(lp5287
(g4864
(S's\x07\x00\x00\x00Preface'
tRp5288
I00
S'http://www.web2py.com/book/default/chapter/00'
p5289
tp5290
a(g4864
(S's\x0c\x00\x00\x00Introduction'
tRp5291
I00
S'http://www.web2py.com/book/default/chapter/01'
p5292
tp5293
a(g4864
(S's\x06\x00\x00\x00Python'
tRp5294
I00
S'http://www.web2py.com/book/default/chapter/02'
p5295
tp5296
a(g4864
(S's\x08\x00\x00\x00Overview'
tRp5297
I00
S'http://www.web2py.com/book/default/chapter/03'
p5298
tp5299
a(g4864
(S's\x08\x00\x00\x00The Core'
tRp5300
I00
S'http://www.web2py.com/book/default/chapter/04'
p5301
tp5302
a(g4864
(S's\t\x00\x00\x00The Views'
tRp5303
I00
S'http://www.web2py.com/book/default/chapter/05'
p5304
tp5305
a(g4864
(S's\x08\x00\x00\x00Database'
tRp5306
I00
S'http://www.web2py.com/book/default/chapter/06'
p5307
tp5308
a(g4864
(S's\x14\x00\x00\x00Forms and Validators'
tRp5309
I00
S'http://www.web2py.com/book/default/chapter/07'
p5310
tp5311
a(g4864
(S's\r\x00\x00\x00Email and SMS'
tRp5312
I00
S'http://www.web2py.com/book/default/chapter/08'
p5313
tp5314
a(g4864
(S's\x0e\x00\x00\x00Access Control'
tRp5315
I00
S'http://www.web2py.com/book/default/chapter/09'
p5316
tp5317
a(g4864
(S's\x08\x00\x00\x00Services'
tRp5318
I00
S'http://www.web2py.com/book/default/chapter/10'
p5319
tp5320
a(g4864
(S's\x0c\x00\x00\x00Ajax Recipes'
tRp5321
I00
S'http://www.web2py.com/book/default/chapter/11'
p5322
tp5323
a(g4864
(S's\x16\x00\x00\x00Components and Plugins'
tRp5324
I00
S'http://www.web2py.com/book/default/chapter/12'
p5325
tp5326
a(g4864
(S's\x12\x00\x00\x00Deployment Recipes'
tRp5327
I00
S'http://www.web2py.com/book/default/chapter/13'
p5328
tp5329
a(g4864
(S's\r\x00\x00\x00Other Recipes'
tRp5330
I00
S'http://www.web2py.com/book/default/chapter/14'
p5331
tp5332
a(g4864
(S's\r\x00\x00\x00Buy this book'
tRp5333
I00
S'http://stores.lulu.com/web2py'
p5334
tp5335
aasbasbasbasbasbasbasbag68
(g84
g70
NtRp5336
(dp5337
g73
(dp5338
sg82
g4978
sg75
(lp5339
g68
(g89
g70
NtRp5340
(dp5341
g73
(dp5342
sg82
g5336
sg75
(lp5343
g68
(g69
g70
NtRp5344
(dp5345
g73
(dp5346
g81
I2
ssg82
g5340
sg75
(lp5347
g68
(g77
g70
NtRp5348
(dp5349
g73
(dp5350
g81
I1
ssg82
Nsg75
(lp5351
g68
(g84
g70
NtRp5352
(dp5353
g73
(dp5354
sg82
g5348
sg75
(lp5355
g68
(g89
g70
NtRp5356
(dp5357
g73
(dp5358
sg82
g5352
sg75
(lp5359
g68
(g69
g70
NtRp5360
(dp5361
g73
(dp5362
g81
I1
ssg82
g5356
sg75
(lp5363
g4864
(S's\t\x00\x00\x00Community'
tRp5364
asbasbasbag68
(g84
g70
NtRp5365
(dp5366
g73
(dp5367
sg82
g5348
sg75
(lp5368
g68
(g89
g70
NtRp5369
(dp5370
g73
(dp5371
sg82
g5365
sg75
(lp5372
g68
(g69
g70
NtRp5373
(dp5374
g73
(dp5375
g81
I1
ssg82
g5369
sg75
(lp5376
I00
asbasbasbag68
(g84
g70
NtRp5377
(dp5378
g73
(dp5379
sg82
g5348
sg75
(lp5380
g68
(g89
g70
NtRp5381
(dp5382
g73
(dp5383
sg82
g5377
sg75
(lp5384
g68
(g69
g70
NtRp5385
(dp5386
g73
(dp5387
g81
I1
ssg82
g5381
sg75
(lp5388
Nasbasbasbag68
(g84
g70
NtRp5389
(dp5390
g73
(dp5391
sg82
g5348
sg75
(lp5392
g68
(g89
g70
NtRp5393
(dp5394
g73
(dp5395
sg82
g5389
sg75
(lp5396
g68
(g69
g70
NtRp5397
(dp5398
g73
(dp5399
g81
I1
ssg82
g5393
sg75
(lp5400
(lp5401
(g4864
(S's\t\x00\x00\x00Community'
tRp5402
I00
S'http://www.web2py.com/examples/default/usergroups'
p5403
tp5404
a(g4864
(S's\x07\x00\x00\x00Twitter'
tRp5405
I00
S'http://twitter.com/web2py'
p5406
tp5407
a(g4864
(S's\t\x00\x00\x00Live Chat'
tRp5408
I00
S'http://webchat.freenode.net/?channels=web2py'
p5409
tp5410
aasbasbasbasbasbasbasbag68
(g84
g70
NtRp5411
(dp5412
g73
(dp5413
sg82
g4978
sg75
(lp5414
g68
(g89
g70
NtRp5415
(dp5416
g73
(dp5417
sg82
g5411
sg75
(lp5418
g68
(g69
g70
NtRp5419
(dp5420
g73
(dp5421
g81
I2
ssg82
g5415
sg75
(lp5422
g68
(g77
g70
NtRp5423
(dp5424
g73
(dp5425
g81
I1
ssg82
Nsg75
(lp5426
g68
(g84
g70
NtRp5427
(dp5428
g73
(dp5429
sg82
g5423
sg75
(lp5430
g68
(g89
g70
NtRp5431
(dp5432
g73
(dp5433
sg82
g5427
sg75
(lp5434
g68
(g69
g70
NtRp5435
(dp5436
g73
(dp5437
g81
I1
ssg82
g5431
sg75
(lp5438
g4864
(S't\x04\x00\x00\x00Help'
tRp5439
asbasbasbag68
(g84
g70
NtRp5440
(dp5441
g73
(dp5442
sg82
g5423
sg75
(lp5443
g68
(g89
g70
NtRp5444
(dp5445
g73
(dp5446
sg82
g5440
sg75
(lp5447
g68
(g69
g70
NtRp5448
(dp5449
g73
(dp5450
g81
I1
ssg82
g5444
sg75
(lp5451
I00
asbasbasbag68
(g84
g70
NtRp5452
(dp5453
g73
(dp5454
sg82
g5423
sg75
(lp5455
g68
(g89
g70
NtRp5456
(dp5457
g73
(dp5458
sg82
g5452
sg75
(lp5459
g68
(g69
g70
NtRp5460
(dp5461
g73
(dp5462
g81
I1
ssg82
g5456
sg75
(lp5463
Nasbasbasbag68
(g84
g70
NtRp5464
(dp5465
g73
(dp5466
sg82
g5423
sg75
(lp5467
g68
(g89
g70
NtRp5468
(dp5469
g73
(dp5470
sg82
g5464
sg75
(lp5471
g68
(g69
g70
NtRp5472
(dp5473
g73
(dp5474
g81
I1
ssg82
g5468
sg75
(lp5475
(lp5476
(S'plugin_wiki'
p5477
I00
S'http://web2py.com/examples/default/download'
p5478
tp5479
a(g4864
(S's\r\x00\x00\x00Other Plugins'
tRp5480
I00
g5210
tp5481
a(g4864
(S's\x0e\x00\x00\x00Layout Plugins'
tRp5482
I00
g5213
tp5483
aasbasbasbasbasbasbasbasbasbasbasbasbasbasbasbasbasbasbasbag68
(g84
g70
NtRp5484
(dp5485
g73
(dp5486
sg82
g4337
sg75
(lp5487
g68
(g89
g70
NtRp5488
(dp5489
g73
(dp5490
g93
g94
ssg82
g5484
sg75
(lp5491
S'meta'
p5492
asbag68
(g89
g70
NtRp5493
(dp5494
g73
(dp5495
g100
g101
ssg82
g5484
sg75
(lp5496
S':'
asbag68
(g89
g70
NtRp5497
(dp5498
g73
(dp5499
sg82
g5484
sg75
(lp5500
g68
(g69
g70
NtRp5501
(dp5502
g73
(dp5503
g81
I5
ssg82
g5497
sg75
(lp5504
g68
(g77
g70
NtRp5505
(dp5506
g73
(dp5507
g81
I4
ssg82
Nsg75
(lp5508
g68
(g84
g70
NtRp5509
(dp5510
g73
(dp5511
sg82
g5505
sg75
(lp5512
g68
(g89
g70
NtRp5513
(dp5514
g73
(dp5515
g93
g94
ssg82
g5509
sg75
(lp5516
S'author'
p5517
asbag68
(g89
g70
NtRp5518
(dp5519
g73
(dp5520
g100
g101
ssg82
g5509
sg75
(lp5521
S':'
asbag68
(g89
g70
NtRp5522
(dp5523
g73
(dp5524
sg82
g5509
sg75
(lp5525
g68
(g69
g70
NtRp5526
(dp5527
g73
(dp5528
g81
I4
ssg82
g5522
sg75
(lp5529
S'Your Name <you@example.com>'
p5530
asbasbasbag68
(g84
g70
NtRp5531
(dp5532
g73
(dp5533
sg82
g5505
sg75
(lp5534
g68
(g89
g70
NtRp5535
(dp5536
g73
(dp5537
g93
g94
ssg82
g5531
sg75
(lp5538
S'description'
p5539
asbag68
(g89
g70
NtRp5540
(dp5541
g73
(dp5542
g100
g101
ssg82
g5531
sg75
(lp5543
S':'
asbag68
(g89
g70
NtRp5544
(dp5545
g73
(dp5546
sg82
g5531
sg75
(lp5547
g68
(g69
g70
NtRp5548
(dp5549
g73
(dp5550
g81
I4
ssg82
g5544
sg75
(lp5551
S'a cool new app'
p5552
asbasbasbag68
(g84
g70
NtRp5553
(dp5554
g73
(dp5555
sg82
g5505
sg75
(lp5556
g68
(g89
g70
NtRp5557
(dp5558
g73
(dp5559
g93
g94
ssg82
g5553
sg75
(lp5560
S'generator'
p5561
asbag68
(g89
g70
NtRp5562
(dp5563
g73
(dp5564
g100
g101
ssg82
g5553
sg75
(lp5565
S':'
asbag68
(g89
g70
NtRp5566
(dp5567
g73
(dp5568
sg82
g5553
sg75
(lp5569
g68
(g69
g70
NtRp5570
(dp5571
g73
(dp5572
g81
I4
ssg82
g5566
sg75
(lp5573
S'Web2py Web Framework'
p5574
asbasbasbag68
(g84
g70
NtRp5575
(dp5576
g73
(dp5577
sg82
g5505
sg75
(lp5578
g68
(g89
g70
NtRp5579
(dp5580
g73
(dp5581
g93
g94
ssg82
g5575
sg75
(lp5582
S'keywords'
p5583
asbag68
(g89
g70
NtRp5584
(dp5585
g73
(dp5586
g100
g101
ssg82
g5575
sg75
(lp5587
S':'
asbag68
(g89
g70
NtRp5588
(dp5589
g73
(dp5590
sg82
g5575
sg75
(lp5591
g68
(g69
g70
NtRp5592
(dp5593
g73
(dp5594
g81
I4
ssg82
g5588
sg75
(lp5595
S'web2py, python, framework'
p5596
asbasbasbasbasbasbasbag68
(g84
g70
NtRp5597
(dp5598
g73
(dp5599
sg82
g4337
sg75
(lp5600
g68
(g89
g70
NtRp5601
(dp5602
g73
(dp5603
g93
g94
ssg82
g5597
sg75
(lp5604
S'models_to_run'
p5605
asbag68
(g89
g70
NtRp5606
(dp5607
g73
(dp5608
g100
g101
ssg82
g5597
sg75
(lp5609
S':'
asbag68
(g89
g70
NtRp5610
(dp5611
g73
(dp5612
sg82
g5597
sg75
(lp5613
g68
(g69
g70
NtRp5614
(dp5615
g73
(dp5616
g81
I5
ssg82
g5610
sg75
(lp5617
g68
(g77
g70
NtRp5618
(dp5619
g73
(dp5620
g81
I4
ssg82
Nsg75
(lp5621
g68
(g84
g70
NtRp5622
(dp5623
g73
(dp5624
sg82
g5618
sg75
(lp5625
g68
(g89
g70
NtRp5626
(dp5627
g73
(dp5628
sg82
g5622
sg75
(lp5629
g68
(g69
g70
NtRp5630
(dp5631
g73
(dp5632
g81
I4
ssg82
g5626
sg75
(lp5633
S'^\\w+\\.py$'
p5634
asbasbasbag68
(g84
g70
NtRp5635
(dp5636
g73
(dp5637
sg82
g5618
sg75
(lp5638
g68
(g89
g70
NtRp5639
(dp5640
g73
(dp5641
sg82
g5635
sg75
(lp5642
g68
(g69
g70
NtRp5643
(dp5644
g73
(dp5645
g81
I4
ssg82
g5639
sg75
(lp5646
S'^default/\\w+\\.py$'
p5647
asbasbasbag68
(g84
g70
NtRp5648
(dp5649
g73
(dp5650
sg82
g5618
sg75
(lp5651
g68
(g89
g70
NtRp5652
(dp5653
g73
(dp5654
sg82
g5648
sg75
(lp5655
g68
(g69
g70
NtRp5656
(dp5657
g73
(dp5658
g81
I4
ssg82
g5652
sg75
(lp5659
S'^default/seller/\\w+\\.py$'
p5660
asbasbasbasbasbasbasbag68
(g84
g70
NtRp5661
(dp5662
g73
(dp5663
sg82
g4337
sg75
(lp5664
g68
(g89
g70
NtRp5665
(dp5666
g73
(dp5667
g93
g94
ssg82
g5661
sg75
(lp5668
S'postprocessing'
p5669
asbag68
(g89
g70
NtRp5670
(dp5671
g73
(dp5672
g100
g101
ssg82
g5661
sg75
(lp5673
S':'
asbag68
(g89
g70
NtRp5674
(dp5675
g73
(dp5676
sg82
g5661
sg75
(lp5677
g68
(g69
g70
NtRp5678
(dp5679
g73
(dp5680
g81
I5
ssg82
g5674
sg75
(lp5681
g68
(g77
g70
NtRp5682
(dp5683
g73
(dp5684
g81
I4
ssg82
Nsg75
(lp5685
sbasbasbasbag68
(g84
g70
NtRp5686
(dp5687
g73
(dp5688
sg82
g4337
sg75
(lp5689
g68
(g89
g70
NtRp5690
(dp5691
g73
(dp5692
g93
g94
ssg82
g5686
sg75
(lp5693
S'session_cookie_expires'
p5694
asbag68
(g89
g70
NtRp5695
(dp5696
g73
(dp5697
g100
g101
ssg82
g5686
sg75
(lp5698
S':'
asbag68
(g89
g70
NtRp5699
(dp5700
g73
(dp5701
sg82
g5686
sg75
(lp5702
g68
(g69
g70
NtRp5703
(dp5704
g73
(dp5705
g81
I5
ssg82
g5699
sg75
(lp5706
S'None'
p5707
asbasbasbag68
(g84
g70
NtRp5708
(dp5709
g73
(dp5710
sg82
g4337
sg75
(lp5711
g68
(g89
g70
NtRp5712
(dp5713
g73
(dp5714
g93
g94
ssg82
g5708
sg75
(lp5715
S'session_data_name'
p5716
asbag68
(g89
g70
NtRp5717
(dp5718
g73
(dp5719
g100
g101
ssg82
g5708
sg75
(lp5720
S':'
asbag68
(g89
g70
NtRp5721
(dp5722
g73
(dp5723
sg82
g5708
sg75
(lp5724
g68
(g69
g70
NtRp5725
(dp5726
g73
(dp5727
g81
I5
ssg82
g5721
sg75
(lp5728
S'session_data_buysell'
p5729
asbasbasbag68
(g84
g70
NtRp5730
(dp5731
g73
(dp5732
sg82
g4337
sg75
(lp5733
g68
(g89
g70
NtRp5734
(dp5735
g73
(dp5736
g93
g94
ssg82
g5730
sg75
(lp5737
S'session_file'
p5738
asbag68
(g89
g70
NtRp5739
(dp5740
g73
(dp5741
g100
g101
ssg82
g5730
sg75
(lp5742
S':'
asbag68
(g89
g70
NtRp5743
(dp5744
g73
(dp5745
sg82
g5730
sg75
(lp5746
g68
(g69
g70
NtRp5747
(dp5748
g73
(dp5749
g81
I5
ssg82
g5743
sg75
(lp5750
S"<open file '/home/pratyush/web2py/applications/BuySell/sessions/127.0.0.1-d5a07803-4f5c-44c8-b05d-2876d30ca822', mode 'rb+' at 0xad0d128>"
p5751
asbasbasbag68
(g84
g70
NtRp5752
(dp5753
g73
(dp5754
sg82
g4337
sg75
(lp5755
g68
(g89
g70
NtRp5756
(dp5757
g73
(dp5758
g93
g94
ssg82
g5752
sg75
(lp5759
S'session_filename'
p5760
asbag68
(g89
g70
NtRp5761
(dp5762
g73
(dp5763
g100
g101
ssg82
g5752
sg75
(lp5764
S':'
asbag68
(g89
g70
NtRp5765
(dp5766
g73
(dp5767
sg82
g5752
sg75
(lp5768
g68
(g69
g70
NtRp5769
(dp5770
g73
(dp5771
g81
I5
ssg82
g5765
sg75
(lp5772
S'/home/pratyush/web2py/applications/BuySell/sessions/127.0.0.1-d5a07803-4f5c-44c8-b05d-2876d30ca822'
p5773
asbasbasbag68
(g84
g70
NtRp5774
(dp5775
g73
(dp5776
sg82
g4337
sg75
(lp5777
g68
(g89
g70
NtRp5778
(dp5779
g73
(dp5780
g93
g94
ssg82
g5774
sg75
(lp5781
S'session_id'
p5782
asbag68
(g89
g70
NtRp5783
(dp5784
g73
(dp5785
g100
g101
ssg82
g5774
sg75
(lp5786
S':'
asbag68
(g89
g70
NtRp5787
(dp5788
g73
(dp5789
sg82
g5774
sg75
(lp5790
g68
(g69
g70
NtRp5791
(dp5792
g73
(dp5793
g81
I5
ssg82
g5787
sg75
(lp5794
g684
asbasbasbag68
(g84
g70
NtRp5795
(dp5796
g73
(dp5797
sg82
g4337
sg75
(lp5798
g68
(g89
g70
NtRp5799
(dp5800
g73
(dp5801
g93
g94
ssg82
g5795
sg75
(lp5802
S'session_id_name'
p5803
asbag68
(g89
g70
NtRp5804
(dp5805
g73
(dp5806
g100
g101
ssg82
g5795
sg75
(lp5807
S':'
asbag68
(g89
g70
NtRp5808
(dp5809
g73
(dp5810
sg82
g5795
sg75
(lp5811
g68
(g69
g70
NtRp5812
(dp5813
g73
(dp5814
g81
I5
ssg82
g5808
sg75
(lp5815
g4394
asbasbasbag68
(g84
g70
NtRp5816
(dp5817
g73
(dp5818
sg82
g4337
sg75
(lp5819
g68
(g89
g70
NtRp5820
(dp5821
g73
(dp5822
g93
g94
ssg82
g5816
sg75
(lp5823
S'session_locked'
p5824
asbag68
(g89
g70
NtRp5825
(dp5826
g73
(dp5827
g100
g101
ssg82
g5816
sg75
(lp5828
S':'
asbag68
(g89
g70
NtRp5829
(dp5830
g73
(dp5831
sg82
g5816
sg75
(lp5832
g68
(g69
g70
NtRp5833
(dp5834
g73
(dp5835
g81
I5
ssg82
g5829
sg75
(lp5836
g2394
asbasbasbag68
(g84
g70
NtRp5837
(dp5838
g73
(dp5839
sg82
g4337
sg75
(lp5840
g68
(g89
g70
NtRp5841
(dp5842
g73
(dp5843
g93
g94
ssg82
g5837
sg75
(lp5844
S'session_new'
p5845
asbag68
(g89
g70
NtRp5846
(dp5847
g73
(dp5848
g100
g101
ssg82
g5837
sg75
(lp5849
S':'
asbag68
(g89
g70
NtRp5850
(dp5851
g73
(dp5852
sg82
g5837
sg75
(lp5853
g68
(g69
g70
NtRp5854
(dp5855
g73
(dp5856
g81
I5
ssg82
g5850
sg75
(lp5857
g111
asbasbasbag68
(g84
g70
NtRp5858
(dp5859
g73
(dp5860
sg82
g4337
sg75
(lp5861
g68
(g89
g70
NtRp5862
(dp5863
g73
(dp5864
g93
g94
ssg82
g5858
sg75
(lp5865
S'session_storage_type'
p5866
asbag68
(g89
g70
NtRp5867
(dp5868
g73
(dp5869
g100
g101
ssg82
g5858
sg75
(lp5870
S':'
asbag68
(g89
g70
NtRp5871
(dp5872
g73
(dp5873
sg82
g5858
sg75
(lp5874
g68
(g69
g70
NtRp5875
(dp5876
g73
(dp5877
g81
I5
ssg82
g5871
sg75
(lp5878
g3867
asbasbasbag68
(g84
g70
NtRp5879
(dp5880
g73
(dp5881
sg82
g4337
sg75
(lp5882
g68
(g89
g70
NtRp5883
(dp5884
g73
(dp5885
g93
g94
ssg82
g5879
sg75
(lp5886
S'status'
p5887
asbag68
(g89
g70
NtRp5888
(dp5889
g73
(dp5890
g100
g101
ssg82
g5879
sg75
(lp5891
S':'
asbag68
(g89
g70
NtRp5892
(dp5893
g73
(dp5894
sg82
g5879
sg75
(lp5895
g68
(g69
g70
NtRp5896
(dp5897
g73
(dp5898
g81
I5
ssg82
g5892
sg75
(lp5899
S'200'
p5900
asbasbasbag68
(g84
g70
NtRp5901
(dp5902
g73
(dp5903
sg82
g4337
sg75
(lp5904
g68
(g89
g70
NtRp5905
(dp5906
g73
(dp5907
g93
g94
ssg82
g5901
sg75
(lp5908
S'subtitle'
p5909
asbag68
(g89
g70
NtRp5910
(dp5911
g73
(dp5912
g100
g101
ssg82
g5901
sg75
(lp5913
S':'
asbag68
(g89
g70
NtRp5914
(dp5915
g73
(dp5916
sg82
g5901
sg75
(lp5917
g68
(g69
g70
NtRp5918
(dp5919
g73
(dp5920
g81
I5
ssg82
g5914
sg75
(lp5921
g4864
(S's\r\x00\x00\x00customize me!'
tRp5922
asbasbasbag68
(g84
g70
NtRp5923
(dp5924
g73
(dp5925
sg82
g4337
sg75
(lp5926
g68
(g89
g70
NtRp5927
(dp5928
g73
(dp5929
g93
g94
ssg82
g5923
sg75
(lp5930
S'title'
p5931
asbag68
(g89
g70
NtRp5932
(dp5933
g73
(dp5934
g100
g101
ssg82
g5923
sg75
(lp5935
S':'
asbag68
(g89
g70
NtRp5936
(dp5937
g73
(dp5938
sg82
g5923
sg75
(lp5939
g68
(g69
g70
NtRp5940
(dp5941
g73
(dp5942
g81
I5
ssg82
g5936
sg75
(lp5943
S'Buysell'
p5944
asbasbasbag68
(g84
g70
NtRp5945
(dp5946
g73
(dp5947
sg82
g4337
sg75
(lp5948
g68
(g89
g70
NtRp5949
(dp5950
g73
(dp5951
g93
g94
ssg82
g5945
sg75
(lp5952
S'view'
p5953
asbag68
(g89
g70
NtRp5954
(dp5955
g73
(dp5956
g100
g101
ssg82
g5945
sg75
(lp5957
S':'
asbag68
(g89
g70
NtRp5958
(dp5959
g73
(dp5960
sg82
g5945
sg75
(lp5961
g68
(g69
g70
NtRp5962
(dp5963
g73
(dp5964
g81
I5
ssg82
g5958
sg75
(lp5965
S'default/seller.html'
p5966
asbasbasbasbasbsS'locals'
p5967
(dp5968
g4
S"'/home/pratyush/web2py/applications/BuySell/controllers/default.py'"
p5969
sg6
S"'# -*- coding: utf-8 -*-\\n# this file is released ...=seller)\\nresponse._vars=response._caller(seller)\\n'"
p5970
sssS'traceback'
p5971
S'Traceback (most recent call last):\n  File "/home/pratyush/web2py/gluon/restricted.py", line 211, in restricted\n    ccode = compile2(code, layer)\n  File "/home/pratyush/web2py/gluon/restricted.py", line 194, in compile2\n    return compile(code.rstrip().replace(\'\\r\\n\', \'\\n\') + \'\\n\', layer, \'exec\')\n  File "/home/pratyush/web2py/applications/BuySell/controllers/default.py", line 115\n    else\n       ^\nSyntaxError: invalid syntax\n'
p5972
s.